(dp1
S'output'
p2
S"<type 'exceptions.AttributeError'> 'Row' object has no attribute 'liked'"
p3
sS'layer'
p4
S'/home/umang/web2py/applications/assignmen3/controllers/default.py'
p5
sS'code'
p6
S'# -*- coding: utf-8 -*-\n# this file is released under public domain and you can use without limitations\n\n#########################################################################\n## This is a samples controller\n## - index is the default action of any application\n## - user is required for authentication and authorization\n## - download is for downloading files uploaded in the db (does streaming)\n## - call exposes all registered services (none by default)\n#########################################################################\nimport datetime\n\ndef index():\n    """\n    example action using the internationalization operator T and flash\n    rendered by views/default/index.html or views/generic.html\n\n    if you need a simple wiki simple replace the two lines below with:\n    return auth.wiki()\n    """\n    redirect(URL(r=request,f=\'no_catg\'))\n    #query=db(db.category.name==\'New\').select(db.category.id)\n    #redirect(URL(r=request, f=\'first_page\',args=[int(query[0].id)]))\n\n@auth.requires_login()\ndef login_to_account():\n\tar=db((db.auth_membership.user_id==auth.user_id) & (db.auth_group.id==db.auth_membership.group_id)).select(db.auth_group.role)\n\tif(len(ar)==0):\n\t\tredirect(URL(r=request,f=\'user\'))\n\telif(len(ar)==1):\n\t\tx=db(db.auth_group.role==\'normal\').select(db.auth_group.id)\n\t\tdb.auth_membership.insert(user_id=auth.user_id,group_id=x[0][\'id\'])\n    \t\tquery=db(db.category.name==\'New\').select(db.category.id)\n    \t\tredirect(URL(r=request, f=\'login_normal\',args=[int(query[0].id)]))\n\telif(ar[1][\'role\']==\'normal\'):\n    \t\tquery=db(db.category.name==\'New\').select(db.category.id)\n    \t\tredirect(URL(r=request, f=\'login_normal\',args=[int(query[0].id)]))\n\telif(ar[1][\'role\']==\'admin\'):\n    \t\tquery=db(db.category.name==\'New\').select(db.category.id)\n    \t\tredirect(URL(r=request, f=\'login_admin\',args=[int(query[0].id)]))\n\ndef login_normal():\n\tquery=int(request.args(0))\n\tdisp=db((db.news.user_id==auth.user_id) & (db.news.category_id==query)).select(db.news.id,db.news.heading,db.news.url,db.news.category_id,db.news.ntype,db.news.rating,db.news.pres_time,orderby=~db.news.rating)\n\tq_comment=db((db.news.category_id==query) & (db.comments.news_id==db.news.id)).select(db.comments.ALL)\n\tcatg=db(db.category.id>0).select(db.category.name,db.category.id)\n\tpres_catg=db(db.category.id==query).select(db.category.name)\n\treturn dict(disp=disp,q_comment=q_comment,catg=catg,pres_catg=pres_catg,query=query)\t\n\ndef login_admin():\n\tquery=int(request.args(0))\n\tdisp=db(db.news.category_id==query).select(db.news.id,db.news.user_name,db.news.heading,db.news.url,db.news.category_id,db.news.ntype,db.news.rating,db.news.pres_time,orderby=~db.news.rating)\n\tq_comment=db((db.news.category_id==query) & (db.comments.news_id==db.news.id)).select(db.comments.ALL)\n\tcatg=db(db.category.id>0).select(db.category.name,db.category.id)\n\tpres_catg=db(db.category.id==query).select(db.category.name)\n\treturn dict(disp=disp,q_comment=q_comment,catg=catg,pres_catg=pres_catg,query=query)\t\n\ndef add_category():\n\tform=SQLFORM(db.category,submit_button="Add",labels={\'name\':\'Enter Category\'})\n\tif form.process().accepted:\n\t\tsession.flash=T(\'Category Added\')\n\t\tredirect(URL(r=request, f=\'login_to_account\'))\n    \telif form.errors:\n       \t\t response.flash=\'Some Error Occured Please Refresh\'\n\treturn dict(form=form)\n\n@auth.requires_login()\ndef edit_news_admin():\n\tnews_id=int(request.args(0))\n\tcatg=int(request.args(1))\n\tflag=int(request.args(2))\n\tform=SQLFORM.factory(\n\t db.Field(\'new_heading\',\'string\',label="Enter Heading"),\n\t db.Field(\'new_url\',\'string\',label="Enter URL",requires=IS_URL()),\n\t db.Field(\'new_type\',\'string\',label="Enter Type",requires=IS_IN_SET(["Text","Video"])),\n\t formstyle=\'divs\',\n\t buttons=[],)\n\tform[0].insert(3,DIV(INPUT(_type=\'submit\',_value=\'Edit IT\')))\n   \tif form.accepts(request.vars,session):\n\t\t# tmp_edit(form.vars.new_heading,form.vars.new_url,form.vars.new_type,news_id,catg,flag)\n\t\tdb(db.news.id==news_id).update(heading=form.vars.new_heading,url=form.vars.new_url,rating=100,ntype=form.vars.new_type)\n\t\tdb(db.rating.news_id==news_id).delete()\n\t\tredirect(URL(r=request,f=\'login_admin\',args=[(int)(catg)]))\n    \telif form.errors:\n       \t\t response.flash=\'Error Occured\'\n\treturn dict(form=form)\n\n@auth.requires_login()\ndef delete_news_admin():\n\tnews_id=int(request.args(0))\n\tcatg=int(request.args(1))\n\tflag=int(request.args(2))\n\tdb(db.news.id==news_id).delete()\n\tsession.flash=T(\'Post Deleted Successfully\')\n\tredirect(URL(r=request,f=\'login_admin\',args=[(int)(catg)]))\n\ndef first_page():\n\tquery=int(request.args(0))\n\tdisp=db(db.news.category_id==query).select(db.news.heading,db.news.url,db.news.rating,db.news.ntype,db.news.id,db.news.pres_time,db.news.user_name,orderby=~db.news.rating)\n\tq_comment=db((db.news.category_id==query) & (db.comments.news_id==db.news.id)).select(db.comments.ALL)\n\tcatg=db(db.category.id>0).select(db.category.name,db.category.id)\n\tpres_catg=db(db.category.id==query).select(db.category.name)\n\tdisp=sorted(disp,key=lambda a:-a[\'rating\'])\n\t"""\n\tform=SQLFORM.factory(\n\t db.Field(\'comm_body\',\'string\',label=""),\n\t formstyle=\'divs\',\n\t buttons=[],)\n   \tform[0].insert(1,DIV(INPUT(_type=\'submit\',_value=\'Post\')))\n   \tif form.accepts(request.vars,session):\n        \t insert_comment(form.vars.comm_body,auth.user_id,query)\n    \telif form.errors:\n        \t response.flash=\'Some Error Occured Please Refresh\'\n    \t"""\n\treturn dict(query=query,disp=disp,q_comment=q_comment,catg=catg,pres_catg=pres_catg)\n\ndef no_catg():\n\tdisp=db(db.news.id>0).select(db.news.ALL,orderby=~db.news.rating)\n\tq_comment=db(db.comments.id>0).select(db.comments.ALL)\n\tcatg=db(db.category.id>0).select(db.category.name,db.category.id)\n\treturn dict(disp=disp,q_comment=q_comment,catg=catg)\n\ndef latest():\n\tdisp=db(db.news.id>0).select(db.news.ALL,orderby=~db.news.pres_time)\n\tq_comment=db(db.comments.id>0).select(db.comments.body,db.comments.commentor)\n\tcatg=db(db.category.id>0).select(db.category.name,db.category.id)\n\treturn dict(disp=disp,q_comment=q_comment,catg=catg)\n\n@auth.requires_login()\ndef add_news():\n\tcatg=int(request.args(0))\n\tflag=int(request.args(1))\n\tname=db(db.auth_user.id==auth.user_id).select(db.auth_user.first_name,db.auth_user.last_name)\n\tdb.news.pres_time.default=datetime.datetime.now().ctime()\n\tdb.news.pres_time.readable=False\n\tdb.news.pres_time.writable=False\n\tdb.news.category_id.default=catg\n\tdb.news.category_id.readable=False\n\tdb.news.category_id.writable=False\n\tdb.news.user_id.default=auth.user_id\n\tdb.news.user_id.writable=False\n\tdb.news.user_id.readable=False\n\tdb.news.rating.default=100\n\tdb.news.rating.writable=False\n\tdb.news.rating.readable=False\n\tdb.news.user_name.default=name[0].first_name+" "+name[0].last_name\n\tdb.news.user_name.readable=False\n\tdb.news.user_name.writable=False\n\tform=SQLFORM(db.news,submit_button="Post",labels={\'ntype\':\'Post Type\'})\n\tif form.process().accepted:\n\t\tif(flag==0):\n\t\t\tsession.flash=T(\'Post Added\')\n\t        \tredirect(URL(r=request, f=\'first_page\',args=[int(catg)]))\n\t\telse :\n\t\t\tsession.flash=T(\'Post Added\')\n\t\t\tredirect(URL(r=request, f=\'login_to_account\'))\n\t\t#redirect(URL(r=request,f=\'first_page?query=%s\' % catg))\n\telif form.errors:\n\t\tresponse.flash="Error posting it"\n\treturn dict(form=form)\n\n@auth.requires_login()\ndef like():\n\tnews_id=int(request.args(0))\n\tcatg=int(request.args(1))\n\tflag=int(request.args(2))\n\tar=db(db.news.id==news_id).select(db.news.rating)\n\tquery=db((db.rating.news_id==news_id) & (db.rating.rater_id==auth.user_id)).select(db.rating.liked,db.rating.disliked)\n\t"""\n\tif((len(query)==0) or (query[0].liked==0)):\n\t\tdb(db.news.id==news_id).update(rating=ar[0].rating+5)\n\t\tflag=2\n\t\tif(len(query)==0):\n\t\t\tdb.rating.insert(news_id=news_id,rater_id=auth.user_id,liked=1,disliked=0)\n\t\telse:\n\t\t\tflag=3\n\t\t\tdb((db.rating.news_id==news_id) & (db.rating.rater_id==auth.user_id)).update(liked=1)\n\t#redirect(URL(r=request, f=\'first_page\',args=[int(catg)]))\n\treturn dict(query=query,flag=flag)\n\t"""\n\tif(len(query)==0):\n\t\tdb(db.news.id==news_id).update(rating=ar[0].rating+5)\n\t\tdb.rating.insert(news_id=news_id,rater_id=auth.user_id,liked=1,disliked=0)\n\t\tsession.flash=T(\'You Voted Up\')\n\tif(len(query)!=0):\n\t\tif(int(query[0].liked)==1):\n\t\t\tdb(db.news.id==news_id).update(rating=ar[0].rating-5)\n\t\t\tdb((db.rating.news_id==news_id) & (db.rating.rater_id==auth.user_id)).update(liked=0)\n\t\t\tsession.flash=T(\'You Unliked It\')\n\t\tif(int(query[0].liked)==0 and int(query[0].disliked)==0):\n\t\t\tdb(db.news.id==news_id).update(rating=ar[0].rating+5)\n\t\t\tdb((db.rating.news_id==news_id) & (db.rating.rater_id==auth.user_id)).update(liked=1)\n\t\t\tsession.flash=T(\'You Again Liked It\')\n\tif(flag==0):\n\t\tredirect(URL(r=request, f=\'first_page\',args=[int(catg)]))\n\telse :\n\t\tredirect(URL(r=request, f=\'login_to_account\'))\n\n\n@auth.requires_login()\ndef dislike():\n\tnews_id=int(request.args(0))\n\tcatg=int(request.args(1))\n\tflag=int(request.args(2))\n\tar=db(db.news.id==news_id).select(db.news.rating)\n\tquery=db((db.rating.news_id==news_id) & (db.rating.rater_id==auth.user_id)).select(db.rating.disliked)\n\tif(len(query)==0):\n\t\tdb(db.news.id==news_id).update(rating=ar[0].rating-3)\n\t\tdb.rating.insert(news_id=news_id,rater_id=auth.user_id,liked=0,disliked=1)\n\t\tsession.flash=T(\'You Voted Down\')\n\tif(len(query)!=0):\n\t\tif(int(query[0].disliked)==1):\n\t\t\tdb(db.news.id==news_id).update(rating=ar[0].rating+3)\n\t\t\tdb((db.rating.news_id==news_id) & (db.rating.rater_id==auth.user_id)).update(disliked=0)\n\t\t\tsession.flash=T(\'You Unliked It\')\n\t\tif(int(query[0].disliked)==0 and int(query[0].liked)==0):\n\t\t\tdb(db.news.id==news_id).update(rating=ar[0].rating-3)\n\t\t\tdb((db.rating.news_id==news_id) & (db.rating.rater_id==auth.user_id)).update(disliked=1)\n\t\t\tsession.flash=T(\'You Again Liked It\')\n\tif(flag==0):\n\t\tredirect(URL(r=request,f=\'first_page\',args=[(int)(catg)]))\n\telse :\n\t\tredirect(URL(r=request, f=\'login_to_account\'))\n\t#return dict(query=query)\n\n@auth.requires_login()\ndef edit_news():\n\tnews_id=int(request.args(0))\n\tcatg=int(request.args(1))\n\tflag=int(request.args(2))\n\tquery=db((db.news.id==news_id) & (db.news.user_id==auth.user_id)).select(db.news.heading)\n\tif(len(query)==0):\n\t\tredirect(URL(r=request,f=\'first_page\',args=[(int)(catg)]))\n\telse :\n\t\tform=SQLFORM.factory(\n\t\t db.Field(\'new_heading\',\'string\',label="Enter Heading"),\n\t\t db.Field(\'new_url\',\'string\',label="Enter URL",requires=IS_URL()),\n\t\t db.Field(\'new_type\',\'string\',label="Enter Type",requires=IS_IN_SET(["Text","Video"])),\n\t\t formstyle=\'divs\',\n\t\t buttons=[],)\n   \t\tform[0].insert(3,DIV(INPUT(_type=\'submit\',_value=\'Edit IT\')))\n\t   \tif form.accepts(request.vars,session):\n        \t\t tmp_edit(form.vars.new_heading,form.vars.new_url,form.vars.new_type,news_id,catg,flag)\n\t    \telif form.errors:\n        \t\t response.flash=\'Some Error Occured Please Refresh\'\n\t\treturn dict(form=form)\n\n@auth.requires_login()\ndef tmp_edit(new_heading,new_url,new_type,news_id,catg,flag):\n\tdb(db.news.id==news_id).update(heading=new_heading,url=new_url,rating=100,ntype=new_type)\n\tdb(db.rating.news_id==news_id).delete()\n\tif(flag==0):\n\t\tsession.flash=T(\'Post Edited Successfully\')\n\t\tredirect(URL(r=request,f=\'first_page\',args=[(int)(catg)]))\n\telse :\n\t\tsession.flash=T(\'Post Edited Successfully\')\n\t\tredirect(URL(r=request, f=\'login_to_account\'))\n\n@auth.requires_login()\ndef delete_news():\n\tnews_id=int(request.args(0))\n\tcatg=int(request.args(1))\n\tflag=int(request.args(2))\n\tquery=db((db.news.id==news_id) & (db.news.user_id==auth.user_id)).select(db.news.id)\n\tif(len(query)>0):\n\t\tdb((db.news.id==news_id) & (db.news.user_id==auth.user_id)).delete()\n\t\tdb(db.rating.news_id==news_id).delete()\n\t\tdb(db.comments.news_id==news_id).delete()\n\t\tsession.flash=T(\'Post Deleted Successfully\')\n\tif(flag==0):\n\t\tredirect(URL(r=request,f=\'first_page\',args=[(int)(catg)]))\n\telse :\n\t\tsession.flash=T(\'Post Deleted Successfully\')\n\t\tredirect(URL(r=request, f=\'login_to_account\'))\n\ndef delete_catg():\n\tform=SQLFORM.factory(\n\t db.Field(\'catg_id\',\'int\',label="Choose Category",requires=IS_IN_DB(db,\'category.id\',\'category.name\')),\n\t formstyle=\'divs\',\n\t buttons=[],)\n   \tform[0].insert(1,DIV(INPUT(_type=\'submit\',_value=\'Delete It\')))\n\tif form.accepts(request.vars,session):\n\t\tquery=db(db.news.category_id==form.vars.catg_id).select(db.news.id)\n\t\tfor x in query:\n\t\t\tdb(db.rating.news_id==x.id).delete()\n\t\t\tdb(db.news.id==x.id).delete()\n\t\tdb(db.category.id==form.vars.catg_id).delete()\n\t\tsession.flash=T(\'Category Deleted\')\n\t\tredirect(URL(r=request, f=\'no_catg\'))\n\t\t#tmp_edit(form.vars.new_heading,form.vars.new_url,form.vars.new_type,news_id,catg,flag)\n  \telif form.errors:\n       \t\t response.flash=\'Some Error Occured Please Refresh\'\n\treturn dict(form=form)\n\n@auth.requires_login()\ndef insert_comment():\n\tcatg_id=int(request.args(1))\n\tnews_id1=(int)(request.args(0))\n\tflag=int(request.args(2))\n\tdb.comments.comm_time.default=datetime.datetime.now().ctime()\n\tdb.comments.comm_time.readable=False\n\tdb.comments.comm_time.writable=False\n\tdb.comments.commentor.default=auth.user_id\n\tdb.comments.commentor.readable=False\n\tdb.comments.commentor.writable=False\n\tdb.comments.news_id.default=news_id1\n\tdb.comments.news_id.readable=False\n\tdb.comments.news_id.writable=False\n\tform=SQLFORM(db.comments,submit_button="Comment",labels={\'body\':\'Your Comment\'})\n\tif form.process().accepted:\n\t\tif(flag==0):\n\t\t\tsession.flash=T(\'Comment Inserted\')\n\t        \tredirect(URL(r=request, f=\'first_page\',args=[int(catg_id)]))\n\t\telse :\n\t\t\tsession.flash=T(\'Comment Inserted\')\n\t\t\tredirect(URL(r=request, f=\'login_to_account\'))\n\t\t#redirect(URL(r=request,f=\'first_page?query=%s\' % catg))\n\telif form.errors:\n\t\tresponse.flash="Error posting it"\n\treturn dict(form=form)\n\ndef delete_user():\n\tcatg_id=int(request.args(0))\n\tform=SQLFORM.factory(\n\t db.Field(\'user_id\',\'int\',label="Choose User",requires=IS_IN_DB(db,\'auth_user.id\',\'auth_user.first_name\')),\n\t formstyle=\'divs\',\n\t buttons=[],)\n   \tform[0].insert(1,DIV(INPUT(_type=\'submit\',_value=\'Delete\')))\n\tif form.accepts(request.vars,session):\n\t\tquery=db(db.rating.rater_id==form.vars.user_id).select(db.rating.ALL)\n\t\tfor y in query:\n\t\t\tif(y.liked==1):\n\t\t\t\tq2=db(db.news.id==y.news_id).select(db.news.rating)\n\t\t\t\tdb(db.news.id==y.news_id).update(rating=q2[0].rating-5)\n\t\t\tif(y.disliked==1):\n\t\t\t\tq2=db(db.news.id==y.news_id).select(db.news.rating)\n\t\t\t\tdb(db.news.id==y.news_id).update(rating=q2[0].rating+3)\n\t\tquery=db(db.news.user_id==form.vars.user_id).select(db.news.ALL)\n\t\tfor x in query:\n\t\t\tdb(db.comments.news_id==x.id).delete()\n\t\tdb(db.news.user_id==form.vars.user_id).delete()\n\t\tdb(db.auth_membership.user_id==form.vars.user_id).delete()\n\t\tdb(db.auth_user.id==form.vars.user_id).delete()\n\t\tsession.flash=T(\'User Deleted\')\n\t\tredirect(URL(r=request, f=\'login_admin\',args=[int(catg_id)]))\n\telif form.errors:\n\t\tresponse.flash="Error posting it"\n\treturn dict(form=form)\n\ndef user():\n    """\n    exposes:\n    http://..../[app]/default/user/login\n    http://..../[app]/default/user/logout\n    http://..../[app]/default/user/register\n    http://..../[app]/default/user/profile\n    http://..../[app]/default/user/retrieve_password\n    http://..../[app]/default/user/change_password\n    use @auth.requires_login()\n        @auth.requires_membership(\'group name\')\n        @auth.requires_permission(\'read\',\'table name\',record_id)\n    to decorate functions that need access control\n    """\n    return dict(form=auth())\n\n\ndef download():\n    """\n    allows downloading of uploaded files\n    http://..../[app]/default/download/[filename]\n    """\n    return response.download(request, db)\n\n\ndef call():\n    """\n    exposes services. for example:\n    http://..../[app]/default/call/jsonrpc\n    decorate with @services.jsonrpc the functions to expose\n    supports xml, json, xmlrpc, jsonrpc, amfrpc, rss, csv\n    """\n    return service()\n\n\n@auth.requires_signature()\ndef data():\n    """\n    http://..../[app]/default/data/tables\n    http://..../[app]/default/data/create/[table]\n    http://..../[app]/default/data/read/[table]/[id]\n    http://..../[app]/default/data/update/[table]/[id]\n    http://..../[app]/default/data/delete/[table]/[id]\n    http://..../[app]/default/data/select/[table]\n    http://..../[app]/default/data/search/[table]\n    but URLs must be signed, i.e. linked with\n      A(\'table\',_href=URL(\'data/tables\',user_signature=True))\n    or with the signed load operator\n      LOAD(\'default\',\'data.load\',args=\'tables\',ajax=True,user_signature=True)\n    """\n    return dict(form=crud())\n\nresponse._vars=response._caller(dislike)\n'
p7
sS'snapshot'
p8
(dp9
S'exception'
p10
(dp11
S'__hash__'
p12
S"<method-wrapper '__hash__' of exceptions.AttributeError object>"
p13
sS'__setattr__'
p14
S"<method-wrapper '__setattr__' of exceptions.AttributeError object>"
p15
sS'__reduce_ex__'
p16
S'<built-in method __reduce_ex__ of exceptions.AttributeError object>'
p17
sS'__getslice__'
p18
S"<method-wrapper '__getslice__' of exceptions.AttributeError object>"
p19
sS'__getitem__'
p20
S"<method-wrapper '__getitem__' of exceptions.AttributeError object>"
p21
sS'__setstate__'
p22
S'<built-in method __setstate__ of exceptions.AttributeError object>'
p23
sS'args'
p24
S'("\'Row\' object has no attribute \'liked\'",)'
p25
sS'__reduce__'
p26
S'<built-in method __reduce__ of exceptions.AttributeError object>'
p27
sS'__str__'
p28
S"<method-wrapper '__str__' of exceptions.AttributeError object>"
p29
sS'__format__'
p30
S'<built-in method __format__ of exceptions.AttributeError object>'
p31
sS'__getattribute__'
p32
S"<method-wrapper '__getattribute__' of exceptions.AttributeError object>"
p33
sS'__class__'
p34
S"<type 'exceptions.AttributeError'>"
p35
sS'__unicode__'
p36
S'<built-in method __unicode__ of exceptions.AttributeError object>'
p37
sS'__delattr__'
p38
S"<method-wrapper '__delattr__' of exceptions.AttributeError object>"
p39
sS'__subclasshook__'
p40
S'<built-in method __subclasshook__ of type object>'
p41
sS'__repr__'
p42
S"<method-wrapper '__repr__' of exceptions.AttributeError object>"
p43
sS'__dict__'
p44
S'{}'
p45
sS'__sizeof__'
p46
S'<built-in method __sizeof__ of exceptions.AttributeError object>'
p47
sS'__doc__'
p48
S"'Attribute not found.'"
p49
sS'__init__'
p50
S"<method-wrapper '__init__' of exceptions.AttributeError object>"
p51
sS'__new__'
p52
S'<built-in method __new__ of type object>'
p53
ssS'evalue'
p54
S"'Row' object has no attribute 'liked'"
p55
sS'request'
p56
ccopy_reg
_reconstructor
p57
(cgluon.html
BEAUTIFY
p58
c__builtin__
object
p59
NtRp60
(dp61
S'attributes'
p62
(dp63
sS'components'
p64
(lp65
g57
(cgluon.html
TABLE
p66
g59
NtRp67
(dp68
g62
(dp69
S'level'
p70
I5
ssS'parent'
p71
Nsg64
(lp72
g57
(cgluon.html
TR
p73
g59
NtRp74
(dp75
g62
(dp76
sg71
g67
sg64
(lp77
g57
(cgluon.html
TD
p78
g59
NtRp79
(dp80
g62
(dp81
S'_style'
p82
S'font-weight:bold;vertical-align:top'
p83
ssg71
g74
sg64
(lp84
S'ajax'
p85
asbag57
(g78
g59
NtRp86
(dp87
g62
(dp88
S'_valign'
p89
S'top'
p90
ssg71
g74
sg64
(lp91
S':'
asbag57
(g78
g59
NtRp92
(dp93
g62
(dp94
sg71
g74
sg64
(lp95
g57
(g58
g59
NtRp96
(dp97
g62
(dp98
g70
I5
ssg71
g92
sg64
(lp99
S'False'
p100
asbasbasbag57
(g73
g59
NtRp101
(dp102
g62
(dp103
sg71
g67
sg64
(lp104
g57
(g78
g59
NtRp105
(dp106
g62
(dp107
g82
g83
ssg71
g101
sg64
(lp108
S'application'
p109
asbag57
(g78
g59
NtRp110
(dp111
g62
(dp112
g89
g90
ssg71
g101
sg64
(lp113
S':'
asbag57
(g78
g59
NtRp114
(dp115
g62
(dp116
sg71
g101
sg64
(lp117
g57
(g58
g59
NtRp118
(dp119
g62
(dp120
g70
I5
ssg71
g114
sg64
(lp121
S'assignmen3'
p122
asbasbasbag57
(g73
g59
NtRp123
(dp124
g62
(dp125
sg71
g67
sg64
(lp126
g57
(g78
g59
NtRp127
(dp128
g62
(dp129
g82
g83
ssg71
g123
sg64
(lp130
g24
asbag57
(g78
g59
NtRp131
(dp132
g62
(dp133
g89
g90
ssg71
g123
sg64
(lp134
S':'
asbag57
(g78
g59
NtRp135
(dp136
g62
(dp137
sg71
g123
sg64
(lp138
g57
(g58
g59
NtRp139
(dp140
g62
(dp141
g70
I5
ssg71
g135
sg64
(lp142
g57
(g66
g59
NtRp143
(dp144
g62
(dp145
g70
I4
ssg71
Nsg64
(lp146
g57
(g73
g59
NtRp147
(dp148
g62
(dp149
sg71
g143
sg64
(lp150
g57
(g78
g59
NtRp151
(dp152
g62
(dp153
sg71
g147
sg64
(lp154
g57
(g58
g59
NtRp155
(dp156
g62
(dp157
g70
I4
ssg71
g151
sg64
(lp158
S'16'
p159
asbasbasbag57
(g73
g59
NtRp160
(dp161
g62
(dp162
sg71
g143
sg64
(lp163
g57
(g78
g59
NtRp164
(dp165
g62
(dp166
sg71
g160
sg64
(lp167
g57
(g58
g59
NtRp168
(dp169
g62
(dp170
g70
I4
ssg71
g164
sg64
(lp171
S'2'
asbasbasbag57
(g73
g59
NtRp172
(dp173
g62
(dp174
sg71
g143
sg64
(lp175
g57
(g78
g59
NtRp176
(dp177
g62
(dp178
sg71
g172
sg64
(lp179
g57
(g58
g59
NtRp180
(dp181
g62
(dp182
g70
I4
ssg71
g176
sg64
(lp183
S'0'
asbasbasbasbasbasbasbag57
(g73
g59
NtRp184
(dp185
g62
(dp186
sg71
g67
sg64
(lp187
g57
(g78
g59
NtRp188
(dp189
g62
(dp190
g82
g83
ssg71
g184
sg64
(lp191
S'body'
p192
asbag57
(g78
g59
NtRp193
(dp194
g62
(dp195
g89
g90
ssg71
g184
sg64
(lp196
S':'
asbag57
(g78
g59
NtRp197
(dp198
g62
(dp199
sg71
g184
sg64
(lp200
g57
(g58
g59
NtRp201
(dp202
g62
(dp203
g70
I5
ssg71
g197
sg64
(lp204
S'<cStringIO.StringO object at 0x1cf9998>'
p205
asbasbasbag57
(g73
g59
NtRp206
(dp207
g62
(dp208
sg71
g67
sg64
(lp209
g57
(g78
g59
NtRp210
(dp211
g62
(dp212
g82
g83
ssg71
g206
sg64
(lp213
S'cid'
p214
asbag57
(g78
g59
NtRp215
(dp216
g62
(dp217
g89
g90
ssg71
g206
sg64
(lp218
S':'
asbag57
(g78
g59
NtRp219
(dp220
g62
(dp221
sg71
g206
sg64
(lp222
g57
(g58
g59
NtRp223
(dp224
g62
(dp225
g70
I5
ssg71
g219
sg64
(lp226
S'None'
p227
asbasbasbag57
(g73
g59
NtRp228
(dp229
g62
(dp230
sg71
g67
sg64
(lp231
g57
(g78
g59
NtRp232
(dp233
g62
(dp234
g82
g83
ssg71
g228
sg64
(lp235
S'client'
p236
asbag57
(g78
g59
NtRp237
(dp238
g62
(dp239
g89
g90
ssg71
g228
sg64
(lp240
S':'
asbag57
(g78
g59
NtRp241
(dp242
g62
(dp243
sg71
g228
sg64
(lp244
g57
(g58
g59
NtRp245
(dp246
g62
(dp247
g70
I5
ssg71
g241
sg64
(lp248
S'127.0.0.1'
p249
asbasbasbag57
(g73
g59
NtRp250
(dp251
g62
(dp252
sg71
g67
sg64
(lp253
g57
(g78
g59
NtRp254
(dp255
g62
(dp256
g82
g83
ssg71
g250
sg64
(lp257
S'controller'
p258
asbag57
(g78
g59
NtRp259
(dp260
g62
(dp261
g89
g90
ssg71
g250
sg64
(lp262
S':'
asbag57
(g78
g59
NtRp263
(dp264
g62
(dp265
sg71
g250
sg64
(lp266
g57
(g58
g59
NtRp267
(dp268
g62
(dp269
g70
I5
ssg71
g263
sg64
(lp270
S'default'
p271
asbasbasbag57
(g73
g59
NtRp272
(dp273
g62
(dp274
sg71
g67
sg64
(lp275
g57
(g78
g59
NtRp276
(dp277
g62
(dp278
g82
g83
ssg71
g272
sg64
(lp279
S'cookies'
p280
asbag57
(g78
g59
NtRp281
(dp282
g62
(dp283
g89
g90
ssg71
g272
sg64
(lp284
S':'
asbag57
(g78
g59
NtRp285
(dp286
g62
(dp287
sg71
g272
sg64
(lp288
g57
(g58
g59
NtRp289
(dp290
g62
(dp291
g70
I5
ssg71
g285
sg64
(lp292
g57
(g66
g59
NtRp293
(dp294
g62
(dp295
g70
I4
ssg71
Nsg64
(lp296
g57
(g73
g59
NtRp297
(dp298
g62
(dp299
sg71
g293
sg64
(lp300
g57
(g78
g59
NtRp301
(dp302
g62
(dp303
g82
g83
ssg71
g297
sg64
(lp304
S'session_id_admin'
p305
asbag57
(g78
g59
NtRp306
(dp307
g62
(dp308
g89
g90
ssg71
g297
sg64
(lp309
S':'
asbag57
(g78
g59
NtRp310
(dp311
g62
(dp312
sg71
g297
sg64
(lp313
g57
(g58
g59
NtRp314
(dp315
g62
(dp316
g70
I4
ssg71
g310
sg64
(lp317
S'127.0.0.1-41c36d9d-031a-44e8-8102-234630b26a7b'
p318
ag57
(g66
g59
NtRp319
(dp320
g62
(dp321
g70
I3
ssg71
Nsg64
(lp322
g57
(g73
g59
NtRp323
(dp324
g62
(dp325
sg71
g319
sg64
(lp326
g57
(g78
g59
NtRp327
(dp328
g62
(dp329
g82
g83
ssg71
g323
sg64
(lp330
S'comment'
p331
asbag57
(g78
g59
NtRp332
(dp333
g62
(dp334
g89
g90
ssg71
g323
sg64
(lp335
S':'
asbag57
(g78
g59
NtRp336
(dp337
g62
(dp338
sg71
g323
sg64
(lp339
g57
(g58
g59
NtRp340
(dp341
g62
(dp342
g70
I3
ssg71
g336
sg64
(lp343
S''
asbasbasbag57
(g73
g59
NtRp344
(dp345
g62
(dp346
sg71
g319
sg64
(lp347
g57
(g78
g59
NtRp348
(dp349
g62
(dp350
g82
g83
ssg71
g344
sg64
(lp351
S'domain'
p352
asbag57
(g78
g59
NtRp353
(dp354
g62
(dp355
g89
g90
ssg71
g344
sg64
(lp356
S':'
asbag57
(g78
g59
NtRp357
(dp358
g62
(dp359
sg71
g344
sg64
(lp360
g57
(g58
g59
NtRp361
(dp362
g62
(dp363
g70
I3
ssg71
g357
sg64
(lp364
S''
asbasbasbag57
(g73
g59
NtRp365
(dp366
g62
(dp367
sg71
g319
sg64
(lp368
g57
(g78
g59
NtRp369
(dp370
g62
(dp371
g82
g83
ssg71
g365
sg64
(lp372
S'expires'
p373
asbag57
(g78
g59
NtRp374
(dp375
g62
(dp376
g89
g90
ssg71
g365
sg64
(lp377
S':'
asbag57
(g78
g59
NtRp378
(dp379
g62
(dp380
sg71
g365
sg64
(lp381
g57
(g58
g59
NtRp382
(dp383
g62
(dp384
g70
I3
ssg71
g378
sg64
(lp385
S''
asbasbasbag57
(g73
g59
NtRp386
(dp387
g62
(dp388
sg71
g319
sg64
(lp389
g57
(g78
g59
NtRp390
(dp391
g62
(dp392
g82
g83
ssg71
g386
sg64
(lp393
S'httponly'
p394
asbag57
(g78
g59
NtRp395
(dp396
g62
(dp397
g89
g90
ssg71
g386
sg64
(lp398
S':'
asbag57
(g78
g59
NtRp399
(dp400
g62
(dp401
sg71
g386
sg64
(lp402
g57
(g58
g59
NtRp403
(dp404
g62
(dp405
g70
I3
ssg71
g399
sg64
(lp406
S''
asbasbasbag57
(g73
g59
NtRp407
(dp408
g62
(dp409
sg71
g319
sg64
(lp410
g57
(g78
g59
NtRp411
(dp412
g62
(dp413
g82
g83
ssg71
g407
sg64
(lp414
S'max-age'
p415
asbag57
(g78
g59
NtRp416
(dp417
g62
(dp418
g89
g90
ssg71
g407
sg64
(lp419
S':'
asbag57
(g78
g59
NtRp420
(dp421
g62
(dp422
sg71
g407
sg64
(lp423
g57
(g58
g59
NtRp424
(dp425
g62
(dp426
g70
I3
ssg71
g420
sg64
(lp427
S''
asbasbasbag57
(g73
g59
NtRp428
(dp429
g62
(dp430
sg71
g319
sg64
(lp431
g57
(g78
g59
NtRp432
(dp433
g62
(dp434
g82
g83
ssg71
g428
sg64
(lp435
S'path'
p436
asbag57
(g78
g59
NtRp437
(dp438
g62
(dp439
g89
g90
ssg71
g428
sg64
(lp440
S':'
asbag57
(g78
g59
NtRp441
(dp442
g62
(dp443
sg71
g428
sg64
(lp444
g57
(g58
g59
NtRp445
(dp446
g62
(dp447
g70
I3
ssg71
g441
sg64
(lp448
S''
asbasbasbag57
(g73
g59
NtRp449
(dp450
g62
(dp451
sg71
g319
sg64
(lp452
g57
(g78
g59
NtRp453
(dp454
g62
(dp455
g82
g83
ssg71
g449
sg64
(lp456
S'secure'
p457
asbag57
(g78
g59
NtRp458
(dp459
g62
(dp460
g89
g90
ssg71
g449
sg64
(lp461
S':'
asbag57
(g78
g59
NtRp462
(dp463
g62
(dp464
sg71
g449
sg64
(lp465
g57
(g58
g59
NtRp466
(dp467
g62
(dp468
g70
I3
ssg71
g462
sg64
(lp469
S''
asbasbasbag57
(g73
g59
NtRp470
(dp471
g62
(dp472
sg71
g319
sg64
(lp473
g57
(g78
g59
NtRp474
(dp475
g62
(dp476
g82
g83
ssg71
g470
sg64
(lp477
S'version'
p478
asbag57
(g78
g59
NtRp479
(dp480
g62
(dp481
g89
g90
ssg71
g470
sg64
(lp482
S':'
asbag57
(g78
g59
NtRp483
(dp484
g62
(dp485
sg71
g470
sg64
(lp486
g57
(g58
g59
NtRp487
(dp488
g62
(dp489
g70
I3
ssg71
g483
sg64
(lp490
S''
asbasbasbasbasbasbasbag57
(g73
g59
NtRp491
(dp492
g62
(dp493
sg71
g293
sg64
(lp494
g57
(g78
g59
NtRp495
(dp496
g62
(dp497
g82
g83
ssg71
g491
sg64
(lp498
S'session_id_assignmen3'
p499
asbag57
(g78
g59
NtRp500
(dp501
g62
(dp502
g89
g90
ssg71
g491
sg64
(lp503
S':'
asbag57
(g78
g59
NtRp504
(dp505
g62
(dp506
sg71
g491
sg64
(lp507
g57
(g58
g59
NtRp508
(dp509
g62
(dp510
g70
I4
ssg71
g504
sg64
(lp511
S'127.0.0.1-280551a1-c43a-433e-9359-4399b67c1e4b'
p512
ag57
(g66
g59
NtRp513
(dp514
g62
(dp515
g70
I3
ssg71
Nsg64
(lp516
g57
(g73
g59
NtRp517
(dp518
g62
(dp519
sg71
g513
sg64
(lp520
g57
(g78
g59
NtRp521
(dp522
g62
(dp523
g82
g83
ssg71
g517
sg64
(lp524
g331
asbag57
(g78
g59
NtRp525
(dp526
g62
(dp527
g89
g90
ssg71
g517
sg64
(lp528
S':'
asbag57
(g78
g59
NtRp529
(dp530
g62
(dp531
sg71
g517
sg64
(lp532
g57
(g58
g59
NtRp533
(dp534
g62
(dp535
g70
I3
ssg71
g529
sg64
(lp536
S''
asbasbasbag57
(g73
g59
NtRp537
(dp538
g62
(dp539
sg71
g513
sg64
(lp540
g57
(g78
g59
NtRp541
(dp542
g62
(dp543
g82
g83
ssg71
g537
sg64
(lp544
g352
asbag57
(g78
g59
NtRp545
(dp546
g62
(dp547
g89
g90
ssg71
g537
sg64
(lp548
S':'
asbag57
(g78
g59
NtRp549
(dp550
g62
(dp551
sg71
g537
sg64
(lp552
g57
(g58
g59
NtRp553
(dp554
g62
(dp555
g70
I3
ssg71
g549
sg64
(lp556
S''
asbasbasbag57
(g73
g59
NtRp557
(dp558
g62
(dp559
sg71
g513
sg64
(lp560
g57
(g78
g59
NtRp561
(dp562
g62
(dp563
g82
g83
ssg71
g557
sg64
(lp564
g373
asbag57
(g78
g59
NtRp565
(dp566
g62
(dp567
g89
g90
ssg71
g557
sg64
(lp568
S':'
asbag57
(g78
g59
NtRp569
(dp570
g62
(dp571
sg71
g557
sg64
(lp572
g57
(g58
g59
NtRp573
(dp574
g62
(dp575
g70
I3
ssg71
g569
sg64
(lp576
S''
asbasbasbag57
(g73
g59
NtRp577
(dp578
g62
(dp579
sg71
g513
sg64
(lp580
g57
(g78
g59
NtRp581
(dp582
g62
(dp583
g82
g83
ssg71
g577
sg64
(lp584
g394
asbag57
(g78
g59
NtRp585
(dp586
g62
(dp587
g89
g90
ssg71
g577
sg64
(lp588
S':'
asbag57
(g78
g59
NtRp589
(dp590
g62
(dp591
sg71
g577
sg64
(lp592
g57
(g58
g59
NtRp593
(dp594
g62
(dp595
g70
I3
ssg71
g589
sg64
(lp596
S''
asbasbasbag57
(g73
g59
NtRp597
(dp598
g62
(dp599
sg71
g513
sg64
(lp600
g57
(g78
g59
NtRp601
(dp602
g62
(dp603
g82
g83
ssg71
g597
sg64
(lp604
g415
asbag57
(g78
g59
NtRp605
(dp606
g62
(dp607
g89
g90
ssg71
g597
sg64
(lp608
S':'
asbag57
(g78
g59
NtRp609
(dp610
g62
(dp611
sg71
g597
sg64
(lp612
g57
(g58
g59
NtRp613
(dp614
g62
(dp615
g70
I3
ssg71
g609
sg64
(lp616
S''
asbasbasbag57
(g73
g59
NtRp617
(dp618
g62
(dp619
sg71
g513
sg64
(lp620
g57
(g78
g59
NtRp621
(dp622
g62
(dp623
g82
g83
ssg71
g617
sg64
(lp624
g436
asbag57
(g78
g59
NtRp625
(dp626
g62
(dp627
g89
g90
ssg71
g617
sg64
(lp628
S':'
asbag57
(g78
g59
NtRp629
(dp630
g62
(dp631
sg71
g617
sg64
(lp632
g57
(g58
g59
NtRp633
(dp634
g62
(dp635
g70
I3
ssg71
g629
sg64
(lp636
S''
asbasbasbag57
(g73
g59
NtRp637
(dp638
g62
(dp639
sg71
g513
sg64
(lp640
g57
(g78
g59
NtRp641
(dp642
g62
(dp643
g82
g83
ssg71
g637
sg64
(lp644
g457
asbag57
(g78
g59
NtRp645
(dp646
g62
(dp647
g89
g90
ssg71
g637
sg64
(lp648
S':'
asbag57
(g78
g59
NtRp649
(dp650
g62
(dp651
sg71
g637
sg64
(lp652
g57
(g58
g59
NtRp653
(dp654
g62
(dp655
g70
I3
ssg71
g649
sg64
(lp656
S''
asbasbasbag57
(g73
g59
NtRp657
(dp658
g62
(dp659
sg71
g513
sg64
(lp660
g57
(g78
g59
NtRp661
(dp662
g62
(dp663
g82
g83
ssg71
g657
sg64
(lp664
g478
asbag57
(g78
g59
NtRp665
(dp666
g62
(dp667
g89
g90
ssg71
g657
sg64
(lp668
S':'
asbag57
(g78
g59
NtRp669
(dp670
g62
(dp671
sg71
g657
sg64
(lp672
g57
(g58
g59
NtRp673
(dp674
g62
(dp675
g70
I3
ssg71
g669
sg64
(lp676
S''
asbasbasbasbasbasbasbag57
(g73
g59
NtRp677
(dp678
g62
(dp679
sg71
g293
sg64
(lp680
g57
(g78
g59
NtRp681
(dp682
g62
(dp683
g82
g83
ssg71
g677
sg64
(lp684
S'session_id_welcome'
p685
asbag57
(g78
g59
NtRp686
(dp687
g62
(dp688
g89
g90
ssg71
g677
sg64
(lp689
S':'
asbag57
(g78
g59
NtRp690
(dp691
g62
(dp692
sg71
g677
sg64
(lp693
g57
(g58
g59
NtRp694
(dp695
g62
(dp696
g70
I4
ssg71
g690
sg64
(lp697
S'127.0.0.1-1dbe701a-e138-4363-9780-6c3aff01f428'
p698
ag57
(g66
g59
NtRp699
(dp700
g62
(dp701
g70
I3
ssg71
Nsg64
(lp702
g57
(g73
g59
NtRp703
(dp704
g62
(dp705
sg71
g699
sg64
(lp706
g57
(g78
g59
NtRp707
(dp708
g62
(dp709
g82
g83
ssg71
g703
sg64
(lp710
g331
asbag57
(g78
g59
NtRp711
(dp712
g62
(dp713
g89
g90
ssg71
g703
sg64
(lp714
S':'
asbag57
(g78
g59
NtRp715
(dp716
g62
(dp717
sg71
g703
sg64
(lp718
g57
(g58
g59
NtRp719
(dp720
g62
(dp721
g70
I3
ssg71
g715
sg64
(lp722
S''
asbasbasbag57
(g73
g59
NtRp723
(dp724
g62
(dp725
sg71
g699
sg64
(lp726
g57
(g78
g59
NtRp727
(dp728
g62
(dp729
g82
g83
ssg71
g723
sg64
(lp730
g352
asbag57
(g78
g59
NtRp731
(dp732
g62
(dp733
g89
g90
ssg71
g723
sg64
(lp734
S':'
asbag57
(g78
g59
NtRp735
(dp736
g62
(dp737
sg71
g723
sg64
(lp738
g57
(g58
g59
NtRp739
(dp740
g62
(dp741
g70
I3
ssg71
g735
sg64
(lp742
S''
asbasbasbag57
(g73
g59
NtRp743
(dp744
g62
(dp745
sg71
g699
sg64
(lp746
g57
(g78
g59
NtRp747
(dp748
g62
(dp749
g82
g83
ssg71
g743
sg64
(lp750
g373
asbag57
(g78
g59
NtRp751
(dp752
g62
(dp753
g89
g90
ssg71
g743
sg64
(lp754
S':'
asbag57
(g78
g59
NtRp755
(dp756
g62
(dp757
sg71
g743
sg64
(lp758
g57
(g58
g59
NtRp759
(dp760
g62
(dp761
g70
I3
ssg71
g755
sg64
(lp762
S''
asbasbasbag57
(g73
g59
NtRp763
(dp764
g62
(dp765
sg71
g699
sg64
(lp766
g57
(g78
g59
NtRp767
(dp768
g62
(dp769
g82
g83
ssg71
g763
sg64
(lp770
g394
asbag57
(g78
g59
NtRp771
(dp772
g62
(dp773
g89
g90
ssg71
g763
sg64
(lp774
S':'
asbag57
(g78
g59
NtRp775
(dp776
g62
(dp777
sg71
g763
sg64
(lp778
g57
(g58
g59
NtRp779
(dp780
g62
(dp781
g70
I3
ssg71
g775
sg64
(lp782
S''
asbasbasbag57
(g73
g59
NtRp783
(dp784
g62
(dp785
sg71
g699
sg64
(lp786
g57
(g78
g59
NtRp787
(dp788
g62
(dp789
g82
g83
ssg71
g783
sg64
(lp790
g415
asbag57
(g78
g59
NtRp791
(dp792
g62
(dp793
g89
g90
ssg71
g783
sg64
(lp794
S':'
asbag57
(g78
g59
NtRp795
(dp796
g62
(dp797
sg71
g783
sg64
(lp798
g57
(g58
g59
NtRp799
(dp800
g62
(dp801
g70
I3
ssg71
g795
sg64
(lp802
S''
asbasbasbag57
(g73
g59
NtRp803
(dp804
g62
(dp805
sg71
g699
sg64
(lp806
g57
(g78
g59
NtRp807
(dp808
g62
(dp809
g82
g83
ssg71
g803
sg64
(lp810
g436
asbag57
(g78
g59
NtRp811
(dp812
g62
(dp813
g89
g90
ssg71
g803
sg64
(lp814
S':'
asbag57
(g78
g59
NtRp815
(dp816
g62
(dp817
sg71
g803
sg64
(lp818
g57
(g58
g59
NtRp819
(dp820
g62
(dp821
g70
I3
ssg71
g815
sg64
(lp822
S''
asbasbasbag57
(g73
g59
NtRp823
(dp824
g62
(dp825
sg71
g699
sg64
(lp826
g57
(g78
g59
NtRp827
(dp828
g62
(dp829
g82
g83
ssg71
g823
sg64
(lp830
g457
asbag57
(g78
g59
NtRp831
(dp832
g62
(dp833
g89
g90
ssg71
g823
sg64
(lp834
S':'
asbag57
(g78
g59
NtRp835
(dp836
g62
(dp837
sg71
g823
sg64
(lp838
g57
(g58
g59
NtRp839
(dp840
g62
(dp841
g70
I3
ssg71
g835
sg64
(lp842
S''
asbasbasbag57
(g73
g59
NtRp843
(dp844
g62
(dp845
sg71
g699
sg64
(lp846
g57
(g78
g59
NtRp847
(dp848
g62
(dp849
g82
g83
ssg71
g843
sg64
(lp850
g478
asbag57
(g78
g59
NtRp851
(dp852
g62
(dp853
g89
g90
ssg71
g843
sg64
(lp854
S':'
asbag57
(g78
g59
NtRp855
(dp856
g62
(dp857
sg71
g843
sg64
(lp858
g57
(g58
g59
NtRp859
(dp860
g62
(dp861
g70
I3
ssg71
g855
sg64
(lp862
S''
asbasbasbasbasbasbasbasbasbasbasbag57
(g73
g59
NtRp863
(dp864
g62
(dp865
sg71
g67
sg64
(lp866
g57
(g78
g59
NtRp867
(dp868
g62
(dp869
g82
g83
ssg71
g863
sg64
(lp870
S'env'
p871
asbag57
(g78
g59
NtRp872
(dp873
g62
(dp874
g89
g90
ssg71
g863
sg64
(lp875
S':'
asbag57
(g78
g59
NtRp876
(dp877
g62
(dp878
sg71
g863
sg64
(lp879
g57
(g58
g59
NtRp880
(dp881
g62
(dp882
g70
I5
ssg71
g876
sg64
(lp883
g57
(g66
g59
NtRp884
(dp885
g62
(dp886
g70
I4
ssg71
Nsg64
(lp887
g57
(g73
g59
NtRp888
(dp889
g62
(dp890
sg71
g884
sg64
(lp891
g57
(g78
g59
NtRp892
(dp893
g62
(dp894
g82
g83
ssg71
g888
sg64
(lp895
S'app_folders'
p896
asbag57
(g78
g59
NtRp897
(dp898
g62
(dp899
g89
g90
ssg71
g888
sg64
(lp900
S':'
asbag57
(g78
g59
NtRp901
(dp902
g62
(dp903
sg71
g888
sg64
(lp904
g57
(g58
g59
NtRp905
(dp906
g62
(dp907
g70
I4
ssg71
g901
sg64
(lp908
S"set(['/home/umang/web2py/applications/admin/', '/home/umang/web2py/applications/assignmen3/', '/home/umang/web2py/applications/welcome/'])"
p909
asbasbasbag57
(g73
g59
NtRp910
(dp911
g62
(dp912
sg71
g884
sg64
(lp913
g57
(g78
g59
NtRp914
(dp915
g62
(dp916
g82
g83
ssg71
g910
sg64
(lp917
S'applications_parent'
p918
asbag57
(g78
g59
NtRp919
(dp920
g62
(dp921
g89
g90
ssg71
g910
sg64
(lp922
S':'
asbag57
(g78
g59
NtRp923
(dp924
g62
(dp925
sg71
g910
sg64
(lp926
g57
(g58
g59
NtRp927
(dp928
g62
(dp929
g70
I4
ssg71
g923
sg64
(lp930
S'/home/umang/web2py'
p931
asbasbasbag57
(g73
g59
NtRp932
(dp933
g62
(dp934
sg71
g884
sg64
(lp935
g57
(g78
g59
NtRp936
(dp937
g62
(dp938
g82
g83
ssg71
g932
sg64
(lp939
S'cmd_args'
p940
asbag57
(g78
g59
NtRp941
(dp942
g62
(dp943
g89
g90
ssg71
g932
sg64
(lp944
S':'
asbag57
(g78
g59
NtRp945
(dp946
g62
(dp947
sg71
g932
sg64
(lp948
g57
(g58
g59
NtRp949
(dp950
g62
(dp951
g70
I4
ssg71
g945
sg64
(lp952
g57
(g66
g59
NtRp953
(dp954
g62
(dp955
g70
I3
ssg71
Nsg64
(lp956
sbasbasbasbag57
(g73
g59
NtRp957
(dp958
g62
(dp959
sg71
g884
sg64
(lp960
g57
(g78
g59
NtRp961
(dp962
g62
(dp963
g82
g83
ssg71
g957
sg64
(lp964
S'cmd_options'
p965
asbag57
(g78
g59
NtRp966
(dp967
g62
(dp968
g89
g90
ssg71
g957
sg64
(lp969
S':'
asbag57
(g78
g59
NtRp970
(dp971
g62
(dp972
sg71
g957
sg64
(lp973
g57
(g58
g59
NtRp974
(dp975
g62
(dp976
g70
I4
ssg71
g970
sg64
(lp977
S"<Values at 0x199b200: {'verbose': False, 'ip': '127.0.0.1', 'with_scheduler': False, 'ips': [], 'shutdown_timeout': 5, 'taskbar': False, 'port': 8000, 'maxthreads': None, 'softcron': False, 'server_name': 'umang-HP-Pavilion-g6-Notebook-PC', 'bpython': False, 'nogui': False, 'pid_filename': 'httpserver.pid', 'extcron': False, 'runcron': False, 'run_system_tests': False, 'test': None, 'folder': '/home/umang/web2py', 'config': '', 'minthreads': None, 'winservice': '', 'shell': None, 'run': '', 'log_filename': 'httpserver.log', 'debuglevel': 30, 'args': [''], 'socket_timeout': 5, 'ssl_ca_certificate': None, 'scheduler': None, 'profiler_filename': None, 'ssl_private_key': '', 'scheduler_groups': None, 'password': '<ask>', 'request_queue_size': 5, 'ssl_certificate': '', 'cronjob': False, 'numthreads': None, 'quiet': False, 'interfaces': None, 'import_models': False, 'timeout': 10, 'plain': False, 'nobanner': False}>"
p978
asbasbasbag57
(g73
g59
NtRp979
(dp980
g62
(dp981
sg71
g884
sg64
(lp982
g57
(g78
g59
NtRp983
(dp984
g62
(dp985
g82
g83
ssg71
g979
sg64
(lp986
S'db_sessions'
p987
asbag57
(g78
g59
NtRp988
(dp989
g62
(dp990
g89
g90
ssg71
g979
sg64
(lp991
S':'
asbag57
(g78
g59
NtRp992
(dp993
g62
(dp994
sg71
g979
sg64
(lp995
g57
(g58
g59
NtRp996
(dp997
g62
(dp998
g70
I4
ssg71
g992
sg64
(lp999
S'set([])'
p1000
asbasbasbag57
(g73
g59
NtRp1001
(dp1002
g62
(dp1003
sg71
g884
sg64
(lp1004
g57
(g78
g59
NtRp1005
(dp1006
g62
(dp1007
g82
g83
ssg71
g1001
sg64
(lp1008
S'debugging'
p1009
asbag57
(g78
g59
NtRp1010
(dp1011
g62
(dp1012
g89
g90
ssg71
g1001
sg64
(lp1013
S':'
asbag57
(g78
g59
NtRp1014
(dp1015
g62
(dp1016
sg71
g1001
sg64
(lp1017
g57
(g58
g59
NtRp1018
(dp1019
g62
(dp1020
g70
I4
ssg71
g1014
sg64
(lp1021
g100
asbasbasbag57
(g73
g59
NtRp1022
(dp1023
g62
(dp1024
sg71
g884
sg64
(lp1025
g57
(g78
g59
NtRp1026
(dp1027
g62
(dp1028
g82
g83
ssg71
g1022
sg64
(lp1029
S'gluon_parent'
p1030
asbag57
(g78
g59
NtRp1031
(dp1032
g62
(dp1033
g89
g90
ssg71
g1022
sg64
(lp1034
S':'
asbag57
(g78
g59
NtRp1035
(dp1036
g62
(dp1037
sg71
g1022
sg64
(lp1038
g57
(g58
g59
NtRp1039
(dp1040
g62
(dp1041
g70
I4
ssg71
g1035
sg64
(lp1042
S'/home/umang/web2py'
p1043
asbasbasbag57
(g73
g59
NtRp1044
(dp1045
g62
(dp1046
sg71
g884
sg64
(lp1047
g57
(g78
g59
NtRp1048
(dp1049
g62
(dp1050
g82
g83
ssg71
g1044
sg64
(lp1051
S'http_accept'
p1052
asbag57
(g78
g59
NtRp1053
(dp1054
g62
(dp1055
g89
g90
ssg71
g1044
sg64
(lp1056
S':'
asbag57
(g78
g59
NtRp1057
(dp1058
g62
(dp1059
sg71
g1044
sg64
(lp1060
g57
(g58
g59
NtRp1061
(dp1062
g62
(dp1063
g70
I4
ssg71
g1057
sg64
(lp1064
S'text/html,application/xhtml+xml,application/xml;q=0.9,*/*;q=0.8'
p1065
asbasbasbag57
(g73
g59
NtRp1066
(dp1067
g62
(dp1068
sg71
g884
sg64
(lp1069
g57
(g78
g59
NtRp1070
(dp1071
g62
(dp1072
g82
g83
ssg71
g1066
sg64
(lp1073
S'http_accept_encoding'
p1074
asbag57
(g78
g59
NtRp1075
(dp1076
g62
(dp1077
g89
g90
ssg71
g1066
sg64
(lp1078
S':'
asbag57
(g78
g59
NtRp1079
(dp1080
g62
(dp1081
sg71
g1066
sg64
(lp1082
g57
(g58
g59
NtRp1083
(dp1084
g62
(dp1085
g70
I4
ssg71
g1079
sg64
(lp1086
S'gzip, deflate'
p1087
asbasbasbag57
(g73
g59
NtRp1088
(dp1089
g62
(dp1090
sg71
g884
sg64
(lp1091
g57
(g78
g59
NtRp1092
(dp1093
g62
(dp1094
g82
g83
ssg71
g1088
sg64
(lp1095
S'http_accept_language'
p1096
asbag57
(g78
g59
NtRp1097
(dp1098
g62
(dp1099
g89
g90
ssg71
g1088
sg64
(lp1100
S':'
asbag57
(g78
g59
NtRp1101
(dp1102
g62
(dp1103
sg71
g1088
sg64
(lp1104
g57
(g58
g59
NtRp1105
(dp1106
g62
(dp1107
g70
I4
ssg71
g1101
sg64
(lp1108
S'en-us,en;q=0.5'
p1109
asbasbasbag57
(g73
g59
NtRp1110
(dp1111
g62
(dp1112
sg71
g884
sg64
(lp1113
g57
(g78
g59
NtRp1114
(dp1115
g62
(dp1116
g82
g83
ssg71
g1110
sg64
(lp1117
S'http_connection'
p1118
asbag57
(g78
g59
NtRp1119
(dp1120
g62
(dp1121
g89
g90
ssg71
g1110
sg64
(lp1122
S':'
asbag57
(g78
g59
NtRp1123
(dp1124
g62
(dp1125
sg71
g1110
sg64
(lp1126
g57
(g58
g59
NtRp1127
(dp1128
g62
(dp1129
g70
I4
ssg71
g1123
sg64
(lp1130
S'keep-alive'
p1131
asbasbasbag57
(g73
g59
NtRp1132
(dp1133
g62
(dp1134
sg71
g884
sg64
(lp1135
g57
(g78
g59
NtRp1136
(dp1137
g62
(dp1138
g82
g83
ssg71
g1132
sg64
(lp1139
S'http_cookie'
p1140
asbag57
(g78
g59
NtRp1141
(dp1142
g62
(dp1143
g89
g90
ssg71
g1132
sg64
(lp1144
S':'
asbag57
(g78
g59
NtRp1145
(dp1146
g62
(dp1147
sg71
g1132
sg64
(lp1148
g57
(g58
g59
NtRp1149
(dp1150
g62
(dp1151
g70
I4
ssg71
g1145
sg64
(lp1152
S'session_id_welcome=127.0.0.1-1dbe701a-e138-4363-9780-6c3aff01f428; session_id_admin=127.0.0.1-41c36d9d-031a-44e8-8102-234630b26a7b; session_id_assignmen3=127.0.0.1-280551a1-c43a-433e-9359-4399b67c1e4b'
p1153
asbasbasbag57
(g73
g59
NtRp1154
(dp1155
g62
(dp1156
sg71
g884
sg64
(lp1157
g57
(g78
g59
NtRp1158
(dp1159
g62
(dp1160
g82
g83
ssg71
g1154
sg64
(lp1161
S'http_host'
p1162
asbag57
(g78
g59
NtRp1163
(dp1164
g62
(dp1165
g89
g90
ssg71
g1154
sg64
(lp1166
S':'
asbag57
(g78
g59
NtRp1167
(dp1168
g62
(dp1169
sg71
g1154
sg64
(lp1170
g57
(g58
g59
NtRp1171
(dp1172
g62
(dp1173
g70
I4
ssg71
g1167
sg64
(lp1174
S'127.0.0.1:8000'
p1175
asbasbasbag57
(g73
g59
NtRp1176
(dp1177
g62
(dp1178
sg71
g884
sg64
(lp1179
g57
(g78
g59
NtRp1180
(dp1181
g62
(dp1182
g82
g83
ssg71
g1176
sg64
(lp1183
S'http_referer'
p1184
asbag57
(g78
g59
NtRp1185
(dp1186
g62
(dp1187
g89
g90
ssg71
g1176
sg64
(lp1188
S':'
asbag57
(g78
g59
NtRp1189
(dp1190
g62
(dp1191
sg71
g1176
sg64
(lp1192
g57
(g58
g59
NtRp1193
(dp1194
g62
(dp1195
g70
I4
ssg71
g1189
sg64
(lp1196
S'http://127.0.0.1:8000/assignmen3/default/first_page/2'
p1197
asbasbasbag57
(g73
g59
NtRp1198
(dp1199
g62
(dp1200
sg71
g884
sg64
(lp1201
g57
(g78
g59
NtRp1202
(dp1203
g62
(dp1204
g82
g83
ssg71
g1198
sg64
(lp1205
S'http_user_agent'
p1206
asbag57
(g78
g59
NtRp1207
(dp1208
g62
(dp1209
g89
g90
ssg71
g1198
sg64
(lp1210
S':'
asbag57
(g78
g59
NtRp1211
(dp1212
g62
(dp1213
sg71
g1198
sg64
(lp1214
g57
(g58
g59
NtRp1215
(dp1216
g62
(dp1217
g70
I4
ssg71
g1211
sg64
(lp1218
S'Mozilla/5.0 (X11; Ubuntu; Linux x86_64; rv:11.0) Gecko/20100101 Firefox/11.0'
p1219
asbasbasbag57
(g73
g59
NtRp1220
(dp1221
g62
(dp1222
sg71
g884
sg64
(lp1223
g57
(g78
g59
NtRp1224
(dp1225
g62
(dp1226
g82
g83
ssg71
g1220
sg64
(lp1227
S'is_jython'
p1228
asbag57
(g78
g59
NtRp1229
(dp1230
g62
(dp1231
g89
g90
ssg71
g1220
sg64
(lp1232
S':'
asbag57
(g78
g59
NtRp1233
(dp1234
g62
(dp1235
sg71
g1220
sg64
(lp1236
g57
(g58
g59
NtRp1237
(dp1238
g62
(dp1239
g70
I4
ssg71
g1233
sg64
(lp1240
g100
asbasbasbag57
(g73
g59
NtRp1241
(dp1242
g62
(dp1243
sg71
g884
sg64
(lp1244
g57
(g78
g59
NtRp1245
(dp1246
g62
(dp1247
g82
g83
ssg71
g1241
sg64
(lp1248
S'is_pypy'
p1249
asbag57
(g78
g59
NtRp1250
(dp1251
g62
(dp1252
g89
g90
ssg71
g1241
sg64
(lp1253
S':'
asbag57
(g78
g59
NtRp1254
(dp1255
g62
(dp1256
sg71
g1241
sg64
(lp1257
g57
(g58
g59
NtRp1258
(dp1259
g62
(dp1260
g70
I4
ssg71
g1254
sg64
(lp1261
g100
asbasbasbag57
(g73
g59
NtRp1262
(dp1263
g62
(dp1264
sg71
g884
sg64
(lp1265
g57
(g78
g59
NtRp1266
(dp1267
g62
(dp1268
g82
g83
ssg71
g1262
sg64
(lp1269
S'local_hosts'
p1270
asbag57
(g78
g59
NtRp1271
(dp1272
g62
(dp1273
g89
g90
ssg71
g1262
sg64
(lp1274
S':'
asbag57
(g78
g59
NtRp1275
(dp1276
g62
(dp1277
sg71
g1262
sg64
(lp1278
g57
(g58
g59
NtRp1279
(dp1280
g62
(dp1281
g70
I4
ssg71
g1275
sg64
(lp1282
g57
(g66
g59
NtRp1283
(dp1284
g62
(dp1285
g70
I3
ssg71
Nsg64
(lp1286
g57
(g73
g59
NtRp1287
(dp1288
g62
(dp1289
sg71
g1283
sg64
(lp1290
g57
(g78
g59
NtRp1291
(dp1292
g62
(dp1293
sg71
g1287
sg64
(lp1294
g57
(g58
g59
NtRp1295
(dp1296
g62
(dp1297
g70
I3
ssg71
g1291
sg64
(lp1298
S'::1'
p1299
asbasbasbag57
(g73
g59
NtRp1300
(dp1301
g62
(dp1302
sg71
g1283
sg64
(lp1303
g57
(g78
g59
NtRp1304
(dp1305
g62
(dp1306
sg71
g1300
sg64
(lp1307
g57
(g58
g59
NtRp1308
(dp1309
g62
(dp1310
g70
I3
ssg71
g1304
sg64
(lp1311
S'127.0.1.1'
p1312
asbasbasbag57
(g73
g59
NtRp1313
(dp1314
g62
(dp1315
sg71
g1283
sg64
(lp1316
g57
(g78
g59
NtRp1317
(dp1318
g62
(dp1319
sg71
g1313
sg64
(lp1320
g57
(g58
g59
NtRp1321
(dp1322
g62
(dp1323
g70
I3
ssg71
g1317
sg64
(lp1324
S'::ffff:127.0.0.1'
p1325
asbasbasbag57
(g73
g59
NtRp1326
(dp1327
g62
(dp1328
sg71
g1283
sg64
(lp1329
g57
(g78
g59
NtRp1330
(dp1331
g62
(dp1332
sg71
g1326
sg64
(lp1333
g57
(g58
g59
NtRp1334
(dp1335
g62
(dp1336
g70
I3
ssg71
g1330
sg64
(lp1337
S'127.0.0.1'
p1338
asbasbasbag57
(g73
g59
NtRp1339
(dp1340
g62
(dp1341
sg71
g1283
sg64
(lp1342
g57
(g78
g59
NtRp1343
(dp1344
g62
(dp1345
sg71
g1339
sg64
(lp1346
g57
(g58
g59
NtRp1347
(dp1348
g62
(dp1349
g70
I3
ssg71
g1343
sg64
(lp1350
S'umang-HP-Pavilion-g6-Notebook-PC'
p1351
asbasbasbasbasbasbasbag57
(g73
g59
NtRp1352
(dp1353
g62
(dp1354
sg71
g884
sg64
(lp1355
g57
(g78
g59
NtRp1356
(dp1357
g62
(dp1358
g82
g83
ssg71
g1352
sg64
(lp1359
S'path_info'
p1360
asbag57
(g78
g59
NtRp1361
(dp1362
g62
(dp1363
g89
g90
ssg71
g1352
sg64
(lp1364
S':'
asbag57
(g78
g59
NtRp1365
(dp1366
g62
(dp1367
sg71
g1352
sg64
(lp1368
g57
(g58
g59
NtRp1369
(dp1370
g62
(dp1371
g70
I4
ssg71
g1365
sg64
(lp1372
S'/assignmen3/default/dislike/16/2/0'
p1373
asbasbasbag57
(g73
g59
NtRp1374
(dp1375
g62
(dp1376
sg71
g884
sg64
(lp1377
g57
(g78
g59
NtRp1378
(dp1379
g62
(dp1380
g82
g83
ssg71
g1374
sg64
(lp1381
S'query_string'
p1382
asbag57
(g78
g59
NtRp1383
(dp1384
g62
(dp1385
g89
g90
ssg71
g1374
sg64
(lp1386
S':'
asbag57
(g78
g59
NtRp1387
(dp1388
g62
(dp1389
sg71
g1374
sg64
(lp1390
g57
(g58
g59
NtRp1391
(dp1392
g62
(dp1393
g70
I4
ssg71
g1387
sg64
(lp1394
S''
asbasbasbag57
(g73
g59
NtRp1395
(dp1396
g62
(dp1397
sg71
g884
sg64
(lp1398
g57
(g78
g59
NtRp1399
(dp1400
g62
(dp1401
g82
g83
ssg71
g1395
sg64
(lp1402
S'remote_addr'
p1403
asbag57
(g78
g59
NtRp1404
(dp1405
g62
(dp1406
g89
g90
ssg71
g1395
sg64
(lp1407
S':'
asbag57
(g78
g59
NtRp1408
(dp1409
g62
(dp1410
sg71
g1395
sg64
(lp1411
g57
(g58
g59
NtRp1412
(dp1413
g62
(dp1414
g70
I4
ssg71
g1408
sg64
(lp1415
g249
asbasbasbag57
(g73
g59
NtRp1416
(dp1417
g62
(dp1418
sg71
g884
sg64
(lp1419
g57
(g78
g59
NtRp1420
(dp1421
g62
(dp1422
g82
g83
ssg71
g1416
sg64
(lp1423
S'remote_port'
p1424
asbag57
(g78
g59
NtRp1425
(dp1426
g62
(dp1427
g89
g90
ssg71
g1416
sg64
(lp1428
S':'
asbag57
(g78
g59
NtRp1429
(dp1430
g62
(dp1431
sg71
g1416
sg64
(lp1432
g57
(g58
g59
NtRp1433
(dp1434
g62
(dp1435
g70
I4
ssg71
g1429
sg64
(lp1436
S'58784'
p1437
asbasbasbag57
(g73
g59
NtRp1438
(dp1439
g62
(dp1440
sg71
g884
sg64
(lp1441
g57
(g78
g59
NtRp1442
(dp1443
g62
(dp1444
g82
g83
ssg71
g1438
sg64
(lp1445
S'request_method'
p1446
asbag57
(g78
g59
NtRp1447
(dp1448
g62
(dp1449
g89
g90
ssg71
g1438
sg64
(lp1450
S':'
asbag57
(g78
g59
NtRp1451
(dp1452
g62
(dp1453
sg71
g1438
sg64
(lp1454
g57
(g58
g59
NtRp1455
(dp1456
g62
(dp1457
g70
I4
ssg71
g1451
sg64
(lp1458
S'GET'
p1459
asbasbasbag57
(g73
g59
NtRp1460
(dp1461
g62
(dp1462
sg71
g884
sg64
(lp1463
g57
(g78
g59
NtRp1464
(dp1465
g62
(dp1466
g82
g83
ssg71
g1460
sg64
(lp1467
S'request_uri'
p1468
asbag57
(g78
g59
NtRp1469
(dp1470
g62
(dp1471
g89
g90
ssg71
g1460
sg64
(lp1472
S':'
asbag57
(g78
g59
NtRp1473
(dp1474
g62
(dp1475
sg71
g1460
sg64
(lp1476
g57
(g58
g59
NtRp1477
(dp1478
g62
(dp1479
g70
I4
ssg71
g1473
sg64
(lp1480
g1373
asbasbasbag57
(g73
g59
NtRp1481
(dp1482
g62
(dp1483
sg71
g884
sg64
(lp1484
g57
(g78
g59
NtRp1485
(dp1486
g62
(dp1487
g82
g83
ssg71
g1481
sg64
(lp1488
S'script_name'
p1489
asbag57
(g78
g59
NtRp1490
(dp1491
g62
(dp1492
g89
g90
ssg71
g1481
sg64
(lp1493
S':'
asbag57
(g78
g59
NtRp1494
(dp1495
g62
(dp1496
sg71
g1481
sg64
(lp1497
g57
(g58
g59
NtRp1498
(dp1499
g62
(dp1500
g70
I4
ssg71
g1494
sg64
(lp1501
S''
asbasbasbag57
(g73
g59
NtRp1502
(dp1503
g62
(dp1504
sg71
g884
sg64
(lp1505
g57
(g78
g59
NtRp1506
(dp1507
g62
(dp1508
g82
g83
ssg71
g1502
sg64
(lp1509
S'server_name'
p1510
asbag57
(g78
g59
NtRp1511
(dp1512
g62
(dp1513
g89
g90
ssg71
g1502
sg64
(lp1514
S':'
asbag57
(g78
g59
NtRp1515
(dp1516
g62
(dp1517
sg71
g1502
sg64
(lp1518
g57
(g58
g59
NtRp1519
(dp1520
g62
(dp1521
g70
I4
ssg71
g1515
sg64
(lp1522
S'umang-HP-Pavilion-g6-Notebook-PC'
p1523
asbasbasbag57
(g73
g59
NtRp1524
(dp1525
g62
(dp1526
sg71
g884
sg64
(lp1527
g57
(g78
g59
NtRp1528
(dp1529
g62
(dp1530
g82
g83
ssg71
g1524
sg64
(lp1531
S'server_port'
p1532
asbag57
(g78
g59
NtRp1533
(dp1534
g62
(dp1535
g89
g90
ssg71
g1524
sg64
(lp1536
S':'
asbag57
(g78
g59
NtRp1537
(dp1538
g62
(dp1539
sg71
g1524
sg64
(lp1540
g57
(g58
g59
NtRp1541
(dp1542
g62
(dp1543
g70
I4
ssg71
g1537
sg64
(lp1544
S'8000'
p1545
asbasbasbag57
(g73
g59
NtRp1546
(dp1547
g62
(dp1548
sg71
g884
sg64
(lp1549
g57
(g78
g59
NtRp1550
(dp1551
g62
(dp1552
g82
g83
ssg71
g1546
sg64
(lp1553
S'server_protocol'
p1554
asbag57
(g78
g59
NtRp1555
(dp1556
g62
(dp1557
g89
g90
ssg71
g1546
sg64
(lp1558
S':'
asbag57
(g78
g59
NtRp1559
(dp1560
g62
(dp1561
sg71
g1546
sg64
(lp1562
g57
(g58
g59
NtRp1563
(dp1564
g62
(dp1565
g70
I4
ssg71
g1559
sg64
(lp1566
S'HTTP/1.1'
p1567
asbasbasbag57
(g73
g59
NtRp1568
(dp1569
g62
(dp1570
sg71
g884
sg64
(lp1571
g57
(g78
g59
NtRp1572
(dp1573
g62
(dp1574
g82
g83
ssg71
g1568
sg64
(lp1575
S'server_software'
p1576
asbag57
(g78
g59
NtRp1577
(dp1578
g62
(dp1579
g89
g90
ssg71
g1568
sg64
(lp1580
S':'
asbag57
(g78
g59
NtRp1581
(dp1582
g62
(dp1583
sg71
g1568
sg64
(lp1584
g57
(g58
g59
NtRp1585
(dp1586
g62
(dp1587
g70
I4
ssg71
g1581
sg64
(lp1588
S'Rocket 1.2.6'
p1589
asbasbasbag57
(g73
g59
NtRp1590
(dp1591
g62
(dp1592
sg71
g884
sg64
(lp1593
g57
(g78
g59
NtRp1594
(dp1595
g62
(dp1596
g82
g83
ssg71
g1590
sg64
(lp1597
S'web2py_path'
p1598
asbag57
(g78
g59
NtRp1599
(dp1600
g62
(dp1601
g89
g90
ssg71
g1590
sg64
(lp1602
S':'
asbag57
(g78
g59
NtRp1603
(dp1604
g62
(dp1605
sg71
g1590
sg64
(lp1606
g57
(g58
g59
NtRp1607
(dp1608
g62
(dp1609
g70
I4
ssg71
g1603
sg64
(lp1610
g931
asbasbasbag57
(g73
g59
NtRp1611
(dp1612
g62
(dp1613
sg71
g884
sg64
(lp1614
g57
(g78
g59
NtRp1615
(dp1616
g62
(dp1617
g82
g83
ssg71
g1611
sg64
(lp1618
S'web2py_version'
p1619
asbag57
(g78
g59
NtRp1620
(dp1621
g62
(dp1622
g89
g90
ssg71
g1611
sg64
(lp1623
S':'
asbag57
(g78
g59
NtRp1624
(dp1625
g62
(dp1626
sg71
g1611
sg64
(lp1627
g57
(g58
g59
NtRp1628
(dp1629
g62
(dp1630
g70
I4
ssg71
g1624
sg64
(lp1631
g57
(g66
g59
NtRp1632
(dp1633
g62
(dp1634
g70
I3
ssg71
Nsg64
(lp1635
g57
(g73
g59
NtRp1636
(dp1637
g62
(dp1638
sg71
g1632
sg64
(lp1639
g57
(g78
g59
NtRp1640
(dp1641
g62
(dp1642
sg71
g1636
sg64
(lp1643
g57
(g58
g59
NtRp1644
(dp1645
g62
(dp1646
g70
I3
ssg71
g1640
sg64
(lp1647
S'2'
asbasbasbag57
(g73
g59
NtRp1648
(dp1649
g62
(dp1650
sg71
g1632
sg64
(lp1651
g57
(g78
g59
NtRp1652
(dp1653
g62
(dp1654
sg71
g1648
sg64
(lp1655
g57
(g58
g59
NtRp1656
(dp1657
g62
(dp1658
g70
I3
ssg71
g1652
sg64
(lp1659
S'3'
asbasbasbag57
(g73
g59
NtRp1660
(dp1661
g62
(dp1662
sg71
g1632
sg64
(lp1663
g57
(g78
g59
NtRp1664
(dp1665
g62
(dp1666
sg71
g1660
sg64
(lp1667
g57
(g58
g59
NtRp1668
(dp1669
g62
(dp1670
g70
I3
ssg71
g1664
sg64
(lp1671
S'2'
asbasbasbag57
(g73
g59
NtRp1672
(dp1673
g62
(dp1674
sg71
g1632
sg64
(lp1675
g57
(g78
g59
NtRp1676
(dp1677
g62
(dp1678
sg71
g1672
sg64
(lp1679
g57
(g58
g59
NtRp1680
(dp1681
g62
(dp1682
g70
I3
ssg71
g1676
sg64
(lp1683
S'datetime.datetime(2012, 12, 17, 15, 3, 30)'
p1684
asbasbasbag57
(g73
g59
NtRp1685
(dp1686
g62
(dp1687
sg71
g1632
sg64
(lp1688
g57
(g78
g59
NtRp1689
(dp1690
g62
(dp1691
sg71
g1685
sg64
(lp1692
g57
(g58
g59
NtRp1693
(dp1694
g62
(dp1695
g70
I3
ssg71
g1689
sg64
(lp1696
S'stable'
p1697
asbasbasbasbasbasbasbag57
(g73
g59
NtRp1698
(dp1699
g62
(dp1700
sg71
g884
sg64
(lp1701
g57
(g78
g59
NtRp1702
(dp1703
g62
(dp1704
g82
g83
ssg71
g1698
sg64
(lp1705
S'wsgi_errors'
p1706
asbag57
(g78
g59
NtRp1707
(dp1708
g62
(dp1709
g89
g90
ssg71
g1698
sg64
(lp1710
S':'
asbag57
(g78
g59
NtRp1711
(dp1712
g62
(dp1713
sg71
g1698
sg64
(lp1714
g57
(g58
g59
NtRp1715
(dp1716
g62
(dp1717
g70
I4
ssg71
g1711
sg64
(lp1718
S"<open file '<stderr>', mode 'w' at 0x7fe333a04270>"
p1719
asbasbasbag57
(g73
g59
NtRp1720
(dp1721
g62
(dp1722
sg71
g884
sg64
(lp1723
g57
(g78
g59
NtRp1724
(dp1725
g62
(dp1726
g82
g83
ssg71
g1720
sg64
(lp1727
S'wsgi_file_wrapper'
p1728
asbag57
(g78
g59
NtRp1729
(dp1730
g62
(dp1731
g89
g90
ssg71
g1720
sg64
(lp1732
S':'
asbag57
(g78
g59
NtRp1733
(dp1734
g62
(dp1735
sg71
g1720
sg64
(lp1736
g57
(g58
g59
NtRp1737
(dp1738
g62
(dp1739
g70
I4
ssg71
g1733
sg64
(lp1740
S'<class wsgiref.util.FileWrapper at 0x1904b48>'
p1741
asbasbasbag57
(g73
g59
NtRp1742
(dp1743
g62
(dp1744
sg71
g884
sg64
(lp1745
g57
(g78
g59
NtRp1746
(dp1747
g62
(dp1748
g82
g83
ssg71
g1742
sg64
(lp1749
S'wsgi_input'
p1750
asbag57
(g78
g59
NtRp1751
(dp1752
g62
(dp1753
g89
g90
ssg71
g1742
sg64
(lp1754
S':'
asbag57
(g78
g59
NtRp1755
(dp1756
g62
(dp1757
sg71
g1742
sg64
(lp1758
g57
(g58
g59
NtRp1759
(dp1760
g62
(dp1761
g70
I4
ssg71
g1755
sg64
(lp1762
S'<socket._fileobject object at 0x7fe3141656d0>'
p1763
asbasbasbag57
(g73
g59
NtRp1764
(dp1765
g62
(dp1766
sg71
g884
sg64
(lp1767
g57
(g78
g59
NtRp1768
(dp1769
g62
(dp1770
g82
g83
ssg71
g1764
sg64
(lp1771
S'wsgi_multiprocess'
p1772
asbag57
(g78
g59
NtRp1773
(dp1774
g62
(dp1775
g89
g90
ssg71
g1764
sg64
(lp1776
S':'
asbag57
(g78
g59
NtRp1777
(dp1778
g62
(dp1779
sg71
g1764
sg64
(lp1780
g57
(g58
g59
NtRp1781
(dp1782
g62
(dp1783
g70
I4
ssg71
g1777
sg64
(lp1784
g100
asbasbasbag57
(g73
g59
NtRp1785
(dp1786
g62
(dp1787
sg71
g884
sg64
(lp1788
g57
(g78
g59
NtRp1789
(dp1790
g62
(dp1791
g82
g83
ssg71
g1785
sg64
(lp1792
S'wsgi_multithread'
p1793
asbag57
(g78
g59
NtRp1794
(dp1795
g62
(dp1796
g89
g90
ssg71
g1785
sg64
(lp1797
S':'
asbag57
(g78
g59
NtRp1798
(dp1799
g62
(dp1800
sg71
g1785
sg64
(lp1801
g57
(g58
g59
NtRp1802
(dp1803
g62
(dp1804
g70
I4
ssg71
g1798
sg64
(lp1805
S'True'
p1806
asbasbasbag57
(g73
g59
NtRp1807
(dp1808
g62
(dp1809
sg71
g884
sg64
(lp1810
g57
(g78
g59
NtRp1811
(dp1812
g62
(dp1813
g82
g83
ssg71
g1807
sg64
(lp1814
S'wsgi_run_once'
p1815
asbag57
(g78
g59
NtRp1816
(dp1817
g62
(dp1818
g89
g90
ssg71
g1807
sg64
(lp1819
S':'
asbag57
(g78
g59
NtRp1820
(dp1821
g62
(dp1822
sg71
g1807
sg64
(lp1823
g57
(g58
g59
NtRp1824
(dp1825
g62
(dp1826
g70
I4
ssg71
g1820
sg64
(lp1827
g100
asbasbasbag57
(g73
g59
NtRp1828
(dp1829
g62
(dp1830
sg71
g884
sg64
(lp1831
g57
(g78
g59
NtRp1832
(dp1833
g62
(dp1834
g82
g83
ssg71
g1828
sg64
(lp1835
S'wsgi_url_scheme'
p1836
asbag57
(g78
g59
NtRp1837
(dp1838
g62
(dp1839
g89
g90
ssg71
g1828
sg64
(lp1840
S':'
asbag57
(g78
g59
NtRp1841
(dp1842
g62
(dp1843
sg71
g1828
sg64
(lp1844
g57
(g58
g59
NtRp1845
(dp1846
g62
(dp1847
g70
I4
ssg71
g1841
sg64
(lp1848
S'http'
p1849
asbasbasbag57
(g73
g59
NtRp1850
(dp1851
g62
(dp1852
sg71
g884
sg64
(lp1853
g57
(g78
g59
NtRp1854
(dp1855
g62
(dp1856
g82
g83
ssg71
g1850
sg64
(lp1857
S'wsgi_version'
p1858
asbag57
(g78
g59
NtRp1859
(dp1860
g62
(dp1861
g89
g90
ssg71
g1850
sg64
(lp1862
S':'
asbag57
(g78
g59
NtRp1863
(dp1864
g62
(dp1865
sg71
g1850
sg64
(lp1866
g57
(g58
g59
NtRp1867
(dp1868
g62
(dp1869
g70
I4
ssg71
g1863
sg64
(lp1870
g57
(g66
g59
NtRp1871
(dp1872
g62
(dp1873
g70
I3
ssg71
Nsg64
(lp1874
g57
(g73
g59
NtRp1875
(dp1876
g62
(dp1877
sg71
g1871
sg64
(lp1878
g57
(g78
g59
NtRp1879
(dp1880
g62
(dp1881
sg71
g1875
sg64
(lp1882
g57
(g58
g59
NtRp1883
(dp1884
g62
(dp1885
g70
I3
ssg71
g1879
sg64
(lp1886
S'1'
asbasbasbag57
(g73
g59
NtRp1887
(dp1888
g62
(dp1889
sg71
g1871
sg64
(lp1890
g57
(g78
g59
NtRp1891
(dp1892
g62
(dp1893
sg71
g1887
sg64
(lp1894
g57
(g58
g59
NtRp1895
(dp1896
g62
(dp1897
g70
I3
ssg71
g1891
sg64
(lp1898
S'0'
asbasbasbasbasbasbasbasbasbasbasbag57
(g73
g59
NtRp1899
(dp1900
g62
(dp1901
sg71
g67
sg64
(lp1902
g57
(g78
g59
NtRp1903
(dp1904
g62
(dp1905
g82
g83
ssg71
g1899
sg64
(lp1906
S'extension'
p1907
asbag57
(g78
g59
NtRp1908
(dp1909
g62
(dp1910
g89
g90
ssg71
g1899
sg64
(lp1911
S':'
asbag57
(g78
g59
NtRp1912
(dp1913
g62
(dp1914
sg71
g1899
sg64
(lp1915
g57
(g58
g59
NtRp1916
(dp1917
g62
(dp1918
g70
I5
ssg71
g1912
sg64
(lp1919
S'html'
p1920
asbasbasbag57
(g73
g59
NtRp1921
(dp1922
g62
(dp1923
sg71
g67
sg64
(lp1924
g57
(g78
g59
NtRp1925
(dp1926
g62
(dp1927
g82
g83
ssg71
g1921
sg64
(lp1928
S'folder'
p1929
asbag57
(g78
g59
NtRp1930
(dp1931
g62
(dp1932
g89
g90
ssg71
g1921
sg64
(lp1933
S':'
asbag57
(g78
g59
NtRp1934
(dp1935
g62
(dp1936
sg71
g1921
sg64
(lp1937
g57
(g58
g59
NtRp1938
(dp1939
g62
(dp1940
g70
I5
ssg71
g1934
sg64
(lp1941
S'/home/umang/web2py/applications/assignmen3/'
p1942
asbasbasbag57
(g73
g59
NtRp1943
(dp1944
g62
(dp1945
sg71
g67
sg64
(lp1946
g57
(g78
g59
NtRp1947
(dp1948
g62
(dp1949
g82
g83
ssg71
g1943
sg64
(lp1950
S'function'
p1951
asbag57
(g78
g59
NtRp1952
(dp1953
g62
(dp1954
g89
g90
ssg71
g1943
sg64
(lp1955
S':'
asbag57
(g78
g59
NtRp1956
(dp1957
g62
(dp1958
sg71
g1943
sg64
(lp1959
g57
(g58
g59
NtRp1960
(dp1961
g62
(dp1962
g70
I5
ssg71
g1956
sg64
(lp1963
S'dislike'
p1964
asbasbasbag57
(g73
g59
NtRp1965
(dp1966
g62
(dp1967
sg71
g67
sg64
(lp1968
g57
(g78
g59
NtRp1969
(dp1970
g62
(dp1971
g82
g83
ssg71
g1965
sg64
(lp1972
S'get_vars'
p1973
asbag57
(g78
g59
NtRp1974
(dp1975
g62
(dp1976
g89
g90
ssg71
g1965
sg64
(lp1977
S':'
asbag57
(g78
g59
NtRp1978
(dp1979
g62
(dp1980
sg71
g1965
sg64
(lp1981
g57
(g58
g59
NtRp1982
(dp1983
g62
(dp1984
g70
I5
ssg71
g1978
sg64
(lp1985
g57
(g66
g59
NtRp1986
(dp1987
g62
(dp1988
g70
I4
ssg71
Nsg64
(lp1989
sbasbasbasbag57
(g73
g59
NtRp1990
(dp1991
g62
(dp1992
sg71
g67
sg64
(lp1993
g57
(g78
g59
NtRp1994
(dp1995
g62
(dp1996
g82
g83
ssg71
g1990
sg64
(lp1997
S'global_settings'
p1998
asbag57
(g78
g59
NtRp1999
(dp2000
g62
(dp2001
g89
g90
ssg71
g1990
sg64
(lp2002
S':'
asbag57
(g78
g59
NtRp2003
(dp2004
g62
(dp2005
sg71
g1990
sg64
(lp2006
g57
(g58
g59
NtRp2007
(dp2008
g62
(dp2009
g70
I5
ssg71
g2003
sg64
(lp2010
g57
(g66
g59
NtRp2011
(dp2012
g62
(dp2013
g70
I4
ssg71
Nsg64
(lp2014
g57
(g73
g59
NtRp2015
(dp2016
g62
(dp2017
sg71
g2011
sg64
(lp2018
g57
(g78
g59
NtRp2019
(dp2020
g62
(dp2021
g82
g83
ssg71
g2015
sg64
(lp2022
g896
asbag57
(g78
g59
NtRp2023
(dp2024
g62
(dp2025
g89
g90
ssg71
g2015
sg64
(lp2026
S':'
asbag57
(g78
g59
NtRp2027
(dp2028
g62
(dp2029
sg71
g2015
sg64
(lp2030
g57
(g58
g59
NtRp2031
(dp2032
g62
(dp2033
g70
I4
ssg71
g2027
sg64
(lp2034
S"set(['/home/umang/web2py/applications/admin/', '/home/umang/web2py/applications/assignmen3/', '/home/umang/web2py/applications/welcome/'])"
p2035
asbasbasbag57
(g73
g59
NtRp2036
(dp2037
g62
(dp2038
sg71
g2011
sg64
(lp2039
g57
(g78
g59
NtRp2040
(dp2041
g62
(dp2042
g82
g83
ssg71
g2036
sg64
(lp2043
g918
asbag57
(g78
g59
NtRp2044
(dp2045
g62
(dp2046
g89
g90
ssg71
g2036
sg64
(lp2047
S':'
asbag57
(g78
g59
NtRp2048
(dp2049
g62
(dp2050
sg71
g2036
sg64
(lp2051
g57
(g58
g59
NtRp2052
(dp2053
g62
(dp2054
g70
I4
ssg71
g2048
sg64
(lp2055
g931
asbasbasbag57
(g73
g59
NtRp2056
(dp2057
g62
(dp2058
sg71
g2011
sg64
(lp2059
g57
(g78
g59
NtRp2060
(dp2061
g62
(dp2062
g82
g83
ssg71
g2056
sg64
(lp2063
g940
asbag57
(g78
g59
NtRp2064
(dp2065
g62
(dp2066
g89
g90
ssg71
g2056
sg64
(lp2067
S':'
asbag57
(g78
g59
NtRp2068
(dp2069
g62
(dp2070
sg71
g2056
sg64
(lp2071
g57
(g58
g59
NtRp2072
(dp2073
g62
(dp2074
g70
I4
ssg71
g2068
sg64
(lp2075
g57
(g66
g59
NtRp2076
(dp2077
g62
(dp2078
g70
I3
ssg71
Nsg64
(lp2079
sbasbasbasbag57
(g73
g59
NtRp2080
(dp2081
g62
(dp2082
sg71
g2011
sg64
(lp2083
g57
(g78
g59
NtRp2084
(dp2085
g62
(dp2086
g82
g83
ssg71
g2080
sg64
(lp2087
g965
asbag57
(g78
g59
NtRp2088
(dp2089
g62
(dp2090
g89
g90
ssg71
g2080
sg64
(lp2091
S':'
asbag57
(g78
g59
NtRp2092
(dp2093
g62
(dp2094
sg71
g2080
sg64
(lp2095
g57
(g58
g59
NtRp2096
(dp2097
g62
(dp2098
g70
I4
ssg71
g2092
sg64
(lp2099
S"<Values at 0x199b200: {'verbose': False, 'ip': '127.0.0.1', 'with_scheduler': False, 'ips': [], 'shutdown_timeout': 5, 'taskbar': False, 'port': 8000, 'maxthreads': None, 'softcron': False, 'server_name': 'umang-HP-Pavilion-g6-Notebook-PC', 'bpython': False, 'nogui': False, 'pid_filename': 'httpserver.pid', 'extcron': False, 'runcron': False, 'run_system_tests': False, 'test': None, 'folder': '/home/umang/web2py', 'config': '', 'minthreads': None, 'winservice': '', 'shell': None, 'run': '', 'log_filename': 'httpserver.log', 'debuglevel': 30, 'args': [''], 'socket_timeout': 5, 'ssl_ca_certificate': None, 'scheduler': None, 'profiler_filename': None, 'ssl_private_key': '', 'scheduler_groups': None, 'password': '<ask>', 'request_queue_size': 5, 'ssl_certificate': '', 'cronjob': False, 'numthreads': None, 'quiet': False, 'interfaces': None, 'import_models': False, 'timeout': 10, 'plain': False, 'nobanner': False}>"
p2100
asbasbasbag57
(g73
g59
NtRp2101
(dp2102
g62
(dp2103
sg71
g2011
sg64
(lp2104
g57
(g78
g59
NtRp2105
(dp2106
g62
(dp2107
g82
g83
ssg71
g2101
sg64
(lp2108
g987
asbag57
(g78
g59
NtRp2109
(dp2110
g62
(dp2111
g89
g90
ssg71
g2101
sg64
(lp2112
S':'
asbag57
(g78
g59
NtRp2113
(dp2114
g62
(dp2115
sg71
g2101
sg64
(lp2116
g57
(g58
g59
NtRp2117
(dp2118
g62
(dp2119
g70
I4
ssg71
g2113
sg64
(lp2120
S'set([])'
p2121
asbasbasbag57
(g73
g59
NtRp2122
(dp2123
g62
(dp2124
sg71
g2011
sg64
(lp2125
g57
(g78
g59
NtRp2126
(dp2127
g62
(dp2128
g82
g83
ssg71
g2122
sg64
(lp2129
g1009
asbag57
(g78
g59
NtRp2130
(dp2131
g62
(dp2132
g89
g90
ssg71
g2122
sg64
(lp2133
S':'
asbag57
(g78
g59
NtRp2134
(dp2135
g62
(dp2136
sg71
g2122
sg64
(lp2137
g57
(g58
g59
NtRp2138
(dp2139
g62
(dp2140
g70
I4
ssg71
g2134
sg64
(lp2141
g100
asbasbasbag57
(g73
g59
NtRp2142
(dp2143
g62
(dp2144
sg71
g2011
sg64
(lp2145
g57
(g78
g59
NtRp2146
(dp2147
g62
(dp2148
g82
g83
ssg71
g2142
sg64
(lp2149
g1030
asbag57
(g78
g59
NtRp2150
(dp2151
g62
(dp2152
g89
g90
ssg71
g2142
sg64
(lp2153
S':'
asbag57
(g78
g59
NtRp2154
(dp2155
g62
(dp2156
sg71
g2142
sg64
(lp2157
g57
(g58
g59
NtRp2158
(dp2159
g62
(dp2160
g70
I4
ssg71
g2154
sg64
(lp2161
g1043
asbasbasbag57
(g73
g59
NtRp2162
(dp2163
g62
(dp2164
sg71
g2011
sg64
(lp2165
g57
(g78
g59
NtRp2166
(dp2167
g62
(dp2168
g82
g83
ssg71
g2162
sg64
(lp2169
g1228
asbag57
(g78
g59
NtRp2170
(dp2171
g62
(dp2172
g89
g90
ssg71
g2162
sg64
(lp2173
S':'
asbag57
(g78
g59
NtRp2174
(dp2175
g62
(dp2176
sg71
g2162
sg64
(lp2177
g57
(g58
g59
NtRp2178
(dp2179
g62
(dp2180
g70
I4
ssg71
g2174
sg64
(lp2181
g100
asbasbasbag57
(g73
g59
NtRp2182
(dp2183
g62
(dp2184
sg71
g2011
sg64
(lp2185
g57
(g78
g59
NtRp2186
(dp2187
g62
(dp2188
g82
g83
ssg71
g2182
sg64
(lp2189
g1249
asbag57
(g78
g59
NtRp2190
(dp2191
g62
(dp2192
g89
g90
ssg71
g2182
sg64
(lp2193
S':'
asbag57
(g78
g59
NtRp2194
(dp2195
g62
(dp2196
sg71
g2182
sg64
(lp2197
g57
(g58
g59
NtRp2198
(dp2199
g62
(dp2200
g70
I4
ssg71
g2194
sg64
(lp2201
g100
asbasbasbag57
(g73
g59
NtRp2202
(dp2203
g62
(dp2204
sg71
g2011
sg64
(lp2205
g57
(g78
g59
NtRp2206
(dp2207
g62
(dp2208
g82
g83
ssg71
g2202
sg64
(lp2209
g1270
asbag57
(g78
g59
NtRp2210
(dp2211
g62
(dp2212
g89
g90
ssg71
g2202
sg64
(lp2213
S':'
asbag57
(g78
g59
NtRp2214
(dp2215
g62
(dp2216
sg71
g2202
sg64
(lp2217
g57
(g58
g59
NtRp2218
(dp2219
g62
(dp2220
g70
I4
ssg71
g2214
sg64
(lp2221
g57
(g66
g59
NtRp2222
(dp2223
g62
(dp2224
g70
I3
ssg71
Nsg64
(lp2225
g57
(g73
g59
NtRp2226
(dp2227
g62
(dp2228
sg71
g2222
sg64
(lp2229
g57
(g78
g59
NtRp2230
(dp2231
g62
(dp2232
sg71
g2226
sg64
(lp2233
g57
(g58
g59
NtRp2234
(dp2235
g62
(dp2236
g70
I3
ssg71
g2230
sg64
(lp2237
g1299
asbasbasbag57
(g73
g59
NtRp2238
(dp2239
g62
(dp2240
sg71
g2222
sg64
(lp2241
g57
(g78
g59
NtRp2242
(dp2243
g62
(dp2244
sg71
g2238
sg64
(lp2245
g57
(g58
g59
NtRp2246
(dp2247
g62
(dp2248
g70
I3
ssg71
g2242
sg64
(lp2249
g1312
asbasbasbag57
(g73
g59
NtRp2250
(dp2251
g62
(dp2252
sg71
g2222
sg64
(lp2253
g57
(g78
g59
NtRp2254
(dp2255
g62
(dp2256
sg71
g2250
sg64
(lp2257
g57
(g58
g59
NtRp2258
(dp2259
g62
(dp2260
g70
I3
ssg71
g2254
sg64
(lp2261
g1325
asbasbasbag57
(g73
g59
NtRp2262
(dp2263
g62
(dp2264
sg71
g2222
sg64
(lp2265
g57
(g78
g59
NtRp2266
(dp2267
g62
(dp2268
sg71
g2262
sg64
(lp2269
g57
(g58
g59
NtRp2270
(dp2271
g62
(dp2272
g70
I3
ssg71
g2266
sg64
(lp2273
g1338
asbasbasbag57
(g73
g59
NtRp2274
(dp2275
g62
(dp2276
sg71
g2222
sg64
(lp2277
g57
(g78
g59
NtRp2278
(dp2279
g62
(dp2280
sg71
g2274
sg64
(lp2281
g57
(g58
g59
NtRp2282
(dp2283
g62
(dp2284
g70
I3
ssg71
g2278
sg64
(lp2285
g1351
asbasbasbasbasbasbasbag57
(g73
g59
NtRp2286
(dp2287
g62
(dp2288
sg71
g2011
sg64
(lp2289
g57
(g78
g59
NtRp2290
(dp2291
g62
(dp2292
g82
g83
ssg71
g2286
sg64
(lp2293
g1619
asbag57
(g78
g59
NtRp2294
(dp2295
g62
(dp2296
g89
g90
ssg71
g2286
sg64
(lp2297
S':'
asbag57
(g78
g59
NtRp2298
(dp2299
g62
(dp2300
sg71
g2286
sg64
(lp2301
g57
(g58
g59
NtRp2302
(dp2303
g62
(dp2304
g70
I4
ssg71
g2298
sg64
(lp2305
g57
(g66
g59
NtRp2306
(dp2307
g62
(dp2308
g70
I3
ssg71
Nsg64
(lp2309
g57
(g73
g59
NtRp2310
(dp2311
g62
(dp2312
sg71
g2306
sg64
(lp2313
g57
(g78
g59
NtRp2314
(dp2315
g62
(dp2316
sg71
g2310
sg64
(lp2317
g57
(g58
g59
NtRp2318
(dp2319
g62
(dp2320
g70
I3
ssg71
g2314
sg64
(lp2321
S'2'
asbasbasbag57
(g73
g59
NtRp2322
(dp2323
g62
(dp2324
sg71
g2306
sg64
(lp2325
g57
(g78
g59
NtRp2326
(dp2327
g62
(dp2328
sg71
g2322
sg64
(lp2329
g57
(g58
g59
NtRp2330
(dp2331
g62
(dp2332
g70
I3
ssg71
g2326
sg64
(lp2333
S'3'
asbasbasbag57
(g73
g59
NtRp2334
(dp2335
g62
(dp2336
sg71
g2306
sg64
(lp2337
g57
(g78
g59
NtRp2338
(dp2339
g62
(dp2340
sg71
g2334
sg64
(lp2341
g57
(g58
g59
NtRp2342
(dp2343
g62
(dp2344
g70
I3
ssg71
g2338
sg64
(lp2345
S'2'
asbasbasbag57
(g73
g59
NtRp2346
(dp2347
g62
(dp2348
sg71
g2306
sg64
(lp2349
g57
(g78
g59
NtRp2350
(dp2351
g62
(dp2352
sg71
g2346
sg64
(lp2353
g57
(g58
g59
NtRp2354
(dp2355
g62
(dp2356
g70
I3
ssg71
g2350
sg64
(lp2357
S'datetime.datetime(2012, 12, 17, 15, 3, 30)'
p2358
asbasbasbag57
(g73
g59
NtRp2359
(dp2360
g62
(dp2361
sg71
g2306
sg64
(lp2362
g57
(g78
g59
NtRp2363
(dp2364
g62
(dp2365
sg71
g2359
sg64
(lp2366
g57
(g58
g59
NtRp2367
(dp2368
g62
(dp2369
g70
I3
ssg71
g2363
sg64
(lp2370
g1697
asbasbasbasbasbasbasbasbasbasbasbag57
(g73
g59
NtRp2371
(dp2372
g62
(dp2373
sg71
g67
sg64
(lp2374
g57
(g78
g59
NtRp2375
(dp2376
g62
(dp2377
g82
g83
ssg71
g2371
sg64
(lp2378
S'is_https'
p2379
asbag57
(g78
g59
NtRp2380
(dp2381
g62
(dp2382
g89
g90
ssg71
g2371
sg64
(lp2383
S':'
asbag57
(g78
g59
NtRp2384
(dp2385
g62
(dp2386
sg71
g2371
sg64
(lp2387
g57
(g58
g59
NtRp2388
(dp2389
g62
(dp2390
g70
I5
ssg71
g2384
sg64
(lp2391
g100
asbasbasbag57
(g73
g59
NtRp2392
(dp2393
g62
(dp2394
sg71
g67
sg64
(lp2395
g57
(g78
g59
NtRp2396
(dp2397
g62
(dp2398
g82
g83
ssg71
g2392
sg64
(lp2399
S'is_local'
p2400
asbag57
(g78
g59
NtRp2401
(dp2402
g62
(dp2403
g89
g90
ssg71
g2392
sg64
(lp2404
S':'
asbag57
(g78
g59
NtRp2405
(dp2406
g62
(dp2407
sg71
g2392
sg64
(lp2408
g57
(g58
g59
NtRp2409
(dp2410
g62
(dp2411
g70
I5
ssg71
g2405
sg64
(lp2412
g1806
asbasbasbag57
(g73
g59
NtRp2413
(dp2414
g62
(dp2415
sg71
g67
sg64
(lp2416
g57
(g78
g59
NtRp2417
(dp2418
g62
(dp2419
g82
g83
ssg71
g2413
sg64
(lp2420
S'is_restful'
p2421
asbag57
(g78
g59
NtRp2422
(dp2423
g62
(dp2424
g89
g90
ssg71
g2413
sg64
(lp2425
S':'
asbag57
(g78
g59
NtRp2426
(dp2427
g62
(dp2428
sg71
g2413
sg64
(lp2429
g57
(g58
g59
NtRp2430
(dp2431
g62
(dp2432
g70
I5
ssg71
g2426
sg64
(lp2433
g100
asbasbasbag57
(g73
g59
NtRp2434
(dp2435
g62
(dp2436
sg71
g67
sg64
(lp2437
g57
(g78
g59
NtRp2438
(dp2439
g62
(dp2440
g82
g83
ssg71
g2434
sg64
(lp2441
S'now'
p2442
asbag57
(g78
g59
NtRp2443
(dp2444
g62
(dp2445
g89
g90
ssg71
g2434
sg64
(lp2446
S':'
asbag57
(g78
g59
NtRp2447
(dp2448
g62
(dp2449
sg71
g2434
sg64
(lp2450
g57
(g58
g59
NtRp2451
(dp2452
g62
(dp2453
g70
I5
ssg71
g2447
sg64
(lp2454
S'datetime.datetime(2013, 8, 28, 23, 41, 2, 541026)'
p2455
asbasbasbag57
(g73
g59
NtRp2456
(dp2457
g62
(dp2458
sg71
g67
sg64
(lp2459
g57
(g78
g59
NtRp2460
(dp2461
g62
(dp2462
g82
g83
ssg71
g2456
sg64
(lp2463
S'post_vars'
p2464
asbag57
(g78
g59
NtRp2465
(dp2466
g62
(dp2467
g89
g90
ssg71
g2456
sg64
(lp2468
S':'
asbag57
(g78
g59
NtRp2469
(dp2470
g62
(dp2471
sg71
g2456
sg64
(lp2472
g57
(g58
g59
NtRp2473
(dp2474
g62
(dp2475
g70
I5
ssg71
g2469
sg64
(lp2476
g57
(g66
g59
NtRp2477
(dp2478
g62
(dp2479
g70
I4
ssg71
Nsg64
(lp2480
sbasbasbasbag57
(g73
g59
NtRp2481
(dp2482
g62
(dp2483
sg71
g67
sg64
(lp2484
g57
(g78
g59
NtRp2485
(dp2486
g62
(dp2487
g82
g83
ssg71
g2481
sg64
(lp2488
S'raw_args'
p2489
asbag57
(g78
g59
NtRp2490
(dp2491
g62
(dp2492
g89
g90
ssg71
g2481
sg64
(lp2493
S':'
asbag57
(g78
g59
NtRp2494
(dp2495
g62
(dp2496
sg71
g2481
sg64
(lp2497
g57
(g58
g59
NtRp2498
(dp2499
g62
(dp2500
g70
I5
ssg71
g2494
sg64
(lp2501
S'16/2/0'
p2502
asbasbasbag57
(g73
g59
NtRp2503
(dp2504
g62
(dp2505
sg71
g67
sg64
(lp2506
g57
(g78
g59
NtRp2507
(dp2508
g62
(dp2509
g82
g83
ssg71
g2503
sg64
(lp2510
S'raw_extension'
p2511
asbag57
(g78
g59
NtRp2512
(dp2513
g62
(dp2514
g89
g90
ssg71
g2503
sg64
(lp2515
S':'
asbag57
(g78
g59
NtRp2516
(dp2517
g62
(dp2518
sg71
g2503
sg64
(lp2519
g57
(g58
g59
NtRp2520
(dp2521
g62
(dp2522
g70
I5
ssg71
g2516
sg64
(lp2523
S'None'
p2524
asbasbasbag57
(g73
g59
NtRp2525
(dp2526
g62
(dp2527
sg71
g67
sg64
(lp2528
g57
(g78
g59
NtRp2529
(dp2530
g62
(dp2531
g82
g83
ssg71
g2525
sg64
(lp2532
S'url'
p2533
asbag57
(g78
g59
NtRp2534
(dp2535
g62
(dp2536
g89
g90
ssg71
g2525
sg64
(lp2537
S':'
asbag57
(g78
g59
NtRp2538
(dp2539
g62
(dp2540
sg71
g2525
sg64
(lp2541
g57
(g58
g59
NtRp2542
(dp2543
g62
(dp2544
g70
I5
ssg71
g2538
sg64
(lp2545
g1373
asbasbasbag57
(g73
g59
NtRp2546
(dp2547
g62
(dp2548
sg71
g67
sg64
(lp2549
g57
(g78
g59
NtRp2550
(dp2551
g62
(dp2552
g82
g83
ssg71
g2546
sg64
(lp2553
S'utcnow'
p2554
asbag57
(g78
g59
NtRp2555
(dp2556
g62
(dp2557
g89
g90
ssg71
g2546
sg64
(lp2558
S':'
asbag57
(g78
g59
NtRp2559
(dp2560
g62
(dp2561
sg71
g2546
sg64
(lp2562
g57
(g58
g59
NtRp2563
(dp2564
g62
(dp2565
g70
I5
ssg71
g2559
sg64
(lp2566
S'datetime.datetime(2013, 8, 28, 18, 11, 2, 541077)'
p2567
asbasbasbag57
(g73
g59
NtRp2568
(dp2569
g62
(dp2570
sg71
g67
sg64
(lp2571
g57
(g78
g59
NtRp2572
(dp2573
g62
(dp2574
g82
g83
ssg71
g2568
sg64
(lp2575
S'uuid'
p2576
asbag57
(g78
g59
NtRp2577
(dp2578
g62
(dp2579
g89
g90
ssg71
g2568
sg64
(lp2580
S':'
asbag57
(g78
g59
NtRp2581
(dp2582
g62
(dp2583
sg71
g2568
sg64
(lp2584
g57
(g58
g59
NtRp2585
(dp2586
g62
(dp2587
g70
I5
ssg71
g2581
sg64
(lp2588
S'assignmen3/127.0.0.1.2013-08-28.23-41-02.766e3f2b-e070-4100-bbe8-35b9bec0a101'
p2589
asbasbasbag57
(g73
g59
NtRp2590
(dp2591
g62
(dp2592
sg71
g67
sg64
(lp2593
g57
(g78
g59
NtRp2594
(dp2595
g62
(dp2596
g82
g83
ssg71
g2590
sg64
(lp2597
S'vars'
p2598
asbag57
(g78
g59
NtRp2599
(dp2600
g62
(dp2601
g89
g90
ssg71
g2590
sg64
(lp2602
S':'
asbag57
(g78
g59
NtRp2603
(dp2604
g62
(dp2605
sg71
g2590
sg64
(lp2606
g57
(g58
g59
NtRp2607
(dp2608
g62
(dp2609
g70
I5
ssg71
g2603
sg64
(lp2610
g57
(g66
g59
NtRp2611
(dp2612
g62
(dp2613
g70
I4
ssg71
Nsg64
(lp2614
sbasbasbasbag57
(g73
g59
NtRp2615
(dp2616
g62
(dp2617
sg71
g67
sg64
(lp2618
g57
(g78
g59
NtRp2619
(dp2620
g62
(dp2621
g82
g83
ssg71
g2615
sg64
(lp2622
S'wsgi'
p2623
asbag57
(g78
g59
NtRp2624
(dp2625
g62
(dp2626
g89
g90
ssg71
g2615
sg64
(lp2627
S':'
asbag57
(g78
g59
NtRp2628
(dp2629
g62
(dp2630
sg71
g2615
sg64
(lp2631
g57
(g58
g59
NtRp2632
(dp2633
g62
(dp2634
g70
I5
ssg71
g2628
sg64
(lp2635
g57
(g66
g59
NtRp2636
(dp2637
g62
(dp2638
g70
I4
ssg71
Nsg64
(lp2639
g57
(g73
g59
NtRp2640
(dp2641
g62
(dp2642
sg71
g2636
sg64
(lp2643
g57
(g78
g59
NtRp2644
(dp2645
g62
(dp2646
g82
g83
ssg71
g2640
sg64
(lp2647
S'environ'
p2648
asbag57
(g78
g59
NtRp2649
(dp2650
g62
(dp2651
g89
g90
ssg71
g2640
sg64
(lp2652
S':'
asbag57
(g78
g59
NtRp2653
(dp2654
g62
(dp2655
sg71
g2640
sg64
(lp2656
g57
(g58
g59
NtRp2657
(dp2658
g62
(dp2659
g70
I4
ssg71
g2653
sg64
(lp2660
g57
(g66
g59
NtRp2661
(dp2662
g62
(dp2663
g70
I3
ssg71
Nsg64
(lp2664
g57
(g73
g59
NtRp2665
(dp2666
g62
(dp2667
sg71
g2661
sg64
(lp2668
g57
(g78
g59
NtRp2669
(dp2670
g62
(dp2671
g82
g83
ssg71
g2665
sg64
(lp2672
S'HTTP_ACCEPT'
p2673
asbag57
(g78
g59
NtRp2674
(dp2675
g62
(dp2676
g89
g90
ssg71
g2665
sg64
(lp2677
S':'
asbag57
(g78
g59
NtRp2678
(dp2679
g62
(dp2680
sg71
g2665
sg64
(lp2681
g57
(g58
g59
NtRp2682
(dp2683
g62
(dp2684
g70
I3
ssg71
g2678
sg64
(lp2685
g1065
asbasbasbag57
(g73
g59
NtRp2686
(dp2687
g62
(dp2688
sg71
g2661
sg64
(lp2689
g57
(g78
g59
NtRp2690
(dp2691
g62
(dp2692
g82
g83
ssg71
g2686
sg64
(lp2693
S'HTTP_ACCEPT_ENCODING'
p2694
asbag57
(g78
g59
NtRp2695
(dp2696
g62
(dp2697
g89
g90
ssg71
g2686
sg64
(lp2698
S':'
asbag57
(g78
g59
NtRp2699
(dp2700
g62
(dp2701
sg71
g2686
sg64
(lp2702
g57
(g58
g59
NtRp2703
(dp2704
g62
(dp2705
g70
I3
ssg71
g2699
sg64
(lp2706
g1087
asbasbasbag57
(g73
g59
NtRp2707
(dp2708
g62
(dp2709
sg71
g2661
sg64
(lp2710
g57
(g78
g59
NtRp2711
(dp2712
g62
(dp2713
g82
g83
ssg71
g2707
sg64
(lp2714
S'HTTP_ACCEPT_LANGUAGE'
p2715
asbag57
(g78
g59
NtRp2716
(dp2717
g62
(dp2718
g89
g90
ssg71
g2707
sg64
(lp2719
S':'
asbag57
(g78
g59
NtRp2720
(dp2721
g62
(dp2722
sg71
g2707
sg64
(lp2723
g57
(g58
g59
NtRp2724
(dp2725
g62
(dp2726
g70
I3
ssg71
g2720
sg64
(lp2727
g1109
asbasbasbag57
(g73
g59
NtRp2728
(dp2729
g62
(dp2730
sg71
g2661
sg64
(lp2731
g57
(g78
g59
NtRp2732
(dp2733
g62
(dp2734
g82
g83
ssg71
g2728
sg64
(lp2735
S'HTTP_CONNECTION'
p2736
asbag57
(g78
g59
NtRp2737
(dp2738
g62
(dp2739
g89
g90
ssg71
g2728
sg64
(lp2740
S':'
asbag57
(g78
g59
NtRp2741
(dp2742
g62
(dp2743
sg71
g2728
sg64
(lp2744
g57
(g58
g59
NtRp2745
(dp2746
g62
(dp2747
g70
I3
ssg71
g2741
sg64
(lp2748
g1131
asbasbasbag57
(g73
g59
NtRp2749
(dp2750
g62
(dp2751
sg71
g2661
sg64
(lp2752
g57
(g78
g59
NtRp2753
(dp2754
g62
(dp2755
g82
g83
ssg71
g2749
sg64
(lp2756
S'HTTP_COOKIE'
p2757
asbag57
(g78
g59
NtRp2758
(dp2759
g62
(dp2760
g89
g90
ssg71
g2749
sg64
(lp2761
S':'
asbag57
(g78
g59
NtRp2762
(dp2763
g62
(dp2764
sg71
g2749
sg64
(lp2765
g57
(g58
g59
NtRp2766
(dp2767
g62
(dp2768
g70
I3
ssg71
g2762
sg64
(lp2769
g1153
asbasbasbag57
(g73
g59
NtRp2770
(dp2771
g62
(dp2772
sg71
g2661
sg64
(lp2773
g57
(g78
g59
NtRp2774
(dp2775
g62
(dp2776
g82
g83
ssg71
g2770
sg64
(lp2777
S'HTTP_HOST'
p2778
asbag57
(g78
g59
NtRp2779
(dp2780
g62
(dp2781
g89
g90
ssg71
g2770
sg64
(lp2782
S':'
asbag57
(g78
g59
NtRp2783
(dp2784
g62
(dp2785
sg71
g2770
sg64
(lp2786
g57
(g58
g59
NtRp2787
(dp2788
g62
(dp2789
g70
I3
ssg71
g2783
sg64
(lp2790
g1175
asbasbasbag57
(g73
g59
NtRp2791
(dp2792
g62
(dp2793
sg71
g2661
sg64
(lp2794
g57
(g78
g59
NtRp2795
(dp2796
g62
(dp2797
g82
g83
ssg71
g2791
sg64
(lp2798
S'HTTP_REFERER'
p2799
asbag57
(g78
g59
NtRp2800
(dp2801
g62
(dp2802
g89
g90
ssg71
g2791
sg64
(lp2803
S':'
asbag57
(g78
g59
NtRp2804
(dp2805
g62
(dp2806
sg71
g2791
sg64
(lp2807
g57
(g58
g59
NtRp2808
(dp2809
g62
(dp2810
g70
I3
ssg71
g2804
sg64
(lp2811
g1197
asbasbasbag57
(g73
g59
NtRp2812
(dp2813
g62
(dp2814
sg71
g2661
sg64
(lp2815
g57
(g78
g59
NtRp2816
(dp2817
g62
(dp2818
g82
g83
ssg71
g2812
sg64
(lp2819
S'HTTP_USER_AGENT'
p2820
asbag57
(g78
g59
NtRp2821
(dp2822
g62
(dp2823
g89
g90
ssg71
g2812
sg64
(lp2824
S':'
asbag57
(g78
g59
NtRp2825
(dp2826
g62
(dp2827
sg71
g2812
sg64
(lp2828
g57
(g58
g59
NtRp2829
(dp2830
g62
(dp2831
g70
I3
ssg71
g2825
sg64
(lp2832
g1219
asbasbasbag57
(g73
g59
NtRp2833
(dp2834
g62
(dp2835
sg71
g2661
sg64
(lp2836
g57
(g78
g59
NtRp2837
(dp2838
g62
(dp2839
g82
g83
ssg71
g2833
sg64
(lp2840
S'PATH_INFO'
p2841
asbag57
(g78
g59
NtRp2842
(dp2843
g62
(dp2844
g89
g90
ssg71
g2833
sg64
(lp2845
S':'
asbag57
(g78
g59
NtRp2846
(dp2847
g62
(dp2848
sg71
g2833
sg64
(lp2849
g57
(g58
g59
NtRp2850
(dp2851
g62
(dp2852
g70
I3
ssg71
g2846
sg64
(lp2853
g1373
asbasbasbag57
(g73
g59
NtRp2854
(dp2855
g62
(dp2856
sg71
g2661
sg64
(lp2857
g57
(g78
g59
NtRp2858
(dp2859
g62
(dp2860
g82
g83
ssg71
g2854
sg64
(lp2861
S'QUERY_STRING'
p2862
asbag57
(g78
g59
NtRp2863
(dp2864
g62
(dp2865
g89
g90
ssg71
g2854
sg64
(lp2866
S':'
asbag57
(g78
g59
NtRp2867
(dp2868
g62
(dp2869
sg71
g2854
sg64
(lp2870
g57
(g58
g59
NtRp2871
(dp2872
g62
(dp2873
g70
I3
ssg71
g2867
sg64
(lp2874
S''
asbasbasbag57
(g73
g59
NtRp2875
(dp2876
g62
(dp2877
sg71
g2661
sg64
(lp2878
g57
(g78
g59
NtRp2879
(dp2880
g62
(dp2881
g82
g83
ssg71
g2875
sg64
(lp2882
S'REMOTE_ADDR'
p2883
asbag57
(g78
g59
NtRp2884
(dp2885
g62
(dp2886
g89
g90
ssg71
g2875
sg64
(lp2887
S':'
asbag57
(g78
g59
NtRp2888
(dp2889
g62
(dp2890
sg71
g2875
sg64
(lp2891
g57
(g58
g59
NtRp2892
(dp2893
g62
(dp2894
g70
I3
ssg71
g2888
sg64
(lp2895
g249
asbasbasbag57
(g73
g59
NtRp2896
(dp2897
g62
(dp2898
sg71
g2661
sg64
(lp2899
g57
(g78
g59
NtRp2900
(dp2901
g62
(dp2902
g82
g83
ssg71
g2896
sg64
(lp2903
S'REMOTE_PORT'
p2904
asbag57
(g78
g59
NtRp2905
(dp2906
g62
(dp2907
g89
g90
ssg71
g2896
sg64
(lp2908
S':'
asbag57
(g78
g59
NtRp2909
(dp2910
g62
(dp2911
sg71
g2896
sg64
(lp2912
g57
(g58
g59
NtRp2913
(dp2914
g62
(dp2915
g70
I3
ssg71
g2909
sg64
(lp2916
g1437
asbasbasbag57
(g73
g59
NtRp2917
(dp2918
g62
(dp2919
sg71
g2661
sg64
(lp2920
g57
(g78
g59
NtRp2921
(dp2922
g62
(dp2923
g82
g83
ssg71
g2917
sg64
(lp2924
S'REQUEST_METHOD'
p2925
asbag57
(g78
g59
NtRp2926
(dp2927
g62
(dp2928
g89
g90
ssg71
g2917
sg64
(lp2929
S':'
asbag57
(g78
g59
NtRp2930
(dp2931
g62
(dp2932
sg71
g2917
sg64
(lp2933
g57
(g58
g59
NtRp2934
(dp2935
g62
(dp2936
g70
I3
ssg71
g2930
sg64
(lp2937
g1459
asbasbasbag57
(g73
g59
NtRp2938
(dp2939
g62
(dp2940
sg71
g2661
sg64
(lp2941
g57
(g78
g59
NtRp2942
(dp2943
g62
(dp2944
g82
g83
ssg71
g2938
sg64
(lp2945
S'REQUEST_URI'
p2946
asbag57
(g78
g59
NtRp2947
(dp2948
g62
(dp2949
g89
g90
ssg71
g2938
sg64
(lp2950
S':'
asbag57
(g78
g59
NtRp2951
(dp2952
g62
(dp2953
sg71
g2938
sg64
(lp2954
g57
(g58
g59
NtRp2955
(dp2956
g62
(dp2957
g70
I3
ssg71
g2951
sg64
(lp2958
g1373
asbasbasbag57
(g73
g59
NtRp2959
(dp2960
g62
(dp2961
sg71
g2661
sg64
(lp2962
g57
(g78
g59
NtRp2963
(dp2964
g62
(dp2965
g82
g83
ssg71
g2959
sg64
(lp2966
S'SCRIPT_NAME'
p2967
asbag57
(g78
g59
NtRp2968
(dp2969
g62
(dp2970
g89
g90
ssg71
g2959
sg64
(lp2971
S':'
asbag57
(g78
g59
NtRp2972
(dp2973
g62
(dp2974
sg71
g2959
sg64
(lp2975
g57
(g58
g59
NtRp2976
(dp2977
g62
(dp2978
g70
I3
ssg71
g2972
sg64
(lp2979
S''
asbasbasbag57
(g73
g59
NtRp2980
(dp2981
g62
(dp2982
sg71
g2661
sg64
(lp2983
g57
(g78
g59
NtRp2984
(dp2985
g62
(dp2986
g82
g83
ssg71
g2980
sg64
(lp2987
S'SERVER_NAME'
p2988
asbag57
(g78
g59
NtRp2989
(dp2990
g62
(dp2991
g89
g90
ssg71
g2980
sg64
(lp2992
S':'
asbag57
(g78
g59
NtRp2993
(dp2994
g62
(dp2995
sg71
g2980
sg64
(lp2996
g57
(g58
g59
NtRp2997
(dp2998
g62
(dp2999
g70
I3
ssg71
g2993
sg64
(lp3000
g1523
asbasbasbag57
(g73
g59
NtRp3001
(dp3002
g62
(dp3003
sg71
g2661
sg64
(lp3004
g57
(g78
g59
NtRp3005
(dp3006
g62
(dp3007
g82
g83
ssg71
g3001
sg64
(lp3008
S'SERVER_PORT'
p3009
asbag57
(g78
g59
NtRp3010
(dp3011
g62
(dp3012
g89
g90
ssg71
g3001
sg64
(lp3013
S':'
asbag57
(g78
g59
NtRp3014
(dp3015
g62
(dp3016
sg71
g3001
sg64
(lp3017
g57
(g58
g59
NtRp3018
(dp3019
g62
(dp3020
g70
I3
ssg71
g3014
sg64
(lp3021
g1545
asbasbasbag57
(g73
g59
NtRp3022
(dp3023
g62
(dp3024
sg71
g2661
sg64
(lp3025
g57
(g78
g59
NtRp3026
(dp3027
g62
(dp3028
g82
g83
ssg71
g3022
sg64
(lp3029
S'SERVER_PROTOCOL'
p3030
asbag57
(g78
g59
NtRp3031
(dp3032
g62
(dp3033
g89
g90
ssg71
g3022
sg64
(lp3034
S':'
asbag57
(g78
g59
NtRp3035
(dp3036
g62
(dp3037
sg71
g3022
sg64
(lp3038
g57
(g58
g59
NtRp3039
(dp3040
g62
(dp3041
g70
I3
ssg71
g3035
sg64
(lp3042
g1567
asbasbasbag57
(g73
g59
NtRp3043
(dp3044
g62
(dp3045
sg71
g2661
sg64
(lp3046
g57
(g78
g59
NtRp3047
(dp3048
g62
(dp3049
g82
g83
ssg71
g3043
sg64
(lp3050
S'SERVER_SOFTWARE'
p3051
asbag57
(g78
g59
NtRp3052
(dp3053
g62
(dp3054
g89
g90
ssg71
g3043
sg64
(lp3055
S':'
asbag57
(g78
g59
NtRp3056
(dp3057
g62
(dp3058
sg71
g3043
sg64
(lp3059
g57
(g58
g59
NtRp3060
(dp3061
g62
(dp3062
g70
I3
ssg71
g3056
sg64
(lp3063
g1589
asbasbasbag57
(g73
g59
NtRp3064
(dp3065
g62
(dp3066
sg71
g2661
sg64
(lp3067
g57
(g78
g59
NtRp3068
(dp3069
g62
(dp3070
g82
g83
ssg71
g3064
sg64
(lp3071
S'wsgi.errors'
p3072
asbag57
(g78
g59
NtRp3073
(dp3074
g62
(dp3075
g89
g90
ssg71
g3064
sg64
(lp3076
S':'
asbag57
(g78
g59
NtRp3077
(dp3078
g62
(dp3079
sg71
g3064
sg64
(lp3080
g57
(g58
g59
NtRp3081
(dp3082
g62
(dp3083
g70
I3
ssg71
g3077
sg64
(lp3084
S"<open file '<stderr>', mode 'w' at 0x7fe333a04270>"
p3085
asbasbasbag57
(g73
g59
NtRp3086
(dp3087
g62
(dp3088
sg71
g2661
sg64
(lp3089
g57
(g78
g59
NtRp3090
(dp3091
g62
(dp3092
g82
g83
ssg71
g3086
sg64
(lp3093
S'wsgi.file_wrapper'
p3094
asbag57
(g78
g59
NtRp3095
(dp3096
g62
(dp3097
g89
g90
ssg71
g3086
sg64
(lp3098
S':'
asbag57
(g78
g59
NtRp3099
(dp3100
g62
(dp3101
sg71
g3086
sg64
(lp3102
g57
(g58
g59
NtRp3103
(dp3104
g62
(dp3105
g70
I3
ssg71
g3099
sg64
(lp3106
S'<class wsgiref.util.FileWrapper at 0x1904b48>'
p3107
asbasbasbag57
(g73
g59
NtRp3108
(dp3109
g62
(dp3110
sg71
g2661
sg64
(lp3111
g57
(g78
g59
NtRp3112
(dp3113
g62
(dp3114
g82
g83
ssg71
g3108
sg64
(lp3115
S'wsgi.input'
p3116
asbag57
(g78
g59
NtRp3117
(dp3118
g62
(dp3119
g89
g90
ssg71
g3108
sg64
(lp3120
S':'
asbag57
(g78
g59
NtRp3121
(dp3122
g62
(dp3123
sg71
g3108
sg64
(lp3124
g57
(g58
g59
NtRp3125
(dp3126
g62
(dp3127
g70
I3
ssg71
g3121
sg64
(lp3128
S'<cStringIO.StringO object at 0x1cf9998>'
p3129
asbasbasbag57
(g73
g59
NtRp3130
(dp3131
g62
(dp3132
sg71
g2661
sg64
(lp3133
g57
(g78
g59
NtRp3134
(dp3135
g62
(dp3136
g82
g83
ssg71
g3130
sg64
(lp3137
S'wsgi.multiprocess'
p3138
asbag57
(g78
g59
NtRp3139
(dp3140
g62
(dp3141
g89
g90
ssg71
g3130
sg64
(lp3142
S':'
asbag57
(g78
g59
NtRp3143
(dp3144
g62
(dp3145
sg71
g3130
sg64
(lp3146
g57
(g58
g59
NtRp3147
(dp3148
g62
(dp3149
g70
I3
ssg71
g3143
sg64
(lp3150
g100
asbasbasbag57
(g73
g59
NtRp3151
(dp3152
g62
(dp3153
sg71
g2661
sg64
(lp3154
g57
(g78
g59
NtRp3155
(dp3156
g62
(dp3157
g82
g83
ssg71
g3151
sg64
(lp3158
S'wsgi.multithread'
p3159
asbag57
(g78
g59
NtRp3160
(dp3161
g62
(dp3162
g89
g90
ssg71
g3151
sg64
(lp3163
S':'
asbag57
(g78
g59
NtRp3164
(dp3165
g62
(dp3166
sg71
g3151
sg64
(lp3167
g57
(g58
g59
NtRp3168
(dp3169
g62
(dp3170
g70
I3
ssg71
g3164
sg64
(lp3171
g1806
asbasbasbag57
(g73
g59
NtRp3172
(dp3173
g62
(dp3174
sg71
g2661
sg64
(lp3175
g57
(g78
g59
NtRp3176
(dp3177
g62
(dp3178
g82
g83
ssg71
g3172
sg64
(lp3179
S'wsgi.run_once'
p3180
asbag57
(g78
g59
NtRp3181
(dp3182
g62
(dp3183
g89
g90
ssg71
g3172
sg64
(lp3184
S':'
asbag57
(g78
g59
NtRp3185
(dp3186
g62
(dp3187
sg71
g3172
sg64
(lp3188
g57
(g58
g59
NtRp3189
(dp3190
g62
(dp3191
g70
I3
ssg71
g3185
sg64
(lp3192
g100
asbasbasbag57
(g73
g59
NtRp3193
(dp3194
g62
(dp3195
sg71
g2661
sg64
(lp3196
g57
(g78
g59
NtRp3197
(dp3198
g62
(dp3199
g82
g83
ssg71
g3193
sg64
(lp3200
S'wsgi.url_scheme'
p3201
asbag57
(g78
g59
NtRp3202
(dp3203
g62
(dp3204
g89
g90
ssg71
g3193
sg64
(lp3205
S':'
asbag57
(g78
g59
NtRp3206
(dp3207
g62
(dp3208
sg71
g3193
sg64
(lp3209
g57
(g58
g59
NtRp3210
(dp3211
g62
(dp3212
g70
I3
ssg71
g3206
sg64
(lp3213
g1849
asbasbasbag57
(g73
g59
NtRp3214
(dp3215
g62
(dp3216
sg71
g2661
sg64
(lp3217
g57
(g78
g59
NtRp3218
(dp3219
g62
(dp3220
g82
g83
ssg71
g3214
sg64
(lp3221
S'wsgi.version'
p3222
asbag57
(g78
g59
NtRp3223
(dp3224
g62
(dp3225
g89
g90
ssg71
g3214
sg64
(lp3226
S':'
asbag57
(g78
g59
NtRp3227
(dp3228
g62
(dp3229
sg71
g3214
sg64
(lp3230
g57
(g58
g59
NtRp3231
(dp3232
g62
(dp3233
g70
I3
ssg71
g3227
sg64
(lp3234
S'1'
asbasbasbasbasbasbasbasbasbasbasbasbasbsS'frames'
p3235
(lp3236
(dp3237
S'file'
p3238
S'/home/umang/web2py/gluon/restricted.py'
p3239
sS'dump'
p3240
(dp3241
S'environment'
p3242
S"{'A': <class 'gluon.html.A'>, 'Auth': <class 'gluon.tools.Auth'>, 'B': <class 'gluon.html.B'>, 'BEAUTIFY': <class 'gluon.html.BEAUTIFY'>, 'BODY': <class 'gluon.html.BODY'>, 'BR': <class 'gluon.html.BR'>, 'BUTTON': <class 'gluon.html.BUTTON'>, 'CAT': <class 'gluon.html.CAT'>, 'CENTER': <class 'gluon.html.CENTER'>, 'CLEANUP': <class 'gluon.validators.CLEANUP'>, ...}"
p3243
sS'ccode'
p3244
S'<code object <module> at 0x7fe3104faab0, file "/...ions/assignmen3/controllers/default.py", line 11>'
p3245
ssS'lnum'
p3246
I212
sS'lines'
p3247
(dp3248
I207
S'    try:'
p3249
sI208
S'        if isinstance(code, types.CodeType):'
p3250
sI209
S'            ccode = code'
p3251
sI210
S'        else:'
p3252
sI211
S'            ccode = compile2(code, layer)'
p3253
sI212
S'        exec ccode in environment'
p3254
sI213
S'    except HTTP:'
p3255
sI214
S'        raise'
p3256
sI215
S'    except RestrictedError:'
p3257
sI216
S'        # do not encapsulate (obfuscate) the original RestrictedError'
p3258
ssS'call'
p3259
S"(code='# -*- coding: utf-8 -*-\\n# this file is released ...rud())\\n\\nresponse._vars=response._caller(dislike)\\n', environment={'A': <class 'gluon.html.A'>, 'Auth': <class 'gluon.tools.Auth'>, 'B': <class 'gluon.html.B'>, 'BEAUTIFY': <class 'gluon.html.BEAUTIFY'>, 'BODY': <class 'gluon.html.BODY'>, 'BR': <class 'gluon.html.BR'>, 'BUTTON': <class 'gluon.html.BUTTON'>, 'CAT': <class 'gluon.html.CAT'>, 'CENTER': <class 'gluon.html.CENTER'>, 'CLEANUP': <class 'gluon.validators.CLEANUP'>, ...}, layer='/home/umang/web2py/applications/assignmen3/controllers/default.py')"
p3260
sS'func'
p3261
S'restricted'
p3262
sa(dp3263
g3238
S'/home/umang/web2py/applications/assignmen3/controllers/default.py'
p3264
sg3240
(dp3265
sg3246
I402
sg3247
(dp3266
I391
S'    http://..../[app]/default/data/update/[table]/[id]'
p3267
sI392
S'    http://..../[app]/default/data/delete/[table]/[id]'
p3268
sI393
S'    http://..../[app]/default/data/select/[table]'
p3269
sI394
S'    http://..../[app]/default/data/search/[table]'
p3270
sI395
S'    but URLs must be signed, i.e. linked with'
p3271
sI396
S"      A('table',_href=URL('data/tables',user_signature=True))"
p3272
sI397
S'    or with the signed load operator'
p3273
sI398
S"      LOAD('default','data.load',args='tables',ajax=True,user_signature=True)"
p3274
sI399
S'    """'
p3275
sI400
S'    return dict(form=crud())'
p3276
ssg3259
S'()'
p3277
sg3261
S'<module>'
p3278
sa(dp3279
g3238
S'/home/umang/web2py/gluon/globals.py'
p3280
sg3240
(dp3281
S'self'
p3282
S'undefined'
p3283
sS'f'
S'<function dislike>'
p3284
ssg3246
I193
sg3247
(dp3285
I192
S'        self._vars = None'
p3286
sI193
S'        self._caller = lambda f: f()'
p3287
sI194
S'        self._view_environment = None'
p3288
sI195
S'        self._custom_commit = None'
p3289
sI196
S'        self._custom_rollback = None'
p3290
sI197
S''
sI188
S'        self.menu = []             # used by the default view layout'
p3291
sI189
S'        self.files = []            # used by web2py_ajax.html'
p3292
sI190
S'        self.generic_patterns = []  # patterns to allow generic views'
p3293
sI191
S"        self.delimiters = ('{{', '}}')"
p3294
ssg3259
S'(f=<function dislike>)'
p3295
sg3261
S'<lambda>'
p3296
sa(dp3297
g3238
S'/home/umang/web2py/gluon/tools.py'
p3298
sg3240
(dp3299
S'action'
p3300
S'<function dislike>'
p3301
sS'a'
S'()'
p3302
sS'b'
g45
ssg3246
I2929
sg3247
(dp3303
I2924
S'                    flag = condition'
p3304
sI2925
S'                if not flag:'
p3305
sI2926
S'                    current.session.flash = self.messages.access_denied'
p3306
sI2927
S'                    return call_or_redirect('
p3307
sI2928
S'                        self.settings.on_failed_authorization)'
p3308
sI2929
S'                return action(*a, **b)'
p3309
sI2930
S'            f.__doc__ = action.__doc__'
p3310
sI2931
S'            f.__name__ = action.__name__'
p3311
sI2932
S'            f.__dict__.update(action.__dict__)'
p3312
sI2933
S'            return f'
p3313
ssg3259
S'(*a=(), **b={})'
p3314
sg3261
S'f'
sa(dp3315
g3238
S'/home/umang/web2py/applications/assignmen3/controllers/default.py'
p3316
sg3240
(dp3317
S'].disliked'
p3318
g3283
sS'query'
p3319
S'<Rows (1)>'
p3320
sS'builtinint'
p3321
S"<type 'int'>"
p3322
sS'].liked'
p3323
g3283
ssg3246
I216
sg3247
(dp3324
I211
S'\tif(len(query)!=0):'
p3325
sI212
S'\t\tif(int(query[0].disliked)==1):'
p3326
sI213
S'\t\t\tdb(db.news.id==news_id).update(rating=ar[0].rating+3)'
p3327
sI214
S'\t\t\tdb((db.rating.news_id==news_id) & (db.rating.rater_id==auth.user_id)).update(disliked=0)'
p3328
sI215
S"\t\t\tsession.flash=T('You Unliked It')"
p3329
sI216
S'\t\tif(int(query[0].disliked)==0 and int(query[0].liked)==0):'
p3330
sI217
S'\t\t\tdb(db.news.id==news_id).update(rating=ar[0].rating-3)'
p3331
sI218
S'\t\t\tdb((db.rating.news_id==news_id) & (db.rating.rater_id==auth.user_id)).update(disliked=1)'
p3332
sI219
S"\t\t\tsession.flash=T('You Again Liked It')"
p3333
sI220
S'\tif(flag==0):'
p3334
ssg3259
S'()'
p3335
sg3261
S'dislike'
p3336
sasS'pyver'
p3337
S'Python 2.7.3: /usr/bin/python'
p3338
sS'session'
p3339
g57
(g58
g59
NtRp3340
(dp3341
g62
(dp3342
sg64
(lp3343
g57
(g66
g59
NtRp3344
(dp3345
g62
(dp3346
g70
I5
ssg71
Nsg64
(lp3347
g57
(g73
g59
NtRp3348
(dp3349
g62
(dp3350
sg71
g3344
sg64
(lp3351
g57
(g78
g59
NtRp3352
(dp3353
g62
(dp3354
g82
g83
ssg71
g3348
sg64
(lp3355
S'auth'
p3356
asbag57
(g78
g59
NtRp3357
(dp3358
g62
(dp3359
g89
g90
ssg71
g3348
sg64
(lp3360
S':'
asbag57
(g78
g59
NtRp3361
(dp3362
g62
(dp3363
sg71
g3348
sg64
(lp3364
g57
(g58
g59
NtRp3365
(dp3366
g62
(dp3367
g70
I5
ssg71
g3361
sg64
(lp3368
g57
(g66
g59
NtRp3369
(dp3370
g62
(dp3371
g70
I4
ssg71
Nsg64
(lp3372
g57
(g73
g59
NtRp3373
(dp3374
g62
(dp3375
sg71
g3369
sg64
(lp3376
g57
(g78
g59
NtRp3377
(dp3378
g62
(dp3379
g82
g83
ssg71
g3373
sg64
(lp3380
S'expiration'
p3381
asbag57
(g78
g59
NtRp3382
(dp3383
g62
(dp3384
g89
g90
ssg71
g3373
sg64
(lp3385
S':'
asbag57
(g78
g59
NtRp3386
(dp3387
g62
(dp3388
sg71
g3373
sg64
(lp3389
g57
(g58
g59
NtRp3390
(dp3391
g62
(dp3392
g70
I4
ssg71
g3386
sg64
(lp3393
S'3600'
p3394
asbasbasbag57
(g73
g59
NtRp3395
(dp3396
g62
(dp3397
sg71
g3369
sg64
(lp3398
g57
(g78
g59
NtRp3399
(dp3400
g62
(dp3401
g82
g83
ssg71
g3395
sg64
(lp3402
S'hmac_key'
p3403
asbag57
(g78
g59
NtRp3404
(dp3405
g62
(dp3406
g89
g90
ssg71
g3395
sg64
(lp3407
S':'
asbag57
(g78
g59
NtRp3408
(dp3409
g62
(dp3410
sg71
g3395
sg64
(lp3411
g57
(g58
g59
NtRp3412
(dp3413
g62
(dp3414
g70
I4
ssg71
g3408
sg64
(lp3415
S'e684c725-4023-4121-b6e9-1d0635c835d4'
p3416
asbasbasbag57
(g73
g59
NtRp3417
(dp3418
g62
(dp3419
sg71
g3369
sg64
(lp3420
g57
(g78
g59
NtRp3421
(dp3422
g62
(dp3423
g82
g83
ssg71
g3417
sg64
(lp3424
S'last_visit'
p3425
asbag57
(g78
g59
NtRp3426
(dp3427
g62
(dp3428
g89
g90
ssg71
g3417
sg64
(lp3429
S':'
asbag57
(g78
g59
NtRp3430
(dp3431
g62
(dp3432
sg71
g3417
sg64
(lp3433
g57
(g58
g59
NtRp3434
(dp3435
g62
(dp3436
g70
I4
ssg71
g3430
sg64
(lp3437
S'datetime.datetime(2013, 8, 28, 23, 40, 38, 933885)'
p3438
asbasbasbag57
(g73
g59
NtRp3439
(dp3440
g62
(dp3441
sg71
g3369
sg64
(lp3442
g57
(g78
g59
NtRp3443
(dp3444
g62
(dp3445
g82
g83
ssg71
g3439
sg64
(lp3446
S'remember'
p3447
asbag57
(g78
g59
NtRp3448
(dp3449
g62
(dp3450
g89
g90
ssg71
g3439
sg64
(lp3451
S':'
asbag57
(g78
g59
NtRp3452
(dp3453
g62
(dp3454
sg71
g3439
sg64
(lp3455
g57
(g58
g59
NtRp3456
(dp3457
g62
(dp3458
g70
I4
ssg71
g3452
sg64
(lp3459
g100
asbasbasbag57
(g73
g59
NtRp3460
(dp3461
g62
(dp3462
sg71
g3369
sg64
(lp3463
g57
(g78
g59
NtRp3464
(dp3465
g62
(dp3466
g82
g83
ssg71
g3460
sg64
(lp3467
S'user'
p3468
asbag57
(g78
g59
NtRp3469
(dp3470
g62
(dp3471
g89
g90
ssg71
g3460
sg64
(lp3472
S':'
asbag57
(g78
g59
NtRp3473
(dp3474
g62
(dp3475
sg71
g3460
sg64
(lp3476
g57
(g58
g59
NtRp3477
(dp3478
g62
(dp3479
g70
I4
ssg71
g3473
sg64
(lp3480
g57
(g66
g59
NtRp3481
(dp3482
g62
(dp3483
g70
I3
ssg71
Nsg64
(lp3484
g57
(g73
g59
NtRp3485
(dp3486
g62
(dp3487
sg71
g3481
sg64
(lp3488
g57
(g78
g59
NtRp3489
(dp3490
g62
(dp3491
g82
g83
ssg71
g3485
sg64
(lp3492
S'email'
p3493
asbag57
(g78
g59
NtRp3494
(dp3495
g62
(dp3496
g89
g90
ssg71
g3485
sg64
(lp3497
S':'
asbag57
(g78
g59
NtRp3498
(dp3499
g62
(dp3500
sg71
g3485
sg64
(lp3501
g57
(g58
g59
NtRp3502
(dp3503
g62
(dp3504
g70
I3
ssg71
g3498
sg64
(lp3505
S'umang.goel@students.iiit.ac.in'
p3506
asbasbasbag57
(g73
g59
NtRp3507
(dp3508
g62
(dp3509
sg71
g3481
sg64
(lp3510
g57
(g78
g59
NtRp3511
(dp3512
g62
(dp3513
g82
g83
ssg71
g3507
sg64
(lp3514
S'first_name'
p3515
asbag57
(g78
g59
NtRp3516
(dp3517
g62
(dp3518
g89
g90
ssg71
g3507
sg64
(lp3519
S':'
asbag57
(g78
g59
NtRp3520
(dp3521
g62
(dp3522
sg71
g3507
sg64
(lp3523
g57
(g58
g59
NtRp3524
(dp3525
g62
(dp3526
g70
I3
ssg71
g3520
sg64
(lp3527
S'Umang'
p3528
asbasbasbag57
(g73
g59
NtRp3529
(dp3530
g62
(dp3531
sg71
g3481
sg64
(lp3532
g57
(g78
g59
NtRp3533
(dp3534
g62
(dp3535
g82
g83
ssg71
g3529
sg64
(lp3536
S'id'
p3537
asbag57
(g78
g59
NtRp3538
(dp3539
g62
(dp3540
g89
g90
ssg71
g3529
sg64
(lp3541
S':'
asbag57
(g78
g59
NtRp3542
(dp3543
g62
(dp3544
sg71
g3529
sg64
(lp3545
g57
(g58
g59
NtRp3546
(dp3547
g62
(dp3548
g70
I3
ssg71
g3542
sg64
(lp3549
S'1'
asbasbasbag57
(g73
g59
NtRp3550
(dp3551
g62
(dp3552
sg71
g3481
sg64
(lp3553
g57
(g78
g59
NtRp3554
(dp3555
g62
(dp3556
g82
g83
ssg71
g3550
sg64
(lp3557
S'last_name'
p3558
asbag57
(g78
g59
NtRp3559
(dp3560
g62
(dp3561
g89
g90
ssg71
g3550
sg64
(lp3562
S':'
asbag57
(g78
g59
NtRp3563
(dp3564
g62
(dp3565
sg71
g3550
sg64
(lp3566
g57
(g58
g59
NtRp3567
(dp3568
g62
(dp3569
g70
I3
ssg71
g3563
sg64
(lp3570
S'Goel'
p3571
asbasbasbag57
(g73
g59
NtRp3572
(dp3573
g62
(dp3574
sg71
g3481
sg64
(lp3575
g57
(g78
g59
NtRp3576
(dp3577
g62
(dp3578
g82
g83
ssg71
g3572
sg64
(lp3579
S'registration_id'
p3580
asbag57
(g78
g59
NtRp3581
(dp3582
g62
(dp3583
g89
g90
ssg71
g3572
sg64
(lp3584
S':'
asbag57
(g78
g59
NtRp3585
(dp3586
g62
(dp3587
sg71
g3572
sg64
(lp3588
g57
(g58
g59
NtRp3589
(dp3590
g62
(dp3591
g70
I3
ssg71
g3585
sg64
(lp3592
S''
asbasbasbag57
(g73
g59
NtRp3593
(dp3594
g62
(dp3595
sg71
g3481
sg64
(lp3596
g57
(g78
g59
NtRp3597
(dp3598
g62
(dp3599
g82
g83
ssg71
g3593
sg64
(lp3600
S'registration_key'
p3601
asbag57
(g78
g59
NtRp3602
(dp3603
g62
(dp3604
g89
g90
ssg71
g3593
sg64
(lp3605
S':'
asbag57
(g78
g59
NtRp3606
(dp3607
g62
(dp3608
sg71
g3593
sg64
(lp3609
g57
(g58
g59
NtRp3610
(dp3611
g62
(dp3612
g70
I3
ssg71
g3606
sg64
(lp3613
S''
asbasbasbag57
(g73
g59
NtRp3614
(dp3615
g62
(dp3616
sg71
g3481
sg64
(lp3617
g57
(g78
g59
NtRp3618
(dp3619
g62
(dp3620
g82
g83
ssg71
g3614
sg64
(lp3621
S'reset_password_key'
p3622
asbag57
(g78
g59
NtRp3623
(dp3624
g62
(dp3625
g89
g90
ssg71
g3614
sg64
(lp3626
S':'
asbag57
(g78
g59
NtRp3627
(dp3628
g62
(dp3629
sg71
g3614
sg64
(lp3630
g57
(g58
g59
NtRp3631
(dp3632
g62
(dp3633
g70
I3
ssg71
g3627
sg64
(lp3634
S''
asbasbasbasbasbasbasbag57
(g73
g59
NtRp3635
(dp3636
g62
(dp3637
sg71
g3369
sg64
(lp3638
g57
(g78
g59
NtRp3639
(dp3640
g62
(dp3641
g82
g83
ssg71
g3635
sg64
(lp3642
S'user_groups'
p3643
asbag57
(g78
g59
NtRp3644
(dp3645
g62
(dp3646
g89
g90
ssg71
g3635
sg64
(lp3647
S':'
asbag57
(g78
g59
NtRp3648
(dp3649
g62
(dp3650
sg71
g3635
sg64
(lp3651
g57
(g58
g59
NtRp3652
(dp3653
g62
(dp3654
g70
I4
ssg71
g3648
sg64
(lp3655
g57
(g66
g59
NtRp3656
(dp3657
g62
(dp3658
g70
I3
ssg71
Nsg64
(lp3659
g57
(g73
g59
NtRp3660
(dp3661
g62
(dp3662
sg71
g3656
sg64
(lp3663
g57
(g78
g59
NtRp3664
(dp3665
g62
(dp3666
g82
g83
ssg71
g3660
sg64
(lp3667
S'1'
asbag57
(g78
g59
NtRp3668
(dp3669
g62
(dp3670
g89
g90
ssg71
g3660
sg64
(lp3671
S':'
asbag57
(g78
g59
NtRp3672
(dp3673
g62
(dp3674
sg71
g3660
sg64
(lp3675
g57
(g58
g59
NtRp3676
(dp3677
g62
(dp3678
g70
I3
ssg71
g3672
sg64
(lp3679
S'user_1'
p3680
asbasbasbag57
(g73
g59
NtRp3681
(dp3682
g62
(dp3683
sg71
g3656
sg64
(lp3684
g57
(g78
g59
NtRp3685
(dp3686
g62
(dp3687
g82
g83
ssg71
g3681
sg64
(lp3688
S'4'
asbag57
(g78
g59
NtRp3689
(dp3690
g62
(dp3691
g89
g90
ssg71
g3681
sg64
(lp3692
S':'
asbag57
(g78
g59
NtRp3693
(dp3694
g62
(dp3695
sg71
g3681
sg64
(lp3696
g57
(g58
g59
NtRp3697
(dp3698
g62
(dp3699
g70
I3
ssg71
g3693
sg64
(lp3700
S'admin'
p3701
asbasbasbasbasbasbasbasbasbasbasbag57
(g73
g59
NtRp3702
(dp3703
g62
(dp3704
sg71
g3344
sg64
(lp3705
g57
(g78
g59
NtRp3706
(dp3707
g62
(dp3708
g82
g83
ssg71
g3702
sg64
(lp3709
S'flash'
p3710
asbag57
(g78
g59
NtRp3711
(dp3712
g62
(dp3713
g89
g90
ssg71
g3702
sg64
(lp3714
S':'
asbag57
(g78
g59
NtRp3715
(dp3716
g62
(dp3717
sg71
g3702
sg64
(lp3718
g57
(g58
g59
NtRp3719
(dp3720
g62
(dp3721
g70
I5
ssg71
g3715
sg64
(lp3722
S'None'
p3723
asbasbasbag57
(g73
g59
NtRp3724
(dp3725
g62
(dp3726
sg71
g3344
sg64
(lp3727
g57
(g78
g59
NtRp3728
(dp3729
g62
(dp3730
g82
g83
ssg71
g3724
sg64
(lp3731
S'last_orderby'
p3732
asbag57
(g78
g59
NtRp3733
(dp3734
g62
(dp3735
g89
g90
ssg71
g3724
sg64
(lp3736
S':'
asbag57
(g78
g59
NtRp3737
(dp3738
g62
(dp3739
sg71
g3724
sg64
(lp3740
g57
(g58
g59
NtRp3741
(dp3742
g62
(dp3743
g70
I5
ssg71
g3737
sg64
(lp3744
S'None'
p3745
asbasbasbag57
(g73
g59
NtRp3746
(dp3747
g62
(dp3748
sg71
g3344
sg64
(lp3749
g57
(g78
g59
NtRp3750
(dp3751
g62
(dp3752
g82
g83
ssg71
g3746
sg64
(lp3753
S'last_query'
p3754
asbag57
(g78
g59
NtRp3755
(dp3756
g62
(dp3757
g89
g90
ssg71
g3746
sg64
(lp3758
S':'
asbag57
(g78
g59
NtRp3759
(dp3760
g62
(dp3761
sg71
g3746
sg64
(lp3762
g57
(g58
g59
NtRp3763
(dp3764
g62
(dp3765
g70
I5
ssg71
g3759
sg64
(lp3766
S'db.auth_membership.id>0'
p3767
asbasbasbasbasbsS'etype'
p3768
S"<type 'exceptions.AttributeError'>"
p3769
sS'date'
p3770
S'Wed Aug 28 23:41:02 2013'
p3771
sS'response'
p3772
g57
(g58
g59
NtRp3773
(dp3774
g62
(dp3775
sg64
(lp3776
g57
(g66
g59
NtRp3777
(dp3778
g62
(dp3779
g70
I5
ssg71
Nsg64
(lp3780
g57
(g73
g59
NtRp3781
(dp3782
g62
(dp3783
sg71
g3777
sg64
(lp3784
g57
(g78
g59
NtRp3785
(dp3786
g62
(dp3787
g82
g83
ssg71
g3781
sg64
(lp3788
g192
asbag57
(g78
g59
NtRp3789
(dp3790
g62
(dp3791
g89
g90
ssg71
g3781
sg64
(lp3792
S':'
asbag57
(g78
g59
NtRp3793
(dp3794
g62
(dp3795
sg71
g3781
sg64
(lp3796
g57
(g58
g59
NtRp3797
(dp3798
g62
(dp3799
g70
I5
ssg71
g3793
sg64
(lp3800
S'<cStringIO.StringO object at 0x7fe2fc3468b8>'
p3801
asbasbasbag57
(g73
g59
NtRp3802
(dp3803
g62
(dp3804
sg71
g3777
sg64
(lp3805
g57
(g78
g59
NtRp3806
(dp3807
g62
(dp3808
g82
g83
ssg71
g3802
sg64
(lp3809
g280
asbag57
(g78
g59
NtRp3810
(dp3811
g62
(dp3812
g89
g90
ssg71
g3802
sg64
(lp3813
S':'
asbag57
(g78
g59
NtRp3814
(dp3815
g62
(dp3816
sg71
g3802
sg64
(lp3817
g57
(g58
g59
NtRp3818
(dp3819
g62
(dp3820
g70
I5
ssg71
g3814
sg64
(lp3821
g57
(g66
g59
NtRp3822
(dp3823
g62
(dp3824
g70
I4
ssg71
Nsg64
(lp3825
g57
(g73
g59
NtRp3826
(dp3827
g62
(dp3828
sg71
g3822
sg64
(lp3829
g57
(g78
g59
NtRp3830
(dp3831
g62
(dp3832
g82
g83
ssg71
g3826
sg64
(lp3833
S'session_id_assignmen3'
p3834
asbag57
(g78
g59
NtRp3835
(dp3836
g62
(dp3837
g89
g90
ssg71
g3826
sg64
(lp3838
S':'
asbag57
(g78
g59
NtRp3839
(dp3840
g62
(dp3841
sg71
g3826
sg64
(lp3842
g57
(g58
g59
NtRp3843
(dp3844
g62
(dp3845
g70
I4
ssg71
g3839
sg64
(lp3846
g512
ag57
(g66
g59
NtRp3847
(dp3848
g62
(dp3849
g70
I3
ssg71
Nsg64
(lp3850
g57
(g73
g59
NtRp3851
(dp3852
g62
(dp3853
sg71
g3847
sg64
(lp3854
g57
(g78
g59
NtRp3855
(dp3856
g62
(dp3857
g82
g83
ssg71
g3851
sg64
(lp3858
g331
asbag57
(g78
g59
NtRp3859
(dp3860
g62
(dp3861
g89
g90
ssg71
g3851
sg64
(lp3862
S':'
asbag57
(g78
g59
NtRp3863
(dp3864
g62
(dp3865
sg71
g3851
sg64
(lp3866
g57
(g58
g59
NtRp3867
(dp3868
g62
(dp3869
g70
I3
ssg71
g3863
sg64
(lp3870
S''
asbasbasbag57
(g73
g59
NtRp3871
(dp3872
g62
(dp3873
sg71
g3847
sg64
(lp3874
g57
(g78
g59
NtRp3875
(dp3876
g62
(dp3877
g82
g83
ssg71
g3871
sg64
(lp3878
g352
asbag57
(g78
g59
NtRp3879
(dp3880
g62
(dp3881
g89
g90
ssg71
g3871
sg64
(lp3882
S':'
asbag57
(g78
g59
NtRp3883
(dp3884
g62
(dp3885
sg71
g3871
sg64
(lp3886
g57
(g58
g59
NtRp3887
(dp3888
g62
(dp3889
g70
I3
ssg71
g3883
sg64
(lp3890
S''
asbasbasbag57
(g73
g59
NtRp3891
(dp3892
g62
(dp3893
sg71
g3847
sg64
(lp3894
g57
(g78
g59
NtRp3895
(dp3896
g62
(dp3897
g82
g83
ssg71
g3891
sg64
(lp3898
g373
asbag57
(g78
g59
NtRp3899
(dp3900
g62
(dp3901
g89
g90
ssg71
g3891
sg64
(lp3902
S':'
asbag57
(g78
g59
NtRp3903
(dp3904
g62
(dp3905
sg71
g3891
sg64
(lp3906
g57
(g58
g59
NtRp3907
(dp3908
g62
(dp3909
g70
I3
ssg71
g3903
sg64
(lp3910
S''
asbasbasbag57
(g73
g59
NtRp3911
(dp3912
g62
(dp3913
sg71
g3847
sg64
(lp3914
g57
(g78
g59
NtRp3915
(dp3916
g62
(dp3917
g82
g83
ssg71
g3911
sg64
(lp3918
g394
asbag57
(g78
g59
NtRp3919
(dp3920
g62
(dp3921
g89
g90
ssg71
g3911
sg64
(lp3922
S':'
asbag57
(g78
g59
NtRp3923
(dp3924
g62
(dp3925
sg71
g3911
sg64
(lp3926
g57
(g58
g59
NtRp3927
(dp3928
g62
(dp3929
g70
I3
ssg71
g3923
sg64
(lp3930
S''
asbasbasbag57
(g73
g59
NtRp3931
(dp3932
g62
(dp3933
sg71
g3847
sg64
(lp3934
g57
(g78
g59
NtRp3935
(dp3936
g62
(dp3937
g82
g83
ssg71
g3931
sg64
(lp3938
g415
asbag57
(g78
g59
NtRp3939
(dp3940
g62
(dp3941
g89
g90
ssg71
g3931
sg64
(lp3942
S':'
asbag57
(g78
g59
NtRp3943
(dp3944
g62
(dp3945
sg71
g3931
sg64
(lp3946
g57
(g58
g59
NtRp3947
(dp3948
g62
(dp3949
g70
I3
ssg71
g3943
sg64
(lp3950
S''
asbasbasbag57
(g73
g59
NtRp3951
(dp3952
g62
(dp3953
sg71
g3847
sg64
(lp3954
g57
(g78
g59
NtRp3955
(dp3956
g62
(dp3957
g82
g83
ssg71
g3951
sg64
(lp3958
g436
asbag57
(g78
g59
NtRp3959
(dp3960
g62
(dp3961
g89
g90
ssg71
g3951
sg64
(lp3962
S':'
asbag57
(g78
g59
NtRp3963
(dp3964
g62
(dp3965
sg71
g3951
sg64
(lp3966
g57
(g58
g59
NtRp3967
(dp3968
g62
(dp3969
g70
I3
ssg71
g3963
sg64
(lp3970
S'/'
asbasbasbag57
(g73
g59
NtRp3971
(dp3972
g62
(dp3973
sg71
g3847
sg64
(lp3974
g57
(g78
g59
NtRp3975
(dp3976
g62
(dp3977
g82
g83
ssg71
g3971
sg64
(lp3978
g457
asbag57
(g78
g59
NtRp3979
(dp3980
g62
(dp3981
g89
g90
ssg71
g3971
sg64
(lp3982
S':'
asbag57
(g78
g59
NtRp3983
(dp3984
g62
(dp3985
sg71
g3971
sg64
(lp3986
g57
(g58
g59
NtRp3987
(dp3988
g62
(dp3989
g70
I3
ssg71
g3983
sg64
(lp3990
S''
asbasbasbag57
(g73
g59
NtRp3991
(dp3992
g62
(dp3993
sg71
g3847
sg64
(lp3994
g57
(g78
g59
NtRp3995
(dp3996
g62
(dp3997
g82
g83
ssg71
g3991
sg64
(lp3998
g478
asbag57
(g78
g59
NtRp3999
(dp4000
g62
(dp4001
g89
g90
ssg71
g3991
sg64
(lp4002
S':'
asbag57
(g78
g59
NtRp4003
(dp4004
g62
(dp4005
sg71
g3991
sg64
(lp4006
g57
(g58
g59
NtRp4007
(dp4008
g62
(dp4009
g70
I3
ssg71
g4003
sg64
(lp4010
S''
asbasbasbasbasbasbasbasbasbasbasbag57
(g73
g59
NtRp4011
(dp4012
g62
(dp4013
sg71
g3777
sg64
(lp4014
g57
(g78
g59
NtRp4015
(dp4016
g62
(dp4017
g82
g83
ssg71
g4011
sg64
(lp4018
S'delimiters'
p4019
asbag57
(g78
g59
NtRp4020
(dp4021
g62
(dp4022
g89
g90
ssg71
g4011
sg64
(lp4023
S':'
asbag57
(g78
g59
NtRp4024
(dp4025
g62
(dp4026
sg71
g4011
sg64
(lp4027
g57
(g58
g59
NtRp4028
(dp4029
g62
(dp4030
g70
I5
ssg71
g4024
sg64
(lp4031
g57
(g66
g59
NtRp4032
(dp4033
g62
(dp4034
g70
I4
ssg71
Nsg64
(lp4035
g57
(g73
g59
NtRp4036
(dp4037
g62
(dp4038
sg71
g4032
sg64
(lp4039
g57
(g78
g59
NtRp4040
(dp4041
g62
(dp4042
sg71
g4036
sg64
(lp4043
g57
(g58
g59
NtRp4044
(dp4045
g62
(dp4046
g70
I4
ssg71
g4040
sg64
(lp4047
S'{{'
p4048
asbasbasbag57
(g73
g59
NtRp4049
(dp4050
g62
(dp4051
sg71
g4032
sg64
(lp4052
g57
(g78
g59
NtRp4053
(dp4054
g62
(dp4055
sg71
g4049
sg64
(lp4056
g57
(g58
g59
NtRp4057
(dp4058
g62
(dp4059
g70
I4
ssg71
g4053
sg64
(lp4060
S'}}'
p4061
asbasbasbasbasbasbasbag57
(g73
g59
NtRp4062
(dp4063
g62
(dp4064
sg71
g3777
sg64
(lp4065
g57
(g78
g59
NtRp4066
(dp4067
g62
(dp4068
g82
g83
ssg71
g4062
sg64
(lp4069
S'files'
p4070
asbag57
(g78
g59
NtRp4071
(dp4072
g62
(dp4073
g89
g90
ssg71
g4062
sg64
(lp4074
S':'
asbag57
(g78
g59
NtRp4075
(dp4076
g62
(dp4077
sg71
g4062
sg64
(lp4078
g57
(g58
g59
NtRp4079
(dp4080
g62
(dp4081
g70
I5
ssg71
g4075
sg64
(lp4082
g57
(g66
g59
NtRp4083
(dp4084
g62
(dp4085
g70
I4
ssg71
Nsg64
(lp4086
sbasbasbasbag57
(g73
g59
NtRp4087
(dp4088
g62
(dp4089
sg71
g3777
sg64
(lp4090
g57
(g78
g59
NtRp4091
(dp4092
g62
(dp4093
g82
g83
ssg71
g4087
sg64
(lp4094
S'flash'
p4095
asbag57
(g78
g59
NtRp4096
(dp4097
g62
(dp4098
g89
g90
ssg71
g4087
sg64
(lp4099
S':'
asbag57
(g78
g59
NtRp4100
(dp4101
g62
(dp4102
sg71
g4087
sg64
(lp4103
g57
(g58
g59
NtRp4104
(dp4105
g62
(dp4106
g70
I5
ssg71
g4100
sg64
(lp4107
S''
asbasbasbag57
(g73
g59
NtRp4108
(dp4109
g62
(dp4110
sg71
g3777
sg64
(lp4111
g57
(g78
g59
NtRp4112
(dp4113
g62
(dp4114
g82
g83
ssg71
g4108
sg64
(lp4115
S'generic_patterns'
p4116
asbag57
(g78
g59
NtRp4117
(dp4118
g62
(dp4119
g89
g90
ssg71
g4108
sg64
(lp4120
S':'
asbag57
(g78
g59
NtRp4121
(dp4122
g62
(dp4123
sg71
g4108
sg64
(lp4124
g57
(g58
g59
NtRp4125
(dp4126
g62
(dp4127
g70
I5
ssg71
g4121
sg64
(lp4128
g57
(g66
g59
NtRp4129
(dp4130
g62
(dp4131
g70
I4
ssg71
Nsg64
(lp4132
g57
(g73
g59
NtRp4133
(dp4134
g62
(dp4135
sg71
g4129
sg64
(lp4136
g57
(g78
g59
NtRp4137
(dp4138
g62
(dp4139
sg71
g4133
sg64
(lp4140
g57
(g58
g59
NtRp4141
(dp4142
g62
(dp4143
g70
I4
ssg71
g4137
sg64
(lp4144
S'*'
asbasbasbasbasbasbasbag57
(g73
g59
NtRp4145
(dp4146
g62
(dp4147
sg71
g3777
sg64
(lp4148
g57
(g78
g59
NtRp4149
(dp4150
g62
(dp4151
g82
g83
ssg71
g4145
sg64
(lp4152
S'google_analytics_id'
p4153
asbag57
(g78
g59
NtRp4154
(dp4155
g62
(dp4156
g89
g90
ssg71
g4145
sg64
(lp4157
S':'
asbag57
(g78
g59
NtRp4158
(dp4159
g62
(dp4160
sg71
g4145
sg64
(lp4161
g57
(g58
g59
NtRp4162
(dp4163
g62
(dp4164
g70
I5
ssg71
g4158
sg64
(lp4165
S'None'
p4166
asbasbasbag57
(g73
g59
NtRp4167
(dp4168
g62
(dp4169
sg71
g3777
sg64
(lp4170
g57
(g78
g59
NtRp4171
(dp4172
g62
(dp4173
g82
g83
ssg71
g4167
sg64
(lp4174
S'headers'
p4175
asbag57
(g78
g59
NtRp4176
(dp4177
g62
(dp4178
g89
g90
ssg71
g4167
sg64
(lp4179
S':'
asbag57
(g78
g59
NtRp4180
(dp4181
g62
(dp4182
sg71
g4167
sg64
(lp4183
g57
(g58
g59
NtRp4184
(dp4185
g62
(dp4186
g70
I5
ssg71
g4180
sg64
(lp4187
g57
(g66
g59
NtRp4188
(dp4189
g62
(dp4190
g70
I4
ssg71
Nsg64
(lp4191
g57
(g73
g59
NtRp4192
(dp4193
g62
(dp4194
sg71
g4188
sg64
(lp4195
g57
(g78
g59
NtRp4196
(dp4197
g62
(dp4198
g82
g83
ssg71
g4192
sg64
(lp4199
S'X-Powered-By'
p4200
asbag57
(g78
g59
NtRp4201
(dp4202
g62
(dp4203
g89
g90
ssg71
g4192
sg64
(lp4204
S':'
asbag57
(g78
g59
NtRp4205
(dp4206
g62
(dp4207
sg71
g4192
sg64
(lp4208
g57
(g58
g59
NtRp4209
(dp4210
g62
(dp4211
g70
I4
ssg71
g4205
sg64
(lp4212
S'web2py'
p4213
asbasbasbasbasbasbasbag57
(g73
g59
NtRp4214
(dp4215
g62
(dp4216
sg71
g3777
sg64
(lp4217
g57
(g78
g59
NtRp4218
(dp4219
g62
(dp4220
g82
g83
ssg71
g4214
sg64
(lp4221
S'logo'
p4222
asbag57
(g78
g59
NtRp4223
(dp4224
g62
(dp4225
g89
g90
ssg71
g4214
sg64
(lp4226
S':'
asbag57
(g78
g59
NtRp4227
(dp4228
g62
(dp4229
sg71
g4214
sg64
(lp4230
g57
(g58
g59
NtRp4231
(dp4232
g62
(dp4233
g70
I5
ssg71
g4227
sg64
(lp4234
g57
(cgluon.html
A
p4235
g59
NtRp4236
(dp4237
g62
(dp4238
S'_class'
p4239
S'brand'
p4240
sS'_href'
p4241
S'http://www.web2py.com/'
p4242
ssg71
Nsg64
(lp4243
g57
(cgluon.html
B
p4244
g59
NtRp4245
(dp4246
g62
(dp4247
sg71
g4236
sg64
(lp4248
S'web'
p4249
ag57
(cgluon.html
SPAN
p4250
g59
NtRp4251
(dp4252
g62
(dp4253
sg71
g4245
sg64
(lp4254
I2
asbaS'py'
p4255
asbacgluon.html
XML_unpickle
p4256
(S's\r\x00\x00\x00&trade;&nbsp;'
tRp4257
asbasbasbasbag57
(g73
g59
NtRp4258
(dp4259
g62
(dp4260
sg71
g3777
sg64
(lp4261
g57
(g78
g59
NtRp4262
(dp4263
g62
(dp4264
g82
g83
ssg71
g4258
sg64
(lp4265
S'menu'
p4266
asbag57
(g78
g59
NtRp4267
(dp4268
g62
(dp4269
g89
g90
ssg71
g4258
sg64
(lp4270
S':'
asbag57
(g78
g59
NtRp4271
(dp4272
g62
(dp4273
sg71
g4258
sg64
(lp4274
g57
(g58
g59
NtRp4275
(dp4276
g62
(dp4277
g70
I5
ssg71
g4271
sg64
(lp4278
g57
(g66
g59
NtRp4279
(dp4280
g62
(dp4281
g70
I4
ssg71
Nsg64
(lp4282
g57
(g73
g59
NtRp4283
(dp4284
g62
(dp4285
sg71
g4279
sg64
(lp4286
g57
(g78
g59
NtRp4287
(dp4288
g62
(dp4289
sg71
g4283
sg64
(lp4290
g57
(g58
g59
NtRp4291
(dp4292
g62
(dp4293
g70
I4
ssg71
g4287
sg64
(lp4294
g57
(g66
g59
NtRp4295
(dp4296
g62
(dp4297
g70
I3
ssg71
Nsg64
(lp4298
g57
(g73
g59
NtRp4299
(dp4300
g62
(dp4301
sg71
g4295
sg64
(lp4302
g57
(g78
g59
NtRp4303
(dp4304
g62
(dp4305
sg71
g4299
sg64
(lp4306
g57
(g58
g59
NtRp4307
(dp4308
g62
(dp4309
g70
I3
ssg71
g4303
sg64
(lp4310
cgluon.languages
lazyT_unpickle
p4311
(S's\x04\x00\x00\x00Home'
tRp4312
asbasbasbag57
(g73
g59
NtRp4313
(dp4314
g62
(dp4315
sg71
g4295
sg64
(lp4316
g57
(g78
g59
NtRp4317
(dp4318
g62
(dp4319
sg71
g4313
sg64
(lp4320
g57
(g58
g59
NtRp4321
(dp4322
g62
(dp4323
g70
I3
ssg71
g4317
sg64
(lp4324
g100
asbasbasbag57
(g73
g59
NtRp4325
(dp4326
g62
(dp4327
sg71
g4295
sg64
(lp4328
g57
(g78
g59
NtRp4329
(dp4330
g62
(dp4331
sg71
g4325
sg64
(lp4332
g57
(g58
g59
NtRp4333
(dp4334
g62
(dp4335
g70
I3
ssg71
g4329
sg64
(lp4336
S'/assignmen3/default/index'
p4337
asbasbasbag57
(g73
g59
NtRp4338
(dp4339
g62
(dp4340
sg71
g4295
sg64
(lp4341
g57
(g78
g59
NtRp4342
(dp4343
g62
(dp4344
sg71
g4338
sg64
(lp4345
g57
(g58
g59
NtRp4346
(dp4347
g62
(dp4348
g70
I3
ssg71
g4342
sg64
(lp4349
g57
(g66
g59
NtRp4350
(dp4351
g62
(dp4352
g70
I2
ssg71
Nsg64
(lp4353
sbasbasbasbasbasbasbasbag57
(g73
g59
NtRp4354
(dp4355
g62
(dp4356
sg71
g4279
sg64
(lp4357
g57
(g78
g59
NtRp4358
(dp4359
g62
(dp4360
sg71
g4354
sg64
(lp4361
g57
(g58
g59
NtRp4362
(dp4363
g62
(dp4364
g70
I4
ssg71
g4358
sg64
(lp4365
g57
(g66
g59
NtRp4366
(dp4367
g62
(dp4368
g70
I3
ssg71
Nsg64
(lp4369
g57
(g73
g59
NtRp4370
(dp4371
g62
(dp4372
sg71
g4366
sg64
(lp4373
g57
(g78
g59
NtRp4374
(dp4375
g62
(dp4376
sg71
g4370
sg64
(lp4377
g57
(g58
g59
NtRp4378
(dp4379
g62
(dp4380
g70
I3
ssg71
g4374
sg64
(lp4381
g4311
(S't\x07\x00\x00\x00Account'
tRp4382
asbasbasbag57
(g73
g59
NtRp4383
(dp4384
g62
(dp4385
sg71
g4366
sg64
(lp4386
g57
(g78
g59
NtRp4387
(dp4388
g62
(dp4389
sg71
g4383
sg64
(lp4390
g57
(g58
g59
NtRp4391
(dp4392
g62
(dp4393
g70
I3
ssg71
g4387
sg64
(lp4394
g100
asbasbasbag57
(g73
g59
NtRp4395
(dp4396
g62
(dp4397
sg71
g4366
sg64
(lp4398
g57
(g78
g59
NtRp4399
(dp4400
g62
(dp4401
sg71
g4395
sg64
(lp4402
g57
(g58
g59
NtRp4403
(dp4404
g62
(dp4405
g70
I3
ssg71
g4399
sg64
(lp4406
S'/assignmen3/default/login_to_account'
p4407
asbasbasbag57
(g73
g59
NtRp4408
(dp4409
g62
(dp4410
sg71
g4366
sg64
(lp4411
g57
(g78
g59
NtRp4412
(dp4413
g62
(dp4414
sg71
g4408
sg64
(lp4415
g57
(g58
g59
NtRp4416
(dp4417
g62
(dp4418
g70
I3
ssg71
g4412
sg64
(lp4419
g57
(g66
g59
NtRp4420
(dp4421
g62
(dp4422
g70
I2
ssg71
Nsg64
(lp4423
sbasbasbasbasbasbasbasbag57
(g73
g59
NtRp4424
(dp4425
g62
(dp4426
sg71
g4279
sg64
(lp4427
g57
(g78
g59
NtRp4428
(dp4429
g62
(dp4430
sg71
g4424
sg64
(lp4431
g57
(g58
g59
NtRp4432
(dp4433
g62
(dp4434
g70
I4
ssg71
g4428
sg64
(lp4435
g57
(g66
g59
NtRp4436
(dp4437
g62
(dp4438
g70
I3
ssg71
Nsg64
(lp4439
g57
(g73
g59
NtRp4440
(dp4441
g62
(dp4442
sg71
g4436
sg64
(lp4443
g57
(g78
g59
NtRp4444
(dp4445
g62
(dp4446
sg71
g4440
sg64
(lp4447
g57
(g58
g59
NtRp4448
(dp4449
g62
(dp4450
g70
I3
ssg71
g4444
sg64
(lp4451
g57
(g4250
g59
NtRp4452
(dp4453
g62
(dp4454
g4239
S'highlighted'
p4455
ssg71
Nsg64
(lp4456
g4213
asbasbasbasbag57
(g73
g59
NtRp4457
(dp4458
g62
(dp4459
sg71
g4436
sg64
(lp4460
g57
(g78
g59
NtRp4461
(dp4462
g62
(dp4463
sg71
g4457
sg64
(lp4464
g57
(g58
g59
NtRp4465
(dp4466
g62
(dp4467
g70
I3
ssg71
g4461
sg64
(lp4468
g100
asbasbasbag57
(g73
g59
NtRp4469
(dp4470
g62
(dp4471
sg71
g4436
sg64
(lp4472
g57
(g78
g59
NtRp4473
(dp4474
g62
(dp4475
sg71
g4469
sg64
(lp4476
g57
(g58
g59
NtRp4477
(dp4478
g62
(dp4479
g70
I3
ssg71
g4473
sg64
(lp4480
S'http://web2py.com'
p4481
asbasbasbag57
(g73
g59
NtRp4482
(dp4483
g62
(dp4484
sg71
g4436
sg64
(lp4485
g57
(g78
g59
NtRp4486
(dp4487
g62
(dp4488
sg71
g4482
sg64
(lp4489
g57
(g58
g59
NtRp4490
(dp4491
g62
(dp4492
g70
I3
ssg71
g4486
sg64
(lp4493
g57
(g66
g59
NtRp4494
(dp4495
g62
(dp4496
g70
I2
ssg71
Nsg64
(lp4497
g57
(g73
g59
NtRp4498
(dp4499
g62
(dp4500
sg71
g4494
sg64
(lp4501
g57
(g78
g59
NtRp4502
(dp4503
g62
(dp4504
sg71
g4498
sg64
(lp4505
g57
(g58
g59
NtRp4506
(dp4507
g62
(dp4508
g70
I2
ssg71
g4502
sg64
(lp4509
g57
(g66
g59
NtRp4510
(dp4511
g62
(dp4512
g70
I1
ssg71
Nsg64
(lp4513
g57
(g73
g59
NtRp4514
(dp4515
g62
(dp4516
sg71
g4510
sg64
(lp4517
g57
(g78
g59
NtRp4518
(dp4519
g62
(dp4520
sg71
g4514
sg64
(lp4521
g57
(g58
g59
NtRp4522
(dp4523
g62
(dp4524
g70
I1
ssg71
g4518
sg64
(lp4525
g4311
(S's\x08\x00\x00\x00My Sites'
tRp4526
asbasbasbag57
(g73
g59
NtRp4527
(dp4528
g62
(dp4529
sg71
g4510
sg64
(lp4530
g57
(g78
g59
NtRp4531
(dp4532
g62
(dp4533
sg71
g4527
sg64
(lp4534
g57
(g58
g59
NtRp4535
(dp4536
g62
(dp4537
g70
I1
ssg71
g4531
sg64
(lp4538
I00
asbasbasbag57
(g73
g59
NtRp4539
(dp4540
g62
(dp4541
sg71
g4510
sg64
(lp4542
g57
(g78
g59
NtRp4543
(dp4544
g62
(dp4545
sg71
g4539
sg64
(lp4546
g57
(g58
g59
NtRp4547
(dp4548
g62
(dp4549
g70
I1
ssg71
g4543
sg64
(lp4550
S'/admin/default/site'
p4551
asbasbasbasbasbasbasbag57
(g73
g59
NtRp4552
(dp4553
g62
(dp4554
sg71
g4494
sg64
(lp4555
g57
(g78
g59
NtRp4556
(dp4557
g62
(dp4558
sg71
g4552
sg64
(lp4559
g57
(g58
g59
NtRp4560
(dp4561
g62
(dp4562
g70
I2
ssg71
g4556
sg64
(lp4563
g57
(g66
g59
NtRp4564
(dp4565
g62
(dp4566
g70
I1
ssg71
Nsg64
(lp4567
g57
(g73
g59
NtRp4568
(dp4569
g62
(dp4570
sg71
g4564
sg64
(lp4571
g57
(g78
g59
NtRp4572
(dp4573
g62
(dp4574
sg71
g4568
sg64
(lp4575
g57
(g58
g59
NtRp4576
(dp4577
g62
(dp4578
g70
I1
ssg71
g4572
sg64
(lp4579
g4311
(S's\x08\x00\x00\x00This App'
tRp4580
asbasbasbag57
(g73
g59
NtRp4581
(dp4582
g62
(dp4583
sg71
g4564
sg64
(lp4584
g57
(g78
g59
NtRp4585
(dp4586
g62
(dp4587
sg71
g4581
sg64
(lp4588
g57
(g58
g59
NtRp4589
(dp4590
g62
(dp4591
g70
I1
ssg71
g4585
sg64
(lp4592
I00
asbasbasbag57
(g73
g59
NtRp4593
(dp4594
g62
(dp4595
sg71
g4564
sg64
(lp4596
g57
(g78
g59
NtRp4597
(dp4598
g62
(dp4599
sg71
g4593
sg64
(lp4600
g57
(g58
g59
NtRp4601
(dp4602
g62
(dp4603
g70
I1
ssg71
g4597
sg64
(lp4604
S'/admin/default/design/assignmen3'
p4605
asbasbasbag57
(g73
g59
NtRp4606
(dp4607
g62
(dp4608
sg71
g4564
sg64
(lp4609
g57
(g78
g59
NtRp4610
(dp4611
g62
(dp4612
sg71
g4606
sg64
(lp4613
g57
(g58
g59
NtRp4614
(dp4615
g62
(dp4616
g70
I1
ssg71
g4610
sg64
(lp4617
(lp4618
(g4311
(S's\n\x00\x00\x00Controller'
tRp4619
I00
S'/admin/default/edit/assignmen3/controllers/default.py'
tp4620
a(g4311
(S's\x04\x00\x00\x00View'
tRp4621
I00
S'/admin/default/edit/assignmen3/views/default/dislike.html'
tp4622
a(g4311
(S's\x06\x00\x00\x00Layout'
tRp4623
I00
S'/admin/default/edit/assignmen3/views/layout.html'
tp4624
a(g4311
(S's\n\x00\x00\x00Stylesheet'
tRp4625
I00
S'/admin/default/edit/assignmen3/static/css/web2py.css'
tp4626
a(g4311
(S's\x08\x00\x00\x00DB Model'
tRp4627
I00
S'/admin/default/edit/assignmen3/models/db.py'
tp4628
a(g4311
(S's\n\x00\x00\x00Menu Model'
tRp4629
I00
S'/admin/default/edit/assignmen3/models/menu.py'
tp4630
a(g4311
(S's\x08\x00\x00\x00Database'
tRp4631
I00
S'/assignmen3/appadmin/index'
tp4632
a(g4311
(S's\x06\x00\x00\x00Errors'
tRp4633
I00
S'/admin/default/errors/assignmen3'
tp4634
a(g4311
(S's\x05\x00\x00\x00About'
tRp4635
I00
S'/admin/default/about/assignmen3'
tp4636
aasbasbasbasbasbasbasbag57
(g73
g59
NtRp4637
(dp4638
g62
(dp4639
sg71
g4494
sg64
(lp4640
g57
(g78
g59
NtRp4641
(dp4642
g62
(dp4643
sg71
g4637
sg64
(lp4644
g57
(g58
g59
NtRp4645
(dp4646
g62
(dp4647
g70
I2
ssg71
g4641
sg64
(lp4648
g57
(g66
g59
NtRp4649
(dp4650
g62
(dp4651
g70
I1
ssg71
Nsg64
(lp4652
g57
(g73
g59
NtRp4653
(dp4654
g62
(dp4655
sg71
g4649
sg64
(lp4656
g57
(g78
g59
NtRp4657
(dp4658
g62
(dp4659
sg71
g4653
sg64
(lp4660
g57
(g58
g59
NtRp4661
(dp4662
g62
(dp4663
g70
I1
ssg71
g4657
sg64
(lp4664
S'web2py.com'
p4665
asbasbasbag57
(g73
g59
NtRp4666
(dp4667
g62
(dp4668
sg71
g4649
sg64
(lp4669
g57
(g78
g59
NtRp4670
(dp4671
g62
(dp4672
sg71
g4666
sg64
(lp4673
g57
(g58
g59
NtRp4674
(dp4675
g62
(dp4676
g70
I1
ssg71
g4670
sg64
(lp4677
I00
asbasbasbag57
(g73
g59
NtRp4678
(dp4679
g62
(dp4680
sg71
g4649
sg64
(lp4681
g57
(g78
g59
NtRp4682
(dp4683
g62
(dp4684
sg71
g4678
sg64
(lp4685
g57
(g58
g59
NtRp4686
(dp4687
g62
(dp4688
g70
I1
ssg71
g4682
sg64
(lp4689
S'http://www.web2py.com'
p4690
asbasbasbag57
(g73
g59
NtRp4691
(dp4692
g62
(dp4693
sg71
g4649
sg64
(lp4694
g57
(g78
g59
NtRp4695
(dp4696
g62
(dp4697
sg71
g4691
sg64
(lp4698
g57
(g58
g59
NtRp4699
(dp4700
g62
(dp4701
g70
I1
ssg71
g4695
sg64
(lp4702
(lp4703
(g4311
(S's\x08\x00\x00\x00Download'
tRp4704
I00
S'http://www.web2py.com/examples/default/download'
p4705
tp4706
a(g4311
(S's\x07\x00\x00\x00Support'
tRp4707
I00
S'http://www.web2py.com/examples/default/support'
p4708
tp4709
a(g4311
(S's\x04\x00\x00\x00Demo'
tRp4710
I00
S'http://web2py.com/demo_admin'
p4711
tp4712
a(g4311
(S's\x0e\x00\x00\x00Quick Examples'
tRp4713
I00
S'http://web2py.com/examples/default/examples'
p4714
tp4715
a(g4311
(S's\x03\x00\x00\x00FAQ'
tRp4716
I00
S'http://web2py.com/AlterEgo'
p4717
tp4718
a(g4311
(S's\x06\x00\x00\x00Videos'
tRp4719
I00
S'http://www.web2py.com/examples/default/videos/'
p4720
tp4721
a(g4311
(S's\x11\x00\x00\x00Free Applications'
tRp4722
I00
S'http://web2py.com/appliances'
p4723
tp4724
a(g4311
(S's\x07\x00\x00\x00Plugins'
tRp4725
I00
S'http://web2py.com/plugins'
p4726
tp4727
a(g4311
(S's\x07\x00\x00\x00Layouts'
tRp4728
I00
S'http://web2py.com/layouts'
p4729
tp4730
a(g4311
(S's\x07\x00\x00\x00Recipes'
tRp4731
I00
S'http://web2pyslices.com/'
p4732
tp4733
a(g4311
(S's\x08\x00\x00\x00Semantic'
tRp4734
I00
S'http://web2py.com/semantic'
p4735
tp4736
aasbasbasbasbasbasbasbag57
(g73
g59
NtRp4737
(dp4738
g62
(dp4739
sg71
g4494
sg64
(lp4740
g57
(g78
g59
NtRp4741
(dp4742
g62
(dp4743
sg71
g4737
sg64
(lp4744
g57
(g58
g59
NtRp4745
(dp4746
g62
(dp4747
g70
I2
ssg71
g4741
sg64
(lp4748
g57
(g66
g59
NtRp4749
(dp4750
g62
(dp4751
g70
I1
ssg71
Nsg64
(lp4752
g57
(g73
g59
NtRp4753
(dp4754
g62
(dp4755
sg71
g4749
sg64
(lp4756
g57
(g78
g59
NtRp4757
(dp4758
g62
(dp4759
sg71
g4753
sg64
(lp4760
g57
(g58
g59
NtRp4761
(dp4762
g62
(dp4763
g70
I1
ssg71
g4757
sg64
(lp4764
g4311
(S's\r\x00\x00\x00Documentation'
tRp4765
asbasbasbag57
(g73
g59
NtRp4766
(dp4767
g62
(dp4768
sg71
g4749
sg64
(lp4769
g57
(g78
g59
NtRp4770
(dp4771
g62
(dp4772
sg71
g4766
sg64
(lp4773
g57
(g58
g59
NtRp4774
(dp4775
g62
(dp4776
g70
I1
ssg71
g4770
sg64
(lp4777
I00
asbasbasbag57
(g73
g59
NtRp4778
(dp4779
g62
(dp4780
sg71
g4749
sg64
(lp4781
g57
(g78
g59
NtRp4782
(dp4783
g62
(dp4784
sg71
g4778
sg64
(lp4785
g57
(g58
g59
NtRp4786
(dp4787
g62
(dp4788
g70
I1
ssg71
g4782
sg64
(lp4789
S'http://www.web2py.com/book'
p4790
asbasbasbag57
(g73
g59
NtRp4791
(dp4792
g62
(dp4793
sg71
g4749
sg64
(lp4794
g57
(g78
g59
NtRp4795
(dp4796
g62
(dp4797
sg71
g4791
sg64
(lp4798
g57
(g58
g59
NtRp4799
(dp4800
g62
(dp4801
g70
I1
ssg71
g4795
sg64
(lp4802
(lp4803
(g4311
(S's\x07\x00\x00\x00Preface'
tRp4804
I00
S'http://www.web2py.com/book/default/chapter/00'
p4805
tp4806
a(g4311
(S's\x0c\x00\x00\x00Introduction'
tRp4807
I00
S'http://www.web2py.com/book/default/chapter/01'
p4808
tp4809
a(g4311
(S's\x06\x00\x00\x00Python'
tRp4810
I00
S'http://www.web2py.com/book/default/chapter/02'
p4811
tp4812
a(g4311
(S's\x08\x00\x00\x00Overview'
tRp4813
I00
S'http://www.web2py.com/book/default/chapter/03'
p4814
tp4815
a(g4311
(S's\x08\x00\x00\x00The Core'
tRp4816
I00
S'http://www.web2py.com/book/default/chapter/04'
p4817
tp4818
a(g4311
(S's\t\x00\x00\x00The Views'
tRp4819
I00
S'http://www.web2py.com/book/default/chapter/05'
p4820
tp4821
a(g4311
(S's\x08\x00\x00\x00Database'
tRp4822
I00
S'http://www.web2py.com/book/default/chapter/06'
p4823
tp4824
a(g4311
(S's\x14\x00\x00\x00Forms and Validators'
tRp4825
I00
S'http://www.web2py.com/book/default/chapter/07'
p4826
tp4827
a(g4311
(S's\r\x00\x00\x00Email and SMS'
tRp4828
I00
S'http://www.web2py.com/book/default/chapter/08'
p4829
tp4830
a(g4311
(S's\x0e\x00\x00\x00Access Control'
tRp4831
I00
S'http://www.web2py.com/book/default/chapter/09'
p4832
tp4833
a(g4311
(S's\x08\x00\x00\x00Services'
tRp4834
I00
S'http://www.web2py.com/book/default/chapter/10'
p4835
tp4836
a(g4311
(S's\x0c\x00\x00\x00Ajax Recipes'
tRp4837
I00
S'http://www.web2py.com/book/default/chapter/11'
p4838
tp4839
a(g4311
(S's\x16\x00\x00\x00Components and Plugins'
tRp4840
I00
S'http://www.web2py.com/book/default/chapter/12'
p4841
tp4842
a(g4311
(S's\x12\x00\x00\x00Deployment Recipes'
tRp4843
I00
S'http://www.web2py.com/book/default/chapter/13'
p4844
tp4845
a(g4311
(S's\r\x00\x00\x00Other Recipes'
tRp4846
I00
S'http://www.web2py.com/book/default/chapter/14'
p4847
tp4848
a(g4311
(S's\r\x00\x00\x00Buy this book'
tRp4849
I00
S'http://stores.lulu.com/web2py'
p4850
tp4851
aasbasbasbasbasbasbasbag57
(g73
g59
NtRp4852
(dp4853
g62
(dp4854
sg71
g4494
sg64
(lp4855
g57
(g78
g59
NtRp4856
(dp4857
g62
(dp4858
sg71
g4852
sg64
(lp4859
g57
(g58
g59
NtRp4860
(dp4861
g62
(dp4862
g70
I2
ssg71
g4856
sg64
(lp4863
g57
(g66
g59
NtRp4864
(dp4865
g62
(dp4866
g70
I1
ssg71
Nsg64
(lp4867
g57
(g73
g59
NtRp4868
(dp4869
g62
(dp4870
sg71
g4864
sg64
(lp4871
g57
(g78
g59
NtRp4872
(dp4873
g62
(dp4874
sg71
g4868
sg64
(lp4875
g57
(g58
g59
NtRp4876
(dp4877
g62
(dp4878
g70
I1
ssg71
g4872
sg64
(lp4879
g4311
(S's\t\x00\x00\x00Community'
tRp4880
asbasbasbag57
(g73
g59
NtRp4881
(dp4882
g62
(dp4883
sg71
g4864
sg64
(lp4884
g57
(g78
g59
NtRp4885
(dp4886
g62
(dp4887
sg71
g4881
sg64
(lp4888
g57
(g58
g59
NtRp4889
(dp4890
g62
(dp4891
g70
I1
ssg71
g4885
sg64
(lp4892
I00
asbasbasbag57
(g73
g59
NtRp4893
(dp4894
g62
(dp4895
sg71
g4864
sg64
(lp4896
g57
(g78
g59
NtRp4897
(dp4898
g62
(dp4899
sg71
g4893
sg64
(lp4900
g57
(g58
g59
NtRp4901
(dp4902
g62
(dp4903
g70
I1
ssg71
g4897
sg64
(lp4904
Nasbasbasbag57
(g73
g59
NtRp4905
(dp4906
g62
(dp4907
sg71
g4864
sg64
(lp4908
g57
(g78
g59
NtRp4909
(dp4910
g62
(dp4911
sg71
g4905
sg64
(lp4912
g57
(g58
g59
NtRp4913
(dp4914
g62
(dp4915
g70
I1
ssg71
g4909
sg64
(lp4916
(lp4917
(g4311
(S's\x06\x00\x00\x00Groups'
tRp4918
I00
S'http://www.web2py.com/examples/default/usergroups'
p4919
tp4920
a(g4311
(S's\x07\x00\x00\x00Twitter'
tRp4921
I00
S'http://twitter.com/web2py'
p4922
tp4923
a(g4311
(S's\t\x00\x00\x00Live Chat'
tRp4924
I00
S'http://webchat.freenode.net/?channels=web2py'
p4925
tp4926
aasbasbasbasbasbasbasbag57
(g73
g59
NtRp4927
(dp4928
g62
(dp4929
sg71
g4494
sg64
(lp4930
g57
(g78
g59
NtRp4931
(dp4932
g62
(dp4933
sg71
g4927
sg64
(lp4934
g57
(g58
g59
NtRp4935
(dp4936
g62
(dp4937
g70
I2
ssg71
g4931
sg64
(lp4938
g57
(g66
g59
NtRp4939
(dp4940
g62
(dp4941
g70
I1
ssg71
Nsg64
(lp4942
g57
(g73
g59
NtRp4943
(dp4944
g62
(dp4945
sg71
g4939
sg64
(lp4946
g57
(g78
g59
NtRp4947
(dp4948
g62
(dp4949
sg71
g4943
sg64
(lp4950
g57
(g58
g59
NtRp4951
(dp4952
g62
(dp4953
g70
I1
ssg71
g4947
sg64
(lp4954
g4311
(S's\x07\x00\x00\x00Plugins'
tRp4955
asbasbasbag57
(g73
g59
NtRp4956
(dp4957
g62
(dp4958
sg71
g4939
sg64
(lp4959
g57
(g78
g59
NtRp4960
(dp4961
g62
(dp4962
sg71
g4956
sg64
(lp4963
g57
(g58
g59
NtRp4964
(dp4965
g62
(dp4966
g70
I1
ssg71
g4960
sg64
(lp4967
I00
asbasbasbag57
(g73
g59
NtRp4968
(dp4969
g62
(dp4970
sg71
g4939
sg64
(lp4971
g57
(g78
g59
NtRp4972
(dp4973
g62
(dp4974
sg71
g4968
sg64
(lp4975
g57
(g58
g59
NtRp4976
(dp4977
g62
(dp4978
g70
I1
ssg71
g4972
sg64
(lp4979
Nasbasbasbag57
(g73
g59
NtRp4980
(dp4981
g62
(dp4982
sg71
g4939
sg64
(lp4983
g57
(g78
g59
NtRp4984
(dp4985
g62
(dp4986
sg71
g4980
sg64
(lp4987
g57
(g58
g59
NtRp4988
(dp4989
g62
(dp4990
g70
I1
ssg71
g4984
sg64
(lp4991
(lp4992
(S'plugin_wiki'
p4993
I00
S'http://web2py.com/examples/default/download'
p4994
tp4995
a(g4311
(S's\r\x00\x00\x00Other Plugins'
tRp4996
I00
g4726
tp4997
a(g4311
(S's\x0e\x00\x00\x00Layout Plugins'
tRp4998
I00
g4729
tp4999
aasbasbasbasbasbasbasbasbasbasbasbasbasbasbasbasbasbasbasbag57
(g73
g59
NtRp5000
(dp5001
g62
(dp5002
sg71
g3777
sg64
(lp5003
g57
(g78
g59
NtRp5004
(dp5005
g62
(dp5006
g82
g83
ssg71
g5000
sg64
(lp5007
S'meta'
p5008
asbag57
(g78
g59
NtRp5009
(dp5010
g62
(dp5011
g89
g90
ssg71
g5000
sg64
(lp5012
S':'
asbag57
(g78
g59
NtRp5013
(dp5014
g62
(dp5015
sg71
g5000
sg64
(lp5016
g57
(g58
g59
NtRp5017
(dp5018
g62
(dp5019
g70
I5
ssg71
g5013
sg64
(lp5020
g57
(g66
g59
NtRp5021
(dp5022
g62
(dp5023
g70
I4
ssg71
Nsg64
(lp5024
g57
(g73
g59
NtRp5025
(dp5026
g62
(dp5027
sg71
g5021
sg64
(lp5028
g57
(g78
g59
NtRp5029
(dp5030
g62
(dp5031
g82
g83
ssg71
g5025
sg64
(lp5032
S'author'
p5033
asbag57
(g78
g59
NtRp5034
(dp5035
g62
(dp5036
g89
g90
ssg71
g5025
sg64
(lp5037
S':'
asbag57
(g78
g59
NtRp5038
(dp5039
g62
(dp5040
sg71
g5025
sg64
(lp5041
g57
(g58
g59
NtRp5042
(dp5043
g62
(dp5044
g70
I4
ssg71
g5038
sg64
(lp5045
S'Your Name <you@example.com>'
p5046
asbasbasbag57
(g73
g59
NtRp5047
(dp5048
g62
(dp5049
sg71
g5021
sg64
(lp5050
g57
(g78
g59
NtRp5051
(dp5052
g62
(dp5053
g82
g83
ssg71
g5047
sg64
(lp5054
S'description'
p5055
asbag57
(g78
g59
NtRp5056
(dp5057
g62
(dp5058
g89
g90
ssg71
g5047
sg64
(lp5059
S':'
asbag57
(g78
g59
NtRp5060
(dp5061
g62
(dp5062
sg71
g5047
sg64
(lp5063
g57
(g58
g59
NtRp5064
(dp5065
g62
(dp5066
g70
I4
ssg71
g5060
sg64
(lp5067
S'a cool new app'
p5068
asbasbasbag57
(g73
g59
NtRp5069
(dp5070
g62
(dp5071
sg71
g5021
sg64
(lp5072
g57
(g78
g59
NtRp5073
(dp5074
g62
(dp5075
g82
g83
ssg71
g5069
sg64
(lp5076
S'generator'
p5077
asbag57
(g78
g59
NtRp5078
(dp5079
g62
(dp5080
g89
g90
ssg71
g5069
sg64
(lp5081
S':'
asbag57
(g78
g59
NtRp5082
(dp5083
g62
(dp5084
sg71
g5069
sg64
(lp5085
g57
(g58
g59
NtRp5086
(dp5087
g62
(dp5088
g70
I4
ssg71
g5082
sg64
(lp5089
S'Web2py Web Framework'
p5090
asbasbasbag57
(g73
g59
NtRp5091
(dp5092
g62
(dp5093
sg71
g5021
sg64
(lp5094
g57
(g78
g59
NtRp5095
(dp5096
g62
(dp5097
g82
g83
ssg71
g5091
sg64
(lp5098
S'keywords'
p5099
asbag57
(g78
g59
NtRp5100
(dp5101
g62
(dp5102
g89
g90
ssg71
g5091
sg64
(lp5103
S':'
asbag57
(g78
g59
NtRp5104
(dp5105
g62
(dp5106
sg71
g5091
sg64
(lp5107
g57
(g58
g59
NtRp5108
(dp5109
g62
(dp5110
g70
I4
ssg71
g5104
sg64
(lp5111
S'web2py, python, framework'
p5112
asbasbasbasbasbasbasbag57
(g73
g59
NtRp5113
(dp5114
g62
(dp5115
sg71
g3777
sg64
(lp5116
g57
(g78
g59
NtRp5117
(dp5118
g62
(dp5119
g82
g83
ssg71
g5113
sg64
(lp5120
S'models_to_run'
p5121
asbag57
(g78
g59
NtRp5122
(dp5123
g62
(dp5124
g89
g90
ssg71
g5113
sg64
(lp5125
S':'
asbag57
(g78
g59
NtRp5126
(dp5127
g62
(dp5128
sg71
g5113
sg64
(lp5129
g57
(g58
g59
NtRp5130
(dp5131
g62
(dp5132
g70
I5
ssg71
g5126
sg64
(lp5133
g57
(g66
g59
NtRp5134
(dp5135
g62
(dp5136
g70
I4
ssg71
Nsg64
(lp5137
g57
(g73
g59
NtRp5138
(dp5139
g62
(dp5140
sg71
g5134
sg64
(lp5141
g57
(g78
g59
NtRp5142
(dp5143
g62
(dp5144
sg71
g5138
sg64
(lp5145
g57
(g58
g59
NtRp5146
(dp5147
g62
(dp5148
g70
I4
ssg71
g5142
sg64
(lp5149
S'^\\w+\\.py$'
p5150
asbasbasbag57
(g73
g59
NtRp5151
(dp5152
g62
(dp5153
sg71
g5134
sg64
(lp5154
g57
(g78
g59
NtRp5155
(dp5156
g62
(dp5157
sg71
g5151
sg64
(lp5158
g57
(g58
g59
NtRp5159
(dp5160
g62
(dp5161
g70
I4
ssg71
g5155
sg64
(lp5162
S'^default/\\w+\\.py$'
p5163
asbasbasbag57
(g73
g59
NtRp5164
(dp5165
g62
(dp5166
sg71
g5134
sg64
(lp5167
g57
(g78
g59
NtRp5168
(dp5169
g62
(dp5170
sg71
g5164
sg64
(lp5171
g57
(g58
g59
NtRp5172
(dp5173
g62
(dp5174
g70
I4
ssg71
g5168
sg64
(lp5175
S'^default/dislike/\\w+\\.py$'
p5176
asbasbasbasbasbasbasbag57
(g73
g59
NtRp5177
(dp5178
g62
(dp5179
sg71
g3777
sg64
(lp5180
g57
(g78
g59
NtRp5181
(dp5182
g62
(dp5183
g82
g83
ssg71
g5177
sg64
(lp5184
S'postprocessing'
p5185
asbag57
(g78
g59
NtRp5186
(dp5187
g62
(dp5188
g89
g90
ssg71
g5177
sg64
(lp5189
S':'
asbag57
(g78
g59
NtRp5190
(dp5191
g62
(dp5192
sg71
g5177
sg64
(lp5193
g57
(g58
g59
NtRp5194
(dp5195
g62
(dp5196
g70
I5
ssg71
g5190
sg64
(lp5197
g57
(g66
g59
NtRp5198
(dp5199
g62
(dp5200
g70
I4
ssg71
Nsg64
(lp5201
sbasbasbasbag57
(g73
g59
NtRp5202
(dp5203
g62
(dp5204
sg71
g3777
sg64
(lp5205
g57
(g78
g59
NtRp5206
(dp5207
g62
(dp5208
g82
g83
ssg71
g5202
sg64
(lp5209
S'session_cookie_expires'
p5210
asbag57
(g78
g59
NtRp5211
(dp5212
g62
(dp5213
g89
g90
ssg71
g5202
sg64
(lp5214
S':'
asbag57
(g78
g59
NtRp5215
(dp5216
g62
(dp5217
sg71
g5202
sg64
(lp5218
g57
(g58
g59
NtRp5219
(dp5220
g62
(dp5221
g70
I5
ssg71
g5215
sg64
(lp5222
S'None'
p5223
asbasbasbag57
(g73
g59
NtRp5224
(dp5225
g62
(dp5226
sg71
g3777
sg64
(lp5227
g57
(g78
g59
NtRp5228
(dp5229
g62
(dp5230
g82
g83
ssg71
g5224
sg64
(lp5231
S'session_data_name'
p5232
asbag57
(g78
g59
NtRp5233
(dp5234
g62
(dp5235
g89
g90
ssg71
g5224
sg64
(lp5236
S':'
asbag57
(g78
g59
NtRp5237
(dp5238
g62
(dp5239
sg71
g5224
sg64
(lp5240
g57
(g58
g59
NtRp5241
(dp5242
g62
(dp5243
g70
I5
ssg71
g5237
sg64
(lp5244
S'session_data_assignmen3'
p5245
asbasbasbag57
(g73
g59
NtRp5246
(dp5247
g62
(dp5248
sg71
g3777
sg64
(lp5249
g57
(g78
g59
NtRp5250
(dp5251
g62
(dp5252
g82
g83
ssg71
g5246
sg64
(lp5253
S'session_file'
p5254
asbag57
(g78
g59
NtRp5255
(dp5256
g62
(dp5257
g89
g90
ssg71
g5246
sg64
(lp5258
S':'
asbag57
(g78
g59
NtRp5259
(dp5260
g62
(dp5261
sg71
g5246
sg64
(lp5262
g57
(g58
g59
NtRp5263
(dp5264
g62
(dp5265
g70
I5
ssg71
g5259
sg64
(lp5266
S"<open file '/home/umang/web2py/applications/assignmen3/sessions/127.0.0.1-280551a1-c43a-433e-9359-4399b67c1e4b', mode 'rb+' at 0x7fe3042d4f60>"
p5267
asbasbasbag57
(g73
g59
NtRp5268
(dp5269
g62
(dp5270
sg71
g3777
sg64
(lp5271
g57
(g78
g59
NtRp5272
(dp5273
g62
(dp5274
g82
g83
ssg71
g5268
sg64
(lp5275
S'session_filename'
p5276
asbag57
(g78
g59
NtRp5277
(dp5278
g62
(dp5279
g89
g90
ssg71
g5268
sg64
(lp5280
S':'
asbag57
(g78
g59
NtRp5281
(dp5282
g62
(dp5283
sg71
g5268
sg64
(lp5284
g57
(g58
g59
NtRp5285
(dp5286
g62
(dp5287
g70
I5
ssg71
g5281
sg64
(lp5288
S'/home/umang/web2py/applications/assignmen3/sessions/127.0.0.1-280551a1-c43a-433e-9359-4399b67c1e4b'
p5289
asbasbasbag57
(g73
g59
NtRp5290
(dp5291
g62
(dp5292
sg71
g3777
sg64
(lp5293
g57
(g78
g59
NtRp5294
(dp5295
g62
(dp5296
g82
g83
ssg71
g5290
sg64
(lp5297
S'session_id'
p5298
asbag57
(g78
g59
NtRp5299
(dp5300
g62
(dp5301
g89
g90
ssg71
g5290
sg64
(lp5302
S':'
asbag57
(g78
g59
NtRp5303
(dp5304
g62
(dp5305
sg71
g5290
sg64
(lp5306
g57
(g58
g59
NtRp5307
(dp5308
g62
(dp5309
g70
I5
ssg71
g5303
sg64
(lp5310
g512
asbasbasbag57
(g73
g59
NtRp5311
(dp5312
g62
(dp5313
sg71
g3777
sg64
(lp5314
g57
(g78
g59
NtRp5315
(dp5316
g62
(dp5317
g82
g83
ssg71
g5311
sg64
(lp5318
S'session_id_name'
p5319
asbag57
(g78
g59
NtRp5320
(dp5321
g62
(dp5322
g89
g90
ssg71
g5311
sg64
(lp5323
S':'
asbag57
(g78
g59
NtRp5324
(dp5325
g62
(dp5326
sg71
g5311
sg64
(lp5327
g57
(g58
g59
NtRp5328
(dp5329
g62
(dp5330
g70
I5
ssg71
g5324
sg64
(lp5331
g3834
asbasbasbag57
(g73
g59
NtRp5332
(dp5333
g62
(dp5334
sg71
g3777
sg64
(lp5335
g57
(g78
g59
NtRp5336
(dp5337
g62
(dp5338
g82
g83
ssg71
g5332
sg64
(lp5339
S'session_locked'
p5340
asbag57
(g78
g59
NtRp5341
(dp5342
g62
(dp5343
g89
g90
ssg71
g5332
sg64
(lp5344
S':'
asbag57
(g78
g59
NtRp5345
(dp5346
g62
(dp5347
sg71
g5332
sg64
(lp5348
g57
(g58
g59
NtRp5349
(dp5350
g62
(dp5351
g70
I5
ssg71
g5345
sg64
(lp5352
g1806
asbasbasbag57
(g73
g59
NtRp5353
(dp5354
g62
(dp5355
sg71
g3777
sg64
(lp5356
g57
(g78
g59
NtRp5357
(dp5358
g62
(dp5359
g82
g83
ssg71
g5353
sg64
(lp5360
S'session_new'
p5361
asbag57
(g78
g59
NtRp5362
(dp5363
g62
(dp5364
g89
g90
ssg71
g5353
sg64
(lp5365
S':'
asbag57
(g78
g59
NtRp5366
(dp5367
g62
(dp5368
sg71
g5353
sg64
(lp5369
g57
(g58
g59
NtRp5370
(dp5371
g62
(dp5372
g70
I5
ssg71
g5366
sg64
(lp5373
g100
asbasbasbag57
(g73
g59
NtRp5374
(dp5375
g62
(dp5376
sg71
g3777
sg64
(lp5377
g57
(g78
g59
NtRp5378
(dp5379
g62
(dp5380
g82
g83
ssg71
g5374
sg64
(lp5381
S'session_storage_type'
p5382
asbag57
(g78
g59
NtRp5383
(dp5384
g62
(dp5385
g89
g90
ssg71
g5374
sg64
(lp5386
S':'
asbag57
(g78
g59
NtRp5387
(dp5388
g62
(dp5389
sg71
g5374
sg64
(lp5390
g57
(g58
g59
NtRp5391
(dp5392
g62
(dp5393
g70
I5
ssg71
g5387
sg64
(lp5394
g3238
asbasbasbag57
(g73
g59
NtRp5395
(dp5396
g62
(dp5397
sg71
g3777
sg64
(lp5398
g57
(g78
g59
NtRp5399
(dp5400
g62
(dp5401
g82
g83
ssg71
g5395
sg64
(lp5402
S'status'
p5403
asbag57
(g78
g59
NtRp5404
(dp5405
g62
(dp5406
g89
g90
ssg71
g5395
sg64
(lp5407
S':'
asbag57
(g78
g59
NtRp5408
(dp5409
g62
(dp5410
sg71
g5395
sg64
(lp5411
g57
(g58
g59
NtRp5412
(dp5413
g62
(dp5414
g70
I5
ssg71
g5408
sg64
(lp5415
S'200'
p5416
asbasbasbag57
(g73
g59
NtRp5417
(dp5418
g62
(dp5419
sg71
g3777
sg64
(lp5420
g57
(g78
g59
NtRp5421
(dp5422
g62
(dp5423
g82
g83
ssg71
g5417
sg64
(lp5424
S'subtitle'
p5425
asbag57
(g78
g59
NtRp5426
(dp5427
g62
(dp5428
g89
g90
ssg71
g5417
sg64
(lp5429
S':'
asbag57
(g78
g59
NtRp5430
(dp5431
g62
(dp5432
sg71
g5417
sg64
(lp5433
g57
(g58
g59
NtRp5434
(dp5435
g62
(dp5436
g70
I5
ssg71
g5430
sg64
(lp5437
g4311
(S's\r\x00\x00\x00customize me!'
tRp5438
asbasbasbag57
(g73
g59
NtRp5439
(dp5440
g62
(dp5441
sg71
g3777
sg64
(lp5442
g57
(g78
g59
NtRp5443
(dp5444
g62
(dp5445
g82
g83
ssg71
g5439
sg64
(lp5446
S'title'
p5447
asbag57
(g78
g59
NtRp5448
(dp5449
g62
(dp5450
g89
g90
ssg71
g5439
sg64
(lp5451
S':'
asbag57
(g78
g59
NtRp5452
(dp5453
g62
(dp5454
sg71
g5439
sg64
(lp5455
g57
(g58
g59
NtRp5456
(dp5457
g62
(dp5458
g70
I5
ssg71
g5452
sg64
(lp5459
S'Assignmen3'
p5460
asbasbasbag57
(g73
g59
NtRp5461
(dp5462
g62
(dp5463
sg71
g3777
sg64
(lp5464
g57
(g78
g59
NtRp5465
(dp5466
g62
(dp5467
g82
g83
ssg71
g5461
sg64
(lp5468
S'view'
p5469
asbag57
(g78
g59
NtRp5470
(dp5471
g62
(dp5472
g89
g90
ssg71
g5461
sg64
(lp5473
S':'
asbag57
(g78
g59
NtRp5474
(dp5475
g62
(dp5476
sg71
g5461
sg64
(lp5477
g57
(g58
g59
NtRp5478
(dp5479
g62
(dp5480
g70
I5
ssg71
g5474
sg64
(lp5481
S'default/dislike.html'
p5482
asbasbasbasbasbsS'locals'
p5483
(dp5484
S'news_id'
p5485
S'16'
p5486
sS'query'
p5487
S'<Rows (1)>'
p5488
sS'flag'
p5489
S'0'
sS'ar'
p5490
S'<Rows (1)>'
p5491
sS'catg'
p5492
S'2'
sssS'traceback'
p5493
S'Traceback (most recent call last):\n  File "/home/umang/web2py/gluon/restricted.py", line 212, in restricted\n    exec ccode in environment\n  File "/home/umang/web2py/applications/assignmen3/controllers/default.py", line 402, in <module>\n  File "/home/umang/web2py/gluon/globals.py", line 193, in <lambda>\n    self._caller = lambda f: f()\n  File "/home/umang/web2py/gluon/tools.py", line 2929, in f\n    return action(*a, **b)\n  File "/home/umang/web2py/applications/assignmen3/controllers/default.py", line 216, in dislike\n    if(int(query[0].disliked)==0 and int(query[0].liked)==0):\nAttributeError: \'Row\' object has no attribute \'liked\'\n'
p5494
s.