(dp1
S'output'
p2
S''
sS'layer'
p3
S'Framework'
p4
sS'code'
p5
S''
sS'snapshot'
p6
(dp7
S'exception'
p8
(dp9
S'__getslice__'
p10
S"<method-wrapper '__getslice__' of exceptions.SyntaxError object>"
p11
sS'text'
p12
S'"\'layout.html"'
p13
sS'__str__'
p14
S"<method-wrapper '__str__' of exceptions.SyntaxError object>"
p15
sS'__reduce__'
p16
S'<built-in method __reduce__ of exceptions.SyntaxError object>'
p17
sS'__dict__'
p18
S'{}'
p19
sS'__sizeof__'
p20
S'<built-in method __sizeof__ of exceptions.SyntaxError object>'
p21
sS'__init__'
p22
S"<method-wrapper '__init__' of exceptions.SyntaxError object>"
p23
sS'__setattr__'
p24
S"<method-wrapper '__setattr__' of exceptions.SyntaxError object>"
p25
sS'__reduce_ex__'
p26
S'<built-in method __reduce_ex__ of exceptions.SyntaxError object>'
p27
sS'__new__'
p28
S'<built-in method __new__ of type object>'
p29
sS'__format__'
p30
S'<built-in method __format__ of exceptions.SyntaxError object>'
p31
sS'__class__'
p32
S"<type 'exceptions.SyntaxError'>"
p33
sS'filename'
p34
S"'<string>'"
p35
sS'lineno'
p36
S'1'
sS'msg'
p37
S"'EOL while scanning string literal'"
p38
sS'__doc__'
p39
S"'Invalid syntax.'"
p40
sS'__getitem__'
p41
S"<method-wrapper '__getitem__' of exceptions.SyntaxError object>"
p42
sS'__setstate__'
p43
S'<built-in method __setstate__ of exceptions.SyntaxError object>'
p44
sS'__getattribute__'
p45
S"<method-wrapper '__getattribute__' of exceptions.SyntaxError object>"
p46
sS'print_file_and_line'
p47
S'None'
p48
sS'args'
p49
S'(\'EOL while scanning string literal\', (\'<string>\', 1, 12, "\'layout.html"))'
p50
sS'__subclasshook__'
p51
S'<built-in method __subclasshook__ of type object>'
p52
sS'offset'
p53
S'12'
p54
sS'__unicode__'
p55
S'<built-in method __unicode__ of exceptions.SyntaxError object>'
p56
sS'__delattr__'
p57
S"<method-wrapper '__delattr__' of exceptions.SyntaxError object>"
p58
sS'__repr__'
p59
S"<method-wrapper '__repr__' of exceptions.SyntaxError object>"
p60
sS'__hash__'
p61
S"<method-wrapper '__hash__' of exceptions.SyntaxError object>"
p62
ssS'evalue'
p63
S'EOL while scanning string literal (<string>, line 1)'
p64
sS'request'
p65
ccopy_reg
_reconstructor
p66
(cgluon.html
BEAUTIFY
p67
c__builtin__
object
p68
NtRp69
(dp70
S'attributes'
p71
(dp72
sS'components'
p73
(lp74
g66
(cgluon.html
TABLE
p75
g68
NtRp76
(dp77
g71
(dp78
S'level'
p79
I5
ssS'parent'
p80
Nsg73
(lp81
g66
(cgluon.html
TR
p82
g68
NtRp83
(dp84
g71
(dp85
sg80
g76
sg73
(lp86
g66
(cgluon.html
TD
p87
g68
NtRp88
(dp89
g71
(dp90
S'_style'
p91
S'font-weight:bold;vertical-align:top'
p92
ssg80
g83
sg73
(lp93
S'ajax'
p94
asbag66
(g87
g68
NtRp95
(dp96
g71
(dp97
S'_valign'
p98
S'top'
p99
ssg80
g83
sg73
(lp100
S':'
asbag66
(g87
g68
NtRp101
(dp102
g71
(dp103
sg80
g83
sg73
(lp104
g66
(g67
g68
NtRp105
(dp106
g71
(dp107
g79
I5
ssg80
g101
sg73
(lp108
S'False'
p109
asbasbasbag66
(g82
g68
NtRp110
(dp111
g71
(dp112
sg80
g76
sg73
(lp113
g66
(g87
g68
NtRp114
(dp115
g71
(dp116
g91
g92
ssg80
g110
sg73
(lp117
S'application'
p118
asbag66
(g87
g68
NtRp119
(dp120
g71
(dp121
g98
g99
ssg80
g110
sg73
(lp122
S':'
asbag66
(g87
g68
NtRp123
(dp124
g71
(dp125
sg80
g110
sg73
(lp126
g66
(g67
g68
NtRp127
(dp128
g71
(dp129
g79
I5
ssg80
g123
sg73
(lp130
S'assignmen3'
p131
asbasbasbag66
(g82
g68
NtRp132
(dp133
g71
(dp134
sg80
g76
sg73
(lp135
g66
(g87
g68
NtRp136
(dp137
g71
(dp138
g91
g92
ssg80
g132
sg73
(lp139
g49
asbag66
(g87
g68
NtRp140
(dp141
g71
(dp142
g98
g99
ssg80
g132
sg73
(lp143
S':'
asbag66
(g87
g68
NtRp144
(dp145
g71
(dp146
sg80
g132
sg73
(lp147
g66
(g67
g68
NtRp148
(dp149
g71
(dp150
g79
I5
ssg80
g144
sg73
(lp151
g66
(g75
g68
NtRp152
(dp153
g71
(dp154
g79
I4
ssg80
Nsg73
(lp155
g66
(g82
g68
NtRp156
(dp157
g71
(dp158
sg80
g152
sg73
(lp159
g66
(g87
g68
NtRp160
(dp161
g71
(dp162
sg80
g156
sg73
(lp163
g66
(g67
g68
NtRp164
(dp165
g71
(dp166
g79
I4
ssg80
g160
sg73
(lp167
S'3'
asbasbasbag66
(g82
g68
NtRp168
(dp169
g71
(dp170
sg80
g152
sg73
(lp171
g66
(g87
g68
NtRp172
(dp173
g71
(dp174
sg80
g168
sg73
(lp175
g66
(g67
g68
NtRp176
(dp177
g71
(dp178
g79
I4
ssg80
g172
sg73
(lp179
S'2'
asbasbasbasbasbasbasbag66
(g82
g68
NtRp180
(dp181
g71
(dp182
sg80
g76
sg73
(lp183
g66
(g87
g68
NtRp184
(dp185
g71
(dp186
g91
g92
ssg80
g180
sg73
(lp187
S'body'
p188
asbag66
(g87
g68
NtRp189
(dp190
g71
(dp191
g98
g99
ssg80
g180
sg73
(lp192
S':'
asbag66
(g87
g68
NtRp193
(dp194
g71
(dp195
sg80
g180
sg73
(lp196
g66
(g67
g68
NtRp197
(dp198
g71
(dp199
g79
I5
ssg80
g193
sg73
(lp200
S'<cStringIO.StringO object at 0x7f9508111570>'
p201
asbasbasbag66
(g82
g68
NtRp202
(dp203
g71
(dp204
sg80
g76
sg73
(lp205
g66
(g87
g68
NtRp206
(dp207
g71
(dp208
g91
g92
ssg80
g202
sg73
(lp209
S'cid'
p210
asbag66
(g87
g68
NtRp211
(dp212
g71
(dp213
g98
g99
ssg80
g202
sg73
(lp214
S':'
asbag66
(g87
g68
NtRp215
(dp216
g71
(dp217
sg80
g202
sg73
(lp218
g66
(g67
g68
NtRp219
(dp220
g71
(dp221
g79
I5
ssg80
g215
sg73
(lp222
S'None'
p223
asbasbasbag66
(g82
g68
NtRp224
(dp225
g71
(dp226
sg80
g76
sg73
(lp227
g66
(g87
g68
NtRp228
(dp229
g71
(dp230
g91
g92
ssg80
g224
sg73
(lp231
S'client'
p232
asbag66
(g87
g68
NtRp233
(dp234
g71
(dp235
g98
g99
ssg80
g224
sg73
(lp236
S':'
asbag66
(g87
g68
NtRp237
(dp238
g71
(dp239
sg80
g224
sg73
(lp240
g66
(g67
g68
NtRp241
(dp242
g71
(dp243
g79
I5
ssg80
g237
sg73
(lp244
S'127.0.0.1'
p245
asbasbasbag66
(g82
g68
NtRp246
(dp247
g71
(dp248
sg80
g76
sg73
(lp249
g66
(g87
g68
NtRp250
(dp251
g71
(dp252
g91
g92
ssg80
g246
sg73
(lp253
S'controller'
p254
asbag66
(g87
g68
NtRp255
(dp256
g71
(dp257
g98
g99
ssg80
g246
sg73
(lp258
S':'
asbag66
(g87
g68
NtRp259
(dp260
g71
(dp261
sg80
g246
sg73
(lp262
g66
(g67
g68
NtRp263
(dp264
g71
(dp265
g79
I5
ssg80
g259
sg73
(lp266
S'default'
p267
asbasbasbag66
(g82
g68
NtRp268
(dp269
g71
(dp270
sg80
g76
sg73
(lp271
g66
(g87
g68
NtRp272
(dp273
g71
(dp274
g91
g92
ssg80
g268
sg73
(lp275
S'cookies'
p276
asbag66
(g87
g68
NtRp277
(dp278
g71
(dp279
g98
g99
ssg80
g268
sg73
(lp280
S':'
asbag66
(g87
g68
NtRp281
(dp282
g71
(dp283
sg80
g268
sg73
(lp284
g66
(g67
g68
NtRp285
(dp286
g71
(dp287
g79
I5
ssg80
g281
sg73
(lp288
g66
(g75
g68
NtRp289
(dp290
g71
(dp291
g79
I4
ssg80
Nsg73
(lp292
g66
(g82
g68
NtRp293
(dp294
g71
(dp295
sg80
g289
sg73
(lp296
g66
(g87
g68
NtRp297
(dp298
g71
(dp299
g91
g92
ssg80
g293
sg73
(lp300
S'session_id_admin'
p301
asbag66
(g87
g68
NtRp302
(dp303
g71
(dp304
g98
g99
ssg80
g293
sg73
(lp305
S':'
asbag66
(g87
g68
NtRp306
(dp307
g71
(dp308
sg80
g293
sg73
(lp309
g66
(g67
g68
NtRp310
(dp311
g71
(dp312
g79
I4
ssg80
g306
sg73
(lp313
S'127.0.0.1-d509f0cc-4c80-4380-be27-aebf7c06a1e6'
p314
ag66
(g75
g68
NtRp315
(dp316
g71
(dp317
g79
I3
ssg80
Nsg73
(lp318
g66
(g82
g68
NtRp319
(dp320
g71
(dp321
sg80
g315
sg73
(lp322
g66
(g87
g68
NtRp323
(dp324
g71
(dp325
g91
g92
ssg80
g319
sg73
(lp326
S'comment'
p327
asbag66
(g87
g68
NtRp328
(dp329
g71
(dp330
g98
g99
ssg80
g319
sg73
(lp331
S':'
asbag66
(g87
g68
NtRp332
(dp333
g71
(dp334
sg80
g319
sg73
(lp335
g66
(g67
g68
NtRp336
(dp337
g71
(dp338
g79
I3
ssg80
g332
sg73
(lp339
S''
asbasbasbag66
(g82
g68
NtRp340
(dp341
g71
(dp342
sg80
g315
sg73
(lp343
g66
(g87
g68
NtRp344
(dp345
g71
(dp346
g91
g92
ssg80
g340
sg73
(lp347
S'domain'
p348
asbag66
(g87
g68
NtRp349
(dp350
g71
(dp351
g98
g99
ssg80
g340
sg73
(lp352
S':'
asbag66
(g87
g68
NtRp353
(dp354
g71
(dp355
sg80
g340
sg73
(lp356
g66
(g67
g68
NtRp357
(dp358
g71
(dp359
g79
I3
ssg80
g353
sg73
(lp360
S''
asbasbasbag66
(g82
g68
NtRp361
(dp362
g71
(dp363
sg80
g315
sg73
(lp364
g66
(g87
g68
NtRp365
(dp366
g71
(dp367
g91
g92
ssg80
g361
sg73
(lp368
S'expires'
p369
asbag66
(g87
g68
NtRp370
(dp371
g71
(dp372
g98
g99
ssg80
g361
sg73
(lp373
S':'
asbag66
(g87
g68
NtRp374
(dp375
g71
(dp376
sg80
g361
sg73
(lp377
g66
(g67
g68
NtRp378
(dp379
g71
(dp380
g79
I3
ssg80
g374
sg73
(lp381
S''
asbasbasbag66
(g82
g68
NtRp382
(dp383
g71
(dp384
sg80
g315
sg73
(lp385
g66
(g87
g68
NtRp386
(dp387
g71
(dp388
g91
g92
ssg80
g382
sg73
(lp389
S'httponly'
p390
asbag66
(g87
g68
NtRp391
(dp392
g71
(dp393
g98
g99
ssg80
g382
sg73
(lp394
S':'
asbag66
(g87
g68
NtRp395
(dp396
g71
(dp397
sg80
g382
sg73
(lp398
g66
(g67
g68
NtRp399
(dp400
g71
(dp401
g79
I3
ssg80
g395
sg73
(lp402
S''
asbasbasbag66
(g82
g68
NtRp403
(dp404
g71
(dp405
sg80
g315
sg73
(lp406
g66
(g87
g68
NtRp407
(dp408
g71
(dp409
g91
g92
ssg80
g403
sg73
(lp410
S'max-age'
p411
asbag66
(g87
g68
NtRp412
(dp413
g71
(dp414
g98
g99
ssg80
g403
sg73
(lp415
S':'
asbag66
(g87
g68
NtRp416
(dp417
g71
(dp418
sg80
g403
sg73
(lp419
g66
(g67
g68
NtRp420
(dp421
g71
(dp422
g79
I3
ssg80
g416
sg73
(lp423
S''
asbasbasbag66
(g82
g68
NtRp424
(dp425
g71
(dp426
sg80
g315
sg73
(lp427
g66
(g87
g68
NtRp428
(dp429
g71
(dp430
g91
g92
ssg80
g424
sg73
(lp431
S'path'
p432
asbag66
(g87
g68
NtRp433
(dp434
g71
(dp435
g98
g99
ssg80
g424
sg73
(lp436
S':'
asbag66
(g87
g68
NtRp437
(dp438
g71
(dp439
sg80
g424
sg73
(lp440
g66
(g67
g68
NtRp441
(dp442
g71
(dp443
g79
I3
ssg80
g437
sg73
(lp444
S''
asbasbasbag66
(g82
g68
NtRp445
(dp446
g71
(dp447
sg80
g315
sg73
(lp448
g66
(g87
g68
NtRp449
(dp450
g71
(dp451
g91
g92
ssg80
g445
sg73
(lp452
S'secure'
p453
asbag66
(g87
g68
NtRp454
(dp455
g71
(dp456
g98
g99
ssg80
g445
sg73
(lp457
S':'
asbag66
(g87
g68
NtRp458
(dp459
g71
(dp460
sg80
g445
sg73
(lp461
g66
(g67
g68
NtRp462
(dp463
g71
(dp464
g79
I3
ssg80
g458
sg73
(lp465
S''
asbasbasbag66
(g82
g68
NtRp466
(dp467
g71
(dp468
sg80
g315
sg73
(lp469
g66
(g87
g68
NtRp470
(dp471
g71
(dp472
g91
g92
ssg80
g466
sg73
(lp473
S'version'
p474
asbag66
(g87
g68
NtRp475
(dp476
g71
(dp477
g98
g99
ssg80
g466
sg73
(lp478
S':'
asbag66
(g87
g68
NtRp479
(dp480
g71
(dp481
sg80
g466
sg73
(lp482
g66
(g67
g68
NtRp483
(dp484
g71
(dp485
g79
I3
ssg80
g479
sg73
(lp486
S''
asbasbasbasbasbasbasbag66
(g82
g68
NtRp487
(dp488
g71
(dp489
sg80
g289
sg73
(lp490
g66
(g87
g68
NtRp491
(dp492
g71
(dp493
g91
g92
ssg80
g487
sg73
(lp494
S'session_id_assignmen3'
p495
asbag66
(g87
g68
NtRp496
(dp497
g71
(dp498
g98
g99
ssg80
g487
sg73
(lp499
S':'
asbag66
(g87
g68
NtRp500
(dp501
g71
(dp502
sg80
g487
sg73
(lp503
g66
(g67
g68
NtRp504
(dp505
g71
(dp506
g79
I4
ssg80
g500
sg73
(lp507
S'127.0.0.1-f78a0883-b419-4f1b-8802-d13ae89341f4'
p508
ag66
(g75
g68
NtRp509
(dp510
g71
(dp511
g79
I3
ssg80
Nsg73
(lp512
g66
(g82
g68
NtRp513
(dp514
g71
(dp515
sg80
g509
sg73
(lp516
g66
(g87
g68
NtRp517
(dp518
g71
(dp519
g91
g92
ssg80
g513
sg73
(lp520
g327
asbag66
(g87
g68
NtRp521
(dp522
g71
(dp523
g98
g99
ssg80
g513
sg73
(lp524
S':'
asbag66
(g87
g68
NtRp525
(dp526
g71
(dp527
sg80
g513
sg73
(lp528
g66
(g67
g68
NtRp529
(dp530
g71
(dp531
g79
I3
ssg80
g525
sg73
(lp532
S''
asbasbasbag66
(g82
g68
NtRp533
(dp534
g71
(dp535
sg80
g509
sg73
(lp536
g66
(g87
g68
NtRp537
(dp538
g71
(dp539
g91
g92
ssg80
g533
sg73
(lp540
g348
asbag66
(g87
g68
NtRp541
(dp542
g71
(dp543
g98
g99
ssg80
g533
sg73
(lp544
S':'
asbag66
(g87
g68
NtRp545
(dp546
g71
(dp547
sg80
g533
sg73
(lp548
g66
(g67
g68
NtRp549
(dp550
g71
(dp551
g79
I3
ssg80
g545
sg73
(lp552
S''
asbasbasbag66
(g82
g68
NtRp553
(dp554
g71
(dp555
sg80
g509
sg73
(lp556
g66
(g87
g68
NtRp557
(dp558
g71
(dp559
g91
g92
ssg80
g553
sg73
(lp560
g369
asbag66
(g87
g68
NtRp561
(dp562
g71
(dp563
g98
g99
ssg80
g553
sg73
(lp564
S':'
asbag66
(g87
g68
NtRp565
(dp566
g71
(dp567
sg80
g553
sg73
(lp568
g66
(g67
g68
NtRp569
(dp570
g71
(dp571
g79
I3
ssg80
g565
sg73
(lp572
S''
asbasbasbag66
(g82
g68
NtRp573
(dp574
g71
(dp575
sg80
g509
sg73
(lp576
g66
(g87
g68
NtRp577
(dp578
g71
(dp579
g91
g92
ssg80
g573
sg73
(lp580
g390
asbag66
(g87
g68
NtRp581
(dp582
g71
(dp583
g98
g99
ssg80
g573
sg73
(lp584
S':'
asbag66
(g87
g68
NtRp585
(dp586
g71
(dp587
sg80
g573
sg73
(lp588
g66
(g67
g68
NtRp589
(dp590
g71
(dp591
g79
I3
ssg80
g585
sg73
(lp592
S''
asbasbasbag66
(g82
g68
NtRp593
(dp594
g71
(dp595
sg80
g509
sg73
(lp596
g66
(g87
g68
NtRp597
(dp598
g71
(dp599
g91
g92
ssg80
g593
sg73
(lp600
g411
asbag66
(g87
g68
NtRp601
(dp602
g71
(dp603
g98
g99
ssg80
g593
sg73
(lp604
S':'
asbag66
(g87
g68
NtRp605
(dp606
g71
(dp607
sg80
g593
sg73
(lp608
g66
(g67
g68
NtRp609
(dp610
g71
(dp611
g79
I3
ssg80
g605
sg73
(lp612
S''
asbasbasbag66
(g82
g68
NtRp613
(dp614
g71
(dp615
sg80
g509
sg73
(lp616
g66
(g87
g68
NtRp617
(dp618
g71
(dp619
g91
g92
ssg80
g613
sg73
(lp620
g432
asbag66
(g87
g68
NtRp621
(dp622
g71
(dp623
g98
g99
ssg80
g613
sg73
(lp624
S':'
asbag66
(g87
g68
NtRp625
(dp626
g71
(dp627
sg80
g613
sg73
(lp628
g66
(g67
g68
NtRp629
(dp630
g71
(dp631
g79
I3
ssg80
g625
sg73
(lp632
S''
asbasbasbag66
(g82
g68
NtRp633
(dp634
g71
(dp635
sg80
g509
sg73
(lp636
g66
(g87
g68
NtRp637
(dp638
g71
(dp639
g91
g92
ssg80
g633
sg73
(lp640
g453
asbag66
(g87
g68
NtRp641
(dp642
g71
(dp643
g98
g99
ssg80
g633
sg73
(lp644
S':'
asbag66
(g87
g68
NtRp645
(dp646
g71
(dp647
sg80
g633
sg73
(lp648
g66
(g67
g68
NtRp649
(dp650
g71
(dp651
g79
I3
ssg80
g645
sg73
(lp652
S''
asbasbasbag66
(g82
g68
NtRp653
(dp654
g71
(dp655
sg80
g509
sg73
(lp656
g66
(g87
g68
NtRp657
(dp658
g71
(dp659
g91
g92
ssg80
g653
sg73
(lp660
g474
asbag66
(g87
g68
NtRp661
(dp662
g71
(dp663
g98
g99
ssg80
g653
sg73
(lp664
S':'
asbag66
(g87
g68
NtRp665
(dp666
g71
(dp667
sg80
g653
sg73
(lp668
g66
(g67
g68
NtRp669
(dp670
g71
(dp671
g79
I3
ssg80
g665
sg73
(lp672
S''
asbasbasbasbasbasbasbag66
(g82
g68
NtRp673
(dp674
g71
(dp675
sg80
g289
sg73
(lp676
g66
(g87
g68
NtRp677
(dp678
g71
(dp679
g91
g92
ssg80
g673
sg73
(lp680
S'session_id_welcome'
p681
asbag66
(g87
g68
NtRp682
(dp683
g71
(dp684
g98
g99
ssg80
g673
sg73
(lp685
S':'
asbag66
(g87
g68
NtRp686
(dp687
g71
(dp688
sg80
g673
sg73
(lp689
g66
(g67
g68
NtRp690
(dp691
g71
(dp692
g79
I4
ssg80
g686
sg73
(lp693
S'127.0.0.1-a2b1b4d6-eba7-4458-9892-ba028024c0c4'
p694
ag66
(g75
g68
NtRp695
(dp696
g71
(dp697
g79
I3
ssg80
Nsg73
(lp698
g66
(g82
g68
NtRp699
(dp700
g71
(dp701
sg80
g695
sg73
(lp702
g66
(g87
g68
NtRp703
(dp704
g71
(dp705
g91
g92
ssg80
g699
sg73
(lp706
g327
asbag66
(g87
g68
NtRp707
(dp708
g71
(dp709
g98
g99
ssg80
g699
sg73
(lp710
S':'
asbag66
(g87
g68
NtRp711
(dp712
g71
(dp713
sg80
g699
sg73
(lp714
g66
(g67
g68
NtRp715
(dp716
g71
(dp717
g79
I3
ssg80
g711
sg73
(lp718
S''
asbasbasbag66
(g82
g68
NtRp719
(dp720
g71
(dp721
sg80
g695
sg73
(lp722
g66
(g87
g68
NtRp723
(dp724
g71
(dp725
g91
g92
ssg80
g719
sg73
(lp726
g348
asbag66
(g87
g68
NtRp727
(dp728
g71
(dp729
g98
g99
ssg80
g719
sg73
(lp730
S':'
asbag66
(g87
g68
NtRp731
(dp732
g71
(dp733
sg80
g719
sg73
(lp734
g66
(g67
g68
NtRp735
(dp736
g71
(dp737
g79
I3
ssg80
g731
sg73
(lp738
S''
asbasbasbag66
(g82
g68
NtRp739
(dp740
g71
(dp741
sg80
g695
sg73
(lp742
g66
(g87
g68
NtRp743
(dp744
g71
(dp745
g91
g92
ssg80
g739
sg73
(lp746
g369
asbag66
(g87
g68
NtRp747
(dp748
g71
(dp749
g98
g99
ssg80
g739
sg73
(lp750
S':'
asbag66
(g87
g68
NtRp751
(dp752
g71
(dp753
sg80
g739
sg73
(lp754
g66
(g67
g68
NtRp755
(dp756
g71
(dp757
g79
I3
ssg80
g751
sg73
(lp758
S''
asbasbasbag66
(g82
g68
NtRp759
(dp760
g71
(dp761
sg80
g695
sg73
(lp762
g66
(g87
g68
NtRp763
(dp764
g71
(dp765
g91
g92
ssg80
g759
sg73
(lp766
g390
asbag66
(g87
g68
NtRp767
(dp768
g71
(dp769
g98
g99
ssg80
g759
sg73
(lp770
S':'
asbag66
(g87
g68
NtRp771
(dp772
g71
(dp773
sg80
g759
sg73
(lp774
g66
(g67
g68
NtRp775
(dp776
g71
(dp777
g79
I3
ssg80
g771
sg73
(lp778
S''
asbasbasbag66
(g82
g68
NtRp779
(dp780
g71
(dp781
sg80
g695
sg73
(lp782
g66
(g87
g68
NtRp783
(dp784
g71
(dp785
g91
g92
ssg80
g779
sg73
(lp786
g411
asbag66
(g87
g68
NtRp787
(dp788
g71
(dp789
g98
g99
ssg80
g779
sg73
(lp790
S':'
asbag66
(g87
g68
NtRp791
(dp792
g71
(dp793
sg80
g779
sg73
(lp794
g66
(g67
g68
NtRp795
(dp796
g71
(dp797
g79
I3
ssg80
g791
sg73
(lp798
S''
asbasbasbag66
(g82
g68
NtRp799
(dp800
g71
(dp801
sg80
g695
sg73
(lp802
g66
(g87
g68
NtRp803
(dp804
g71
(dp805
g91
g92
ssg80
g799
sg73
(lp806
g432
asbag66
(g87
g68
NtRp807
(dp808
g71
(dp809
g98
g99
ssg80
g799
sg73
(lp810
S':'
asbag66
(g87
g68
NtRp811
(dp812
g71
(dp813
sg80
g799
sg73
(lp814
g66
(g67
g68
NtRp815
(dp816
g71
(dp817
g79
I3
ssg80
g811
sg73
(lp818
S''
asbasbasbag66
(g82
g68
NtRp819
(dp820
g71
(dp821
sg80
g695
sg73
(lp822
g66
(g87
g68
NtRp823
(dp824
g71
(dp825
g91
g92
ssg80
g819
sg73
(lp826
g453
asbag66
(g87
g68
NtRp827
(dp828
g71
(dp829
g98
g99
ssg80
g819
sg73
(lp830
S':'
asbag66
(g87
g68
NtRp831
(dp832
g71
(dp833
sg80
g819
sg73
(lp834
g66
(g67
g68
NtRp835
(dp836
g71
(dp837
g79
I3
ssg80
g831
sg73
(lp838
S''
asbasbasbag66
(g82
g68
NtRp839
(dp840
g71
(dp841
sg80
g695
sg73
(lp842
g66
(g87
g68
NtRp843
(dp844
g71
(dp845
g91
g92
ssg80
g839
sg73
(lp846
g474
asbag66
(g87
g68
NtRp847
(dp848
g71
(dp849
g98
g99
ssg80
g839
sg73
(lp850
S':'
asbag66
(g87
g68
NtRp851
(dp852
g71
(dp853
sg80
g839
sg73
(lp854
g66
(g67
g68
NtRp855
(dp856
g71
(dp857
g79
I3
ssg80
g851
sg73
(lp858
S''
asbasbasbasbasbasbasbasbasbasbasbag66
(g82
g68
NtRp859
(dp860
g71
(dp861
sg80
g76
sg73
(lp862
g66
(g87
g68
NtRp863
(dp864
g71
(dp865
g91
g92
ssg80
g859
sg73
(lp866
S'env'
p867
asbag66
(g87
g68
NtRp868
(dp869
g71
(dp870
g98
g99
ssg80
g859
sg73
(lp871
S':'
asbag66
(g87
g68
NtRp872
(dp873
g71
(dp874
sg80
g859
sg73
(lp875
g66
(g67
g68
NtRp876
(dp877
g71
(dp878
g79
I5
ssg80
g872
sg73
(lp879
g66
(g75
g68
NtRp880
(dp881
g71
(dp882
g79
I4
ssg80
Nsg73
(lp883
g66
(g82
g68
NtRp884
(dp885
g71
(dp886
sg80
g880
sg73
(lp887
g66
(g87
g68
NtRp888
(dp889
g71
(dp890
g91
g92
ssg80
g884
sg73
(lp891
S'app_folders'
p892
asbag66
(g87
g68
NtRp893
(dp894
g71
(dp895
g98
g99
ssg80
g884
sg73
(lp896
S':'
asbag66
(g87
g68
NtRp897
(dp898
g71
(dp899
sg80
g884
sg73
(lp900
g66
(g67
g68
NtRp901
(dp902
g71
(dp903
g79
I4
ssg80
g897
sg73
(lp904
S"set(['/home/umang/web2py/applications/admin/', '/home/umang/web2py/applications/assignmen3/', '/home/umang/web2py/applications/welcome/'])"
p905
asbasbasbag66
(g82
g68
NtRp906
(dp907
g71
(dp908
sg80
g880
sg73
(lp909
g66
(g87
g68
NtRp910
(dp911
g71
(dp912
g91
g92
ssg80
g906
sg73
(lp913
S'applications_parent'
p914
asbag66
(g87
g68
NtRp915
(dp916
g71
(dp917
g98
g99
ssg80
g906
sg73
(lp918
S':'
asbag66
(g87
g68
NtRp919
(dp920
g71
(dp921
sg80
g906
sg73
(lp922
g66
(g67
g68
NtRp923
(dp924
g71
(dp925
g79
I4
ssg80
g919
sg73
(lp926
S'/home/umang/web2py'
p927
asbasbasbag66
(g82
g68
NtRp928
(dp929
g71
(dp930
sg80
g880
sg73
(lp931
g66
(g87
g68
NtRp932
(dp933
g71
(dp934
g91
g92
ssg80
g928
sg73
(lp935
S'cmd_args'
p936
asbag66
(g87
g68
NtRp937
(dp938
g71
(dp939
g98
g99
ssg80
g928
sg73
(lp940
S':'
asbag66
(g87
g68
NtRp941
(dp942
g71
(dp943
sg80
g928
sg73
(lp944
g66
(g67
g68
NtRp945
(dp946
g71
(dp947
g79
I4
ssg80
g941
sg73
(lp948
g66
(g75
g68
NtRp949
(dp950
g71
(dp951
g79
I3
ssg80
Nsg73
(lp952
sbasbasbasbag66
(g82
g68
NtRp953
(dp954
g71
(dp955
sg80
g880
sg73
(lp956
g66
(g87
g68
NtRp957
(dp958
g71
(dp959
g91
g92
ssg80
g953
sg73
(lp960
S'cmd_options'
p961
asbag66
(g87
g68
NtRp962
(dp963
g71
(dp964
g98
g99
ssg80
g953
sg73
(lp965
S':'
asbag66
(g87
g68
NtRp966
(dp967
g71
(dp968
sg80
g953
sg73
(lp969
g66
(g67
g68
NtRp970
(dp971
g71
(dp972
g79
I4
ssg80
g966
sg73
(lp973
S"<Values at 0x1698200: {'verbose': False, 'ip': '127.0.0.1', 'with_scheduler': False, 'ips': [], 'shutdown_timeout': 5, 'taskbar': False, 'port': 8000, 'maxthreads': None, 'softcron': False, 'server_name': 'umang-HP-Pavilion-g6-Notebook-PC', 'bpython': False, 'nogui': False, 'pid_filename': 'httpserver.pid', 'extcron': False, 'runcron': False, 'run_system_tests': False, 'test': None, 'folder': '/home/umang/web2py', 'config': '', 'minthreads': None, 'winservice': '', 'shell': None, 'run': '', 'log_filename': 'httpserver.log', 'debuglevel': 30, 'args': [''], 'socket_timeout': 5, 'ssl_ca_certificate': None, 'scheduler': None, 'profiler_filename': None, 'ssl_private_key': '', 'scheduler_groups': None, 'password': '<ask>', 'request_queue_size': 5, 'ssl_certificate': '', 'cronjob': False, 'numthreads': None, 'quiet': False, 'interfaces': None, 'import_models': False, 'timeout': 10, 'plain': False, 'nobanner': False}>"
p974
asbasbasbag66
(g82
g68
NtRp975
(dp976
g71
(dp977
sg80
g880
sg73
(lp978
g66
(g87
g68
NtRp979
(dp980
g71
(dp981
g91
g92
ssg80
g975
sg73
(lp982
S'db_sessions'
p983
asbag66
(g87
g68
NtRp984
(dp985
g71
(dp986
g98
g99
ssg80
g975
sg73
(lp987
S':'
asbag66
(g87
g68
NtRp988
(dp989
g71
(dp990
sg80
g975
sg73
(lp991
g66
(g67
g68
NtRp992
(dp993
g71
(dp994
g79
I4
ssg80
g988
sg73
(lp995
S'set([])'
p996
asbasbasbag66
(g82
g68
NtRp997
(dp998
g71
(dp999
sg80
g880
sg73
(lp1000
g66
(g87
g68
NtRp1001
(dp1002
g71
(dp1003
g91
g92
ssg80
g997
sg73
(lp1004
S'debugging'
p1005
asbag66
(g87
g68
NtRp1006
(dp1007
g71
(dp1008
g98
g99
ssg80
g997
sg73
(lp1009
S':'
asbag66
(g87
g68
NtRp1010
(dp1011
g71
(dp1012
sg80
g997
sg73
(lp1013
g66
(g67
g68
NtRp1014
(dp1015
g71
(dp1016
g79
I4
ssg80
g1010
sg73
(lp1017
g109
asbasbasbag66
(g82
g68
NtRp1018
(dp1019
g71
(dp1020
sg80
g880
sg73
(lp1021
g66
(g87
g68
NtRp1022
(dp1023
g71
(dp1024
g91
g92
ssg80
g1018
sg73
(lp1025
S'gluon_parent'
p1026
asbag66
(g87
g68
NtRp1027
(dp1028
g71
(dp1029
g98
g99
ssg80
g1018
sg73
(lp1030
S':'
asbag66
(g87
g68
NtRp1031
(dp1032
g71
(dp1033
sg80
g1018
sg73
(lp1034
g66
(g67
g68
NtRp1035
(dp1036
g71
(dp1037
g79
I4
ssg80
g1031
sg73
(lp1038
S'/home/umang/web2py'
p1039
asbasbasbag66
(g82
g68
NtRp1040
(dp1041
g71
(dp1042
sg80
g880
sg73
(lp1043
g66
(g87
g68
NtRp1044
(dp1045
g71
(dp1046
g91
g92
ssg80
g1040
sg73
(lp1047
S'http_accept'
p1048
asbag66
(g87
g68
NtRp1049
(dp1050
g71
(dp1051
g98
g99
ssg80
g1040
sg73
(lp1052
S':'
asbag66
(g87
g68
NtRp1053
(dp1054
g71
(dp1055
sg80
g1040
sg73
(lp1056
g66
(g67
g68
NtRp1057
(dp1058
g71
(dp1059
g79
I4
ssg80
g1053
sg73
(lp1060
S'text/html,application/xhtml+xml,application/xml;q=0.9,*/*;q=0.8'
p1061
asbasbasbag66
(g82
g68
NtRp1062
(dp1063
g71
(dp1064
sg80
g880
sg73
(lp1065
g66
(g87
g68
NtRp1066
(dp1067
g71
(dp1068
g91
g92
ssg80
g1062
sg73
(lp1069
S'http_accept_encoding'
p1070
asbag66
(g87
g68
NtRp1071
(dp1072
g71
(dp1073
g98
g99
ssg80
g1062
sg73
(lp1074
S':'
asbag66
(g87
g68
NtRp1075
(dp1076
g71
(dp1077
sg80
g1062
sg73
(lp1078
g66
(g67
g68
NtRp1079
(dp1080
g71
(dp1081
g79
I4
ssg80
g1075
sg73
(lp1082
S'gzip, deflate'
p1083
asbasbasbag66
(g82
g68
NtRp1084
(dp1085
g71
(dp1086
sg80
g880
sg73
(lp1087
g66
(g87
g68
NtRp1088
(dp1089
g71
(dp1090
g91
g92
ssg80
g1084
sg73
(lp1091
S'http_accept_language'
p1092
asbag66
(g87
g68
NtRp1093
(dp1094
g71
(dp1095
g98
g99
ssg80
g1084
sg73
(lp1096
S':'
asbag66
(g87
g68
NtRp1097
(dp1098
g71
(dp1099
sg80
g1084
sg73
(lp1100
g66
(g67
g68
NtRp1101
(dp1102
g71
(dp1103
g79
I4
ssg80
g1097
sg73
(lp1104
S'en-us,en;q=0.5'
p1105
asbasbasbag66
(g82
g68
NtRp1106
(dp1107
g71
(dp1108
sg80
g880
sg73
(lp1109
g66
(g87
g68
NtRp1110
(dp1111
g71
(dp1112
g91
g92
ssg80
g1106
sg73
(lp1113
S'http_cache_control'
p1114
asbag66
(g87
g68
NtRp1115
(dp1116
g71
(dp1117
g98
g99
ssg80
g1106
sg73
(lp1118
S':'
asbag66
(g87
g68
NtRp1119
(dp1120
g71
(dp1121
sg80
g1106
sg73
(lp1122
g66
(g67
g68
NtRp1123
(dp1124
g71
(dp1125
g79
I4
ssg80
g1119
sg73
(lp1126
S'max-age=0'
p1127
asbasbasbag66
(g82
g68
NtRp1128
(dp1129
g71
(dp1130
sg80
g880
sg73
(lp1131
g66
(g87
g68
NtRp1132
(dp1133
g71
(dp1134
g91
g92
ssg80
g1128
sg73
(lp1135
S'http_connection'
p1136
asbag66
(g87
g68
NtRp1137
(dp1138
g71
(dp1139
g98
g99
ssg80
g1128
sg73
(lp1140
S':'
asbag66
(g87
g68
NtRp1141
(dp1142
g71
(dp1143
sg80
g1128
sg73
(lp1144
g66
(g67
g68
NtRp1145
(dp1146
g71
(dp1147
g79
I4
ssg80
g1141
sg73
(lp1148
S'keep-alive'
p1149
asbasbasbag66
(g82
g68
NtRp1150
(dp1151
g71
(dp1152
sg80
g880
sg73
(lp1153
g66
(g87
g68
NtRp1154
(dp1155
g71
(dp1156
g91
g92
ssg80
g1150
sg73
(lp1157
S'http_cookie'
p1158
asbag66
(g87
g68
NtRp1159
(dp1160
g71
(dp1161
g98
g99
ssg80
g1150
sg73
(lp1162
S':'
asbag66
(g87
g68
NtRp1163
(dp1164
g71
(dp1165
sg80
g1150
sg73
(lp1166
g66
(g67
g68
NtRp1167
(dp1168
g71
(dp1169
g79
I4
ssg80
g1163
sg73
(lp1170
S'session_id_welcome=127.0.0.1-a2b1b4d6-eba7-4458-9892-ba028024c0c4; session_id_admin=127.0.0.1-d509f0cc-4c80-4380-be27-aebf7c06a1e6; session_id_assignmen3=127.0.0.1-f78a0883-b419-4f1b-8802-d13ae89341f4'
p1171
asbasbasbag66
(g82
g68
NtRp1172
(dp1173
g71
(dp1174
sg80
g880
sg73
(lp1175
g66
(g87
g68
NtRp1176
(dp1177
g71
(dp1178
g91
g92
ssg80
g1172
sg73
(lp1179
S'http_host'
p1180
asbag66
(g87
g68
NtRp1181
(dp1182
g71
(dp1183
g98
g99
ssg80
g1172
sg73
(lp1184
S':'
asbag66
(g87
g68
NtRp1185
(dp1186
g71
(dp1187
sg80
g1172
sg73
(lp1188
g66
(g67
g68
NtRp1189
(dp1190
g71
(dp1191
g79
I4
ssg80
g1185
sg73
(lp1192
S'127.0.0.1:8000'
p1193
asbasbasbag66
(g82
g68
NtRp1194
(dp1195
g71
(dp1196
sg80
g880
sg73
(lp1197
g66
(g87
g68
NtRp1198
(dp1199
g71
(dp1200
g91
g92
ssg80
g1194
sg73
(lp1201
S'http_referer'
p1202
asbag66
(g87
g68
NtRp1203
(dp1204
g71
(dp1205
g98
g99
ssg80
g1194
sg73
(lp1206
S':'
asbag66
(g87
g68
NtRp1207
(dp1208
g71
(dp1209
sg80
g1194
sg73
(lp1210
g66
(g67
g68
NtRp1211
(dp1212
g71
(dp1213
g79
I4
ssg80
g1207
sg73
(lp1214
S'http://127.0.0.1:8000/assignmen3/default/first_page/2'
p1215
asbasbasbag66
(g82
g68
NtRp1216
(dp1217
g71
(dp1218
sg80
g880
sg73
(lp1219
g66
(g87
g68
NtRp1220
(dp1221
g71
(dp1222
g91
g92
ssg80
g1216
sg73
(lp1223
S'http_user_agent'
p1224
asbag66
(g87
g68
NtRp1225
(dp1226
g71
(dp1227
g98
g99
ssg80
g1216
sg73
(lp1228
S':'
asbag66
(g87
g68
NtRp1229
(dp1230
g71
(dp1231
sg80
g1216
sg73
(lp1232
g66
(g67
g68
NtRp1233
(dp1234
g71
(dp1235
g79
I4
ssg80
g1229
sg73
(lp1236
S'Mozilla/5.0 (X11; Ubuntu; Linux x86_64; rv:11.0) Gecko/20100101 Firefox/11.0'
p1237
asbasbasbag66
(g82
g68
NtRp1238
(dp1239
g71
(dp1240
sg80
g880
sg73
(lp1241
g66
(g87
g68
NtRp1242
(dp1243
g71
(dp1244
g91
g92
ssg80
g1238
sg73
(lp1245
S'is_jython'
p1246
asbag66
(g87
g68
NtRp1247
(dp1248
g71
(dp1249
g98
g99
ssg80
g1238
sg73
(lp1250
S':'
asbag66
(g87
g68
NtRp1251
(dp1252
g71
(dp1253
sg80
g1238
sg73
(lp1254
g66
(g67
g68
NtRp1255
(dp1256
g71
(dp1257
g79
I4
ssg80
g1251
sg73
(lp1258
g109
asbasbasbag66
(g82
g68
NtRp1259
(dp1260
g71
(dp1261
sg80
g880
sg73
(lp1262
g66
(g87
g68
NtRp1263
(dp1264
g71
(dp1265
g91
g92
ssg80
g1259
sg73
(lp1266
S'is_pypy'
p1267
asbag66
(g87
g68
NtRp1268
(dp1269
g71
(dp1270
g98
g99
ssg80
g1259
sg73
(lp1271
S':'
asbag66
(g87
g68
NtRp1272
(dp1273
g71
(dp1274
sg80
g1259
sg73
(lp1275
g66
(g67
g68
NtRp1276
(dp1277
g71
(dp1278
g79
I4
ssg80
g1272
sg73
(lp1279
g109
asbasbasbag66
(g82
g68
NtRp1280
(dp1281
g71
(dp1282
sg80
g880
sg73
(lp1283
g66
(g87
g68
NtRp1284
(dp1285
g71
(dp1286
g91
g92
ssg80
g1280
sg73
(lp1287
S'local_hosts'
p1288
asbag66
(g87
g68
NtRp1289
(dp1290
g71
(dp1291
g98
g99
ssg80
g1280
sg73
(lp1292
S':'
asbag66
(g87
g68
NtRp1293
(dp1294
g71
(dp1295
sg80
g1280
sg73
(lp1296
g66
(g67
g68
NtRp1297
(dp1298
g71
(dp1299
g79
I4
ssg80
g1293
sg73
(lp1300
g66
(g75
g68
NtRp1301
(dp1302
g71
(dp1303
g79
I3
ssg80
Nsg73
(lp1304
g66
(g82
g68
NtRp1305
(dp1306
g71
(dp1307
sg80
g1301
sg73
(lp1308
g66
(g87
g68
NtRp1309
(dp1310
g71
(dp1311
sg80
g1305
sg73
(lp1312
g66
(g67
g68
NtRp1313
(dp1314
g71
(dp1315
g79
I3
ssg80
g1309
sg73
(lp1316
S'::1'
p1317
asbasbasbag66
(g82
g68
NtRp1318
(dp1319
g71
(dp1320
sg80
g1301
sg73
(lp1321
g66
(g87
g68
NtRp1322
(dp1323
g71
(dp1324
sg80
g1318
sg73
(lp1325
g66
(g67
g68
NtRp1326
(dp1327
g71
(dp1328
g79
I3
ssg80
g1322
sg73
(lp1329
S'127.0.1.1'
p1330
asbasbasbag66
(g82
g68
NtRp1331
(dp1332
g71
(dp1333
sg80
g1301
sg73
(lp1334
g66
(g87
g68
NtRp1335
(dp1336
g71
(dp1337
sg80
g1331
sg73
(lp1338
g66
(g67
g68
NtRp1339
(dp1340
g71
(dp1341
g79
I3
ssg80
g1335
sg73
(lp1342
S'::ffff:127.0.0.1'
p1343
asbasbasbag66
(g82
g68
NtRp1344
(dp1345
g71
(dp1346
sg80
g1301
sg73
(lp1347
g66
(g87
g68
NtRp1348
(dp1349
g71
(dp1350
sg80
g1344
sg73
(lp1351
g66
(g67
g68
NtRp1352
(dp1353
g71
(dp1354
g79
I3
ssg80
g1348
sg73
(lp1355
S'127.0.0.1'
p1356
asbasbasbag66
(g82
g68
NtRp1357
(dp1358
g71
(dp1359
sg80
g1301
sg73
(lp1360
g66
(g87
g68
NtRp1361
(dp1362
g71
(dp1363
sg80
g1357
sg73
(lp1364
g66
(g67
g68
NtRp1365
(dp1366
g71
(dp1367
g79
I3
ssg80
g1361
sg73
(lp1368
S'umang-HP-Pavilion-g6-Notebook-PC'
p1369
asbasbasbasbasbasbasbag66
(g82
g68
NtRp1370
(dp1371
g71
(dp1372
sg80
g880
sg73
(lp1373
g66
(g87
g68
NtRp1374
(dp1375
g71
(dp1376
g91
g92
ssg80
g1370
sg73
(lp1377
S'path_info'
p1378
asbag66
(g87
g68
NtRp1379
(dp1380
g71
(dp1381
g98
g99
ssg80
g1370
sg73
(lp1382
S':'
asbag66
(g87
g68
NtRp1383
(dp1384
g71
(dp1385
sg80
g1370
sg73
(lp1386
g66
(g67
g68
NtRp1387
(dp1388
g71
(dp1389
g79
I4
ssg80
g1383
sg73
(lp1390
S'/assignmen3/default/like/3/2'
p1391
asbasbasbag66
(g82
g68
NtRp1392
(dp1393
g71
(dp1394
sg80
g880
sg73
(lp1395
g66
(g87
g68
NtRp1396
(dp1397
g71
(dp1398
g91
g92
ssg80
g1392
sg73
(lp1399
S'query_string'
p1400
asbag66
(g87
g68
NtRp1401
(dp1402
g71
(dp1403
g98
g99
ssg80
g1392
sg73
(lp1404
S':'
asbag66
(g87
g68
NtRp1405
(dp1406
g71
(dp1407
sg80
g1392
sg73
(lp1408
g66
(g67
g68
NtRp1409
(dp1410
g71
(dp1411
g79
I4
ssg80
g1405
sg73
(lp1412
S''
asbasbasbag66
(g82
g68
NtRp1413
(dp1414
g71
(dp1415
sg80
g880
sg73
(lp1416
g66
(g87
g68
NtRp1417
(dp1418
g71
(dp1419
g91
g92
ssg80
g1413
sg73
(lp1420
S'remote_addr'
p1421
asbag66
(g87
g68
NtRp1422
(dp1423
g71
(dp1424
g98
g99
ssg80
g1413
sg73
(lp1425
S':'
asbag66
(g87
g68
NtRp1426
(dp1427
g71
(dp1428
sg80
g1413
sg73
(lp1429
g66
(g67
g68
NtRp1430
(dp1431
g71
(dp1432
g79
I4
ssg80
g1426
sg73
(lp1433
g245
asbasbasbag66
(g82
g68
NtRp1434
(dp1435
g71
(dp1436
sg80
g880
sg73
(lp1437
g66
(g87
g68
NtRp1438
(dp1439
g71
(dp1440
g91
g92
ssg80
g1434
sg73
(lp1441
S'remote_port'
p1442
asbag66
(g87
g68
NtRp1443
(dp1444
g71
(dp1445
g98
g99
ssg80
g1434
sg73
(lp1446
S':'
asbag66
(g87
g68
NtRp1447
(dp1448
g71
(dp1449
sg80
g1434
sg73
(lp1450
g66
(g67
g68
NtRp1451
(dp1452
g71
(dp1453
g79
I4
ssg80
g1447
sg73
(lp1454
S'32873'
p1455
asbasbasbag66
(g82
g68
NtRp1456
(dp1457
g71
(dp1458
sg80
g880
sg73
(lp1459
g66
(g87
g68
NtRp1460
(dp1461
g71
(dp1462
g91
g92
ssg80
g1456
sg73
(lp1463
S'request_method'
p1464
asbag66
(g87
g68
NtRp1465
(dp1466
g71
(dp1467
g98
g99
ssg80
g1456
sg73
(lp1468
S':'
asbag66
(g87
g68
NtRp1469
(dp1470
g71
(dp1471
sg80
g1456
sg73
(lp1472
g66
(g67
g68
NtRp1473
(dp1474
g71
(dp1475
g79
I4
ssg80
g1469
sg73
(lp1476
S'GET'
p1477
asbasbasbag66
(g82
g68
NtRp1478
(dp1479
g71
(dp1480
sg80
g880
sg73
(lp1481
g66
(g87
g68
NtRp1482
(dp1483
g71
(dp1484
g91
g92
ssg80
g1478
sg73
(lp1485
S'request_uri'
p1486
asbag66
(g87
g68
NtRp1487
(dp1488
g71
(dp1489
g98
g99
ssg80
g1478
sg73
(lp1490
S':'
asbag66
(g87
g68
NtRp1491
(dp1492
g71
(dp1493
sg80
g1478
sg73
(lp1494
g66
(g67
g68
NtRp1495
(dp1496
g71
(dp1497
g79
I4
ssg80
g1491
sg73
(lp1498
g1391
asbasbasbag66
(g82
g68
NtRp1499
(dp1500
g71
(dp1501
sg80
g880
sg73
(lp1502
g66
(g87
g68
NtRp1503
(dp1504
g71
(dp1505
g91
g92
ssg80
g1499
sg73
(lp1506
S'script_name'
p1507
asbag66
(g87
g68
NtRp1508
(dp1509
g71
(dp1510
g98
g99
ssg80
g1499
sg73
(lp1511
S':'
asbag66
(g87
g68
NtRp1512
(dp1513
g71
(dp1514
sg80
g1499
sg73
(lp1515
g66
(g67
g68
NtRp1516
(dp1517
g71
(dp1518
g79
I4
ssg80
g1512
sg73
(lp1519
S''
asbasbasbag66
(g82
g68
NtRp1520
(dp1521
g71
(dp1522
sg80
g880
sg73
(lp1523
g66
(g87
g68
NtRp1524
(dp1525
g71
(dp1526
g91
g92
ssg80
g1520
sg73
(lp1527
S'server_name'
p1528
asbag66
(g87
g68
NtRp1529
(dp1530
g71
(dp1531
g98
g99
ssg80
g1520
sg73
(lp1532
S':'
asbag66
(g87
g68
NtRp1533
(dp1534
g71
(dp1535
sg80
g1520
sg73
(lp1536
g66
(g67
g68
NtRp1537
(dp1538
g71
(dp1539
g79
I4
ssg80
g1533
sg73
(lp1540
S'umang-HP-Pavilion-g6-Notebook-PC'
p1541
asbasbasbag66
(g82
g68
NtRp1542
(dp1543
g71
(dp1544
sg80
g880
sg73
(lp1545
g66
(g87
g68
NtRp1546
(dp1547
g71
(dp1548
g91
g92
ssg80
g1542
sg73
(lp1549
S'server_port'
p1550
asbag66
(g87
g68
NtRp1551
(dp1552
g71
(dp1553
g98
g99
ssg80
g1542
sg73
(lp1554
S':'
asbag66
(g87
g68
NtRp1555
(dp1556
g71
(dp1557
sg80
g1542
sg73
(lp1558
g66
(g67
g68
NtRp1559
(dp1560
g71
(dp1561
g79
I4
ssg80
g1555
sg73
(lp1562
S'8000'
p1563
asbasbasbag66
(g82
g68
NtRp1564
(dp1565
g71
(dp1566
sg80
g880
sg73
(lp1567
g66
(g87
g68
NtRp1568
(dp1569
g71
(dp1570
g91
g92
ssg80
g1564
sg73
(lp1571
S'server_protocol'
p1572
asbag66
(g87
g68
NtRp1573
(dp1574
g71
(dp1575
g98
g99
ssg80
g1564
sg73
(lp1576
S':'
asbag66
(g87
g68
NtRp1577
(dp1578
g71
(dp1579
sg80
g1564
sg73
(lp1580
g66
(g67
g68
NtRp1581
(dp1582
g71
(dp1583
g79
I4
ssg80
g1577
sg73
(lp1584
S'HTTP/1.1'
p1585
asbasbasbag66
(g82
g68
NtRp1586
(dp1587
g71
(dp1588
sg80
g880
sg73
(lp1589
g66
(g87
g68
NtRp1590
(dp1591
g71
(dp1592
g91
g92
ssg80
g1586
sg73
(lp1593
S'server_software'
p1594
asbag66
(g87
g68
NtRp1595
(dp1596
g71
(dp1597
g98
g99
ssg80
g1586
sg73
(lp1598
S':'
asbag66
(g87
g68
NtRp1599
(dp1600
g71
(dp1601
sg80
g1586
sg73
(lp1602
g66
(g67
g68
NtRp1603
(dp1604
g71
(dp1605
g79
I4
ssg80
g1599
sg73
(lp1606
S'Rocket 1.2.6'
p1607
asbasbasbag66
(g82
g68
NtRp1608
(dp1609
g71
(dp1610
sg80
g880
sg73
(lp1611
g66
(g87
g68
NtRp1612
(dp1613
g71
(dp1614
g91
g92
ssg80
g1608
sg73
(lp1615
S'web2py_path'
p1616
asbag66
(g87
g68
NtRp1617
(dp1618
g71
(dp1619
g98
g99
ssg80
g1608
sg73
(lp1620
S':'
asbag66
(g87
g68
NtRp1621
(dp1622
g71
(dp1623
sg80
g1608
sg73
(lp1624
g66
(g67
g68
NtRp1625
(dp1626
g71
(dp1627
g79
I4
ssg80
g1621
sg73
(lp1628
g927
asbasbasbag66
(g82
g68
NtRp1629
(dp1630
g71
(dp1631
sg80
g880
sg73
(lp1632
g66
(g87
g68
NtRp1633
(dp1634
g71
(dp1635
g91
g92
ssg80
g1629
sg73
(lp1636
S'web2py_version'
p1637
asbag66
(g87
g68
NtRp1638
(dp1639
g71
(dp1640
g98
g99
ssg80
g1629
sg73
(lp1641
S':'
asbag66
(g87
g68
NtRp1642
(dp1643
g71
(dp1644
sg80
g1629
sg73
(lp1645
g66
(g67
g68
NtRp1646
(dp1647
g71
(dp1648
g79
I4
ssg80
g1642
sg73
(lp1649
g66
(g75
g68
NtRp1650
(dp1651
g71
(dp1652
g79
I3
ssg80
Nsg73
(lp1653
g66
(g82
g68
NtRp1654
(dp1655
g71
(dp1656
sg80
g1650
sg73
(lp1657
g66
(g87
g68
NtRp1658
(dp1659
g71
(dp1660
sg80
g1654
sg73
(lp1661
g66
(g67
g68
NtRp1662
(dp1663
g71
(dp1664
g79
I3
ssg80
g1658
sg73
(lp1665
S'2'
asbasbasbag66
(g82
g68
NtRp1666
(dp1667
g71
(dp1668
sg80
g1650
sg73
(lp1669
g66
(g87
g68
NtRp1670
(dp1671
g71
(dp1672
sg80
g1666
sg73
(lp1673
g66
(g67
g68
NtRp1674
(dp1675
g71
(dp1676
g79
I3
ssg80
g1670
sg73
(lp1677
S'3'
asbasbasbag66
(g82
g68
NtRp1678
(dp1679
g71
(dp1680
sg80
g1650
sg73
(lp1681
g66
(g87
g68
NtRp1682
(dp1683
g71
(dp1684
sg80
g1678
sg73
(lp1685
g66
(g67
g68
NtRp1686
(dp1687
g71
(dp1688
g79
I3
ssg80
g1682
sg73
(lp1689
S'2'
asbasbasbag66
(g82
g68
NtRp1690
(dp1691
g71
(dp1692
sg80
g1650
sg73
(lp1693
g66
(g87
g68
NtRp1694
(dp1695
g71
(dp1696
sg80
g1690
sg73
(lp1697
g66
(g67
g68
NtRp1698
(dp1699
g71
(dp1700
g79
I3
ssg80
g1694
sg73
(lp1701
S'datetime.datetime(2012, 12, 17, 15, 3, 30)'
p1702
asbasbasbag66
(g82
g68
NtRp1703
(dp1704
g71
(dp1705
sg80
g1650
sg73
(lp1706
g66
(g87
g68
NtRp1707
(dp1708
g71
(dp1709
sg80
g1703
sg73
(lp1710
g66
(g67
g68
NtRp1711
(dp1712
g71
(dp1713
g79
I3
ssg80
g1707
sg73
(lp1714
S'stable'
p1715
asbasbasbasbasbasbasbag66
(g82
g68
NtRp1716
(dp1717
g71
(dp1718
sg80
g880
sg73
(lp1719
g66
(g87
g68
NtRp1720
(dp1721
g71
(dp1722
g91
g92
ssg80
g1716
sg73
(lp1723
S'wsgi_errors'
p1724
asbag66
(g87
g68
NtRp1725
(dp1726
g71
(dp1727
g98
g99
ssg80
g1716
sg73
(lp1728
S':'
asbag66
(g87
g68
NtRp1729
(dp1730
g71
(dp1731
sg80
g1716
sg73
(lp1732
g66
(g67
g68
NtRp1733
(dp1734
g71
(dp1735
g79
I4
ssg80
g1729
sg73
(lp1736
S"<open file '<stderr>', mode 'w' at 0x7f953b4c2270>"
p1737
asbasbasbag66
(g82
g68
NtRp1738
(dp1739
g71
(dp1740
sg80
g880
sg73
(lp1741
g66
(g87
g68
NtRp1742
(dp1743
g71
(dp1744
g91
g92
ssg80
g1738
sg73
(lp1745
S'wsgi_file_wrapper'
p1746
asbag66
(g87
g68
NtRp1747
(dp1748
g71
(dp1749
g98
g99
ssg80
g1738
sg73
(lp1750
S':'
asbag66
(g87
g68
NtRp1751
(dp1752
g71
(dp1753
sg80
g1738
sg73
(lp1754
g66
(g67
g68
NtRp1755
(dp1756
g71
(dp1757
g79
I4
ssg80
g1751
sg73
(lp1758
S'<class wsgiref.util.FileWrapper at 0x1601b48>'
p1759
asbasbasbag66
(g82
g68
NtRp1760
(dp1761
g71
(dp1762
sg80
g880
sg73
(lp1763
g66
(g87
g68
NtRp1764
(dp1765
g71
(dp1766
g91
g92
ssg80
g1760
sg73
(lp1767
S'wsgi_input'
p1768
asbag66
(g87
g68
NtRp1769
(dp1770
g71
(dp1771
g98
g99
ssg80
g1760
sg73
(lp1772
S':'
asbag66
(g87
g68
NtRp1773
(dp1774
g71
(dp1775
sg80
g1760
sg73
(lp1776
g66
(g67
g68
NtRp1777
(dp1778
g71
(dp1779
g79
I4
ssg80
g1773
sg73
(lp1780
S'<socket._fileobject object at 0x7f951c09f5d0>'
p1781
asbasbasbag66
(g82
g68
NtRp1782
(dp1783
g71
(dp1784
sg80
g880
sg73
(lp1785
g66
(g87
g68
NtRp1786
(dp1787
g71
(dp1788
g91
g92
ssg80
g1782
sg73
(lp1789
S'wsgi_multiprocess'
p1790
asbag66
(g87
g68
NtRp1791
(dp1792
g71
(dp1793
g98
g99
ssg80
g1782
sg73
(lp1794
S':'
asbag66
(g87
g68
NtRp1795
(dp1796
g71
(dp1797
sg80
g1782
sg73
(lp1798
g66
(g67
g68
NtRp1799
(dp1800
g71
(dp1801
g79
I4
ssg80
g1795
sg73
(lp1802
g109
asbasbasbag66
(g82
g68
NtRp1803
(dp1804
g71
(dp1805
sg80
g880
sg73
(lp1806
g66
(g87
g68
NtRp1807
(dp1808
g71
(dp1809
g91
g92
ssg80
g1803
sg73
(lp1810
S'wsgi_multithread'
p1811
asbag66
(g87
g68
NtRp1812
(dp1813
g71
(dp1814
g98
g99
ssg80
g1803
sg73
(lp1815
S':'
asbag66
(g87
g68
NtRp1816
(dp1817
g71
(dp1818
sg80
g1803
sg73
(lp1819
g66
(g67
g68
NtRp1820
(dp1821
g71
(dp1822
g79
I4
ssg80
g1816
sg73
(lp1823
S'True'
p1824
asbasbasbag66
(g82
g68
NtRp1825
(dp1826
g71
(dp1827
sg80
g880
sg73
(lp1828
g66
(g87
g68
NtRp1829
(dp1830
g71
(dp1831
g91
g92
ssg80
g1825
sg73
(lp1832
S'wsgi_run_once'
p1833
asbag66
(g87
g68
NtRp1834
(dp1835
g71
(dp1836
g98
g99
ssg80
g1825
sg73
(lp1837
S':'
asbag66
(g87
g68
NtRp1838
(dp1839
g71
(dp1840
sg80
g1825
sg73
(lp1841
g66
(g67
g68
NtRp1842
(dp1843
g71
(dp1844
g79
I4
ssg80
g1838
sg73
(lp1845
g109
asbasbasbag66
(g82
g68
NtRp1846
(dp1847
g71
(dp1848
sg80
g880
sg73
(lp1849
g66
(g87
g68
NtRp1850
(dp1851
g71
(dp1852
g91
g92
ssg80
g1846
sg73
(lp1853
S'wsgi_url_scheme'
p1854
asbag66
(g87
g68
NtRp1855
(dp1856
g71
(dp1857
g98
g99
ssg80
g1846
sg73
(lp1858
S':'
asbag66
(g87
g68
NtRp1859
(dp1860
g71
(dp1861
sg80
g1846
sg73
(lp1862
g66
(g67
g68
NtRp1863
(dp1864
g71
(dp1865
g79
I4
ssg80
g1859
sg73
(lp1866
S'http'
p1867
asbasbasbag66
(g82
g68
NtRp1868
(dp1869
g71
(dp1870
sg80
g880
sg73
(lp1871
g66
(g87
g68
NtRp1872
(dp1873
g71
(dp1874
g91
g92
ssg80
g1868
sg73
(lp1875
S'wsgi_version'
p1876
asbag66
(g87
g68
NtRp1877
(dp1878
g71
(dp1879
g98
g99
ssg80
g1868
sg73
(lp1880
S':'
asbag66
(g87
g68
NtRp1881
(dp1882
g71
(dp1883
sg80
g1868
sg73
(lp1884
g66
(g67
g68
NtRp1885
(dp1886
g71
(dp1887
g79
I4
ssg80
g1881
sg73
(lp1888
g66
(g75
g68
NtRp1889
(dp1890
g71
(dp1891
g79
I3
ssg80
Nsg73
(lp1892
g66
(g82
g68
NtRp1893
(dp1894
g71
(dp1895
sg80
g1889
sg73
(lp1896
g66
(g87
g68
NtRp1897
(dp1898
g71
(dp1899
sg80
g1893
sg73
(lp1900
g66
(g67
g68
NtRp1901
(dp1902
g71
(dp1903
g79
I3
ssg80
g1897
sg73
(lp1904
S'1'
asbasbasbag66
(g82
g68
NtRp1905
(dp1906
g71
(dp1907
sg80
g1889
sg73
(lp1908
g66
(g87
g68
NtRp1909
(dp1910
g71
(dp1911
sg80
g1905
sg73
(lp1912
g66
(g67
g68
NtRp1913
(dp1914
g71
(dp1915
g79
I3
ssg80
g1909
sg73
(lp1916
S'0'
asbasbasbasbasbasbasbasbasbasbasbag66
(g82
g68
NtRp1917
(dp1918
g71
(dp1919
sg80
g76
sg73
(lp1920
g66
(g87
g68
NtRp1921
(dp1922
g71
(dp1923
g91
g92
ssg80
g1917
sg73
(lp1924
S'extension'
p1925
asbag66
(g87
g68
NtRp1926
(dp1927
g71
(dp1928
g98
g99
ssg80
g1917
sg73
(lp1929
S':'
asbag66
(g87
g68
NtRp1930
(dp1931
g71
(dp1932
sg80
g1917
sg73
(lp1933
g66
(g67
g68
NtRp1934
(dp1935
g71
(dp1936
g79
I5
ssg80
g1930
sg73
(lp1937
S'html'
p1938
asbasbasbag66
(g82
g68
NtRp1939
(dp1940
g71
(dp1941
sg80
g76
sg73
(lp1942
g66
(g87
g68
NtRp1943
(dp1944
g71
(dp1945
g91
g92
ssg80
g1939
sg73
(lp1946
S'folder'
p1947
asbag66
(g87
g68
NtRp1948
(dp1949
g71
(dp1950
g98
g99
ssg80
g1939
sg73
(lp1951
S':'
asbag66
(g87
g68
NtRp1952
(dp1953
g71
(dp1954
sg80
g1939
sg73
(lp1955
g66
(g67
g68
NtRp1956
(dp1957
g71
(dp1958
g79
I5
ssg80
g1952
sg73
(lp1959
S'/home/umang/web2py/applications/assignmen3/'
p1960
asbasbasbag66
(g82
g68
NtRp1961
(dp1962
g71
(dp1963
sg80
g76
sg73
(lp1964
g66
(g87
g68
NtRp1965
(dp1966
g71
(dp1967
g91
g92
ssg80
g1961
sg73
(lp1968
S'function'
p1969
asbag66
(g87
g68
NtRp1970
(dp1971
g71
(dp1972
g98
g99
ssg80
g1961
sg73
(lp1973
S':'
asbag66
(g87
g68
NtRp1974
(dp1975
g71
(dp1976
sg80
g1961
sg73
(lp1977
g66
(g67
g68
NtRp1978
(dp1979
g71
(dp1980
g79
I5
ssg80
g1974
sg73
(lp1981
S'like'
p1982
asbasbasbag66
(g82
g68
NtRp1983
(dp1984
g71
(dp1985
sg80
g76
sg73
(lp1986
g66
(g87
g68
NtRp1987
(dp1988
g71
(dp1989
g91
g92
ssg80
g1983
sg73
(lp1990
S'get_vars'
p1991
asbag66
(g87
g68
NtRp1992
(dp1993
g71
(dp1994
g98
g99
ssg80
g1983
sg73
(lp1995
S':'
asbag66
(g87
g68
NtRp1996
(dp1997
g71
(dp1998
sg80
g1983
sg73
(lp1999
g66
(g67
g68
NtRp2000
(dp2001
g71
(dp2002
g79
I5
ssg80
g1996
sg73
(lp2003
g66
(g75
g68
NtRp2004
(dp2005
g71
(dp2006
g79
I4
ssg80
Nsg73
(lp2007
sbasbasbasbag66
(g82
g68
NtRp2008
(dp2009
g71
(dp2010
sg80
g76
sg73
(lp2011
g66
(g87
g68
NtRp2012
(dp2013
g71
(dp2014
g91
g92
ssg80
g2008
sg73
(lp2015
S'global_settings'
p2016
asbag66
(g87
g68
NtRp2017
(dp2018
g71
(dp2019
g98
g99
ssg80
g2008
sg73
(lp2020
S':'
asbag66
(g87
g68
NtRp2021
(dp2022
g71
(dp2023
sg80
g2008
sg73
(lp2024
g66
(g67
g68
NtRp2025
(dp2026
g71
(dp2027
g79
I5
ssg80
g2021
sg73
(lp2028
g66
(g75
g68
NtRp2029
(dp2030
g71
(dp2031
g79
I4
ssg80
Nsg73
(lp2032
g66
(g82
g68
NtRp2033
(dp2034
g71
(dp2035
sg80
g2029
sg73
(lp2036
g66
(g87
g68
NtRp2037
(dp2038
g71
(dp2039
g91
g92
ssg80
g2033
sg73
(lp2040
g892
asbag66
(g87
g68
NtRp2041
(dp2042
g71
(dp2043
g98
g99
ssg80
g2033
sg73
(lp2044
S':'
asbag66
(g87
g68
NtRp2045
(dp2046
g71
(dp2047
sg80
g2033
sg73
(lp2048
g66
(g67
g68
NtRp2049
(dp2050
g71
(dp2051
g79
I4
ssg80
g2045
sg73
(lp2052
S"set(['/home/umang/web2py/applications/admin/', '/home/umang/web2py/applications/assignmen3/', '/home/umang/web2py/applications/welcome/'])"
p2053
asbasbasbag66
(g82
g68
NtRp2054
(dp2055
g71
(dp2056
sg80
g2029
sg73
(lp2057
g66
(g87
g68
NtRp2058
(dp2059
g71
(dp2060
g91
g92
ssg80
g2054
sg73
(lp2061
g914
asbag66
(g87
g68
NtRp2062
(dp2063
g71
(dp2064
g98
g99
ssg80
g2054
sg73
(lp2065
S':'
asbag66
(g87
g68
NtRp2066
(dp2067
g71
(dp2068
sg80
g2054
sg73
(lp2069
g66
(g67
g68
NtRp2070
(dp2071
g71
(dp2072
g79
I4
ssg80
g2066
sg73
(lp2073
g927
asbasbasbag66
(g82
g68
NtRp2074
(dp2075
g71
(dp2076
sg80
g2029
sg73
(lp2077
g66
(g87
g68
NtRp2078
(dp2079
g71
(dp2080
g91
g92
ssg80
g2074
sg73
(lp2081
g936
asbag66
(g87
g68
NtRp2082
(dp2083
g71
(dp2084
g98
g99
ssg80
g2074
sg73
(lp2085
S':'
asbag66
(g87
g68
NtRp2086
(dp2087
g71
(dp2088
sg80
g2074
sg73
(lp2089
g66
(g67
g68
NtRp2090
(dp2091
g71
(dp2092
g79
I4
ssg80
g2086
sg73
(lp2093
g66
(g75
g68
NtRp2094
(dp2095
g71
(dp2096
g79
I3
ssg80
Nsg73
(lp2097
sbasbasbasbag66
(g82
g68
NtRp2098
(dp2099
g71
(dp2100
sg80
g2029
sg73
(lp2101
g66
(g87
g68
NtRp2102
(dp2103
g71
(dp2104
g91
g92
ssg80
g2098
sg73
(lp2105
g961
asbag66
(g87
g68
NtRp2106
(dp2107
g71
(dp2108
g98
g99
ssg80
g2098
sg73
(lp2109
S':'
asbag66
(g87
g68
NtRp2110
(dp2111
g71
(dp2112
sg80
g2098
sg73
(lp2113
g66
(g67
g68
NtRp2114
(dp2115
g71
(dp2116
g79
I4
ssg80
g2110
sg73
(lp2117
S"<Values at 0x1698200: {'verbose': False, 'ip': '127.0.0.1', 'with_scheduler': False, 'ips': [], 'shutdown_timeout': 5, 'taskbar': False, 'port': 8000, 'maxthreads': None, 'softcron': False, 'server_name': 'umang-HP-Pavilion-g6-Notebook-PC', 'bpython': False, 'nogui': False, 'pid_filename': 'httpserver.pid', 'extcron': False, 'runcron': False, 'run_system_tests': False, 'test': None, 'folder': '/home/umang/web2py', 'config': '', 'minthreads': None, 'winservice': '', 'shell': None, 'run': '', 'log_filename': 'httpserver.log', 'debuglevel': 30, 'args': [''], 'socket_timeout': 5, 'ssl_ca_certificate': None, 'scheduler': None, 'profiler_filename': None, 'ssl_private_key': '', 'scheduler_groups': None, 'password': '<ask>', 'request_queue_size': 5, 'ssl_certificate': '', 'cronjob': False, 'numthreads': None, 'quiet': False, 'interfaces': None, 'import_models': False, 'timeout': 10, 'plain': False, 'nobanner': False}>"
p2118
asbasbasbag66
(g82
g68
NtRp2119
(dp2120
g71
(dp2121
sg80
g2029
sg73
(lp2122
g66
(g87
g68
NtRp2123
(dp2124
g71
(dp2125
g91
g92
ssg80
g2119
sg73
(lp2126
g983
asbag66
(g87
g68
NtRp2127
(dp2128
g71
(dp2129
g98
g99
ssg80
g2119
sg73
(lp2130
S':'
asbag66
(g87
g68
NtRp2131
(dp2132
g71
(dp2133
sg80
g2119
sg73
(lp2134
g66
(g67
g68
NtRp2135
(dp2136
g71
(dp2137
g79
I4
ssg80
g2131
sg73
(lp2138
S'set([])'
p2139
asbasbasbag66
(g82
g68
NtRp2140
(dp2141
g71
(dp2142
sg80
g2029
sg73
(lp2143
g66
(g87
g68
NtRp2144
(dp2145
g71
(dp2146
g91
g92
ssg80
g2140
sg73
(lp2147
g1005
asbag66
(g87
g68
NtRp2148
(dp2149
g71
(dp2150
g98
g99
ssg80
g2140
sg73
(lp2151
S':'
asbag66
(g87
g68
NtRp2152
(dp2153
g71
(dp2154
sg80
g2140
sg73
(lp2155
g66
(g67
g68
NtRp2156
(dp2157
g71
(dp2158
g79
I4
ssg80
g2152
sg73
(lp2159
g109
asbasbasbag66
(g82
g68
NtRp2160
(dp2161
g71
(dp2162
sg80
g2029
sg73
(lp2163
g66
(g87
g68
NtRp2164
(dp2165
g71
(dp2166
g91
g92
ssg80
g2160
sg73
(lp2167
g1026
asbag66
(g87
g68
NtRp2168
(dp2169
g71
(dp2170
g98
g99
ssg80
g2160
sg73
(lp2171
S':'
asbag66
(g87
g68
NtRp2172
(dp2173
g71
(dp2174
sg80
g2160
sg73
(lp2175
g66
(g67
g68
NtRp2176
(dp2177
g71
(dp2178
g79
I4
ssg80
g2172
sg73
(lp2179
g1039
asbasbasbag66
(g82
g68
NtRp2180
(dp2181
g71
(dp2182
sg80
g2029
sg73
(lp2183
g66
(g87
g68
NtRp2184
(dp2185
g71
(dp2186
g91
g92
ssg80
g2180
sg73
(lp2187
g1246
asbag66
(g87
g68
NtRp2188
(dp2189
g71
(dp2190
g98
g99
ssg80
g2180
sg73
(lp2191
S':'
asbag66
(g87
g68
NtRp2192
(dp2193
g71
(dp2194
sg80
g2180
sg73
(lp2195
g66
(g67
g68
NtRp2196
(dp2197
g71
(dp2198
g79
I4
ssg80
g2192
sg73
(lp2199
g109
asbasbasbag66
(g82
g68
NtRp2200
(dp2201
g71
(dp2202
sg80
g2029
sg73
(lp2203
g66
(g87
g68
NtRp2204
(dp2205
g71
(dp2206
g91
g92
ssg80
g2200
sg73
(lp2207
g1267
asbag66
(g87
g68
NtRp2208
(dp2209
g71
(dp2210
g98
g99
ssg80
g2200
sg73
(lp2211
S':'
asbag66
(g87
g68
NtRp2212
(dp2213
g71
(dp2214
sg80
g2200
sg73
(lp2215
g66
(g67
g68
NtRp2216
(dp2217
g71
(dp2218
g79
I4
ssg80
g2212
sg73
(lp2219
g109
asbasbasbag66
(g82
g68
NtRp2220
(dp2221
g71
(dp2222
sg80
g2029
sg73
(lp2223
g66
(g87
g68
NtRp2224
(dp2225
g71
(dp2226
g91
g92
ssg80
g2220
sg73
(lp2227
g1288
asbag66
(g87
g68
NtRp2228
(dp2229
g71
(dp2230
g98
g99
ssg80
g2220
sg73
(lp2231
S':'
asbag66
(g87
g68
NtRp2232
(dp2233
g71
(dp2234
sg80
g2220
sg73
(lp2235
g66
(g67
g68
NtRp2236
(dp2237
g71
(dp2238
g79
I4
ssg80
g2232
sg73
(lp2239
g66
(g75
g68
NtRp2240
(dp2241
g71
(dp2242
g79
I3
ssg80
Nsg73
(lp2243
g66
(g82
g68
NtRp2244
(dp2245
g71
(dp2246
sg80
g2240
sg73
(lp2247
g66
(g87
g68
NtRp2248
(dp2249
g71
(dp2250
sg80
g2244
sg73
(lp2251
g66
(g67
g68
NtRp2252
(dp2253
g71
(dp2254
g79
I3
ssg80
g2248
sg73
(lp2255
g1317
asbasbasbag66
(g82
g68
NtRp2256
(dp2257
g71
(dp2258
sg80
g2240
sg73
(lp2259
g66
(g87
g68
NtRp2260
(dp2261
g71
(dp2262
sg80
g2256
sg73
(lp2263
g66
(g67
g68
NtRp2264
(dp2265
g71
(dp2266
g79
I3
ssg80
g2260
sg73
(lp2267
g1330
asbasbasbag66
(g82
g68
NtRp2268
(dp2269
g71
(dp2270
sg80
g2240
sg73
(lp2271
g66
(g87
g68
NtRp2272
(dp2273
g71
(dp2274
sg80
g2268
sg73
(lp2275
g66
(g67
g68
NtRp2276
(dp2277
g71
(dp2278
g79
I3
ssg80
g2272
sg73
(lp2279
g1343
asbasbasbag66
(g82
g68
NtRp2280
(dp2281
g71
(dp2282
sg80
g2240
sg73
(lp2283
g66
(g87
g68
NtRp2284
(dp2285
g71
(dp2286
sg80
g2280
sg73
(lp2287
g66
(g67
g68
NtRp2288
(dp2289
g71
(dp2290
g79
I3
ssg80
g2284
sg73
(lp2291
g1356
asbasbasbag66
(g82
g68
NtRp2292
(dp2293
g71
(dp2294
sg80
g2240
sg73
(lp2295
g66
(g87
g68
NtRp2296
(dp2297
g71
(dp2298
sg80
g2292
sg73
(lp2299
g66
(g67
g68
NtRp2300
(dp2301
g71
(dp2302
g79
I3
ssg80
g2296
sg73
(lp2303
g1369
asbasbasbasbasbasbasbag66
(g82
g68
NtRp2304
(dp2305
g71
(dp2306
sg80
g2029
sg73
(lp2307
g66
(g87
g68
NtRp2308
(dp2309
g71
(dp2310
g91
g92
ssg80
g2304
sg73
(lp2311
g1637
asbag66
(g87
g68
NtRp2312
(dp2313
g71
(dp2314
g98
g99
ssg80
g2304
sg73
(lp2315
S':'
asbag66
(g87
g68
NtRp2316
(dp2317
g71
(dp2318
sg80
g2304
sg73
(lp2319
g66
(g67
g68
NtRp2320
(dp2321
g71
(dp2322
g79
I4
ssg80
g2316
sg73
(lp2323
g66
(g75
g68
NtRp2324
(dp2325
g71
(dp2326
g79
I3
ssg80
Nsg73
(lp2327
g66
(g82
g68
NtRp2328
(dp2329
g71
(dp2330
sg80
g2324
sg73
(lp2331
g66
(g87
g68
NtRp2332
(dp2333
g71
(dp2334
sg80
g2328
sg73
(lp2335
g66
(g67
g68
NtRp2336
(dp2337
g71
(dp2338
g79
I3
ssg80
g2332
sg73
(lp2339
S'2'
asbasbasbag66
(g82
g68
NtRp2340
(dp2341
g71
(dp2342
sg80
g2324
sg73
(lp2343
g66
(g87
g68
NtRp2344
(dp2345
g71
(dp2346
sg80
g2340
sg73
(lp2347
g66
(g67
g68
NtRp2348
(dp2349
g71
(dp2350
g79
I3
ssg80
g2344
sg73
(lp2351
S'3'
asbasbasbag66
(g82
g68
NtRp2352
(dp2353
g71
(dp2354
sg80
g2324
sg73
(lp2355
g66
(g87
g68
NtRp2356
(dp2357
g71
(dp2358
sg80
g2352
sg73
(lp2359
g66
(g67
g68
NtRp2360
(dp2361
g71
(dp2362
g79
I3
ssg80
g2356
sg73
(lp2363
S'2'
asbasbasbag66
(g82
g68
NtRp2364
(dp2365
g71
(dp2366
sg80
g2324
sg73
(lp2367
g66
(g87
g68
NtRp2368
(dp2369
g71
(dp2370
sg80
g2364
sg73
(lp2371
g66
(g67
g68
NtRp2372
(dp2373
g71
(dp2374
g79
I3
ssg80
g2368
sg73
(lp2375
S'datetime.datetime(2012, 12, 17, 15, 3, 30)'
p2376
asbasbasbag66
(g82
g68
NtRp2377
(dp2378
g71
(dp2379
sg80
g2324
sg73
(lp2380
g66
(g87
g68
NtRp2381
(dp2382
g71
(dp2383
sg80
g2377
sg73
(lp2384
g66
(g67
g68
NtRp2385
(dp2386
g71
(dp2387
g79
I3
ssg80
g2381
sg73
(lp2388
g1715
asbasbasbasbasbasbasbasbasbasbasbag66
(g82
g68
NtRp2389
(dp2390
g71
(dp2391
sg80
g76
sg73
(lp2392
g66
(g87
g68
NtRp2393
(dp2394
g71
(dp2395
g91
g92
ssg80
g2389
sg73
(lp2396
S'is_https'
p2397
asbag66
(g87
g68
NtRp2398
(dp2399
g71
(dp2400
g98
g99
ssg80
g2389
sg73
(lp2401
S':'
asbag66
(g87
g68
NtRp2402
(dp2403
g71
(dp2404
sg80
g2389
sg73
(lp2405
g66
(g67
g68
NtRp2406
(dp2407
g71
(dp2408
g79
I5
ssg80
g2402
sg73
(lp2409
g109
asbasbasbag66
(g82
g68
NtRp2410
(dp2411
g71
(dp2412
sg80
g76
sg73
(lp2413
g66
(g87
g68
NtRp2414
(dp2415
g71
(dp2416
g91
g92
ssg80
g2410
sg73
(lp2417
S'is_local'
p2418
asbag66
(g87
g68
NtRp2419
(dp2420
g71
(dp2421
g98
g99
ssg80
g2410
sg73
(lp2422
S':'
asbag66
(g87
g68
NtRp2423
(dp2424
g71
(dp2425
sg80
g2410
sg73
(lp2426
g66
(g67
g68
NtRp2427
(dp2428
g71
(dp2429
g79
I5
ssg80
g2423
sg73
(lp2430
g1824
asbasbasbag66
(g82
g68
NtRp2431
(dp2432
g71
(dp2433
sg80
g76
sg73
(lp2434
g66
(g87
g68
NtRp2435
(dp2436
g71
(dp2437
g91
g92
ssg80
g2431
sg73
(lp2438
S'is_restful'
p2439
asbag66
(g87
g68
NtRp2440
(dp2441
g71
(dp2442
g98
g99
ssg80
g2431
sg73
(lp2443
S':'
asbag66
(g87
g68
NtRp2444
(dp2445
g71
(dp2446
sg80
g2431
sg73
(lp2447
g66
(g67
g68
NtRp2448
(dp2449
g71
(dp2450
g79
I5
ssg80
g2444
sg73
(lp2451
g109
asbasbasbag66
(g82
g68
NtRp2452
(dp2453
g71
(dp2454
sg80
g76
sg73
(lp2455
g66
(g87
g68
NtRp2456
(dp2457
g71
(dp2458
g91
g92
ssg80
g2452
sg73
(lp2459
S'now'
p2460
asbag66
(g87
g68
NtRp2461
(dp2462
g71
(dp2463
g98
g99
ssg80
g2452
sg73
(lp2464
S':'
asbag66
(g87
g68
NtRp2465
(dp2466
g71
(dp2467
sg80
g2452
sg73
(lp2468
g66
(g67
g68
NtRp2469
(dp2470
g71
(dp2471
g79
I5
ssg80
g2465
sg73
(lp2472
S'datetime.datetime(2013, 8, 27, 14, 15, 33, 837583)'
p2473
asbasbasbag66
(g82
g68
NtRp2474
(dp2475
g71
(dp2476
sg80
g76
sg73
(lp2477
g66
(g87
g68
NtRp2478
(dp2479
g71
(dp2480
g91
g92
ssg80
g2474
sg73
(lp2481
S'post_vars'
p2482
asbag66
(g87
g68
NtRp2483
(dp2484
g71
(dp2485
g98
g99
ssg80
g2474
sg73
(lp2486
S':'
asbag66
(g87
g68
NtRp2487
(dp2488
g71
(dp2489
sg80
g2474
sg73
(lp2490
g66
(g67
g68
NtRp2491
(dp2492
g71
(dp2493
g79
I5
ssg80
g2487
sg73
(lp2494
g66
(g75
g68
NtRp2495
(dp2496
g71
(dp2497
g79
I4
ssg80
Nsg73
(lp2498
sbasbasbasbag66
(g82
g68
NtRp2499
(dp2500
g71
(dp2501
sg80
g76
sg73
(lp2502
g66
(g87
g68
NtRp2503
(dp2504
g71
(dp2505
g91
g92
ssg80
g2499
sg73
(lp2506
S'raw_args'
p2507
asbag66
(g87
g68
NtRp2508
(dp2509
g71
(dp2510
g98
g99
ssg80
g2499
sg73
(lp2511
S':'
asbag66
(g87
g68
NtRp2512
(dp2513
g71
(dp2514
sg80
g2499
sg73
(lp2515
g66
(g67
g68
NtRp2516
(dp2517
g71
(dp2518
g79
I5
ssg80
g2512
sg73
(lp2519
S'3/2'
p2520
asbasbasbag66
(g82
g68
NtRp2521
(dp2522
g71
(dp2523
sg80
g76
sg73
(lp2524
g66
(g87
g68
NtRp2525
(dp2526
g71
(dp2527
g91
g92
ssg80
g2521
sg73
(lp2528
S'raw_extension'
p2529
asbag66
(g87
g68
NtRp2530
(dp2531
g71
(dp2532
g98
g99
ssg80
g2521
sg73
(lp2533
S':'
asbag66
(g87
g68
NtRp2534
(dp2535
g71
(dp2536
sg80
g2521
sg73
(lp2537
g66
(g67
g68
NtRp2538
(dp2539
g71
(dp2540
g79
I5
ssg80
g2534
sg73
(lp2541
S'None'
p2542
asbasbasbag66
(g82
g68
NtRp2543
(dp2544
g71
(dp2545
sg80
g76
sg73
(lp2546
g66
(g87
g68
NtRp2547
(dp2548
g71
(dp2549
g91
g92
ssg80
g2543
sg73
(lp2550
S'url'
p2551
asbag66
(g87
g68
NtRp2552
(dp2553
g71
(dp2554
g98
g99
ssg80
g2543
sg73
(lp2555
S':'
asbag66
(g87
g68
NtRp2556
(dp2557
g71
(dp2558
sg80
g2543
sg73
(lp2559
g66
(g67
g68
NtRp2560
(dp2561
g71
(dp2562
g79
I5
ssg80
g2556
sg73
(lp2563
g1391
asbasbasbag66
(g82
g68
NtRp2564
(dp2565
g71
(dp2566
sg80
g76
sg73
(lp2567
g66
(g87
g68
NtRp2568
(dp2569
g71
(dp2570
g91
g92
ssg80
g2564
sg73
(lp2571
S'utcnow'
p2572
asbag66
(g87
g68
NtRp2573
(dp2574
g71
(dp2575
g98
g99
ssg80
g2564
sg73
(lp2576
S':'
asbag66
(g87
g68
NtRp2577
(dp2578
g71
(dp2579
sg80
g2564
sg73
(lp2580
g66
(g67
g68
NtRp2581
(dp2582
g71
(dp2583
g79
I5
ssg80
g2577
sg73
(lp2584
S'datetime.datetime(2013, 8, 27, 8, 45, 33, 837633)'
p2585
asbasbasbag66
(g82
g68
NtRp2586
(dp2587
g71
(dp2588
sg80
g76
sg73
(lp2589
g66
(g87
g68
NtRp2590
(dp2591
g71
(dp2592
g91
g92
ssg80
g2586
sg73
(lp2593
S'uuid'
p2594
asbag66
(g87
g68
NtRp2595
(dp2596
g71
(dp2597
g98
g99
ssg80
g2586
sg73
(lp2598
S':'
asbag66
(g87
g68
NtRp2599
(dp2600
g71
(dp2601
sg80
g2586
sg73
(lp2602
g66
(g67
g68
NtRp2603
(dp2604
g71
(dp2605
g79
I5
ssg80
g2599
sg73
(lp2606
S'assignmen3/127.0.0.1.2013-08-27.14-15-33.7b4d5598-03f0-4df7-b6fb-cc2a915c7fdf'
p2607
asbasbasbag66
(g82
g68
NtRp2608
(dp2609
g71
(dp2610
sg80
g76
sg73
(lp2611
g66
(g87
g68
NtRp2612
(dp2613
g71
(dp2614
g91
g92
ssg80
g2608
sg73
(lp2615
S'vars'
p2616
asbag66
(g87
g68
NtRp2617
(dp2618
g71
(dp2619
g98
g99
ssg80
g2608
sg73
(lp2620
S':'
asbag66
(g87
g68
NtRp2621
(dp2622
g71
(dp2623
sg80
g2608
sg73
(lp2624
g66
(g67
g68
NtRp2625
(dp2626
g71
(dp2627
g79
I5
ssg80
g2621
sg73
(lp2628
g66
(g75
g68
NtRp2629
(dp2630
g71
(dp2631
g79
I4
ssg80
Nsg73
(lp2632
sbasbasbasbag66
(g82
g68
NtRp2633
(dp2634
g71
(dp2635
sg80
g76
sg73
(lp2636
g66
(g87
g68
NtRp2637
(dp2638
g71
(dp2639
g91
g92
ssg80
g2633
sg73
(lp2640
S'wsgi'
p2641
asbag66
(g87
g68
NtRp2642
(dp2643
g71
(dp2644
g98
g99
ssg80
g2633
sg73
(lp2645
S':'
asbag66
(g87
g68
NtRp2646
(dp2647
g71
(dp2648
sg80
g2633
sg73
(lp2649
g66
(g67
g68
NtRp2650
(dp2651
g71
(dp2652
g79
I5
ssg80
g2646
sg73
(lp2653
g66
(g75
g68
NtRp2654
(dp2655
g71
(dp2656
g79
I4
ssg80
Nsg73
(lp2657
g66
(g82
g68
NtRp2658
(dp2659
g71
(dp2660
sg80
g2654
sg73
(lp2661
g66
(g87
g68
NtRp2662
(dp2663
g71
(dp2664
g91
g92
ssg80
g2658
sg73
(lp2665
S'environ'
p2666
asbag66
(g87
g68
NtRp2667
(dp2668
g71
(dp2669
g98
g99
ssg80
g2658
sg73
(lp2670
S':'
asbag66
(g87
g68
NtRp2671
(dp2672
g71
(dp2673
sg80
g2658
sg73
(lp2674
g66
(g67
g68
NtRp2675
(dp2676
g71
(dp2677
g79
I4
ssg80
g2671
sg73
(lp2678
g66
(g75
g68
NtRp2679
(dp2680
g71
(dp2681
g79
I3
ssg80
Nsg73
(lp2682
g66
(g82
g68
NtRp2683
(dp2684
g71
(dp2685
sg80
g2679
sg73
(lp2686
g66
(g87
g68
NtRp2687
(dp2688
g71
(dp2689
g91
g92
ssg80
g2683
sg73
(lp2690
S'HTTP_ACCEPT'
p2691
asbag66
(g87
g68
NtRp2692
(dp2693
g71
(dp2694
g98
g99
ssg80
g2683
sg73
(lp2695
S':'
asbag66
(g87
g68
NtRp2696
(dp2697
g71
(dp2698
sg80
g2683
sg73
(lp2699
g66
(g67
g68
NtRp2700
(dp2701
g71
(dp2702
g79
I3
ssg80
g2696
sg73
(lp2703
g1061
asbasbasbag66
(g82
g68
NtRp2704
(dp2705
g71
(dp2706
sg80
g2679
sg73
(lp2707
g66
(g87
g68
NtRp2708
(dp2709
g71
(dp2710
g91
g92
ssg80
g2704
sg73
(lp2711
S'HTTP_ACCEPT_ENCODING'
p2712
asbag66
(g87
g68
NtRp2713
(dp2714
g71
(dp2715
g98
g99
ssg80
g2704
sg73
(lp2716
S':'
asbag66
(g87
g68
NtRp2717
(dp2718
g71
(dp2719
sg80
g2704
sg73
(lp2720
g66
(g67
g68
NtRp2721
(dp2722
g71
(dp2723
g79
I3
ssg80
g2717
sg73
(lp2724
g1083
asbasbasbag66
(g82
g68
NtRp2725
(dp2726
g71
(dp2727
sg80
g2679
sg73
(lp2728
g66
(g87
g68
NtRp2729
(dp2730
g71
(dp2731
g91
g92
ssg80
g2725
sg73
(lp2732
S'HTTP_ACCEPT_LANGUAGE'
p2733
asbag66
(g87
g68
NtRp2734
(dp2735
g71
(dp2736
g98
g99
ssg80
g2725
sg73
(lp2737
S':'
asbag66
(g87
g68
NtRp2738
(dp2739
g71
(dp2740
sg80
g2725
sg73
(lp2741
g66
(g67
g68
NtRp2742
(dp2743
g71
(dp2744
g79
I3
ssg80
g2738
sg73
(lp2745
g1105
asbasbasbag66
(g82
g68
NtRp2746
(dp2747
g71
(dp2748
sg80
g2679
sg73
(lp2749
g66
(g87
g68
NtRp2750
(dp2751
g71
(dp2752
g91
g92
ssg80
g2746
sg73
(lp2753
S'HTTP_CACHE_CONTROL'
p2754
asbag66
(g87
g68
NtRp2755
(dp2756
g71
(dp2757
g98
g99
ssg80
g2746
sg73
(lp2758
S':'
asbag66
(g87
g68
NtRp2759
(dp2760
g71
(dp2761
sg80
g2746
sg73
(lp2762
g66
(g67
g68
NtRp2763
(dp2764
g71
(dp2765
g79
I3
ssg80
g2759
sg73
(lp2766
g1127
asbasbasbag66
(g82
g68
NtRp2767
(dp2768
g71
(dp2769
sg80
g2679
sg73
(lp2770
g66
(g87
g68
NtRp2771
(dp2772
g71
(dp2773
g91
g92
ssg80
g2767
sg73
(lp2774
S'HTTP_CONNECTION'
p2775
asbag66
(g87
g68
NtRp2776
(dp2777
g71
(dp2778
g98
g99
ssg80
g2767
sg73
(lp2779
S':'
asbag66
(g87
g68
NtRp2780
(dp2781
g71
(dp2782
sg80
g2767
sg73
(lp2783
g66
(g67
g68
NtRp2784
(dp2785
g71
(dp2786
g79
I3
ssg80
g2780
sg73
(lp2787
g1149
asbasbasbag66
(g82
g68
NtRp2788
(dp2789
g71
(dp2790
sg80
g2679
sg73
(lp2791
g66
(g87
g68
NtRp2792
(dp2793
g71
(dp2794
g91
g92
ssg80
g2788
sg73
(lp2795
S'HTTP_COOKIE'
p2796
asbag66
(g87
g68
NtRp2797
(dp2798
g71
(dp2799
g98
g99
ssg80
g2788
sg73
(lp2800
S':'
asbag66
(g87
g68
NtRp2801
(dp2802
g71
(dp2803
sg80
g2788
sg73
(lp2804
g66
(g67
g68
NtRp2805
(dp2806
g71
(dp2807
g79
I3
ssg80
g2801
sg73
(lp2808
g1171
asbasbasbag66
(g82
g68
NtRp2809
(dp2810
g71
(dp2811
sg80
g2679
sg73
(lp2812
g66
(g87
g68
NtRp2813
(dp2814
g71
(dp2815
g91
g92
ssg80
g2809
sg73
(lp2816
S'HTTP_HOST'
p2817
asbag66
(g87
g68
NtRp2818
(dp2819
g71
(dp2820
g98
g99
ssg80
g2809
sg73
(lp2821
S':'
asbag66
(g87
g68
NtRp2822
(dp2823
g71
(dp2824
sg80
g2809
sg73
(lp2825
g66
(g67
g68
NtRp2826
(dp2827
g71
(dp2828
g79
I3
ssg80
g2822
sg73
(lp2829
g1193
asbasbasbag66
(g82
g68
NtRp2830
(dp2831
g71
(dp2832
sg80
g2679
sg73
(lp2833
g66
(g87
g68
NtRp2834
(dp2835
g71
(dp2836
g91
g92
ssg80
g2830
sg73
(lp2837
S'HTTP_REFERER'
p2838
asbag66
(g87
g68
NtRp2839
(dp2840
g71
(dp2841
g98
g99
ssg80
g2830
sg73
(lp2842
S':'
asbag66
(g87
g68
NtRp2843
(dp2844
g71
(dp2845
sg80
g2830
sg73
(lp2846
g66
(g67
g68
NtRp2847
(dp2848
g71
(dp2849
g79
I3
ssg80
g2843
sg73
(lp2850
g1215
asbasbasbag66
(g82
g68
NtRp2851
(dp2852
g71
(dp2853
sg80
g2679
sg73
(lp2854
g66
(g87
g68
NtRp2855
(dp2856
g71
(dp2857
g91
g92
ssg80
g2851
sg73
(lp2858
S'HTTP_USER_AGENT'
p2859
asbag66
(g87
g68
NtRp2860
(dp2861
g71
(dp2862
g98
g99
ssg80
g2851
sg73
(lp2863
S':'
asbag66
(g87
g68
NtRp2864
(dp2865
g71
(dp2866
sg80
g2851
sg73
(lp2867
g66
(g67
g68
NtRp2868
(dp2869
g71
(dp2870
g79
I3
ssg80
g2864
sg73
(lp2871
g1237
asbasbasbag66
(g82
g68
NtRp2872
(dp2873
g71
(dp2874
sg80
g2679
sg73
(lp2875
g66
(g87
g68
NtRp2876
(dp2877
g71
(dp2878
g91
g92
ssg80
g2872
sg73
(lp2879
S'PATH_INFO'
p2880
asbag66
(g87
g68
NtRp2881
(dp2882
g71
(dp2883
g98
g99
ssg80
g2872
sg73
(lp2884
S':'
asbag66
(g87
g68
NtRp2885
(dp2886
g71
(dp2887
sg80
g2872
sg73
(lp2888
g66
(g67
g68
NtRp2889
(dp2890
g71
(dp2891
g79
I3
ssg80
g2885
sg73
(lp2892
g1391
asbasbasbag66
(g82
g68
NtRp2893
(dp2894
g71
(dp2895
sg80
g2679
sg73
(lp2896
g66
(g87
g68
NtRp2897
(dp2898
g71
(dp2899
g91
g92
ssg80
g2893
sg73
(lp2900
S'QUERY_STRING'
p2901
asbag66
(g87
g68
NtRp2902
(dp2903
g71
(dp2904
g98
g99
ssg80
g2893
sg73
(lp2905
S':'
asbag66
(g87
g68
NtRp2906
(dp2907
g71
(dp2908
sg80
g2893
sg73
(lp2909
g66
(g67
g68
NtRp2910
(dp2911
g71
(dp2912
g79
I3
ssg80
g2906
sg73
(lp2913
S''
asbasbasbag66
(g82
g68
NtRp2914
(dp2915
g71
(dp2916
sg80
g2679
sg73
(lp2917
g66
(g87
g68
NtRp2918
(dp2919
g71
(dp2920
g91
g92
ssg80
g2914
sg73
(lp2921
S'REMOTE_ADDR'
p2922
asbag66
(g87
g68
NtRp2923
(dp2924
g71
(dp2925
g98
g99
ssg80
g2914
sg73
(lp2926
S':'
asbag66
(g87
g68
NtRp2927
(dp2928
g71
(dp2929
sg80
g2914
sg73
(lp2930
g66
(g67
g68
NtRp2931
(dp2932
g71
(dp2933
g79
I3
ssg80
g2927
sg73
(lp2934
g245
asbasbasbag66
(g82
g68
NtRp2935
(dp2936
g71
(dp2937
sg80
g2679
sg73
(lp2938
g66
(g87
g68
NtRp2939
(dp2940
g71
(dp2941
g91
g92
ssg80
g2935
sg73
(lp2942
S'REMOTE_PORT'
p2943
asbag66
(g87
g68
NtRp2944
(dp2945
g71
(dp2946
g98
g99
ssg80
g2935
sg73
(lp2947
S':'
asbag66
(g87
g68
NtRp2948
(dp2949
g71
(dp2950
sg80
g2935
sg73
(lp2951
g66
(g67
g68
NtRp2952
(dp2953
g71
(dp2954
g79
I3
ssg80
g2948
sg73
(lp2955
g1455
asbasbasbag66
(g82
g68
NtRp2956
(dp2957
g71
(dp2958
sg80
g2679
sg73
(lp2959
g66
(g87
g68
NtRp2960
(dp2961
g71
(dp2962
g91
g92
ssg80
g2956
sg73
(lp2963
S'REQUEST_METHOD'
p2964
asbag66
(g87
g68
NtRp2965
(dp2966
g71
(dp2967
g98
g99
ssg80
g2956
sg73
(lp2968
S':'
asbag66
(g87
g68
NtRp2969
(dp2970
g71
(dp2971
sg80
g2956
sg73
(lp2972
g66
(g67
g68
NtRp2973
(dp2974
g71
(dp2975
g79
I3
ssg80
g2969
sg73
(lp2976
g1477
asbasbasbag66
(g82
g68
NtRp2977
(dp2978
g71
(dp2979
sg80
g2679
sg73
(lp2980
g66
(g87
g68
NtRp2981
(dp2982
g71
(dp2983
g91
g92
ssg80
g2977
sg73
(lp2984
S'REQUEST_URI'
p2985
asbag66
(g87
g68
NtRp2986
(dp2987
g71
(dp2988
g98
g99
ssg80
g2977
sg73
(lp2989
S':'
asbag66
(g87
g68
NtRp2990
(dp2991
g71
(dp2992
sg80
g2977
sg73
(lp2993
g66
(g67
g68
NtRp2994
(dp2995
g71
(dp2996
g79
I3
ssg80
g2990
sg73
(lp2997
g1391
asbasbasbag66
(g82
g68
NtRp2998
(dp2999
g71
(dp3000
sg80
g2679
sg73
(lp3001
g66
(g87
g68
NtRp3002
(dp3003
g71
(dp3004
g91
g92
ssg80
g2998
sg73
(lp3005
S'SCRIPT_NAME'
p3006
asbag66
(g87
g68
NtRp3007
(dp3008
g71
(dp3009
g98
g99
ssg80
g2998
sg73
(lp3010
S':'
asbag66
(g87
g68
NtRp3011
(dp3012
g71
(dp3013
sg80
g2998
sg73
(lp3014
g66
(g67
g68
NtRp3015
(dp3016
g71
(dp3017
g79
I3
ssg80
g3011
sg73
(lp3018
S''
asbasbasbag66
(g82
g68
NtRp3019
(dp3020
g71
(dp3021
sg80
g2679
sg73
(lp3022
g66
(g87
g68
NtRp3023
(dp3024
g71
(dp3025
g91
g92
ssg80
g3019
sg73
(lp3026
S'SERVER_NAME'
p3027
asbag66
(g87
g68
NtRp3028
(dp3029
g71
(dp3030
g98
g99
ssg80
g3019
sg73
(lp3031
S':'
asbag66
(g87
g68
NtRp3032
(dp3033
g71
(dp3034
sg80
g3019
sg73
(lp3035
g66
(g67
g68
NtRp3036
(dp3037
g71
(dp3038
g79
I3
ssg80
g3032
sg73
(lp3039
g1541
asbasbasbag66
(g82
g68
NtRp3040
(dp3041
g71
(dp3042
sg80
g2679
sg73
(lp3043
g66
(g87
g68
NtRp3044
(dp3045
g71
(dp3046
g91
g92
ssg80
g3040
sg73
(lp3047
S'SERVER_PORT'
p3048
asbag66
(g87
g68
NtRp3049
(dp3050
g71
(dp3051
g98
g99
ssg80
g3040
sg73
(lp3052
S':'
asbag66
(g87
g68
NtRp3053
(dp3054
g71
(dp3055
sg80
g3040
sg73
(lp3056
g66
(g67
g68
NtRp3057
(dp3058
g71
(dp3059
g79
I3
ssg80
g3053
sg73
(lp3060
g1563
asbasbasbag66
(g82
g68
NtRp3061
(dp3062
g71
(dp3063
sg80
g2679
sg73
(lp3064
g66
(g87
g68
NtRp3065
(dp3066
g71
(dp3067
g91
g92
ssg80
g3061
sg73
(lp3068
S'SERVER_PROTOCOL'
p3069
asbag66
(g87
g68
NtRp3070
(dp3071
g71
(dp3072
g98
g99
ssg80
g3061
sg73
(lp3073
S':'
asbag66
(g87
g68
NtRp3074
(dp3075
g71
(dp3076
sg80
g3061
sg73
(lp3077
g66
(g67
g68
NtRp3078
(dp3079
g71
(dp3080
g79
I3
ssg80
g3074
sg73
(lp3081
g1585
asbasbasbag66
(g82
g68
NtRp3082
(dp3083
g71
(dp3084
sg80
g2679
sg73
(lp3085
g66
(g87
g68
NtRp3086
(dp3087
g71
(dp3088
g91
g92
ssg80
g3082
sg73
(lp3089
S'SERVER_SOFTWARE'
p3090
asbag66
(g87
g68
NtRp3091
(dp3092
g71
(dp3093
g98
g99
ssg80
g3082
sg73
(lp3094
S':'
asbag66
(g87
g68
NtRp3095
(dp3096
g71
(dp3097
sg80
g3082
sg73
(lp3098
g66
(g67
g68
NtRp3099
(dp3100
g71
(dp3101
g79
I3
ssg80
g3095
sg73
(lp3102
g1607
asbasbasbag66
(g82
g68
NtRp3103
(dp3104
g71
(dp3105
sg80
g2679
sg73
(lp3106
g66
(g87
g68
NtRp3107
(dp3108
g71
(dp3109
g91
g92
ssg80
g3103
sg73
(lp3110
S'wsgi.errors'
p3111
asbag66
(g87
g68
NtRp3112
(dp3113
g71
(dp3114
g98
g99
ssg80
g3103
sg73
(lp3115
S':'
asbag66
(g87
g68
NtRp3116
(dp3117
g71
(dp3118
sg80
g3103
sg73
(lp3119
g66
(g67
g68
NtRp3120
(dp3121
g71
(dp3122
g79
I3
ssg80
g3116
sg73
(lp3123
S"<open file '<stderr>', mode 'w' at 0x7f953b4c2270>"
p3124
asbasbasbag66
(g82
g68
NtRp3125
(dp3126
g71
(dp3127
sg80
g2679
sg73
(lp3128
g66
(g87
g68
NtRp3129
(dp3130
g71
(dp3131
g91
g92
ssg80
g3125
sg73
(lp3132
S'wsgi.file_wrapper'
p3133
asbag66
(g87
g68
NtRp3134
(dp3135
g71
(dp3136
g98
g99
ssg80
g3125
sg73
(lp3137
S':'
asbag66
(g87
g68
NtRp3138
(dp3139
g71
(dp3140
sg80
g3125
sg73
(lp3141
g66
(g67
g68
NtRp3142
(dp3143
g71
(dp3144
g79
I3
ssg80
g3138
sg73
(lp3145
S'<class wsgiref.util.FileWrapper at 0x1601b48>'
p3146
asbasbasbag66
(g82
g68
NtRp3147
(dp3148
g71
(dp3149
sg80
g2679
sg73
(lp3150
g66
(g87
g68
NtRp3151
(dp3152
g71
(dp3153
g91
g92
ssg80
g3147
sg73
(lp3154
S'wsgi.input'
p3155
asbag66
(g87
g68
NtRp3156
(dp3157
g71
(dp3158
g98
g99
ssg80
g3147
sg73
(lp3159
S':'
asbag66
(g87
g68
NtRp3160
(dp3161
g71
(dp3162
sg80
g3147
sg73
(lp3163
g66
(g67
g68
NtRp3164
(dp3165
g71
(dp3166
g79
I3
ssg80
g3160
sg73
(lp3167
S'<cStringIO.StringO object at 0x7f9508111570>'
p3168
asbasbasbag66
(g82
g68
NtRp3169
(dp3170
g71
(dp3171
sg80
g2679
sg73
(lp3172
g66
(g87
g68
NtRp3173
(dp3174
g71
(dp3175
g91
g92
ssg80
g3169
sg73
(lp3176
S'wsgi.multiprocess'
p3177
asbag66
(g87
g68
NtRp3178
(dp3179
g71
(dp3180
g98
g99
ssg80
g3169
sg73
(lp3181
S':'
asbag66
(g87
g68
NtRp3182
(dp3183
g71
(dp3184
sg80
g3169
sg73
(lp3185
g66
(g67
g68
NtRp3186
(dp3187
g71
(dp3188
g79
I3
ssg80
g3182
sg73
(lp3189
g109
asbasbasbag66
(g82
g68
NtRp3190
(dp3191
g71
(dp3192
sg80
g2679
sg73
(lp3193
g66
(g87
g68
NtRp3194
(dp3195
g71
(dp3196
g91
g92
ssg80
g3190
sg73
(lp3197
S'wsgi.multithread'
p3198
asbag66
(g87
g68
NtRp3199
(dp3200
g71
(dp3201
g98
g99
ssg80
g3190
sg73
(lp3202
S':'
asbag66
(g87
g68
NtRp3203
(dp3204
g71
(dp3205
sg80
g3190
sg73
(lp3206
g66
(g67
g68
NtRp3207
(dp3208
g71
(dp3209
g79
I3
ssg80
g3203
sg73
(lp3210
g1824
asbasbasbag66
(g82
g68
NtRp3211
(dp3212
g71
(dp3213
sg80
g2679
sg73
(lp3214
g66
(g87
g68
NtRp3215
(dp3216
g71
(dp3217
g91
g92
ssg80
g3211
sg73
(lp3218
S'wsgi.run_once'
p3219
asbag66
(g87
g68
NtRp3220
(dp3221
g71
(dp3222
g98
g99
ssg80
g3211
sg73
(lp3223
S':'
asbag66
(g87
g68
NtRp3224
(dp3225
g71
(dp3226
sg80
g3211
sg73
(lp3227
g66
(g67
g68
NtRp3228
(dp3229
g71
(dp3230
g79
I3
ssg80
g3224
sg73
(lp3231
g109
asbasbasbag66
(g82
g68
NtRp3232
(dp3233
g71
(dp3234
sg80
g2679
sg73
(lp3235
g66
(g87
g68
NtRp3236
(dp3237
g71
(dp3238
g91
g92
ssg80
g3232
sg73
(lp3239
S'wsgi.url_scheme'
p3240
asbag66
(g87
g68
NtRp3241
(dp3242
g71
(dp3243
g98
g99
ssg80
g3232
sg73
(lp3244
S':'
asbag66
(g87
g68
NtRp3245
(dp3246
g71
(dp3247
sg80
g3232
sg73
(lp3248
g66
(g67
g68
NtRp3249
(dp3250
g71
(dp3251
g79
I3
ssg80
g3245
sg73
(lp3252
g1867
asbasbasbag66
(g82
g68
NtRp3253
(dp3254
g71
(dp3255
sg80
g2679
sg73
(lp3256
g66
(g87
g68
NtRp3257
(dp3258
g71
(dp3259
g91
g92
ssg80
g3253
sg73
(lp3260
S'wsgi.version'
p3261
asbag66
(g87
g68
NtRp3262
(dp3263
g71
(dp3264
g98
g99
ssg80
g3253
sg73
(lp3265
S':'
asbag66
(g87
g68
NtRp3266
(dp3267
g71
(dp3268
sg80
g3253
sg73
(lp3269
g66
(g67
g68
NtRp3270
(dp3271
g71
(dp3272
g79
I3
ssg80
g3266
sg73
(lp3273
S'1'
asbasbasbasbasbasbasbasbasbasbasbasbasbsS'frames'
p3274
(lp3275
(dp3276
S'file'
p3277
S'/home/umang/web2py/gluon/main.py'
p3278
sS'dump'
p3279
(dp3280
S'global serve_controller'
p3281
S'<function serve_controller>'
p3282
sS'session'
p3283
S"<Storage {'_formkey[news/create]': 'fd341228-6b0...login]': '989b0075-ab6c-45e0-92fa-fb2d91eeb32a'}>"
p3284
sS'request'
p3285
S"<Storage {'function': 'like', 'body': <cStringIO...cations/assignmen3/', 'post_vars': <Storage {}>}>"
p3286
sS'response'
p3287
S"<Storage {'body': <cStringIO.StringO object at 0...at 0x7f950813fc80>, 'view': 'default/like.html'}>"
p3288
ssS'lnum'
p3289
I543
sS'lines'
p3290
(dp3291
I544
S''
sI545
S'            except HTTP, http_response:'
p3292
sI546
S''
sI547
S'                if static_file:'
p3293
sI538
S'                if global_settings.debugging and app != "admin":'
p3294
sI539
S'                    import gluon.debug'
p3295
sI540
S'                    # activate the debugger'
p3296
sI541
S'                    gluon.debug.dbg.do_debug(mainpyfile=request.folder)'
p3297
sI542
S''
sI543
S'                serve_controller(request, response, session)'
p3298
ssS'call'
p3299
S"(environ={'HTTP_ACCEPT': 'text/html,application/xhtml+xml,application/xml;q=0.9,*/*;q=0.8', 'HTTP_ACCEPT_ENCODING': 'gzip, deflate', 'HTTP_ACCEPT_LANGUAGE': 'en-us,en;q=0.5', 'HTTP_CACHE_CONTROL': 'max-age=0', 'HTTP_CONNECTION': 'keep-alive', 'HTTP_COOKIE': 'session_id_welcome=127.0.0.1-a2b1b4d6-eba7-4458-...n3=127.0.0.1-f78a0883-b419-4f1b-8802-d13ae89341f4', 'HTTP_HOST': '127.0.0.1:8000', 'HTTP_REFERER': 'http://127.0.0.1:8000/assignmen3/default/first_page/2', 'HTTP_USER_AGENT': 'Mozilla/5.0 (X11; Ubuntu; Linux x86_64; rv:11.0) Gecko/20100101 Firefox/11.0', 'PATH_INFO': '/assignmen3/default/like/3/2', ...}, responder=<function responder2>)"
p3300
sS'func'
p3301
S'wsgibase'
p3302
sa(dp3303
g3277
S'/home/umang/web2py/gluon/main.py'
p3304
sg3279
(dp3305
S'response._view_environment'
p3306
S"{'A': <class 'gluon.html.A'>, 'Auth': <class 'gluon.tools.Auth'>, 'B': <class 'gluon.html.B'>, 'BEAUTIFY': <class 'gluon.html.BEAUTIFY'>, 'BODY': <class 'gluon.html.BODY'>, 'BR': <class 'gluon.html.BR'>, 'BUTTON': <class 'gluon.html.BUTTON'>, 'CAT': <class 'gluon.html.CAT'>, 'CENTER': <class 'gluon.html.CENTER'>, 'CLEANUP': <class 'gluon.validators.CLEANUP'>, ...}"
p3307
sS'response'
p3308
S"<Storage {'body': <cStringIO.StringO object at 0...at 0x7f950813fc80>, 'view': 'default/like.html'}>"
p3309
sS'global run_view_in'
p3310
S'<function run_view_in>'
p3311
ssg3289
I227
sg3290
(dp3312
I224
S'    if isinstance(page, dict):'
p3313
sI225
S'        response._vars = page'
p3314
sI226
S'        response._view_environment.update(page)'
p3315
sI227
S'        run_view_in(response._view_environment)'
p3316
sI228
S'        page = response.body.getvalue()'
p3317
sI229
S'    # logic to garbage collect after exec, not always, once every 100 requests'
p3318
sI230
S'    global requests'
p3319
sI231
S"    requests = ('requests' in globals()) and (requests + 1) % 100 or 0"
p3320
sI222
S'    response._view_environment = copy.copy(environment)'
p3321
sI223
S'    page = run_controller_in(request.controller, request.function, environment)'
p3322
ssg3299
S"(request=<Storage {'function': 'like', 'body': <cStringIO...cations/assignmen3/', 'post_vars': <Storage {}>}>, response=<Storage {'body': <cStringIO.StringO object at 0...at 0x7f950813fc80>, 'view': 'default/like.html'}>, session=<Storage {'_formkey[news/create]': 'fd341228-6b0...login]': '989b0075-ab6c-45e0-92fa-fb2d91eeb32a'}>)"
p3323
sg3301
S'serve_controller'
p3324
sa(dp3325
g3277
S'/home/umang/web2py/gluon/compileapp.py'
p3326
sg3279
(dp3327
S'environment'
p3328
S"{'A': <class 'gluon.html.A'>, 'Auth': <class 'gluon.tools.Auth'>, 'B': <class 'gluon.html.B'>, 'BEAUTIFY': <class 'gluon.html.BEAUTIFY'>, 'BODY': <class 'gluon.html.BODY'>, 'BR': <class 'gluon.html.BR'>, 'BUTTON': <class 'gluon.html.BUTTON'>, 'CAT': <class 'gluon.html.CAT'>, 'CENTER': <class 'gluon.html.CENTER'>, 'CLEANUP': <class 'gluon.validators.CLEANUP'>, ...}"
p3329
sS'context'
p3330
S'undefined'
p3331
ssg3289
I672
sg3290
(dp3332
I672
S'                                   context=environment)'
p3333
sI673
S'        restricted(ccode, environment, layer)'
p3334
sI674
S''
sI675
S''
sI676
S'def remove_compiled_application(folder):'
p3335
sI667
S"                                            pjoin(folder, 'views'),"
p3336
sI668
S'                                            context=environment), layer))'
p3337
sI669
S'        else:'
p3338
sI670
S'            ccode = parse_template(view,'
p3339
sI671
S"                                   pjoin(folder, 'views'),"
p3340
ssg3299
S"(environment={'A': <class 'gluon.html.A'>, 'Auth': <class 'gluon.tools.Auth'>, 'B': <class 'gluon.html.B'>, 'BEAUTIFY': <class 'gluon.html.BEAUTIFY'>, 'BODY': <class 'gluon.html.BODY'>, 'BR': <class 'gluon.html.BR'>, 'BUTTON': <class 'gluon.html.BUTTON'>, 'CAT': <class 'gluon.html.CAT'>, 'CENTER': <class 'gluon.html.CENTER'>, 'CLEANUP': <class 'gluon.validators.CLEANUP'>, ...})"
p3341
sg3301
S'run_view_in'
p3342
sa(dp3343
g3277
S'/home/umang/web2py/gluon/template.py'
p3344
sg3279
(dp3345
S'builtinstr'
p3346
S"<type 'str'>"
p3347
sS'global TemplateParser'
p3348
S"<class 'gluon.template.TemplateParser'>"
p3349
sS'delimiters'
p3350
S"('{{', '}}')"
p3351
sS'context'
p3352
S"{'A': <class 'gluon.html.A'>, 'Auth': <class 'gluon.tools.Auth'>, 'B': <class 'gluon.html.B'>, 'BEAUTIFY': <class 'gluon.html.BEAUTIFY'>, 'BODY': <class 'gluon.html.BODY'>, 'BR': <class 'gluon.html.BR'>, 'BUTTON': <class 'gluon.html.BUTTON'>, 'CAT': <class 'gluon.html.CAT'>, 'CENTER': <class 'gluon.html.CENTER'>, 'CLEANUP': <class 'gluon.validators.CLEANUP'>, ...}"
p3353
sS'text'
p3354
S'"{{extend \'layout.html}}\\n{{=len(query)}}\\n"'
p3355
sS'path'
p3356
S"'/home/umang/web2py/applications/assignmen3/views'"
p3357
sS'lexers'
p3358
g19
ssg3289
I785
sg3290
(dp3359
I780
S"            raise RestrictedError(filename, '', 'Unable to find the file')"
p3360
sI781
S'    else:'
p3361
sI782
S'        text = filename.read()'
p3362
sI783
S''
sI784
S'    # Use the file contents to get a parsed template and return it.'
p3363
sI785
S'    return str(TemplateParser(text, context=context, path=path, lexers=lexers, delimiters=delimiters))'
p3364
sI786
S''
sI787
S''
sI788
S'def get_parsed(text):'
p3365
sI789
S'    """'
p3366
ssg3299
S"(filename='default/like.html', path='/home/umang/web2py/applications/assignmen3/views', context={'A': <class 'gluon.html.A'>, 'Auth': <class 'gluon.tools.Auth'>, 'B': <class 'gluon.html.B'>, 'BEAUTIFY': <class 'gluon.html.BEAUTIFY'>, 'BODY': <class 'gluon.html.BODY'>, 'BR': <class 'gluon.html.BR'>, 'BUTTON': <class 'gluon.html.BUTTON'>, 'CAT': <class 'gluon.html.CAT'>, 'CENTER': <class 'gluon.html.CENTER'>, 'CLEANUP': <class 'gluon.validators.CLEANUP'>, ...}, lexers={}, delimiters=('{{', '}}'))"
p3367
sg3301
S'parse_template'
p3368
sa(dp3369
g3277
S'/home/umang/web2py/gluon/template.py'
p3370
sg3279
(dp3371
S'text'
p3372
S'"{{extend \'layout.html}}\\n{{=len(query)}}\\n"'
p3373
sS'self'
p3374
S'<gluon.template.TemplateParser object>'
p3375
sS'self.parse'
p3376
S'<bound method TemplateParser.parse of <gluon.template.TemplateParser object>>'
p3377
ssg3289
I316
sg3290
(dp3378
I320
S'        Return the parsed template with correct indentation.'
p3379
sI311
S'        # This variable will hold a reference to every block'
p3380
sI312
S'        # that we come across in this template'
p3381
sI313
S'        self.blocks = {}'
p3382
sI314
S''
sI315
S'        # Begin parsing.'
p3383
sI316
S'        self.parse(text)'
p3384
sI317
S''
sI318
S'    def to_string(self):'
p3385
sI319
S'        """'
p3386
ssg3299
S'(self=<gluon.template.TemplateParser object>, text="{{extend \'layout.html}}\\n{{=len(query)}}\\n", name=\'ParserContainer\', context={\'A\': <class \'gluon.html.A\'>, \'Auth\': <class \'gluon.tools.Auth\'>, \'B\': <class \'gluon.html.B\'>, \'BEAUTIFY\': <class \'gluon.html.BEAUTIFY\'>, \'BODY\': <class \'gluon.html.BODY\'>, \'BR\': <class \'gluon.html.BR\'>, \'BUTTON\': <class \'gluon.html.BUTTON\'>, \'CAT\': <class \'gluon.html.CAT\'>, \'CENTER\': <class \'gluon.html.CENTER\'>, \'CLEANUP\': <class \'gluon.validators.CLEANUP\'>, ...}, path=\'/home/umang/web2py/applications/assignmen3/views\', writer=\'response.write\', lexers={}, delimiters=(\'{{\', \'}}\'), _super_nodes=[])'
p3387
sg3301
g22
sa(dp3388
g3277
S'/home/umang/web2py/gluon/template.py'
p3389
sg3279
(dp3390
S'self'
p3391
S'<gluon.template.TemplateParser object>'
p3392
sS'extend'
p3393
S'"\'layout.html"'
p3394
sS'self.extend'
p3395
S'<bound method TemplateParser.extend of <gluon.template.TemplateParser object>>'
p3396
ssg3289
I756
sg3290
(dp3397
I751
S'            # Sometimes I miss C-Style pointers... I want my asterisk...'
p3398
sI752
S'            self.child_super_nodes.remove(node)'
p3399
sI753
S''
sI754
S'        # If we need to extend a template.'
p3400
sI755
S'        if extend:'
p3401
sI756
S'            self.extend(extend)'
p3402
sI757
S''
sI758
S'# We need this for integration with gluon'
p3403
sI759
S''
sI760
S''
ssg3299
S'(self=<gluon.template.TemplateParser object>, text="{{extend \'layout.html}}\\n{{=len(query)}}\\n")'
p3404
sg3301
S'parse'
p3405
sa(dp3406
g3277
S'/home/umang/web2py/gluon/template.py'
p3407
sg3279
(dp3408
S'text'
p3409
g3331
sS'self'
p3410
S'<gluon.template.TemplateParser object>'
p3411
sS'self._get_file_text'
p3412
S'<bound method TemplateParser._get_file_text of <gluon.template.TemplateParser object>>'
p3413
sS'filename'
p3414
S'"\'layout.html"'
p3415
ssg3289
I471
sg3290
(dp3416
I466
S'    def extend(self, filename):'
p3417
sI467
S'        """'
p3418
sI468
S'        Extend ``filename``. Anything not declared in a block defined by the'
p3419
sI469
S'        parent will be placed in the parent templates ``{{include}}`` block.'
p3420
sI470
S'        """'
p3421
sI471
S'        text = self._get_file_text(filename)'
p3422
sI472
S''
sI473
S'        # Create out nodes list to send to the parent'
p3423
sI474
S'        super_nodes = []'
p3424
sI475
S'        # We want to include any non-handled nodes.'
p3425
ssg3299
S'(self=<gluon.template.TemplateParser object>, filename="\'layout.html")'
p3426
sg3301
S'extend'
p3427
sa(dp3428
g3277
S'/home/umang/web2py/gluon/template.py'
p3429
sg3279
(dp3430
S'builtineval'
p3431
S'<built-in function eval>'
p3432
sS'context'
p3433
S"{'A': <class 'gluon.html.A'>, 'Auth': <class 'gluon.tools.Auth'>, 'B': <class 'gluon.html.B'>, 'BEAUTIFY': <class 'gluon.html.BEAUTIFY'>, 'BODY': <class 'gluon.html.BODY'>, 'BR': <class 'gluon.html.BR'>, 'BUTTON': <class 'gluon.html.BUTTON'>, 'CAT': <class 'gluon.html.CAT'>, 'CENTER': <class 'gluon.html.CENTER'>, 'CLEANUP': <class 'gluon.validators.CLEANUP'>, ...}"
p3434
sS'filename'
p3435
S'"\'layout.html"'
p3436
ssg3289
I436
sg3290
(dp3437
I431
S'        if current and not "response" in context:'
p3438
sI432
S'            context["response"] = getattr(current, \'response\', None)'
p3439
sI433
S''
sI434
S'        # Get the filename; filename looks like ``"template.html"``.'
p3440
sI435
S'        # We need to eval to remove the quotes and get the string type.'
p3441
sI436
S'        filename = eval(filename, context)'
p3442
sI437
S''
sI438
S'        # Get the path of the file on the system.'
p3443
sI439
S'        filepath = self.path and os.path.join(self.path, filename) or filename'
p3444
sI440
S''
ssg3299
S'(self=<gluon.template.TemplateParser object>, filename="\'layout.html")'
p3445
sg3301
S'_get_file_text'
p3446
sasS'pyver'
p3447
S'Python 2.7.3: /usr/bin/python'
p3448
sS'session'
p3449
g66
(g67
g68
NtRp3450
(dp3451
g71
(dp3452
sg73
(lp3453
g66
(g75
g68
NtRp3454
(dp3455
g71
(dp3456
g79
I5
ssg80
Nsg73
(lp3457
g66
(g82
g68
NtRp3458
(dp3459
g71
(dp3460
sg80
g3454
sg73
(lp3461
g66
(g87
g68
NtRp3462
(dp3463
g71
(dp3464
g91
g92
ssg80
g3458
sg73
(lp3465
S'auth'
p3466
asbag66
(g87
g68
NtRp3467
(dp3468
g71
(dp3469
g98
g99
ssg80
g3458
sg73
(lp3470
S':'
asbag66
(g87
g68
NtRp3471
(dp3472
g71
(dp3473
sg80
g3458
sg73
(lp3474
g66
(g67
g68
NtRp3475
(dp3476
g71
(dp3477
g79
I5
ssg80
g3471
sg73
(lp3478
g66
(g75
g68
NtRp3479
(dp3480
g71
(dp3481
g79
I4
ssg80
Nsg73
(lp3482
g66
(g82
g68
NtRp3483
(dp3484
g71
(dp3485
sg80
g3479
sg73
(lp3486
g66
(g87
g68
NtRp3487
(dp3488
g71
(dp3489
g91
g92
ssg80
g3483
sg73
(lp3490
S'expiration'
p3491
asbag66
(g87
g68
NtRp3492
(dp3493
g71
(dp3494
g98
g99
ssg80
g3483
sg73
(lp3495
S':'
asbag66
(g87
g68
NtRp3496
(dp3497
g71
(dp3498
sg80
g3483
sg73
(lp3499
g66
(g67
g68
NtRp3500
(dp3501
g71
(dp3502
g79
I4
ssg80
g3496
sg73
(lp3503
S'3600'
p3504
asbasbasbag66
(g82
g68
NtRp3505
(dp3506
g71
(dp3507
sg80
g3479
sg73
(lp3508
g66
(g87
g68
NtRp3509
(dp3510
g71
(dp3511
g91
g92
ssg80
g3505
sg73
(lp3512
S'hmac_key'
p3513
asbag66
(g87
g68
NtRp3514
(dp3515
g71
(dp3516
g98
g99
ssg80
g3505
sg73
(lp3517
S':'
asbag66
(g87
g68
NtRp3518
(dp3519
g71
(dp3520
sg80
g3505
sg73
(lp3521
g66
(g67
g68
NtRp3522
(dp3523
g71
(dp3524
g79
I4
ssg80
g3518
sg73
(lp3525
S'4107bf60-9c3d-438f-9050-70f5ba162069'
p3526
asbasbasbag66
(g82
g68
NtRp3527
(dp3528
g71
(dp3529
sg80
g3479
sg73
(lp3530
g66
(g87
g68
NtRp3531
(dp3532
g71
(dp3533
g91
g92
ssg80
g3527
sg73
(lp3534
S'last_visit'
p3535
asbag66
(g87
g68
NtRp3536
(dp3537
g71
(dp3538
g98
g99
ssg80
g3527
sg73
(lp3539
S':'
asbag66
(g87
g68
NtRp3540
(dp3541
g71
(dp3542
sg80
g3527
sg73
(lp3543
g66
(g67
g68
NtRp3544
(dp3545
g71
(dp3546
g79
I4
ssg80
g3540
sg73
(lp3547
S'datetime.datetime(2013, 8, 27, 14, 13, 46, 677756)'
p3548
asbasbasbag66
(g82
g68
NtRp3549
(dp3550
g71
(dp3551
sg80
g3479
sg73
(lp3552
g66
(g87
g68
NtRp3553
(dp3554
g71
(dp3555
g91
g92
ssg80
g3549
sg73
(lp3556
S'remember'
p3557
asbag66
(g87
g68
NtRp3558
(dp3559
g71
(dp3560
g98
g99
ssg80
g3549
sg73
(lp3561
S':'
asbag66
(g87
g68
NtRp3562
(dp3563
g71
(dp3564
sg80
g3549
sg73
(lp3565
g66
(g67
g68
NtRp3566
(dp3567
g71
(dp3568
g79
I4
ssg80
g3562
sg73
(lp3569
g109
asbasbasbag66
(g82
g68
NtRp3570
(dp3571
g71
(dp3572
sg80
g3479
sg73
(lp3573
g66
(g87
g68
NtRp3574
(dp3575
g71
(dp3576
g91
g92
ssg80
g3570
sg73
(lp3577
S'user'
p3578
asbag66
(g87
g68
NtRp3579
(dp3580
g71
(dp3581
g98
g99
ssg80
g3570
sg73
(lp3582
S':'
asbag66
(g87
g68
NtRp3583
(dp3584
g71
(dp3585
sg80
g3570
sg73
(lp3586
g66
(g67
g68
NtRp3587
(dp3588
g71
(dp3589
g79
I4
ssg80
g3583
sg73
(lp3590
g66
(g75
g68
NtRp3591
(dp3592
g71
(dp3593
g79
I3
ssg80
Nsg73
(lp3594
g66
(g82
g68
NtRp3595
(dp3596
g71
(dp3597
sg80
g3591
sg73
(lp3598
g66
(g87
g68
NtRp3599
(dp3600
g71
(dp3601
g91
g92
ssg80
g3595
sg73
(lp3602
S'email'
p3603
asbag66
(g87
g68
NtRp3604
(dp3605
g71
(dp3606
g98
g99
ssg80
g3595
sg73
(lp3607
S':'
asbag66
(g87
g68
NtRp3608
(dp3609
g71
(dp3610
sg80
g3595
sg73
(lp3611
g66
(g67
g68
NtRp3612
(dp3613
g71
(dp3614
g79
I3
ssg80
g3608
sg73
(lp3615
S'umang.goel@students.iiit.ac.in'
p3616
asbasbasbag66
(g82
g68
NtRp3617
(dp3618
g71
(dp3619
sg80
g3591
sg73
(lp3620
g66
(g87
g68
NtRp3621
(dp3622
g71
(dp3623
g91
g92
ssg80
g3617
sg73
(lp3624
S'first_name'
p3625
asbag66
(g87
g68
NtRp3626
(dp3627
g71
(dp3628
g98
g99
ssg80
g3617
sg73
(lp3629
S':'
asbag66
(g87
g68
NtRp3630
(dp3631
g71
(dp3632
sg80
g3617
sg73
(lp3633
g66
(g67
g68
NtRp3634
(dp3635
g71
(dp3636
g79
I3
ssg80
g3630
sg73
(lp3637
S'Umang'
p3638
asbasbasbag66
(g82
g68
NtRp3639
(dp3640
g71
(dp3641
sg80
g3591
sg73
(lp3642
g66
(g87
g68
NtRp3643
(dp3644
g71
(dp3645
g91
g92
ssg80
g3639
sg73
(lp3646
S'id'
p3647
asbag66
(g87
g68
NtRp3648
(dp3649
g71
(dp3650
g98
g99
ssg80
g3639
sg73
(lp3651
S':'
asbag66
(g87
g68
NtRp3652
(dp3653
g71
(dp3654
sg80
g3639
sg73
(lp3655
g66
(g67
g68
NtRp3656
(dp3657
g71
(dp3658
g79
I3
ssg80
g3652
sg73
(lp3659
S'1'
asbasbasbag66
(g82
g68
NtRp3660
(dp3661
g71
(dp3662
sg80
g3591
sg73
(lp3663
g66
(g87
g68
NtRp3664
(dp3665
g71
(dp3666
g91
g92
ssg80
g3660
sg73
(lp3667
S'last_name'
p3668
asbag66
(g87
g68
NtRp3669
(dp3670
g71
(dp3671
g98
g99
ssg80
g3660
sg73
(lp3672
S':'
asbag66
(g87
g68
NtRp3673
(dp3674
g71
(dp3675
sg80
g3660
sg73
(lp3676
g66
(g67
g68
NtRp3677
(dp3678
g71
(dp3679
g79
I3
ssg80
g3673
sg73
(lp3680
S'Goel'
p3681
asbasbasbag66
(g82
g68
NtRp3682
(dp3683
g71
(dp3684
sg80
g3591
sg73
(lp3685
g66
(g87
g68
NtRp3686
(dp3687
g71
(dp3688
g91
g92
ssg80
g3682
sg73
(lp3689
S'registration_id'
p3690
asbag66
(g87
g68
NtRp3691
(dp3692
g71
(dp3693
g98
g99
ssg80
g3682
sg73
(lp3694
S':'
asbag66
(g87
g68
NtRp3695
(dp3696
g71
(dp3697
sg80
g3682
sg73
(lp3698
g66
(g67
g68
NtRp3699
(dp3700
g71
(dp3701
g79
I3
ssg80
g3695
sg73
(lp3702
S''
asbasbasbag66
(g82
g68
NtRp3703
(dp3704
g71
(dp3705
sg80
g3591
sg73
(lp3706
g66
(g87
g68
NtRp3707
(dp3708
g71
(dp3709
g91
g92
ssg80
g3703
sg73
(lp3710
S'registration_key'
p3711
asbag66
(g87
g68
NtRp3712
(dp3713
g71
(dp3714
g98
g99
ssg80
g3703
sg73
(lp3715
S':'
asbag66
(g87
g68
NtRp3716
(dp3717
g71
(dp3718
sg80
g3703
sg73
(lp3719
g66
(g67
g68
NtRp3720
(dp3721
g71
(dp3722
g79
I3
ssg80
g3716
sg73
(lp3723
S''
asbasbasbag66
(g82
g68
NtRp3724
(dp3725
g71
(dp3726
sg80
g3591
sg73
(lp3727
g66
(g87
g68
NtRp3728
(dp3729
g71
(dp3730
g91
g92
ssg80
g3724
sg73
(lp3731
S'reset_password_key'
p3732
asbag66
(g87
g68
NtRp3733
(dp3734
g71
(dp3735
g98
g99
ssg80
g3724
sg73
(lp3736
S':'
asbag66
(g87
g68
NtRp3737
(dp3738
g71
(dp3739
sg80
g3724
sg73
(lp3740
g66
(g67
g68
NtRp3741
(dp3742
g71
(dp3743
g79
I3
ssg80
g3737
sg73
(lp3744
S''
asbasbasbasbasbasbasbag66
(g82
g68
NtRp3745
(dp3746
g71
(dp3747
sg80
g3479
sg73
(lp3748
g66
(g87
g68
NtRp3749
(dp3750
g71
(dp3751
g91
g92
ssg80
g3745
sg73
(lp3752
S'user_groups'
p3753
asbag66
(g87
g68
NtRp3754
(dp3755
g71
(dp3756
g98
g99
ssg80
g3745
sg73
(lp3757
S':'
asbag66
(g87
g68
NtRp3758
(dp3759
g71
(dp3760
sg80
g3745
sg73
(lp3761
g66
(g67
g68
NtRp3762
(dp3763
g71
(dp3764
g79
I4
ssg80
g3758
sg73
(lp3765
g66
(g75
g68
NtRp3766
(dp3767
g71
(dp3768
g79
I3
ssg80
Nsg73
(lp3769
g66
(g82
g68
NtRp3770
(dp3771
g71
(dp3772
sg80
g3766
sg73
(lp3773
g66
(g87
g68
NtRp3774
(dp3775
g71
(dp3776
g91
g92
ssg80
g3770
sg73
(lp3777
S'1'
asbag66
(g87
g68
NtRp3778
(dp3779
g71
(dp3780
g98
g99
ssg80
g3770
sg73
(lp3781
S':'
asbag66
(g87
g68
NtRp3782
(dp3783
g71
(dp3784
sg80
g3770
sg73
(lp3785
g66
(g67
g68
NtRp3786
(dp3787
g71
(dp3788
g79
I3
ssg80
g3782
sg73
(lp3789
S'user_1'
p3790
asbasbasbasbasbasbasbasbasbasbasbag66
(g82
g68
NtRp3791
(dp3792
g71
(dp3793
sg80
g3454
sg73
(lp3794
g66
(g87
g68
NtRp3795
(dp3796
g71
(dp3797
g91
g92
ssg80
g3791
sg73
(lp3798
S'flash'
p3799
asbag66
(g87
g68
NtRp3800
(dp3801
g71
(dp3802
g98
g99
ssg80
g3791
sg73
(lp3803
S':'
asbag66
(g87
g68
NtRp3804
(dp3805
g71
(dp3806
sg80
g3791
sg73
(lp3807
g66
(g67
g68
NtRp3808
(dp3809
g71
(dp3810
g79
I5
ssg80
g3804
sg73
(lp3811
S'None'
p3812
asbasbasbag66
(g82
g68
NtRp3813
(dp3814
g71
(dp3815
sg80
g3454
sg73
(lp3816
g66
(g87
g68
NtRp3817
(dp3818
g71
(dp3819
g91
g92
ssg80
g3813
sg73
(lp3820
S'last_orderby'
p3821
asbag66
(g87
g68
NtRp3822
(dp3823
g71
(dp3824
g98
g99
ssg80
g3813
sg73
(lp3825
S':'
asbag66
(g87
g68
NtRp3826
(dp3827
g71
(dp3828
sg80
g3813
sg73
(lp3829
g66
(g67
g68
NtRp3830
(dp3831
g71
(dp3832
g79
I5
ssg80
g3826
sg73
(lp3833
S'None'
p3834
asbasbasbag66
(g82
g68
NtRp3835
(dp3836
g71
(dp3837
sg80
g3454
sg73
(lp3838
g66
(g87
g68
NtRp3839
(dp3840
g71
(dp3841
g91
g92
ssg80
g3835
sg73
(lp3842
S'last_query'
p3843
asbag66
(g87
g68
NtRp3844
(dp3845
g71
(dp3846
g98
g99
ssg80
g3835
sg73
(lp3847
S':'
asbag66
(g87
g68
NtRp3848
(dp3849
g71
(dp3850
sg80
g3835
sg73
(lp3851
g66
(g67
g68
NtRp3852
(dp3853
g71
(dp3854
g79
I5
ssg80
g3848
sg73
(lp3855
S'db.rating.id>0'
p3856
asbasbasbasbasbsS'etype'
p3857
S"<type 'exceptions.SyntaxError'>"
p3858
sS'date'
p3859
S'Tue Aug 27 14:15:33 2013'
p3860
sS'response'
p3861
g66
(g67
g68
NtRp3862
(dp3863
g71
(dp3864
sg73
(lp3865
g66
(g75
g68
NtRp3866
(dp3867
g71
(dp3868
g79
I5
ssg80
Nsg73
(lp3869
g66
(g82
g68
NtRp3870
(dp3871
g71
(dp3872
sg80
g3866
sg73
(lp3873
g66
(g87
g68
NtRp3874
(dp3875
g71
(dp3876
g91
g92
ssg80
g3870
sg73
(lp3877
g188
asbag66
(g87
g68
NtRp3878
(dp3879
g71
(dp3880
g98
g99
ssg80
g3870
sg73
(lp3881
S':'
asbag66
(g87
g68
NtRp3882
(dp3883
g71
(dp3884
sg80
g3870
sg73
(lp3885
g66
(g67
g68
NtRp3886
(dp3887
g71
(dp3888
g79
I5
ssg80
g3882
sg73
(lp3889
S'<cStringIO.StringO object at 0x7f9514317420>'
p3890
asbasbasbag66
(g82
g68
NtRp3891
(dp3892
g71
(dp3893
sg80
g3866
sg73
(lp3894
g66
(g87
g68
NtRp3895
(dp3896
g71
(dp3897
g91
g92
ssg80
g3891
sg73
(lp3898
g276
asbag66
(g87
g68
NtRp3899
(dp3900
g71
(dp3901
g98
g99
ssg80
g3891
sg73
(lp3902
S':'
asbag66
(g87
g68
NtRp3903
(dp3904
g71
(dp3905
sg80
g3891
sg73
(lp3906
g66
(g67
g68
NtRp3907
(dp3908
g71
(dp3909
g79
I5
ssg80
g3903
sg73
(lp3910
g66
(g75
g68
NtRp3911
(dp3912
g71
(dp3913
g79
I4
ssg80
Nsg73
(lp3914
g66
(g82
g68
NtRp3915
(dp3916
g71
(dp3917
sg80
g3911
sg73
(lp3918
g66
(g87
g68
NtRp3919
(dp3920
g71
(dp3921
g91
g92
ssg80
g3915
sg73
(lp3922
S'session_id_assignmen3'
p3923
asbag66
(g87
g68
NtRp3924
(dp3925
g71
(dp3926
g98
g99
ssg80
g3915
sg73
(lp3927
S':'
asbag66
(g87
g68
NtRp3928
(dp3929
g71
(dp3930
sg80
g3915
sg73
(lp3931
g66
(g67
g68
NtRp3932
(dp3933
g71
(dp3934
g79
I4
ssg80
g3928
sg73
(lp3935
g508
ag66
(g75
g68
NtRp3936
(dp3937
g71
(dp3938
g79
I3
ssg80
Nsg73
(lp3939
g66
(g82
g68
NtRp3940
(dp3941
g71
(dp3942
sg80
g3936
sg73
(lp3943
g66
(g87
g68
NtRp3944
(dp3945
g71
(dp3946
g91
g92
ssg80
g3940
sg73
(lp3947
g327
asbag66
(g87
g68
NtRp3948
(dp3949
g71
(dp3950
g98
g99
ssg80
g3940
sg73
(lp3951
S':'
asbag66
(g87
g68
NtRp3952
(dp3953
g71
(dp3954
sg80
g3940
sg73
(lp3955
g66
(g67
g68
NtRp3956
(dp3957
g71
(dp3958
g79
I3
ssg80
g3952
sg73
(lp3959
S''
asbasbasbag66
(g82
g68
NtRp3960
(dp3961
g71
(dp3962
sg80
g3936
sg73
(lp3963
g66
(g87
g68
NtRp3964
(dp3965
g71
(dp3966
g91
g92
ssg80
g3960
sg73
(lp3967
g348
asbag66
(g87
g68
NtRp3968
(dp3969
g71
(dp3970
g98
g99
ssg80
g3960
sg73
(lp3971
S':'
asbag66
(g87
g68
NtRp3972
(dp3973
g71
(dp3974
sg80
g3960
sg73
(lp3975
g66
(g67
g68
NtRp3976
(dp3977
g71
(dp3978
g79
I3
ssg80
g3972
sg73
(lp3979
S''
asbasbasbag66
(g82
g68
NtRp3980
(dp3981
g71
(dp3982
sg80
g3936
sg73
(lp3983
g66
(g87
g68
NtRp3984
(dp3985
g71
(dp3986
g91
g92
ssg80
g3980
sg73
(lp3987
g369
asbag66
(g87
g68
NtRp3988
(dp3989
g71
(dp3990
g98
g99
ssg80
g3980
sg73
(lp3991
S':'
asbag66
(g87
g68
NtRp3992
(dp3993
g71
(dp3994
sg80
g3980
sg73
(lp3995
g66
(g67
g68
NtRp3996
(dp3997
g71
(dp3998
g79
I3
ssg80
g3992
sg73
(lp3999
S''
asbasbasbag66
(g82
g68
NtRp4000
(dp4001
g71
(dp4002
sg80
g3936
sg73
(lp4003
g66
(g87
g68
NtRp4004
(dp4005
g71
(dp4006
g91
g92
ssg80
g4000
sg73
(lp4007
g390
asbag66
(g87
g68
NtRp4008
(dp4009
g71
(dp4010
g98
g99
ssg80
g4000
sg73
(lp4011
S':'
asbag66
(g87
g68
NtRp4012
(dp4013
g71
(dp4014
sg80
g4000
sg73
(lp4015
g66
(g67
g68
NtRp4016
(dp4017
g71
(dp4018
g79
I3
ssg80
g4012
sg73
(lp4019
S''
asbasbasbag66
(g82
g68
NtRp4020
(dp4021
g71
(dp4022
sg80
g3936
sg73
(lp4023
g66
(g87
g68
NtRp4024
(dp4025
g71
(dp4026
g91
g92
ssg80
g4020
sg73
(lp4027
g411
asbag66
(g87
g68
NtRp4028
(dp4029
g71
(dp4030
g98
g99
ssg80
g4020
sg73
(lp4031
S':'
asbag66
(g87
g68
NtRp4032
(dp4033
g71
(dp4034
sg80
g4020
sg73
(lp4035
g66
(g67
g68
NtRp4036
(dp4037
g71
(dp4038
g79
I3
ssg80
g4032
sg73
(lp4039
S''
asbasbasbag66
(g82
g68
NtRp4040
(dp4041
g71
(dp4042
sg80
g3936
sg73
(lp4043
g66
(g87
g68
NtRp4044
(dp4045
g71
(dp4046
g91
g92
ssg80
g4040
sg73
(lp4047
g432
asbag66
(g87
g68
NtRp4048
(dp4049
g71
(dp4050
g98
g99
ssg80
g4040
sg73
(lp4051
S':'
asbag66
(g87
g68
NtRp4052
(dp4053
g71
(dp4054
sg80
g4040
sg73
(lp4055
g66
(g67
g68
NtRp4056
(dp4057
g71
(dp4058
g79
I3
ssg80
g4052
sg73
(lp4059
S'/'
asbasbasbag66
(g82
g68
NtRp4060
(dp4061
g71
(dp4062
sg80
g3936
sg73
(lp4063
g66
(g87
g68
NtRp4064
(dp4065
g71
(dp4066
g91
g92
ssg80
g4060
sg73
(lp4067
g453
asbag66
(g87
g68
NtRp4068
(dp4069
g71
(dp4070
g98
g99
ssg80
g4060
sg73
(lp4071
S':'
asbag66
(g87
g68
NtRp4072
(dp4073
g71
(dp4074
sg80
g4060
sg73
(lp4075
g66
(g67
g68
NtRp4076
(dp4077
g71
(dp4078
g79
I3
ssg80
g4072
sg73
(lp4079
S''
asbasbasbag66
(g82
g68
NtRp4080
(dp4081
g71
(dp4082
sg80
g3936
sg73
(lp4083
g66
(g87
g68
NtRp4084
(dp4085
g71
(dp4086
g91
g92
ssg80
g4080
sg73
(lp4087
g474
asbag66
(g87
g68
NtRp4088
(dp4089
g71
(dp4090
g98
g99
ssg80
g4080
sg73
(lp4091
S':'
asbag66
(g87
g68
NtRp4092
(dp4093
g71
(dp4094
sg80
g4080
sg73
(lp4095
g66
(g67
g68
NtRp4096
(dp4097
g71
(dp4098
g79
I3
ssg80
g4092
sg73
(lp4099
S''
asbasbasbasbasbasbasbasbasbasbasbag66
(g82
g68
NtRp4100
(dp4101
g71
(dp4102
sg80
g3866
sg73
(lp4103
g66
(g87
g68
NtRp4104
(dp4105
g71
(dp4106
g91
g92
ssg80
g4100
sg73
(lp4107
S'delimiters'
p4108
asbag66
(g87
g68
NtRp4109
(dp4110
g71
(dp4111
g98
g99
ssg80
g4100
sg73
(lp4112
S':'
asbag66
(g87
g68
NtRp4113
(dp4114
g71
(dp4115
sg80
g4100
sg73
(lp4116
g66
(g67
g68
NtRp4117
(dp4118
g71
(dp4119
g79
I5
ssg80
g4113
sg73
(lp4120
g66
(g75
g68
NtRp4121
(dp4122
g71
(dp4123
g79
I4
ssg80
Nsg73
(lp4124
g66
(g82
g68
NtRp4125
(dp4126
g71
(dp4127
sg80
g4121
sg73
(lp4128
g66
(g87
g68
NtRp4129
(dp4130
g71
(dp4131
sg80
g4125
sg73
(lp4132
g66
(g67
g68
NtRp4133
(dp4134
g71
(dp4135
g79
I4
ssg80
g4129
sg73
(lp4136
S'{{'
p4137
asbasbasbag66
(g82
g68
NtRp4138
(dp4139
g71
(dp4140
sg80
g4121
sg73
(lp4141
g66
(g87
g68
NtRp4142
(dp4143
g71
(dp4144
sg80
g4138
sg73
(lp4145
g66
(g67
g68
NtRp4146
(dp4147
g71
(dp4148
g79
I4
ssg80
g4142
sg73
(lp4149
S'}}'
p4150
asbasbasbasbasbasbasbag66
(g82
g68
NtRp4151
(dp4152
g71
(dp4153
sg80
g3866
sg73
(lp4154
g66
(g87
g68
NtRp4155
(dp4156
g71
(dp4157
g91
g92
ssg80
g4151
sg73
(lp4158
S'files'
p4159
asbag66
(g87
g68
NtRp4160
(dp4161
g71
(dp4162
g98
g99
ssg80
g4151
sg73
(lp4163
S':'
asbag66
(g87
g68
NtRp4164
(dp4165
g71
(dp4166
sg80
g4151
sg73
(lp4167
g66
(g67
g68
NtRp4168
(dp4169
g71
(dp4170
g79
I5
ssg80
g4164
sg73
(lp4171
g66
(g75
g68
NtRp4172
(dp4173
g71
(dp4174
g79
I4
ssg80
Nsg73
(lp4175
sbasbasbasbag66
(g82
g68
NtRp4176
(dp4177
g71
(dp4178
sg80
g3866
sg73
(lp4179
g66
(g87
g68
NtRp4180
(dp4181
g71
(dp4182
g91
g92
ssg80
g4176
sg73
(lp4183
S'flash'
p4184
asbag66
(g87
g68
NtRp4185
(dp4186
g71
(dp4187
g98
g99
ssg80
g4176
sg73
(lp4188
S':'
asbag66
(g87
g68
NtRp4189
(dp4190
g71
(dp4191
sg80
g4176
sg73
(lp4192
g66
(g67
g68
NtRp4193
(dp4194
g71
(dp4195
g79
I5
ssg80
g4189
sg73
(lp4196
S''
asbasbasbag66
(g82
g68
NtRp4197
(dp4198
g71
(dp4199
sg80
g3866
sg73
(lp4200
g66
(g87
g68
NtRp4201
(dp4202
g71
(dp4203
g91
g92
ssg80
g4197
sg73
(lp4204
S'generic_patterns'
p4205
asbag66
(g87
g68
NtRp4206
(dp4207
g71
(dp4208
g98
g99
ssg80
g4197
sg73
(lp4209
S':'
asbag66
(g87
g68
NtRp4210
(dp4211
g71
(dp4212
sg80
g4197
sg73
(lp4213
g66
(g67
g68
NtRp4214
(dp4215
g71
(dp4216
g79
I5
ssg80
g4210
sg73
(lp4217
g66
(g75
g68
NtRp4218
(dp4219
g71
(dp4220
g79
I4
ssg80
Nsg73
(lp4221
g66
(g82
g68
NtRp4222
(dp4223
g71
(dp4224
sg80
g4218
sg73
(lp4225
g66
(g87
g68
NtRp4226
(dp4227
g71
(dp4228
sg80
g4222
sg73
(lp4229
g66
(g67
g68
NtRp4230
(dp4231
g71
(dp4232
g79
I4
ssg80
g4226
sg73
(lp4233
S'*'
asbasbasbasbasbasbasbag66
(g82
g68
NtRp4234
(dp4235
g71
(dp4236
sg80
g3866
sg73
(lp4237
g66
(g87
g68
NtRp4238
(dp4239
g71
(dp4240
g91
g92
ssg80
g4234
sg73
(lp4241
S'google_analytics_id'
p4242
asbag66
(g87
g68
NtRp4243
(dp4244
g71
(dp4245
g98
g99
ssg80
g4234
sg73
(lp4246
S':'
asbag66
(g87
g68
NtRp4247
(dp4248
g71
(dp4249
sg80
g4234
sg73
(lp4250
g66
(g67
g68
NtRp4251
(dp4252
g71
(dp4253
g79
I5
ssg80
g4247
sg73
(lp4254
S'None'
p4255
asbasbasbag66
(g82
g68
NtRp4256
(dp4257
g71
(dp4258
sg80
g3866
sg73
(lp4259
g66
(g87
g68
NtRp4260
(dp4261
g71
(dp4262
g91
g92
ssg80
g4256
sg73
(lp4263
S'headers'
p4264
asbag66
(g87
g68
NtRp4265
(dp4266
g71
(dp4267
g98
g99
ssg80
g4256
sg73
(lp4268
S':'
asbag66
(g87
g68
NtRp4269
(dp4270
g71
(dp4271
sg80
g4256
sg73
(lp4272
g66
(g67
g68
NtRp4273
(dp4274
g71
(dp4275
g79
I5
ssg80
g4269
sg73
(lp4276
g66
(g75
g68
NtRp4277
(dp4278
g71
(dp4279
g79
I4
ssg80
Nsg73
(lp4280
g66
(g82
g68
NtRp4281
(dp4282
g71
(dp4283
sg80
g4277
sg73
(lp4284
g66
(g87
g68
NtRp4285
(dp4286
g71
(dp4287
g91
g92
ssg80
g4281
sg73
(lp4288
S'X-Powered-By'
p4289
asbag66
(g87
g68
NtRp4290
(dp4291
g71
(dp4292
g98
g99
ssg80
g4281
sg73
(lp4293
S':'
asbag66
(g87
g68
NtRp4294
(dp4295
g71
(dp4296
sg80
g4281
sg73
(lp4297
g66
(g67
g68
NtRp4298
(dp4299
g71
(dp4300
g79
I4
ssg80
g4294
sg73
(lp4301
S'web2py'
p4302
asbasbasbasbasbasbasbag66
(g82
g68
NtRp4303
(dp4304
g71
(dp4305
sg80
g3866
sg73
(lp4306
g66
(g87
g68
NtRp4307
(dp4308
g71
(dp4309
g91
g92
ssg80
g4303
sg73
(lp4310
S'logo'
p4311
asbag66
(g87
g68
NtRp4312
(dp4313
g71
(dp4314
g98
g99
ssg80
g4303
sg73
(lp4315
S':'
asbag66
(g87
g68
NtRp4316
(dp4317
g71
(dp4318
sg80
g4303
sg73
(lp4319
g66
(g67
g68
NtRp4320
(dp4321
g71
(dp4322
g79
I5
ssg80
g4316
sg73
(lp4323
g66
(cgluon.html
A
p4324
g68
NtRp4325
(dp4326
g71
(dp4327
S'_class'
p4328
S'brand'
p4329
sS'_href'
p4330
S'http://www.web2py.com/'
p4331
ssg80
Nsg73
(lp4332
g66
(cgluon.html
B
p4333
g68
NtRp4334
(dp4335
g71
(dp4336
sg80
g4325
sg73
(lp4337
S'web'
p4338
ag66
(cgluon.html
SPAN
p4339
g68
NtRp4340
(dp4341
g71
(dp4342
sg80
g4334
sg73
(lp4343
I2
asbaS'py'
p4344
asbacgluon.html
XML_unpickle
p4345
(S's\r\x00\x00\x00&trade;&nbsp;'
tRp4346
asbasbasbasbag66
(g82
g68
NtRp4347
(dp4348
g71
(dp4349
sg80
g3866
sg73
(lp4350
g66
(g87
g68
NtRp4351
(dp4352
g71
(dp4353
g91
g92
ssg80
g4347
sg73
(lp4354
S'menu'
p4355
asbag66
(g87
g68
NtRp4356
(dp4357
g71
(dp4358
g98
g99
ssg80
g4347
sg73
(lp4359
S':'
asbag66
(g87
g68
NtRp4360
(dp4361
g71
(dp4362
sg80
g4347
sg73
(lp4363
g66
(g67
g68
NtRp4364
(dp4365
g71
(dp4366
g79
I5
ssg80
g4360
sg73
(lp4367
g66
(g75
g68
NtRp4368
(dp4369
g71
(dp4370
g79
I4
ssg80
Nsg73
(lp4371
g66
(g82
g68
NtRp4372
(dp4373
g71
(dp4374
sg80
g4368
sg73
(lp4375
g66
(g87
g68
NtRp4376
(dp4377
g71
(dp4378
sg80
g4372
sg73
(lp4379
g66
(g67
g68
NtRp4380
(dp4381
g71
(dp4382
g79
I4
ssg80
g4376
sg73
(lp4383
g66
(g75
g68
NtRp4384
(dp4385
g71
(dp4386
g79
I3
ssg80
Nsg73
(lp4387
g66
(g82
g68
NtRp4388
(dp4389
g71
(dp4390
sg80
g4384
sg73
(lp4391
g66
(g87
g68
NtRp4392
(dp4393
g71
(dp4394
sg80
g4388
sg73
(lp4395
g66
(g67
g68
NtRp4396
(dp4397
g71
(dp4398
g79
I3
ssg80
g4392
sg73
(lp4399
cgluon.languages
lazyT_unpickle
p4400
(S's\x04\x00\x00\x00Home'
tRp4401
asbasbasbag66
(g82
g68
NtRp4402
(dp4403
g71
(dp4404
sg80
g4384
sg73
(lp4405
g66
(g87
g68
NtRp4406
(dp4407
g71
(dp4408
sg80
g4402
sg73
(lp4409
g66
(g67
g68
NtRp4410
(dp4411
g71
(dp4412
g79
I3
ssg80
g4406
sg73
(lp4413
g109
asbasbasbag66
(g82
g68
NtRp4414
(dp4415
g71
(dp4416
sg80
g4384
sg73
(lp4417
g66
(g87
g68
NtRp4418
(dp4419
g71
(dp4420
sg80
g4414
sg73
(lp4421
g66
(g67
g68
NtRp4422
(dp4423
g71
(dp4424
g79
I3
ssg80
g4418
sg73
(lp4425
S'/assignmen3/default/index'
p4426
asbasbasbag66
(g82
g68
NtRp4427
(dp4428
g71
(dp4429
sg80
g4384
sg73
(lp4430
g66
(g87
g68
NtRp4431
(dp4432
g71
(dp4433
sg80
g4427
sg73
(lp4434
g66
(g67
g68
NtRp4435
(dp4436
g71
(dp4437
g79
I3
ssg80
g4431
sg73
(lp4438
g66
(g75
g68
NtRp4439
(dp4440
g71
(dp4441
g79
I2
ssg80
Nsg73
(lp4442
sbasbasbasbasbasbasbasbag66
(g82
g68
NtRp4443
(dp4444
g71
(dp4445
sg80
g4368
sg73
(lp4446
g66
(g87
g68
NtRp4447
(dp4448
g71
(dp4449
sg80
g4443
sg73
(lp4450
g66
(g67
g68
NtRp4451
(dp4452
g71
(dp4453
g79
I4
ssg80
g4447
sg73
(lp4454
g66
(g75
g68
NtRp4455
(dp4456
g71
(dp4457
g79
I3
ssg80
Nsg73
(lp4458
g66
(g82
g68
NtRp4459
(dp4460
g71
(dp4461
sg80
g4455
sg73
(lp4462
g66
(g87
g68
NtRp4463
(dp4464
g71
(dp4465
sg80
g4459
sg73
(lp4466
g66
(g67
g68
NtRp4467
(dp4468
g71
(dp4469
g79
I3
ssg80
g4463
sg73
(lp4470
g66
(g4339
g68
NtRp4471
(dp4472
g71
(dp4473
g4328
S'highlighted'
p4474
ssg80
Nsg73
(lp4475
g4302
asbasbasbasbag66
(g82
g68
NtRp4476
(dp4477
g71
(dp4478
sg80
g4455
sg73
(lp4479
g66
(g87
g68
NtRp4480
(dp4481
g71
(dp4482
sg80
g4476
sg73
(lp4483
g66
(g67
g68
NtRp4484
(dp4485
g71
(dp4486
g79
I3
ssg80
g4480
sg73
(lp4487
g109
asbasbasbag66
(g82
g68
NtRp4488
(dp4489
g71
(dp4490
sg80
g4455
sg73
(lp4491
g66
(g87
g68
NtRp4492
(dp4493
g71
(dp4494
sg80
g4488
sg73
(lp4495
g66
(g67
g68
NtRp4496
(dp4497
g71
(dp4498
g79
I3
ssg80
g4492
sg73
(lp4499
S'http://web2py.com'
p4500
asbasbasbag66
(g82
g68
NtRp4501
(dp4502
g71
(dp4503
sg80
g4455
sg73
(lp4504
g66
(g87
g68
NtRp4505
(dp4506
g71
(dp4507
sg80
g4501
sg73
(lp4508
g66
(g67
g68
NtRp4509
(dp4510
g71
(dp4511
g79
I3
ssg80
g4505
sg73
(lp4512
g66
(g75
g68
NtRp4513
(dp4514
g71
(dp4515
g79
I2
ssg80
Nsg73
(lp4516
g66
(g82
g68
NtRp4517
(dp4518
g71
(dp4519
sg80
g4513
sg73
(lp4520
g66
(g87
g68
NtRp4521
(dp4522
g71
(dp4523
sg80
g4517
sg73
(lp4524
g66
(g67
g68
NtRp4525
(dp4526
g71
(dp4527
g79
I2
ssg80
g4521
sg73
(lp4528
g66
(g75
g68
NtRp4529
(dp4530
g71
(dp4531
g79
I1
ssg80
Nsg73
(lp4532
g66
(g82
g68
NtRp4533
(dp4534
g71
(dp4535
sg80
g4529
sg73
(lp4536
g66
(g87
g68
NtRp4537
(dp4538
g71
(dp4539
sg80
g4533
sg73
(lp4540
g66
(g67
g68
NtRp4541
(dp4542
g71
(dp4543
g79
I1
ssg80
g4537
sg73
(lp4544
g4400
(S's\x08\x00\x00\x00My Sites'
tRp4545
asbasbasbag66
(g82
g68
NtRp4546
(dp4547
g71
(dp4548
sg80
g4529
sg73
(lp4549
g66
(g87
g68
NtRp4550
(dp4551
g71
(dp4552
sg80
g4546
sg73
(lp4553
g66
(g67
g68
NtRp4554
(dp4555
g71
(dp4556
g79
I1
ssg80
g4550
sg73
(lp4557
I00
asbasbasbag66
(g82
g68
NtRp4558
(dp4559
g71
(dp4560
sg80
g4529
sg73
(lp4561
g66
(g87
g68
NtRp4562
(dp4563
g71
(dp4564
sg80
g4558
sg73
(lp4565
g66
(g67
g68
NtRp4566
(dp4567
g71
(dp4568
g79
I1
ssg80
g4562
sg73
(lp4569
S'/admin/default/site'
p4570
asbasbasbasbasbasbasbag66
(g82
g68
NtRp4571
(dp4572
g71
(dp4573
sg80
g4513
sg73
(lp4574
g66
(g87
g68
NtRp4575
(dp4576
g71
(dp4577
sg80
g4571
sg73
(lp4578
g66
(g67
g68
NtRp4579
(dp4580
g71
(dp4581
g79
I2
ssg80
g4575
sg73
(lp4582
g66
(g75
g68
NtRp4583
(dp4584
g71
(dp4585
g79
I1
ssg80
Nsg73
(lp4586
g66
(g82
g68
NtRp4587
(dp4588
g71
(dp4589
sg80
g4583
sg73
(lp4590
g66
(g87
g68
NtRp4591
(dp4592
g71
(dp4593
sg80
g4587
sg73
(lp4594
g66
(g67
g68
NtRp4595
(dp4596
g71
(dp4597
g79
I1
ssg80
g4591
sg73
(lp4598
g4400
(S's\x08\x00\x00\x00This App'
tRp4599
asbasbasbag66
(g82
g68
NtRp4600
(dp4601
g71
(dp4602
sg80
g4583
sg73
(lp4603
g66
(g87
g68
NtRp4604
(dp4605
g71
(dp4606
sg80
g4600
sg73
(lp4607
g66
(g67
g68
NtRp4608
(dp4609
g71
(dp4610
g79
I1
ssg80
g4604
sg73
(lp4611
I00
asbasbasbag66
(g82
g68
NtRp4612
(dp4613
g71
(dp4614
sg80
g4583
sg73
(lp4615
g66
(g87
g68
NtRp4616
(dp4617
g71
(dp4618
sg80
g4612
sg73
(lp4619
g66
(g67
g68
NtRp4620
(dp4621
g71
(dp4622
g79
I1
ssg80
g4616
sg73
(lp4623
S'/admin/default/design/assignmen3'
p4624
asbasbasbag66
(g82
g68
NtRp4625
(dp4626
g71
(dp4627
sg80
g4583
sg73
(lp4628
g66
(g87
g68
NtRp4629
(dp4630
g71
(dp4631
sg80
g4625
sg73
(lp4632
g66
(g67
g68
NtRp4633
(dp4634
g71
(dp4635
g79
I1
ssg80
g4629
sg73
(lp4636
(lp4637
(g4400
(S's\n\x00\x00\x00Controller'
tRp4638
I00
S'/admin/default/edit/assignmen3/controllers/default.py'
tp4639
a(g4400
(S's\x04\x00\x00\x00View'
tRp4640
I00
S'/admin/default/edit/assignmen3/views/default/like.html'
tp4641
a(g4400
(S's\x06\x00\x00\x00Layout'
tRp4642
I00
S'/admin/default/edit/assignmen3/views/layout.html'
tp4643
a(g4400
(S's\n\x00\x00\x00Stylesheet'
tRp4644
I00
S'/admin/default/edit/assignmen3/static/css/web2py.css'
tp4645
a(g4400
(S's\x08\x00\x00\x00DB Model'
tRp4646
I00
S'/admin/default/edit/assignmen3/models/db.py'
tp4647
a(g4400
(S's\n\x00\x00\x00Menu Model'
tRp4648
I00
S'/admin/default/edit/assignmen3/models/menu.py'
tp4649
a(g4400
(S's\x08\x00\x00\x00Database'
tRp4650
I00
S'/assignmen3/appadmin/index'
tp4651
a(g4400
(S's\x06\x00\x00\x00Errors'
tRp4652
I00
S'/admin/default/errors/assignmen3'
tp4653
a(g4400
(S's\x05\x00\x00\x00About'
tRp4654
I00
S'/admin/default/about/assignmen3'
tp4655
aasbasbasbasbasbasbasbag66
(g82
g68
NtRp4656
(dp4657
g71
(dp4658
sg80
g4513
sg73
(lp4659
g66
(g87
g68
NtRp4660
(dp4661
g71
(dp4662
sg80
g4656
sg73
(lp4663
g66
(g67
g68
NtRp4664
(dp4665
g71
(dp4666
g79
I2
ssg80
g4660
sg73
(lp4667
g66
(g75
g68
NtRp4668
(dp4669
g71
(dp4670
g79
I1
ssg80
Nsg73
(lp4671
g66
(g82
g68
NtRp4672
(dp4673
g71
(dp4674
sg80
g4668
sg73
(lp4675
g66
(g87
g68
NtRp4676
(dp4677
g71
(dp4678
sg80
g4672
sg73
(lp4679
g66
(g67
g68
NtRp4680
(dp4681
g71
(dp4682
g79
I1
ssg80
g4676
sg73
(lp4683
S'web2py.com'
p4684
asbasbasbag66
(g82
g68
NtRp4685
(dp4686
g71
(dp4687
sg80
g4668
sg73
(lp4688
g66
(g87
g68
NtRp4689
(dp4690
g71
(dp4691
sg80
g4685
sg73
(lp4692
g66
(g67
g68
NtRp4693
(dp4694
g71
(dp4695
g79
I1
ssg80
g4689
sg73
(lp4696
I00
asbasbasbag66
(g82
g68
NtRp4697
(dp4698
g71
(dp4699
sg80
g4668
sg73
(lp4700
g66
(g87
g68
NtRp4701
(dp4702
g71
(dp4703
sg80
g4697
sg73
(lp4704
g66
(g67
g68
NtRp4705
(dp4706
g71
(dp4707
g79
I1
ssg80
g4701
sg73
(lp4708
S'http://www.web2py.com'
p4709
asbasbasbag66
(g82
g68
NtRp4710
(dp4711
g71
(dp4712
sg80
g4668
sg73
(lp4713
g66
(g87
g68
NtRp4714
(dp4715
g71
(dp4716
sg80
g4710
sg73
(lp4717
g66
(g67
g68
NtRp4718
(dp4719
g71
(dp4720
g79
I1
ssg80
g4714
sg73
(lp4721
(lp4722
(g4400
(S's\x08\x00\x00\x00Download'
tRp4723
I00
S'http://www.web2py.com/examples/default/download'
p4724
tp4725
a(g4400
(S's\x07\x00\x00\x00Support'
tRp4726
I00
S'http://www.web2py.com/examples/default/support'
p4727
tp4728
a(g4400
(S's\x04\x00\x00\x00Demo'
tRp4729
I00
S'http://web2py.com/demo_admin'
p4730
tp4731
a(g4400
(S's\x0e\x00\x00\x00Quick Examples'
tRp4732
I00
S'http://web2py.com/examples/default/examples'
p4733
tp4734
a(g4400
(S's\x03\x00\x00\x00FAQ'
tRp4735
I00
S'http://web2py.com/AlterEgo'
p4736
tp4737
a(g4400
(S's\x06\x00\x00\x00Videos'
tRp4738
I00
S'http://www.web2py.com/examples/default/videos/'
p4739
tp4740
a(g4400
(S's\x11\x00\x00\x00Free Applications'
tRp4741
I00
S'http://web2py.com/appliances'
p4742
tp4743
a(g4400
(S's\x07\x00\x00\x00Plugins'
tRp4744
I00
S'http://web2py.com/plugins'
p4745
tp4746
a(g4400
(S's\x07\x00\x00\x00Layouts'
tRp4747
I00
S'http://web2py.com/layouts'
p4748
tp4749
a(g4400
(S's\x07\x00\x00\x00Recipes'
tRp4750
I00
S'http://web2pyslices.com/'
p4751
tp4752
a(g4400
(S's\x08\x00\x00\x00Semantic'
tRp4753
I00
S'http://web2py.com/semantic'
p4754
tp4755
aasbasbasbasbasbasbasbag66
(g82
g68
NtRp4756
(dp4757
g71
(dp4758
sg80
g4513
sg73
(lp4759
g66
(g87
g68
NtRp4760
(dp4761
g71
(dp4762
sg80
g4756
sg73
(lp4763
g66
(g67
g68
NtRp4764
(dp4765
g71
(dp4766
g79
I2
ssg80
g4760
sg73
(lp4767
g66
(g75
g68
NtRp4768
(dp4769
g71
(dp4770
g79
I1
ssg80
Nsg73
(lp4771
g66
(g82
g68
NtRp4772
(dp4773
g71
(dp4774
sg80
g4768
sg73
(lp4775
g66
(g87
g68
NtRp4776
(dp4777
g71
(dp4778
sg80
g4772
sg73
(lp4779
g66
(g67
g68
NtRp4780
(dp4781
g71
(dp4782
g79
I1
ssg80
g4776
sg73
(lp4783
g4400
(S's\r\x00\x00\x00Documentation'
tRp4784
asbasbasbag66
(g82
g68
NtRp4785
(dp4786
g71
(dp4787
sg80
g4768
sg73
(lp4788
g66
(g87
g68
NtRp4789
(dp4790
g71
(dp4791
sg80
g4785
sg73
(lp4792
g66
(g67
g68
NtRp4793
(dp4794
g71
(dp4795
g79
I1
ssg80
g4789
sg73
(lp4796
I00
asbasbasbag66
(g82
g68
NtRp4797
(dp4798
g71
(dp4799
sg80
g4768
sg73
(lp4800
g66
(g87
g68
NtRp4801
(dp4802
g71
(dp4803
sg80
g4797
sg73
(lp4804
g66
(g67
g68
NtRp4805
(dp4806
g71
(dp4807
g79
I1
ssg80
g4801
sg73
(lp4808
S'http://www.web2py.com/book'
p4809
asbasbasbag66
(g82
g68
NtRp4810
(dp4811
g71
(dp4812
sg80
g4768
sg73
(lp4813
g66
(g87
g68
NtRp4814
(dp4815
g71
(dp4816
sg80
g4810
sg73
(lp4817
g66
(g67
g68
NtRp4818
(dp4819
g71
(dp4820
g79
I1
ssg80
g4814
sg73
(lp4821
(lp4822
(g4400
(S's\x07\x00\x00\x00Preface'
tRp4823
I00
S'http://www.web2py.com/book/default/chapter/00'
p4824
tp4825
a(g4400
(S's\x0c\x00\x00\x00Introduction'
tRp4826
I00
S'http://www.web2py.com/book/default/chapter/01'
p4827
tp4828
a(g4400
(S's\x06\x00\x00\x00Python'
tRp4829
I00
S'http://www.web2py.com/book/default/chapter/02'
p4830
tp4831
a(g4400
(S's\x08\x00\x00\x00Overview'
tRp4832
I00
S'http://www.web2py.com/book/default/chapter/03'
p4833
tp4834
a(g4400
(S's\x08\x00\x00\x00The Core'
tRp4835
I00
S'http://www.web2py.com/book/default/chapter/04'
p4836
tp4837
a(g4400
(S's\t\x00\x00\x00The Views'
tRp4838
I00
S'http://www.web2py.com/book/default/chapter/05'
p4839
tp4840
a(g4400
(S's\x08\x00\x00\x00Database'
tRp4841
I00
S'http://www.web2py.com/book/default/chapter/06'
p4842
tp4843
a(g4400
(S's\x14\x00\x00\x00Forms and Validators'
tRp4844
I00
S'http://www.web2py.com/book/default/chapter/07'
p4845
tp4846
a(g4400
(S's\r\x00\x00\x00Email and SMS'
tRp4847
I00
S'http://www.web2py.com/book/default/chapter/08'
p4848
tp4849
a(g4400
(S's\x0e\x00\x00\x00Access Control'
tRp4850
I00
S'http://www.web2py.com/book/default/chapter/09'
p4851
tp4852
a(g4400
(S's\x08\x00\x00\x00Services'
tRp4853
I00
S'http://www.web2py.com/book/default/chapter/10'
p4854
tp4855
a(g4400
(S's\x0c\x00\x00\x00Ajax Recipes'
tRp4856
I00
S'http://www.web2py.com/book/default/chapter/11'
p4857
tp4858
a(g4400
(S's\x16\x00\x00\x00Components and Plugins'
tRp4859
I00
S'http://www.web2py.com/book/default/chapter/12'
p4860
tp4861
a(g4400
(S's\x12\x00\x00\x00Deployment Recipes'
tRp4862
I00
S'http://www.web2py.com/book/default/chapter/13'
p4863
tp4864
a(g4400
(S's\r\x00\x00\x00Other Recipes'
tRp4865
I00
S'http://www.web2py.com/book/default/chapter/14'
p4866
tp4867
a(g4400
(S's\r\x00\x00\x00Buy this book'
tRp4868
I00
S'http://stores.lulu.com/web2py'
p4869
tp4870
aasbasbasbasbasbasbasbag66
(g82
g68
NtRp4871
(dp4872
g71
(dp4873
sg80
g4513
sg73
(lp4874
g66
(g87
g68
NtRp4875
(dp4876
g71
(dp4877
sg80
g4871
sg73
(lp4878
g66
(g67
g68
NtRp4879
(dp4880
g71
(dp4881
g79
I2
ssg80
g4875
sg73
(lp4882
g66
(g75
g68
NtRp4883
(dp4884
g71
(dp4885
g79
I1
ssg80
Nsg73
(lp4886
g66
(g82
g68
NtRp4887
(dp4888
g71
(dp4889
sg80
g4883
sg73
(lp4890
g66
(g87
g68
NtRp4891
(dp4892
g71
(dp4893
sg80
g4887
sg73
(lp4894
g66
(g67
g68
NtRp4895
(dp4896
g71
(dp4897
g79
I1
ssg80
g4891
sg73
(lp4898
g4400
(S's\t\x00\x00\x00Community'
tRp4899
asbasbasbag66
(g82
g68
NtRp4900
(dp4901
g71
(dp4902
sg80
g4883
sg73
(lp4903
g66
(g87
g68
NtRp4904
(dp4905
g71
(dp4906
sg80
g4900
sg73
(lp4907
g66
(g67
g68
NtRp4908
(dp4909
g71
(dp4910
g79
I1
ssg80
g4904
sg73
(lp4911
I00
asbasbasbag66
(g82
g68
NtRp4912
(dp4913
g71
(dp4914
sg80
g4883
sg73
(lp4915
g66
(g87
g68
NtRp4916
(dp4917
g71
(dp4918
sg80
g4912
sg73
(lp4919
g66
(g67
g68
NtRp4920
(dp4921
g71
(dp4922
g79
I1
ssg80
g4916
sg73
(lp4923
Nasbasbasbag66
(g82
g68
NtRp4924
(dp4925
g71
(dp4926
sg80
g4883
sg73
(lp4927
g66
(g87
g68
NtRp4928
(dp4929
g71
(dp4930
sg80
g4924
sg73
(lp4931
g66
(g67
g68
NtRp4932
(dp4933
g71
(dp4934
g79
I1
ssg80
g4928
sg73
(lp4935
(lp4936
(g4400
(S's\x06\x00\x00\x00Groups'
tRp4937
I00
S'http://www.web2py.com/examples/default/usergroups'
p4938
tp4939
a(g4400
(S's\x07\x00\x00\x00Twitter'
tRp4940
I00
S'http://twitter.com/web2py'
p4941
tp4942
a(g4400
(S's\t\x00\x00\x00Live Chat'
tRp4943
I00
S'http://webchat.freenode.net/?channels=web2py'
p4944
tp4945
aasbasbasbasbasbasbasbag66
(g82
g68
NtRp4946
(dp4947
g71
(dp4948
sg80
g4513
sg73
(lp4949
g66
(g87
g68
NtRp4950
(dp4951
g71
(dp4952
sg80
g4946
sg73
(lp4953
g66
(g67
g68
NtRp4954
(dp4955
g71
(dp4956
g79
I2
ssg80
g4950
sg73
(lp4957
g66
(g75
g68
NtRp4958
(dp4959
g71
(dp4960
g79
I1
ssg80
Nsg73
(lp4961
g66
(g82
g68
NtRp4962
(dp4963
g71
(dp4964
sg80
g4958
sg73
(lp4965
g66
(g87
g68
NtRp4966
(dp4967
g71
(dp4968
sg80
g4962
sg73
(lp4969
g66
(g67
g68
NtRp4970
(dp4971
g71
(dp4972
g79
I1
ssg80
g4966
sg73
(lp4973
g4400
(S's\x07\x00\x00\x00Plugins'
tRp4974
asbasbasbag66
(g82
g68
NtRp4975
(dp4976
g71
(dp4977
sg80
g4958
sg73
(lp4978
g66
(g87
g68
NtRp4979
(dp4980
g71
(dp4981
sg80
g4975
sg73
(lp4982
g66
(g67
g68
NtRp4983
(dp4984
g71
(dp4985
g79
I1
ssg80
g4979
sg73
(lp4986
I00
asbasbasbag66
(g82
g68
NtRp4987
(dp4988
g71
(dp4989
sg80
g4958
sg73
(lp4990
g66
(g87
g68
NtRp4991
(dp4992
g71
(dp4993
sg80
g4987
sg73
(lp4994
g66
(g67
g68
NtRp4995
(dp4996
g71
(dp4997
g79
I1
ssg80
g4991
sg73
(lp4998
Nasbasbasbag66
(g82
g68
NtRp4999
(dp5000
g71
(dp5001
sg80
g4958
sg73
(lp5002
g66
(g87
g68
NtRp5003
(dp5004
g71
(dp5005
sg80
g4999
sg73
(lp5006
g66
(g67
g68
NtRp5007
(dp5008
g71
(dp5009
g79
I1
ssg80
g5003
sg73
(lp5010
(lp5011
(S'plugin_wiki'
p5012
I00
S'http://web2py.com/examples/default/download'
p5013
tp5014
a(g4400
(S's\r\x00\x00\x00Other Plugins'
tRp5015
I00
g4745
tp5016
a(g4400
(S's\x0e\x00\x00\x00Layout Plugins'
tRp5017
I00
g4748
tp5018
aasbasbasbasbasbasbasbasbasbasbasbasbasbasbasbasbasbasbasbag66
(g82
g68
NtRp5019
(dp5020
g71
(dp5021
sg80
g3866
sg73
(lp5022
g66
(g87
g68
NtRp5023
(dp5024
g71
(dp5025
g91
g92
ssg80
g5019
sg73
(lp5026
S'meta'
p5027
asbag66
(g87
g68
NtRp5028
(dp5029
g71
(dp5030
g98
g99
ssg80
g5019
sg73
(lp5031
S':'
asbag66
(g87
g68
NtRp5032
(dp5033
g71
(dp5034
sg80
g5019
sg73
(lp5035
g66
(g67
g68
NtRp5036
(dp5037
g71
(dp5038
g79
I5
ssg80
g5032
sg73
(lp5039
g66
(g75
g68
NtRp5040
(dp5041
g71
(dp5042
g79
I4
ssg80
Nsg73
(lp5043
g66
(g82
g68
NtRp5044
(dp5045
g71
(dp5046
sg80
g5040
sg73
(lp5047
g66
(g87
g68
NtRp5048
(dp5049
g71
(dp5050
g91
g92
ssg80
g5044
sg73
(lp5051
S'author'
p5052
asbag66
(g87
g68
NtRp5053
(dp5054
g71
(dp5055
g98
g99
ssg80
g5044
sg73
(lp5056
S':'
asbag66
(g87
g68
NtRp5057
(dp5058
g71
(dp5059
sg80
g5044
sg73
(lp5060
g66
(g67
g68
NtRp5061
(dp5062
g71
(dp5063
g79
I4
ssg80
g5057
sg73
(lp5064
S'Your Name <you@example.com>'
p5065
asbasbasbag66
(g82
g68
NtRp5066
(dp5067
g71
(dp5068
sg80
g5040
sg73
(lp5069
g66
(g87
g68
NtRp5070
(dp5071
g71
(dp5072
g91
g92
ssg80
g5066
sg73
(lp5073
S'description'
p5074
asbag66
(g87
g68
NtRp5075
(dp5076
g71
(dp5077
g98
g99
ssg80
g5066
sg73
(lp5078
S':'
asbag66
(g87
g68
NtRp5079
(dp5080
g71
(dp5081
sg80
g5066
sg73
(lp5082
g66
(g67
g68
NtRp5083
(dp5084
g71
(dp5085
g79
I4
ssg80
g5079
sg73
(lp5086
S'a cool new app'
p5087
asbasbasbag66
(g82
g68
NtRp5088
(dp5089
g71
(dp5090
sg80
g5040
sg73
(lp5091
g66
(g87
g68
NtRp5092
(dp5093
g71
(dp5094
g91
g92
ssg80
g5088
sg73
(lp5095
S'generator'
p5096
asbag66
(g87
g68
NtRp5097
(dp5098
g71
(dp5099
g98
g99
ssg80
g5088
sg73
(lp5100
S':'
asbag66
(g87
g68
NtRp5101
(dp5102
g71
(dp5103
sg80
g5088
sg73
(lp5104
g66
(g67
g68
NtRp5105
(dp5106
g71
(dp5107
g79
I4
ssg80
g5101
sg73
(lp5108
S'Web2py Web Framework'
p5109
asbasbasbag66
(g82
g68
NtRp5110
(dp5111
g71
(dp5112
sg80
g5040
sg73
(lp5113
g66
(g87
g68
NtRp5114
(dp5115
g71
(dp5116
g91
g92
ssg80
g5110
sg73
(lp5117
S'keywords'
p5118
asbag66
(g87
g68
NtRp5119
(dp5120
g71
(dp5121
g98
g99
ssg80
g5110
sg73
(lp5122
S':'
asbag66
(g87
g68
NtRp5123
(dp5124
g71
(dp5125
sg80
g5110
sg73
(lp5126
g66
(g67
g68
NtRp5127
(dp5128
g71
(dp5129
g79
I4
ssg80
g5123
sg73
(lp5130
S'web2py, python, framework'
p5131
asbasbasbasbasbasbasbag66
(g82
g68
NtRp5132
(dp5133
g71
(dp5134
sg80
g3866
sg73
(lp5135
g66
(g87
g68
NtRp5136
(dp5137
g71
(dp5138
g91
g92
ssg80
g5132
sg73
(lp5139
S'models_to_run'
p5140
asbag66
(g87
g68
NtRp5141
(dp5142
g71
(dp5143
g98
g99
ssg80
g5132
sg73
(lp5144
S':'
asbag66
(g87
g68
NtRp5145
(dp5146
g71
(dp5147
sg80
g5132
sg73
(lp5148
g66
(g67
g68
NtRp5149
(dp5150
g71
(dp5151
g79
I5
ssg80
g5145
sg73
(lp5152
g66
(g75
g68
NtRp5153
(dp5154
g71
(dp5155
g79
I4
ssg80
Nsg73
(lp5156
g66
(g82
g68
NtRp5157
(dp5158
g71
(dp5159
sg80
g5153
sg73
(lp5160
g66
(g87
g68
NtRp5161
(dp5162
g71
(dp5163
sg80
g5157
sg73
(lp5164
g66
(g67
g68
NtRp5165
(dp5166
g71
(dp5167
g79
I4
ssg80
g5161
sg73
(lp5168
S'^\\w+\\.py$'
p5169
asbasbasbag66
(g82
g68
NtRp5170
(dp5171
g71
(dp5172
sg80
g5153
sg73
(lp5173
g66
(g87
g68
NtRp5174
(dp5175
g71
(dp5176
sg80
g5170
sg73
(lp5177
g66
(g67
g68
NtRp5178
(dp5179
g71
(dp5180
g79
I4
ssg80
g5174
sg73
(lp5181
S'^default/\\w+\\.py$'
p5182
asbasbasbag66
(g82
g68
NtRp5183
(dp5184
g71
(dp5185
sg80
g5153
sg73
(lp5186
g66
(g87
g68
NtRp5187
(dp5188
g71
(dp5189
sg80
g5183
sg73
(lp5190
g66
(g67
g68
NtRp5191
(dp5192
g71
(dp5193
g79
I4
ssg80
g5187
sg73
(lp5194
S'^default/like/\\w+\\.py$'
p5195
asbasbasbasbasbasbasbag66
(g82
g68
NtRp5196
(dp5197
g71
(dp5198
sg80
g3866
sg73
(lp5199
g66
(g87
g68
NtRp5200
(dp5201
g71
(dp5202
g91
g92
ssg80
g5196
sg73
(lp5203
S'postprocessing'
p5204
asbag66
(g87
g68
NtRp5205
(dp5206
g71
(dp5207
g98
g99
ssg80
g5196
sg73
(lp5208
S':'
asbag66
(g87
g68
NtRp5209
(dp5210
g71
(dp5211
sg80
g5196
sg73
(lp5212
g66
(g67
g68
NtRp5213
(dp5214
g71
(dp5215
g79
I5
ssg80
g5209
sg73
(lp5216
g66
(g75
g68
NtRp5217
(dp5218
g71
(dp5219
g79
I4
ssg80
Nsg73
(lp5220
sbasbasbasbag66
(g82
g68
NtRp5221
(dp5222
g71
(dp5223
sg80
g3866
sg73
(lp5224
g66
(g87
g68
NtRp5225
(dp5226
g71
(dp5227
g91
g92
ssg80
g5221
sg73
(lp5228
S'session_cookie_expires'
p5229
asbag66
(g87
g68
NtRp5230
(dp5231
g71
(dp5232
g98
g99
ssg80
g5221
sg73
(lp5233
S':'
asbag66
(g87
g68
NtRp5234
(dp5235
g71
(dp5236
sg80
g5221
sg73
(lp5237
g66
(g67
g68
NtRp5238
(dp5239
g71
(dp5240
g79
I5
ssg80
g5234
sg73
(lp5241
S'None'
p5242
asbasbasbag66
(g82
g68
NtRp5243
(dp5244
g71
(dp5245
sg80
g3866
sg73
(lp5246
g66
(g87
g68
NtRp5247
(dp5248
g71
(dp5249
g91
g92
ssg80
g5243
sg73
(lp5250
S'session_data_name'
p5251
asbag66
(g87
g68
NtRp5252
(dp5253
g71
(dp5254
g98
g99
ssg80
g5243
sg73
(lp5255
S':'
asbag66
(g87
g68
NtRp5256
(dp5257
g71
(dp5258
sg80
g5243
sg73
(lp5259
g66
(g67
g68
NtRp5260
(dp5261
g71
(dp5262
g79
I5
ssg80
g5256
sg73
(lp5263
S'session_data_assignmen3'
p5264
asbasbasbag66
(g82
g68
NtRp5265
(dp5266
g71
(dp5267
sg80
g3866
sg73
(lp5268
g66
(g87
g68
NtRp5269
(dp5270
g71
(dp5271
g91
g92
ssg80
g5265
sg73
(lp5272
S'session_file'
p5273
asbag66
(g87
g68
NtRp5274
(dp5275
g71
(dp5276
g98
g99
ssg80
g5265
sg73
(lp5277
S':'
asbag66
(g87
g68
NtRp5278
(dp5279
g71
(dp5280
sg80
g5265
sg73
(lp5281
g66
(g67
g68
NtRp5282
(dp5283
g71
(dp5284
g79
I5
ssg80
g5278
sg73
(lp5285
S"<open file '/home/umang/web2py/applications/assignmen3/sessions/127.0.0.1-f78a0883-b419-4f1b-8802-d13ae89341f4', mode 'rb+' at 0x7f952854f420>"
p5286
asbasbasbag66
(g82
g68
NtRp5287
(dp5288
g71
(dp5289
sg80
g3866
sg73
(lp5290
g66
(g87
g68
NtRp5291
(dp5292
g71
(dp5293
g91
g92
ssg80
g5287
sg73
(lp5294
S'session_filename'
p5295
asbag66
(g87
g68
NtRp5296
(dp5297
g71
(dp5298
g98
g99
ssg80
g5287
sg73
(lp5299
S':'
asbag66
(g87
g68
NtRp5300
(dp5301
g71
(dp5302
sg80
g5287
sg73
(lp5303
g66
(g67
g68
NtRp5304
(dp5305
g71
(dp5306
g79
I5
ssg80
g5300
sg73
(lp5307
S'/home/umang/web2py/applications/assignmen3/sessions/127.0.0.1-f78a0883-b419-4f1b-8802-d13ae89341f4'
p5308
asbasbasbag66
(g82
g68
NtRp5309
(dp5310
g71
(dp5311
sg80
g3866
sg73
(lp5312
g66
(g87
g68
NtRp5313
(dp5314
g71
(dp5315
g91
g92
ssg80
g5309
sg73
(lp5316
S'session_id'
p5317
asbag66
(g87
g68
NtRp5318
(dp5319
g71
(dp5320
g98
g99
ssg80
g5309
sg73
(lp5321
S':'
asbag66
(g87
g68
NtRp5322
(dp5323
g71
(dp5324
sg80
g5309
sg73
(lp5325
g66
(g67
g68
NtRp5326
(dp5327
g71
(dp5328
g79
I5
ssg80
g5322
sg73
(lp5329
g508
asbasbasbag66
(g82
g68
NtRp5330
(dp5331
g71
(dp5332
sg80
g3866
sg73
(lp5333
g66
(g87
g68
NtRp5334
(dp5335
g71
(dp5336
g91
g92
ssg80
g5330
sg73
(lp5337
S'session_id_name'
p5338
asbag66
(g87
g68
NtRp5339
(dp5340
g71
(dp5341
g98
g99
ssg80
g5330
sg73
(lp5342
S':'
asbag66
(g87
g68
NtRp5343
(dp5344
g71
(dp5345
sg80
g5330
sg73
(lp5346
g66
(g67
g68
NtRp5347
(dp5348
g71
(dp5349
g79
I5
ssg80
g5343
sg73
(lp5350
g3923
asbasbasbag66
(g82
g68
NtRp5351
(dp5352
g71
(dp5353
sg80
g3866
sg73
(lp5354
g66
(g87
g68
NtRp5355
(dp5356
g71
(dp5357
g91
g92
ssg80
g5351
sg73
(lp5358
S'session_locked'
p5359
asbag66
(g87
g68
NtRp5360
(dp5361
g71
(dp5362
g98
g99
ssg80
g5351
sg73
(lp5363
S':'
asbag66
(g87
g68
NtRp5364
(dp5365
g71
(dp5366
sg80
g5351
sg73
(lp5367
g66
(g67
g68
NtRp5368
(dp5369
g71
(dp5370
g79
I5
ssg80
g5364
sg73
(lp5371
g1824
asbasbasbag66
(g82
g68
NtRp5372
(dp5373
g71
(dp5374
sg80
g3866
sg73
(lp5375
g66
(g87
g68
NtRp5376
(dp5377
g71
(dp5378
g91
g92
ssg80
g5372
sg73
(lp5379
S'session_new'
p5380
asbag66
(g87
g68
NtRp5381
(dp5382
g71
(dp5383
g98
g99
ssg80
g5372
sg73
(lp5384
S':'
asbag66
(g87
g68
NtRp5385
(dp5386
g71
(dp5387
sg80
g5372
sg73
(lp5388
g66
(g67
g68
NtRp5389
(dp5390
g71
(dp5391
g79
I5
ssg80
g5385
sg73
(lp5392
g109
asbasbasbag66
(g82
g68
NtRp5393
(dp5394
g71
(dp5395
sg80
g3866
sg73
(lp5396
g66
(g87
g68
NtRp5397
(dp5398
g71
(dp5399
g91
g92
ssg80
g5393
sg73
(lp5400
S'session_storage_type'
p5401
asbag66
(g87
g68
NtRp5402
(dp5403
g71
(dp5404
g98
g99
ssg80
g5393
sg73
(lp5405
S':'
asbag66
(g87
g68
NtRp5406
(dp5407
g71
(dp5408
sg80
g5393
sg73
(lp5409
g66
(g67
g68
NtRp5410
(dp5411
g71
(dp5412
g79
I5
ssg80
g5406
sg73
(lp5413
g3277
asbasbasbag66
(g82
g68
NtRp5414
(dp5415
g71
(dp5416
sg80
g3866
sg73
(lp5417
g66
(g87
g68
NtRp5418
(dp5419
g71
(dp5420
g91
g92
ssg80
g5414
sg73
(lp5421
S'status'
p5422
asbag66
(g87
g68
NtRp5423
(dp5424
g71
(dp5425
g98
g99
ssg80
g5414
sg73
(lp5426
S':'
asbag66
(g87
g68
NtRp5427
(dp5428
g71
(dp5429
sg80
g5414
sg73
(lp5430
g66
(g67
g68
NtRp5431
(dp5432
g71
(dp5433
g79
I5
ssg80
g5427
sg73
(lp5434
S'200'
p5435
asbasbasbag66
(g82
g68
NtRp5436
(dp5437
g71
(dp5438
sg80
g3866
sg73
(lp5439
g66
(g87
g68
NtRp5440
(dp5441
g71
(dp5442
g91
g92
ssg80
g5436
sg73
(lp5443
S'subtitle'
p5444
asbag66
(g87
g68
NtRp5445
(dp5446
g71
(dp5447
g98
g99
ssg80
g5436
sg73
(lp5448
S':'
asbag66
(g87
g68
NtRp5449
(dp5450
g71
(dp5451
sg80
g5436
sg73
(lp5452
g66
(g67
g68
NtRp5453
(dp5454
g71
(dp5455
g79
I5
ssg80
g5449
sg73
(lp5456
g4400
(S's\r\x00\x00\x00customize me!'
tRp5457
asbasbasbag66
(g82
g68
NtRp5458
(dp5459
g71
(dp5460
sg80
g3866
sg73
(lp5461
g66
(g87
g68
NtRp5462
(dp5463
g71
(dp5464
g91
g92
ssg80
g5458
sg73
(lp5465
S'title'
p5466
asbag66
(g87
g68
NtRp5467
(dp5468
g71
(dp5469
g98
g99
ssg80
g5458
sg73
(lp5470
S':'
asbag66
(g87
g68
NtRp5471
(dp5472
g71
(dp5473
sg80
g5458
sg73
(lp5474
g66
(g67
g68
NtRp5475
(dp5476
g71
(dp5477
g79
I5
ssg80
g5471
sg73
(lp5478
S'Assignmen3'
p5479
asbasbasbag66
(g82
g68
NtRp5480
(dp5481
g71
(dp5482
sg80
g3866
sg73
(lp5483
g66
(g87
g68
NtRp5484
(dp5485
g71
(dp5486
g91
g92
ssg80
g5480
sg73
(lp5487
S'view'
p5488
asbag66
(g87
g68
NtRp5489
(dp5490
g71
(dp5491
g98
g99
ssg80
g5480
sg73
(lp5492
S':'
asbag66
(g87
g68
NtRp5493
(dp5494
g71
(dp5495
sg80
g5480
sg73
(lp5496
g66
(g67
g68
NtRp5497
(dp5498
g71
(dp5499
g79
I5
ssg80
g5493
sg73
(lp5500
S'default/like.html'
p5501
asbasbasbasbasbsS'locals'
p5502
(dp5503
S'self'
p5504
S'<gluon.template.TemplateParser object>'
p5505
sS'context'
p5506
S"{'A': <class 'gluon.html.A'>, 'Auth': <class 'gluon.tools.Auth'>, 'B': <class 'gluon.html.B'>, 'BEAUTIFY': <class 'gluon.html.BEAUTIFY'>, 'BODY': <class 'gluon.html.BODY'>, 'BR': <class 'gluon.html.BR'>, 'BUTTON': <class 'gluon.html.BUTTON'>, 'CAT': <class 'gluon.html.CAT'>, 'CENTER': <class 'gluon.html.CENTER'>, 'CLEANUP': <class 'gluon.validators.CLEANUP'>, ...}"
p5507
sg34
S'"\'layout.html"'
p5508
sssS'traceback'
p5509
S'Traceback (most recent call last):\n  File "/home/umang/web2py/gluon/main.py", line 543, in wsgibase\n    serve_controller(request, response, session)\n  File "/home/umang/web2py/gluon/main.py", line 227, in serve_controller\n    run_view_in(response._view_environment)\n  File "/home/umang/web2py/gluon/compileapp.py", line 672, in run_view_in\n    context=environment)\n  File "/home/umang/web2py/gluon/template.py", line 785, in parse_template\n    return str(TemplateParser(text, context=context, path=path, lexers=lexers, delimiters=delimiters))\n  File "/home/umang/web2py/gluon/template.py", line 316, in __init__\n    self.parse(text)\n  File "/home/umang/web2py/gluon/template.py", line 756, in parse\n    self.extend(extend)\n  File "/home/umang/web2py/gluon/template.py", line 471, in extend\n    text = self._get_file_text(filename)\n  File "/home/umang/web2py/gluon/template.py", line 436, in _get_file_text\n    filename = eval(filename, context)\n  File "<string>", line 1\n    \'layout.html\n               ^\nSyntaxError: EOL while scanning string literal\n'
p5510
s.