(dp1
S'output'
p2
S"<type 'exceptions.SyntaxError'> invalid syntax (default.py, line 87)"
p3
sS'layer'
p4
S'/home/umang/web2py/applications/assignmen3/controllers/default.py'
p5
sS'code'
p6
S'# -*- coding: utf-8 -*-\n# this file is released under public domain and you can use without limitations\n\n#########################################################################\n## This is a samples controller\n## - index is the default action of any application\n## - user is required for authentication and authorization\n## - download is for downloading files uploaded in the db (does streaming)\n## - call exposes all registered services (none by default)\n#########################################################################\n\ndef index():\n    """\n    example action using the internationalization operator T and flash\n    rendered by views/default/index.html or views/generic.html\n\n    if you need a simple wiki simple replace the two lines below with:\n    return auth.wiki()\n    """\n    #redirect(URL(r=request,f=\'first_page?query=new\'))\n    query=db(db.category.name==\'New\').select(db.category.id)\n    redirect(URL(r=request, f=\'first_page\',args=[int(query[0].id)]))\n\n@auth.requires_login()\ndef login_to_account():\n\tar=db((db.auth_membership.user_id==auth.user_id) & (db.auth_group.id==db.auth_membership.group_id)).select(db.auth_group.role)\n\tif(len(ar)==0):\n\t\tredirect(URL(r=request,f=\'user\'))\n\telif(len(ar)==1):\n\t\tx=db(db.auth_group.role==\'normal\').select(db.auth_group.id)\n\t\tdb.auth_membership.insert(user_id=auth.user_id,group_id=x[0][\'id\'])\n\t\tredirect(URL(r=request,f=\'login_normal\'))\n\telif(ar[1][\'role\']==\'normal\'):\n\t\tredirect(URL(r=request,f=\'login_normal\'))\n\telif(ar[1][\'role\']==\'admin\'):\n\t\tredirect(URL(r=request,f=\'login_admin\'))\n\ndef login_normal():\n\tdisp=db(db.news.user_id==auth.user_id).select(db.news.heading,db.news.url,db.news.category,db.news.ntype)\n\treturn dict(disp=disp)\t\n\ndef first_page():\n\tquery=int(request.args(0))\n\tdisp=db(db.news.category_id==query).select(db.news.heading,db.news.url,db.news.rating,db.news.ntype,db.news.id)\n\tq_comment=db((db.news.category_id==query) & (db.comments.news_id==db.news.id)).select(db.comments.body,db.comments.commentor)\n\tcatg=db(db.category.id>0).select(db.category.name,db.category.id)\n\tpres_catg=db(db.category.id==query).select(db.category.name)\n\n\tform=SQLFORM.factory(\n\t db.Field(\'comm_body\',\'string\',label=""),\n\t formstyle=\'divs\',\n\t buttons=[],)\n   \tform[0].insert(1,DIV(INPUT(_type=\'submit\',_value=\'Post\')))\n   \tif form.accepts(request.vars,session):\n        \t insert_comment(form.vars.comm_body,auth.user_id,query)\n    \telif form.errors:\n        \t response.flash=\'Some Error Occured Please Refresh\'\n    \t\n\treturn dict(query=query,disp=disp,q_comment=q_comment,catg=catg,pres_catg=pres_catg)\n\n@auth.requires_login()\ndef add_news():\n\tcatg=int(request.args(0))\n\tdb.news.category_id.default=catg\n\tdb.news.category_id.readable=False\n\tdb.news.category_id.writable=False\n\tdb.news.user_id.default=auth.user_id\n\tdb.news.user_id.writable=False\n\tdb.news.user_id.readable=False\n\tdb.news.rating.default=100\n\tdb.news.rating.writable=False\n\tdb.news.rating.readable=False\n\tform=SQLFORM(db.news,submit_button="Post",labels={\'ntype\':\'Post Type\'})\n\tif form.process().accepted:\n        \tredirect(URL(r=request, f=\'first_page\',args=[int(catg)]))\n\t\t#redirect(URL(r=request,f=\'first_page?query=%s\' % catg))\n\telif form.errors:\n\t\tresponse.flash="Error posting it"\n\treturn dict(form=form)\n\n@auth.requires_login()\ndef like():\n\tnews_id=int(request.args(0))\n\tcatg=int(request.args(1))\n\tar=db(db.news.id==news_id).select(db.news.rating)\n\tquery=db((db.rating.news_id==news_id) & (db.rating.rater_id==auth.user_id)).select(db.rating.liked)\n\tif(len(query)==0 || query[0].liked==0):\n\t\tdb(db.news.id==news_id).update(rating=ar[0].rating+5)\n\t\tif(len(query)==0):\n\t\t\tdb.rating.insert(news_id=news_id,rater_id=auth.user_id,liked=1,disliked=0)\n\t\telse:\n\t\t\tdb((db.rating.news_id==news_id) & (db.rating.rater_id==auth.user_id)).update(liked=1)\n        redirect(URL(r=request, f=\'first_page\',args=[int(catg)]))\n\n@auth.requires_login()\ndef dislike():\n\tnews_id=int(request.args(0))\n\tcatg=int(request.args(1))\n\tar=db(db.news.id==news_id).select(db.news.rating)\n\tquery=db((db.rating.news_id==news_id) & (db.rating.rater_id==auth.user_id)).select(db.rating.disliked)\n\tif(len(query)==0 || query[0].disliked==0):\n\t\tdb(db.news.id==news_id).update(rating=ar[0].rating-3)\n\t\tif(len(query)==0):\n\t\t\tdb.rating.insert(news_id=news_id,rater_id=auth.user_id,liked=0,disliked=1)\n\t\telse:\n\t\t\tdb((db.rating.news_id==news_id) & (db.rating.rater_id==auth.user_id)).update(disliked=1)\n\tredirect(URL(r=request,f=\'first_page\',args=[(int)(catg)]))\n\n@auth.requires_login()\ndef insert_comment(c_body,rec,query):\n\tdb.comments.insert(body=c_body,sender_id=auth.user_id,receiver=int(rec))\n    #    query=db(db.coment.id>0).select(db.coment.id,db.coment.receiver)\n        redirect(URL(r=request, f=\'first_page\',args=[int(query)]))\n\n\n\ndef user():\n    """\n    exposes:\n    http://..../[app]/default/user/login\n    http://..../[app]/default/user/logout\n    http://..../[app]/default/user/register\n    http://..../[app]/default/user/profile\n    http://..../[app]/default/user/retrieve_password\n    http://..../[app]/default/user/change_password\n    use @auth.requires_login()\n        @auth.requires_membership(\'group name\')\n        @auth.requires_permission(\'read\',\'table name\',record_id)\n    to decorate functions that need access control\n    """\n    return dict(form=auth())\n\n\ndef download():\n    """\n    allows downloading of uploaded files\n    http://..../[app]/default/download/[filename]\n    """\n    return response.download(request, db)\n\n\ndef call():\n    """\n    exposes services. for example:\n    http://..../[app]/default/call/jsonrpc\n    decorate with @services.jsonrpc the functions to expose\n    supports xml, json, xmlrpc, jsonrpc, amfrpc, rss, csv\n    """\n    return service()\n\n\n@auth.requires_signature()\ndef data():\n    """\n    http://..../[app]/default/data/tables\n    http://..../[app]/default/data/create/[table]\n    http://..../[app]/default/data/read/[table]/[id]\n    http://..../[app]/default/data/update/[table]/[id]\n    http://..../[app]/default/data/delete/[table]/[id]\n    http://..../[app]/default/data/select/[table]\n    http://..../[app]/default/data/search/[table]\n    but URLs must be signed, i.e. linked with\n      A(\'table\',_href=URL(\'data/tables\',user_signature=True))\n    or with the signed load operator\n      LOAD(\'default\',\'data.load\',args=\'tables\',ajax=True,user_signature=True)\n    """\n    return dict(form=crud())\n\nresponse._vars=response._caller(first_page)\n'
p7
sS'snapshot'
p8
(dp9
S'exception'
p10
(dp11
S'__getslice__'
p12
S"<method-wrapper '__getslice__' of exceptions.SyntaxError object>"
p13
sS'text'
p14
S"'\\tif(len(query)==0 || query[0].liked==0):\\n'"
p15
sS'__str__'
p16
S"<method-wrapper '__str__' of exceptions.SyntaxError object>"
p17
sS'__reduce__'
p18
S'<built-in method __reduce__ of exceptions.SyntaxError object>'
p19
sS'__dict__'
p20
S'{}'
p21
sS'__sizeof__'
p22
S'<built-in method __sizeof__ of exceptions.SyntaxError object>'
p23
sS'__init__'
p24
S"<method-wrapper '__init__' of exceptions.SyntaxError object>"
p25
sS'__setattr__'
p26
S"<method-wrapper '__setattr__' of exceptions.SyntaxError object>"
p27
sS'__reduce_ex__'
p28
S'<built-in method __reduce_ex__ of exceptions.SyntaxError object>'
p29
sS'__new__'
p30
S'<built-in method __new__ of type object>'
p31
sS'__format__'
p32
S'<built-in method __format__ of exceptions.SyntaxError object>'
p33
sS'__class__'
p34
S"<type 'exceptions.SyntaxError'>"
p35
sS'filename'
p36
S"'/home/umang/web2py/applications/assignmen3/controllers/default.py'"
p37
sS'lineno'
p38
S'87'
p39
sS'msg'
p40
S"'invalid syntax'"
p41
sS'__doc__'
p42
S"'Invalid syntax.'"
p43
sS'__getitem__'
p44
S"<method-wrapper '__getitem__' of exceptions.SyntaxError object>"
p45
sS'__setstate__'
p46
S'<built-in method __setstate__ of exceptions.SyntaxError object>'
p47
sS'__getattribute__'
p48
S"<method-wrapper '__getattribute__' of exceptions.SyntaxError object>"
p49
sS'print_file_and_line'
p50
S'None'
p51
sS'args'
p52
S"('invalid syntax', ('/home/umang/web2py/applications/assignmen3/controllers/default.py', 87, 20, '\\tif(len(query)==0 || query[0].liked==0):\\n'))"
p53
sS'__subclasshook__'
p54
S'<built-in method __subclasshook__ of type object>'
p55
sS'offset'
p56
S'20'
p57
sS'__unicode__'
p58
S'<built-in method __unicode__ of exceptions.SyntaxError object>'
p59
sS'__delattr__'
p60
S"<method-wrapper '__delattr__' of exceptions.SyntaxError object>"
p61
sS'__repr__'
p62
S"<method-wrapper '__repr__' of exceptions.SyntaxError object>"
p63
sS'__hash__'
p64
S"<method-wrapper '__hash__' of exceptions.SyntaxError object>"
p65
ssS'evalue'
p66
S'invalid syntax (default.py, line 87)'
p67
sS'request'
p68
ccopy_reg
_reconstructor
p69
(cgluon.html
BEAUTIFY
p70
c__builtin__
object
p71
NtRp72
(dp73
S'attributes'
p74
(dp75
sS'components'
p76
(lp77
g69
(cgluon.html
TABLE
p78
g71
NtRp79
(dp80
g74
(dp81
S'level'
p82
I5
ssS'parent'
p83
Nsg76
(lp84
g69
(cgluon.html
TR
p85
g71
NtRp86
(dp87
g74
(dp88
sg83
g79
sg76
(lp89
g69
(cgluon.html
TD
p90
g71
NtRp91
(dp92
g74
(dp93
S'_style'
p94
S'font-weight:bold;vertical-align:top'
p95
ssg83
g86
sg76
(lp96
S'ajax'
p97
asbag69
(g90
g71
NtRp98
(dp99
g74
(dp100
S'_valign'
p101
S'top'
p102
ssg83
g86
sg76
(lp103
S':'
asbag69
(g90
g71
NtRp104
(dp105
g74
(dp106
sg83
g86
sg76
(lp107
g69
(g70
g71
NtRp108
(dp109
g74
(dp110
g82
I5
ssg83
g104
sg76
(lp111
S'False'
p112
asbasbasbag69
(g85
g71
NtRp113
(dp114
g74
(dp115
sg83
g79
sg76
(lp116
g69
(g90
g71
NtRp117
(dp118
g74
(dp119
g94
g95
ssg83
g113
sg76
(lp120
S'application'
p121
asbag69
(g90
g71
NtRp122
(dp123
g74
(dp124
g101
g102
ssg83
g113
sg76
(lp125
S':'
asbag69
(g90
g71
NtRp126
(dp127
g74
(dp128
sg83
g113
sg76
(lp129
g69
(g70
g71
NtRp130
(dp131
g74
(dp132
g82
I5
ssg83
g126
sg76
(lp133
S'assignmen3'
p134
asbasbasbag69
(g85
g71
NtRp135
(dp136
g74
(dp137
sg83
g79
sg76
(lp138
g69
(g90
g71
NtRp139
(dp140
g74
(dp141
g94
g95
ssg83
g135
sg76
(lp142
g52
asbag69
(g90
g71
NtRp143
(dp144
g74
(dp145
g101
g102
ssg83
g135
sg76
(lp146
S':'
asbag69
(g90
g71
NtRp147
(dp148
g74
(dp149
sg83
g135
sg76
(lp150
g69
(g70
g71
NtRp151
(dp152
g74
(dp153
g82
I5
ssg83
g147
sg76
(lp154
g69
(g78
g71
NtRp155
(dp156
g74
(dp157
g82
I4
ssg83
Nsg76
(lp158
g69
(g85
g71
NtRp159
(dp160
g74
(dp161
sg83
g155
sg76
(lp162
g69
(g90
g71
NtRp163
(dp164
g74
(dp165
sg83
g159
sg76
(lp166
g69
(g70
g71
NtRp167
(dp168
g74
(dp169
g82
I4
ssg83
g163
sg76
(lp170
S'2'
asbasbasbasbasbasbasbag69
(g85
g71
NtRp171
(dp172
g74
(dp173
sg83
g79
sg76
(lp174
g69
(g90
g71
NtRp175
(dp176
g74
(dp177
g94
g95
ssg83
g171
sg76
(lp178
S'body'
p179
asbag69
(g90
g71
NtRp180
(dp181
g74
(dp182
g101
g102
ssg83
g171
sg76
(lp183
S':'
asbag69
(g90
g71
NtRp184
(dp185
g74
(dp186
sg83
g171
sg76
(lp187
g69
(g70
g71
NtRp188
(dp189
g74
(dp190
g82
I5
ssg83
g184
sg76
(lp191
S'<cStringIO.StringO object at 0x7f95140f7d88>'
p192
asbasbasbag69
(g85
g71
NtRp193
(dp194
g74
(dp195
sg83
g79
sg76
(lp196
g69
(g90
g71
NtRp197
(dp198
g74
(dp199
g94
g95
ssg83
g193
sg76
(lp200
S'cid'
p201
asbag69
(g90
g71
NtRp202
(dp203
g74
(dp204
g101
g102
ssg83
g193
sg76
(lp205
S':'
asbag69
(g90
g71
NtRp206
(dp207
g74
(dp208
sg83
g193
sg76
(lp209
g69
(g70
g71
NtRp210
(dp211
g74
(dp212
g82
I5
ssg83
g206
sg76
(lp213
S'None'
p214
asbasbasbag69
(g85
g71
NtRp215
(dp216
g74
(dp217
sg83
g79
sg76
(lp218
g69
(g90
g71
NtRp219
(dp220
g74
(dp221
g94
g95
ssg83
g215
sg76
(lp222
S'client'
p223
asbag69
(g90
g71
NtRp224
(dp225
g74
(dp226
g101
g102
ssg83
g215
sg76
(lp227
S':'
asbag69
(g90
g71
NtRp228
(dp229
g74
(dp230
sg83
g215
sg76
(lp231
g69
(g70
g71
NtRp232
(dp233
g74
(dp234
g82
I5
ssg83
g228
sg76
(lp235
S'127.0.0.1'
p236
asbasbasbag69
(g85
g71
NtRp237
(dp238
g74
(dp239
sg83
g79
sg76
(lp240
g69
(g90
g71
NtRp241
(dp242
g74
(dp243
g94
g95
ssg83
g237
sg76
(lp244
S'controller'
p245
asbag69
(g90
g71
NtRp246
(dp247
g74
(dp248
g101
g102
ssg83
g237
sg76
(lp249
S':'
asbag69
(g90
g71
NtRp250
(dp251
g74
(dp252
sg83
g237
sg76
(lp253
g69
(g70
g71
NtRp254
(dp255
g74
(dp256
g82
I5
ssg83
g250
sg76
(lp257
S'default'
p258
asbasbasbag69
(g85
g71
NtRp259
(dp260
g74
(dp261
sg83
g79
sg76
(lp262
g69
(g90
g71
NtRp263
(dp264
g74
(dp265
g94
g95
ssg83
g259
sg76
(lp266
S'cookies'
p267
asbag69
(g90
g71
NtRp268
(dp269
g74
(dp270
g101
g102
ssg83
g259
sg76
(lp271
S':'
asbag69
(g90
g71
NtRp272
(dp273
g74
(dp274
sg83
g259
sg76
(lp275
g69
(g70
g71
NtRp276
(dp277
g74
(dp278
g82
I5
ssg83
g272
sg76
(lp279
g69
(g78
g71
NtRp280
(dp281
g74
(dp282
g82
I4
ssg83
Nsg76
(lp283
g69
(g85
g71
NtRp284
(dp285
g74
(dp286
sg83
g280
sg76
(lp287
g69
(g90
g71
NtRp288
(dp289
g74
(dp290
g94
g95
ssg83
g284
sg76
(lp291
S'session_id_admin'
p292
asbag69
(g90
g71
NtRp293
(dp294
g74
(dp295
g101
g102
ssg83
g284
sg76
(lp296
S':'
asbag69
(g90
g71
NtRp297
(dp298
g74
(dp299
sg83
g284
sg76
(lp300
g69
(g70
g71
NtRp301
(dp302
g74
(dp303
g82
I4
ssg83
g297
sg76
(lp304
S'127.0.0.1-d509f0cc-4c80-4380-be27-aebf7c06a1e6'
p305
ag69
(g78
g71
NtRp306
(dp307
g74
(dp308
g82
I3
ssg83
Nsg76
(lp309
g69
(g85
g71
NtRp310
(dp311
g74
(dp312
sg83
g306
sg76
(lp313
g69
(g90
g71
NtRp314
(dp315
g74
(dp316
g94
g95
ssg83
g310
sg76
(lp317
S'comment'
p318
asbag69
(g90
g71
NtRp319
(dp320
g74
(dp321
g101
g102
ssg83
g310
sg76
(lp322
S':'
asbag69
(g90
g71
NtRp323
(dp324
g74
(dp325
sg83
g310
sg76
(lp326
g69
(g70
g71
NtRp327
(dp328
g74
(dp329
g82
I3
ssg83
g323
sg76
(lp330
S''
asbasbasbag69
(g85
g71
NtRp331
(dp332
g74
(dp333
sg83
g306
sg76
(lp334
g69
(g90
g71
NtRp335
(dp336
g74
(dp337
g94
g95
ssg83
g331
sg76
(lp338
S'domain'
p339
asbag69
(g90
g71
NtRp340
(dp341
g74
(dp342
g101
g102
ssg83
g331
sg76
(lp343
S':'
asbag69
(g90
g71
NtRp344
(dp345
g74
(dp346
sg83
g331
sg76
(lp347
g69
(g70
g71
NtRp348
(dp349
g74
(dp350
g82
I3
ssg83
g344
sg76
(lp351
S''
asbasbasbag69
(g85
g71
NtRp352
(dp353
g74
(dp354
sg83
g306
sg76
(lp355
g69
(g90
g71
NtRp356
(dp357
g74
(dp358
g94
g95
ssg83
g352
sg76
(lp359
S'expires'
p360
asbag69
(g90
g71
NtRp361
(dp362
g74
(dp363
g101
g102
ssg83
g352
sg76
(lp364
S':'
asbag69
(g90
g71
NtRp365
(dp366
g74
(dp367
sg83
g352
sg76
(lp368
g69
(g70
g71
NtRp369
(dp370
g74
(dp371
g82
I3
ssg83
g365
sg76
(lp372
S''
asbasbasbag69
(g85
g71
NtRp373
(dp374
g74
(dp375
sg83
g306
sg76
(lp376
g69
(g90
g71
NtRp377
(dp378
g74
(dp379
g94
g95
ssg83
g373
sg76
(lp380
S'httponly'
p381
asbag69
(g90
g71
NtRp382
(dp383
g74
(dp384
g101
g102
ssg83
g373
sg76
(lp385
S':'
asbag69
(g90
g71
NtRp386
(dp387
g74
(dp388
sg83
g373
sg76
(lp389
g69
(g70
g71
NtRp390
(dp391
g74
(dp392
g82
I3
ssg83
g386
sg76
(lp393
S''
asbasbasbag69
(g85
g71
NtRp394
(dp395
g74
(dp396
sg83
g306
sg76
(lp397
g69
(g90
g71
NtRp398
(dp399
g74
(dp400
g94
g95
ssg83
g394
sg76
(lp401
S'max-age'
p402
asbag69
(g90
g71
NtRp403
(dp404
g74
(dp405
g101
g102
ssg83
g394
sg76
(lp406
S':'
asbag69
(g90
g71
NtRp407
(dp408
g74
(dp409
sg83
g394
sg76
(lp410
g69
(g70
g71
NtRp411
(dp412
g74
(dp413
g82
I3
ssg83
g407
sg76
(lp414
S''
asbasbasbag69
(g85
g71
NtRp415
(dp416
g74
(dp417
sg83
g306
sg76
(lp418
g69
(g90
g71
NtRp419
(dp420
g74
(dp421
g94
g95
ssg83
g415
sg76
(lp422
S'path'
p423
asbag69
(g90
g71
NtRp424
(dp425
g74
(dp426
g101
g102
ssg83
g415
sg76
(lp427
S':'
asbag69
(g90
g71
NtRp428
(dp429
g74
(dp430
sg83
g415
sg76
(lp431
g69
(g70
g71
NtRp432
(dp433
g74
(dp434
g82
I3
ssg83
g428
sg76
(lp435
S''
asbasbasbag69
(g85
g71
NtRp436
(dp437
g74
(dp438
sg83
g306
sg76
(lp439
g69
(g90
g71
NtRp440
(dp441
g74
(dp442
g94
g95
ssg83
g436
sg76
(lp443
S'secure'
p444
asbag69
(g90
g71
NtRp445
(dp446
g74
(dp447
g101
g102
ssg83
g436
sg76
(lp448
S':'
asbag69
(g90
g71
NtRp449
(dp450
g74
(dp451
sg83
g436
sg76
(lp452
g69
(g70
g71
NtRp453
(dp454
g74
(dp455
g82
I3
ssg83
g449
sg76
(lp456
S''
asbasbasbag69
(g85
g71
NtRp457
(dp458
g74
(dp459
sg83
g306
sg76
(lp460
g69
(g90
g71
NtRp461
(dp462
g74
(dp463
g94
g95
ssg83
g457
sg76
(lp464
S'version'
p465
asbag69
(g90
g71
NtRp466
(dp467
g74
(dp468
g101
g102
ssg83
g457
sg76
(lp469
S':'
asbag69
(g90
g71
NtRp470
(dp471
g74
(dp472
sg83
g457
sg76
(lp473
g69
(g70
g71
NtRp474
(dp475
g74
(dp476
g82
I3
ssg83
g470
sg76
(lp477
S''
asbasbasbasbasbasbasbag69
(g85
g71
NtRp478
(dp479
g74
(dp480
sg83
g280
sg76
(lp481
g69
(g90
g71
NtRp482
(dp483
g74
(dp484
g94
g95
ssg83
g478
sg76
(lp485
S'session_id_assignmen3'
p486
asbag69
(g90
g71
NtRp487
(dp488
g74
(dp489
g101
g102
ssg83
g478
sg76
(lp490
S':'
asbag69
(g90
g71
NtRp491
(dp492
g74
(dp493
sg83
g478
sg76
(lp494
g69
(g70
g71
NtRp495
(dp496
g74
(dp497
g82
I4
ssg83
g491
sg76
(lp498
S'127.0.0.1-f78a0883-b419-4f1b-8802-d13ae89341f4'
p499
ag69
(g78
g71
NtRp500
(dp501
g74
(dp502
g82
I3
ssg83
Nsg76
(lp503
g69
(g85
g71
NtRp504
(dp505
g74
(dp506
sg83
g500
sg76
(lp507
g69
(g90
g71
NtRp508
(dp509
g74
(dp510
g94
g95
ssg83
g504
sg76
(lp511
g318
asbag69
(g90
g71
NtRp512
(dp513
g74
(dp514
g101
g102
ssg83
g504
sg76
(lp515
S':'
asbag69
(g90
g71
NtRp516
(dp517
g74
(dp518
sg83
g504
sg76
(lp519
g69
(g70
g71
NtRp520
(dp521
g74
(dp522
g82
I3
ssg83
g516
sg76
(lp523
S''
asbasbasbag69
(g85
g71
NtRp524
(dp525
g74
(dp526
sg83
g500
sg76
(lp527
g69
(g90
g71
NtRp528
(dp529
g74
(dp530
g94
g95
ssg83
g524
sg76
(lp531
g339
asbag69
(g90
g71
NtRp532
(dp533
g74
(dp534
g101
g102
ssg83
g524
sg76
(lp535
S':'
asbag69
(g90
g71
NtRp536
(dp537
g74
(dp538
sg83
g524
sg76
(lp539
g69
(g70
g71
NtRp540
(dp541
g74
(dp542
g82
I3
ssg83
g536
sg76
(lp543
S''
asbasbasbag69
(g85
g71
NtRp544
(dp545
g74
(dp546
sg83
g500
sg76
(lp547
g69
(g90
g71
NtRp548
(dp549
g74
(dp550
g94
g95
ssg83
g544
sg76
(lp551
g360
asbag69
(g90
g71
NtRp552
(dp553
g74
(dp554
g101
g102
ssg83
g544
sg76
(lp555
S':'
asbag69
(g90
g71
NtRp556
(dp557
g74
(dp558
sg83
g544
sg76
(lp559
g69
(g70
g71
NtRp560
(dp561
g74
(dp562
g82
I3
ssg83
g556
sg76
(lp563
S''
asbasbasbag69
(g85
g71
NtRp564
(dp565
g74
(dp566
sg83
g500
sg76
(lp567
g69
(g90
g71
NtRp568
(dp569
g74
(dp570
g94
g95
ssg83
g564
sg76
(lp571
g381
asbag69
(g90
g71
NtRp572
(dp573
g74
(dp574
g101
g102
ssg83
g564
sg76
(lp575
S':'
asbag69
(g90
g71
NtRp576
(dp577
g74
(dp578
sg83
g564
sg76
(lp579
g69
(g70
g71
NtRp580
(dp581
g74
(dp582
g82
I3
ssg83
g576
sg76
(lp583
S''
asbasbasbag69
(g85
g71
NtRp584
(dp585
g74
(dp586
sg83
g500
sg76
(lp587
g69
(g90
g71
NtRp588
(dp589
g74
(dp590
g94
g95
ssg83
g584
sg76
(lp591
g402
asbag69
(g90
g71
NtRp592
(dp593
g74
(dp594
g101
g102
ssg83
g584
sg76
(lp595
S':'
asbag69
(g90
g71
NtRp596
(dp597
g74
(dp598
sg83
g584
sg76
(lp599
g69
(g70
g71
NtRp600
(dp601
g74
(dp602
g82
I3
ssg83
g596
sg76
(lp603
S''
asbasbasbag69
(g85
g71
NtRp604
(dp605
g74
(dp606
sg83
g500
sg76
(lp607
g69
(g90
g71
NtRp608
(dp609
g74
(dp610
g94
g95
ssg83
g604
sg76
(lp611
g423
asbag69
(g90
g71
NtRp612
(dp613
g74
(dp614
g101
g102
ssg83
g604
sg76
(lp615
S':'
asbag69
(g90
g71
NtRp616
(dp617
g74
(dp618
sg83
g604
sg76
(lp619
g69
(g70
g71
NtRp620
(dp621
g74
(dp622
g82
I3
ssg83
g616
sg76
(lp623
S''
asbasbasbag69
(g85
g71
NtRp624
(dp625
g74
(dp626
sg83
g500
sg76
(lp627
g69
(g90
g71
NtRp628
(dp629
g74
(dp630
g94
g95
ssg83
g624
sg76
(lp631
g444
asbag69
(g90
g71
NtRp632
(dp633
g74
(dp634
g101
g102
ssg83
g624
sg76
(lp635
S':'
asbag69
(g90
g71
NtRp636
(dp637
g74
(dp638
sg83
g624
sg76
(lp639
g69
(g70
g71
NtRp640
(dp641
g74
(dp642
g82
I3
ssg83
g636
sg76
(lp643
S''
asbasbasbag69
(g85
g71
NtRp644
(dp645
g74
(dp646
sg83
g500
sg76
(lp647
g69
(g90
g71
NtRp648
(dp649
g74
(dp650
g94
g95
ssg83
g644
sg76
(lp651
g465
asbag69
(g90
g71
NtRp652
(dp653
g74
(dp654
g101
g102
ssg83
g644
sg76
(lp655
S':'
asbag69
(g90
g71
NtRp656
(dp657
g74
(dp658
sg83
g644
sg76
(lp659
g69
(g70
g71
NtRp660
(dp661
g74
(dp662
g82
I3
ssg83
g656
sg76
(lp663
S''
asbasbasbasbasbasbasbag69
(g85
g71
NtRp664
(dp665
g74
(dp666
sg83
g280
sg76
(lp667
g69
(g90
g71
NtRp668
(dp669
g74
(dp670
g94
g95
ssg83
g664
sg76
(lp671
S'session_id_welcome'
p672
asbag69
(g90
g71
NtRp673
(dp674
g74
(dp675
g101
g102
ssg83
g664
sg76
(lp676
S':'
asbag69
(g90
g71
NtRp677
(dp678
g74
(dp679
sg83
g664
sg76
(lp680
g69
(g70
g71
NtRp681
(dp682
g74
(dp683
g82
I4
ssg83
g677
sg76
(lp684
S'127.0.0.1-a2b1b4d6-eba7-4458-9892-ba028024c0c4'
p685
ag69
(g78
g71
NtRp686
(dp687
g74
(dp688
g82
I3
ssg83
Nsg76
(lp689
g69
(g85
g71
NtRp690
(dp691
g74
(dp692
sg83
g686
sg76
(lp693
g69
(g90
g71
NtRp694
(dp695
g74
(dp696
g94
g95
ssg83
g690
sg76
(lp697
g318
asbag69
(g90
g71
NtRp698
(dp699
g74
(dp700
g101
g102
ssg83
g690
sg76
(lp701
S':'
asbag69
(g90
g71
NtRp702
(dp703
g74
(dp704
sg83
g690
sg76
(lp705
g69
(g70
g71
NtRp706
(dp707
g74
(dp708
g82
I3
ssg83
g702
sg76
(lp709
S''
asbasbasbag69
(g85
g71
NtRp710
(dp711
g74
(dp712
sg83
g686
sg76
(lp713
g69
(g90
g71
NtRp714
(dp715
g74
(dp716
g94
g95
ssg83
g710
sg76
(lp717
g339
asbag69
(g90
g71
NtRp718
(dp719
g74
(dp720
g101
g102
ssg83
g710
sg76
(lp721
S':'
asbag69
(g90
g71
NtRp722
(dp723
g74
(dp724
sg83
g710
sg76
(lp725
g69
(g70
g71
NtRp726
(dp727
g74
(dp728
g82
I3
ssg83
g722
sg76
(lp729
S''
asbasbasbag69
(g85
g71
NtRp730
(dp731
g74
(dp732
sg83
g686
sg76
(lp733
g69
(g90
g71
NtRp734
(dp735
g74
(dp736
g94
g95
ssg83
g730
sg76
(lp737
g360
asbag69
(g90
g71
NtRp738
(dp739
g74
(dp740
g101
g102
ssg83
g730
sg76
(lp741
S':'
asbag69
(g90
g71
NtRp742
(dp743
g74
(dp744
sg83
g730
sg76
(lp745
g69
(g70
g71
NtRp746
(dp747
g74
(dp748
g82
I3
ssg83
g742
sg76
(lp749
S''
asbasbasbag69
(g85
g71
NtRp750
(dp751
g74
(dp752
sg83
g686
sg76
(lp753
g69
(g90
g71
NtRp754
(dp755
g74
(dp756
g94
g95
ssg83
g750
sg76
(lp757
g381
asbag69
(g90
g71
NtRp758
(dp759
g74
(dp760
g101
g102
ssg83
g750
sg76
(lp761
S':'
asbag69
(g90
g71
NtRp762
(dp763
g74
(dp764
sg83
g750
sg76
(lp765
g69
(g70
g71
NtRp766
(dp767
g74
(dp768
g82
I3
ssg83
g762
sg76
(lp769
S''
asbasbasbag69
(g85
g71
NtRp770
(dp771
g74
(dp772
sg83
g686
sg76
(lp773
g69
(g90
g71
NtRp774
(dp775
g74
(dp776
g94
g95
ssg83
g770
sg76
(lp777
g402
asbag69
(g90
g71
NtRp778
(dp779
g74
(dp780
g101
g102
ssg83
g770
sg76
(lp781
S':'
asbag69
(g90
g71
NtRp782
(dp783
g74
(dp784
sg83
g770
sg76
(lp785
g69
(g70
g71
NtRp786
(dp787
g74
(dp788
g82
I3
ssg83
g782
sg76
(lp789
S''
asbasbasbag69
(g85
g71
NtRp790
(dp791
g74
(dp792
sg83
g686
sg76
(lp793
g69
(g90
g71
NtRp794
(dp795
g74
(dp796
g94
g95
ssg83
g790
sg76
(lp797
g423
asbag69
(g90
g71
NtRp798
(dp799
g74
(dp800
g101
g102
ssg83
g790
sg76
(lp801
S':'
asbag69
(g90
g71
NtRp802
(dp803
g74
(dp804
sg83
g790
sg76
(lp805
g69
(g70
g71
NtRp806
(dp807
g74
(dp808
g82
I3
ssg83
g802
sg76
(lp809
S''
asbasbasbag69
(g85
g71
NtRp810
(dp811
g74
(dp812
sg83
g686
sg76
(lp813
g69
(g90
g71
NtRp814
(dp815
g74
(dp816
g94
g95
ssg83
g810
sg76
(lp817
g444
asbag69
(g90
g71
NtRp818
(dp819
g74
(dp820
g101
g102
ssg83
g810
sg76
(lp821
S':'
asbag69
(g90
g71
NtRp822
(dp823
g74
(dp824
sg83
g810
sg76
(lp825
g69
(g70
g71
NtRp826
(dp827
g74
(dp828
g82
I3
ssg83
g822
sg76
(lp829
S''
asbasbasbag69
(g85
g71
NtRp830
(dp831
g74
(dp832
sg83
g686
sg76
(lp833
g69
(g90
g71
NtRp834
(dp835
g74
(dp836
g94
g95
ssg83
g830
sg76
(lp837
g465
asbag69
(g90
g71
NtRp838
(dp839
g74
(dp840
g101
g102
ssg83
g830
sg76
(lp841
S':'
asbag69
(g90
g71
NtRp842
(dp843
g74
(dp844
sg83
g830
sg76
(lp845
g69
(g70
g71
NtRp846
(dp847
g74
(dp848
g82
I3
ssg83
g842
sg76
(lp849
S''
asbasbasbasbasbasbasbasbasbasbasbag69
(g85
g71
NtRp850
(dp851
g74
(dp852
sg83
g79
sg76
(lp853
g69
(g90
g71
NtRp854
(dp855
g74
(dp856
g94
g95
ssg83
g850
sg76
(lp857
S'env'
p858
asbag69
(g90
g71
NtRp859
(dp860
g74
(dp861
g101
g102
ssg83
g850
sg76
(lp862
S':'
asbag69
(g90
g71
NtRp863
(dp864
g74
(dp865
sg83
g850
sg76
(lp866
g69
(g70
g71
NtRp867
(dp868
g74
(dp869
g82
I5
ssg83
g863
sg76
(lp870
g69
(g78
g71
NtRp871
(dp872
g74
(dp873
g82
I4
ssg83
Nsg76
(lp874
g69
(g85
g71
NtRp875
(dp876
g74
(dp877
sg83
g871
sg76
(lp878
g69
(g90
g71
NtRp879
(dp880
g74
(dp881
g94
g95
ssg83
g875
sg76
(lp882
S'app_folders'
p883
asbag69
(g90
g71
NtRp884
(dp885
g74
(dp886
g101
g102
ssg83
g875
sg76
(lp887
S':'
asbag69
(g90
g71
NtRp888
(dp889
g74
(dp890
sg83
g875
sg76
(lp891
g69
(g70
g71
NtRp892
(dp893
g74
(dp894
g82
I4
ssg83
g888
sg76
(lp895
S"set(['/home/umang/web2py/applications/admin/', '/home/umang/web2py/applications/assignmen3/', '/home/umang/web2py/applications/welcome/'])"
p896
asbasbasbag69
(g85
g71
NtRp897
(dp898
g74
(dp899
sg83
g871
sg76
(lp900
g69
(g90
g71
NtRp901
(dp902
g74
(dp903
g94
g95
ssg83
g897
sg76
(lp904
S'applications_parent'
p905
asbag69
(g90
g71
NtRp906
(dp907
g74
(dp908
g101
g102
ssg83
g897
sg76
(lp909
S':'
asbag69
(g90
g71
NtRp910
(dp911
g74
(dp912
sg83
g897
sg76
(lp913
g69
(g70
g71
NtRp914
(dp915
g74
(dp916
g82
I4
ssg83
g910
sg76
(lp917
S'/home/umang/web2py'
p918
asbasbasbag69
(g85
g71
NtRp919
(dp920
g74
(dp921
sg83
g871
sg76
(lp922
g69
(g90
g71
NtRp923
(dp924
g74
(dp925
g94
g95
ssg83
g919
sg76
(lp926
S'cmd_args'
p927
asbag69
(g90
g71
NtRp928
(dp929
g74
(dp930
g101
g102
ssg83
g919
sg76
(lp931
S':'
asbag69
(g90
g71
NtRp932
(dp933
g74
(dp934
sg83
g919
sg76
(lp935
g69
(g70
g71
NtRp936
(dp937
g74
(dp938
g82
I4
ssg83
g932
sg76
(lp939
g69
(g78
g71
NtRp940
(dp941
g74
(dp942
g82
I3
ssg83
Nsg76
(lp943
sbasbasbasbag69
(g85
g71
NtRp944
(dp945
g74
(dp946
sg83
g871
sg76
(lp947
g69
(g90
g71
NtRp948
(dp949
g74
(dp950
g94
g95
ssg83
g944
sg76
(lp951
S'cmd_options'
p952
asbag69
(g90
g71
NtRp953
(dp954
g74
(dp955
g101
g102
ssg83
g944
sg76
(lp956
S':'
asbag69
(g90
g71
NtRp957
(dp958
g74
(dp959
sg83
g944
sg76
(lp960
g69
(g70
g71
NtRp961
(dp962
g74
(dp963
g82
I4
ssg83
g957
sg76
(lp964
S"<Values at 0x1698200: {'verbose': False, 'ip': '127.0.0.1', 'with_scheduler': False, 'ips': [], 'shutdown_timeout': 5, 'taskbar': False, 'port': 8000, 'maxthreads': None, 'softcron': False, 'server_name': 'umang-HP-Pavilion-g6-Notebook-PC', 'bpython': False, 'nogui': False, 'pid_filename': 'httpserver.pid', 'extcron': False, 'runcron': False, 'run_system_tests': False, 'test': None, 'folder': '/home/umang/web2py', 'config': '', 'minthreads': None, 'winservice': '', 'shell': None, 'run': '', 'log_filename': 'httpserver.log', 'debuglevel': 30, 'args': [''], 'socket_timeout': 5, 'ssl_ca_certificate': None, 'scheduler': None, 'profiler_filename': None, 'ssl_private_key': '', 'scheduler_groups': None, 'password': '<ask>', 'request_queue_size': 5, 'ssl_certificate': '', 'cronjob': False, 'numthreads': None, 'quiet': False, 'interfaces': None, 'import_models': False, 'timeout': 10, 'plain': False, 'nobanner': False}>"
p965
asbasbasbag69
(g85
g71
NtRp966
(dp967
g74
(dp968
sg83
g871
sg76
(lp969
g69
(g90
g71
NtRp970
(dp971
g74
(dp972
g94
g95
ssg83
g966
sg76
(lp973
S'db_sessions'
p974
asbag69
(g90
g71
NtRp975
(dp976
g74
(dp977
g101
g102
ssg83
g966
sg76
(lp978
S':'
asbag69
(g90
g71
NtRp979
(dp980
g74
(dp981
sg83
g966
sg76
(lp982
g69
(g70
g71
NtRp983
(dp984
g74
(dp985
g82
I4
ssg83
g979
sg76
(lp986
S'set([])'
p987
asbasbasbag69
(g85
g71
NtRp988
(dp989
g74
(dp990
sg83
g871
sg76
(lp991
g69
(g90
g71
NtRp992
(dp993
g74
(dp994
g94
g95
ssg83
g988
sg76
(lp995
S'debugging'
p996
asbag69
(g90
g71
NtRp997
(dp998
g74
(dp999
g101
g102
ssg83
g988
sg76
(lp1000
S':'
asbag69
(g90
g71
NtRp1001
(dp1002
g74
(dp1003
sg83
g988
sg76
(lp1004
g69
(g70
g71
NtRp1005
(dp1006
g74
(dp1007
g82
I4
ssg83
g1001
sg76
(lp1008
g112
asbasbasbag69
(g85
g71
NtRp1009
(dp1010
g74
(dp1011
sg83
g871
sg76
(lp1012
g69
(g90
g71
NtRp1013
(dp1014
g74
(dp1015
g94
g95
ssg83
g1009
sg76
(lp1016
S'gluon_parent'
p1017
asbag69
(g90
g71
NtRp1018
(dp1019
g74
(dp1020
g101
g102
ssg83
g1009
sg76
(lp1021
S':'
asbag69
(g90
g71
NtRp1022
(dp1023
g74
(dp1024
sg83
g1009
sg76
(lp1025
g69
(g70
g71
NtRp1026
(dp1027
g74
(dp1028
g82
I4
ssg83
g1022
sg76
(lp1029
S'/home/umang/web2py'
p1030
asbasbasbag69
(g85
g71
NtRp1031
(dp1032
g74
(dp1033
sg83
g871
sg76
(lp1034
g69
(g90
g71
NtRp1035
(dp1036
g74
(dp1037
g94
g95
ssg83
g1031
sg76
(lp1038
S'http_accept'
p1039
asbag69
(g90
g71
NtRp1040
(dp1041
g74
(dp1042
g101
g102
ssg83
g1031
sg76
(lp1043
S':'
asbag69
(g90
g71
NtRp1044
(dp1045
g74
(dp1046
sg83
g1031
sg76
(lp1047
g69
(g70
g71
NtRp1048
(dp1049
g74
(dp1050
g82
I4
ssg83
g1044
sg76
(lp1051
S'text/html,application/xhtml+xml,application/xml;q=0.9,*/*;q=0.8'
p1052
asbasbasbag69
(g85
g71
NtRp1053
(dp1054
g74
(dp1055
sg83
g871
sg76
(lp1056
g69
(g90
g71
NtRp1057
(dp1058
g74
(dp1059
g94
g95
ssg83
g1053
sg76
(lp1060
S'http_accept_encoding'
p1061
asbag69
(g90
g71
NtRp1062
(dp1063
g74
(dp1064
g101
g102
ssg83
g1053
sg76
(lp1065
S':'
asbag69
(g90
g71
NtRp1066
(dp1067
g74
(dp1068
sg83
g1053
sg76
(lp1069
g69
(g70
g71
NtRp1070
(dp1071
g74
(dp1072
g82
I4
ssg83
g1066
sg76
(lp1073
S'gzip, deflate'
p1074
asbasbasbag69
(g85
g71
NtRp1075
(dp1076
g74
(dp1077
sg83
g871
sg76
(lp1078
g69
(g90
g71
NtRp1079
(dp1080
g74
(dp1081
g94
g95
ssg83
g1075
sg76
(lp1082
S'http_accept_language'
p1083
asbag69
(g90
g71
NtRp1084
(dp1085
g74
(dp1086
g101
g102
ssg83
g1075
sg76
(lp1087
S':'
asbag69
(g90
g71
NtRp1088
(dp1089
g74
(dp1090
sg83
g1075
sg76
(lp1091
g69
(g70
g71
NtRp1092
(dp1093
g74
(dp1094
g82
I4
ssg83
g1088
sg76
(lp1095
S'en-us,en;q=0.5'
p1096
asbasbasbag69
(g85
g71
NtRp1097
(dp1098
g74
(dp1099
sg83
g871
sg76
(lp1100
g69
(g90
g71
NtRp1101
(dp1102
g74
(dp1103
g94
g95
ssg83
g1097
sg76
(lp1104
S'http_connection'
p1105
asbag69
(g90
g71
NtRp1106
(dp1107
g74
(dp1108
g101
g102
ssg83
g1097
sg76
(lp1109
S':'
asbag69
(g90
g71
NtRp1110
(dp1111
g74
(dp1112
sg83
g1097
sg76
(lp1113
g69
(g70
g71
NtRp1114
(dp1115
g74
(dp1116
g82
I4
ssg83
g1110
sg76
(lp1117
S'keep-alive'
p1118
asbasbasbag69
(g85
g71
NtRp1119
(dp1120
g74
(dp1121
sg83
g871
sg76
(lp1122
g69
(g90
g71
NtRp1123
(dp1124
g74
(dp1125
g94
g95
ssg83
g1119
sg76
(lp1126
S'http_cookie'
p1127
asbag69
(g90
g71
NtRp1128
(dp1129
g74
(dp1130
g101
g102
ssg83
g1119
sg76
(lp1131
S':'
asbag69
(g90
g71
NtRp1132
(dp1133
g74
(dp1134
sg83
g1119
sg76
(lp1135
g69
(g70
g71
NtRp1136
(dp1137
g74
(dp1138
g82
I4
ssg83
g1132
sg76
(lp1139
S'session_id_welcome=127.0.0.1-a2b1b4d6-eba7-4458-9892-ba028024c0c4; session_id_admin=127.0.0.1-d509f0cc-4c80-4380-be27-aebf7c06a1e6; session_id_assignmen3=127.0.0.1-f78a0883-b419-4f1b-8802-d13ae89341f4'
p1140
asbasbasbag69
(g85
g71
NtRp1141
(dp1142
g74
(dp1143
sg83
g871
sg76
(lp1144
g69
(g90
g71
NtRp1145
(dp1146
g74
(dp1147
g94
g95
ssg83
g1141
sg76
(lp1148
S'http_host'
p1149
asbag69
(g90
g71
NtRp1150
(dp1151
g74
(dp1152
g101
g102
ssg83
g1141
sg76
(lp1153
S':'
asbag69
(g90
g71
NtRp1154
(dp1155
g74
(dp1156
sg83
g1141
sg76
(lp1157
g69
(g70
g71
NtRp1158
(dp1159
g74
(dp1160
g82
I4
ssg83
g1154
sg76
(lp1161
S'127.0.0.1:8000'
p1162
asbasbasbag69
(g85
g71
NtRp1163
(dp1164
g74
(dp1165
sg83
g871
sg76
(lp1166
g69
(g90
g71
NtRp1167
(dp1168
g74
(dp1169
g94
g95
ssg83
g1163
sg76
(lp1170
S'http_referer'
p1171
asbag69
(g90
g71
NtRp1172
(dp1173
g74
(dp1174
g101
g102
ssg83
g1163
sg76
(lp1175
S':'
asbag69
(g90
g71
NtRp1176
(dp1177
g74
(dp1178
sg83
g1163
sg76
(lp1179
g69
(g70
g71
NtRp1180
(dp1181
g74
(dp1182
g82
I4
ssg83
g1176
sg76
(lp1183
S'http://127.0.0.1:8000/assignmen3/default/first_page/2'
p1184
asbasbasbag69
(g85
g71
NtRp1185
(dp1186
g74
(dp1187
sg83
g871
sg76
(lp1188
g69
(g90
g71
NtRp1189
(dp1190
g74
(dp1191
g94
g95
ssg83
g1185
sg76
(lp1192
S'http_user_agent'
p1193
asbag69
(g90
g71
NtRp1194
(dp1195
g74
(dp1196
g101
g102
ssg83
g1185
sg76
(lp1197
S':'
asbag69
(g90
g71
NtRp1198
(dp1199
g74
(dp1200
sg83
g1185
sg76
(lp1201
g69
(g70
g71
NtRp1202
(dp1203
g74
(dp1204
g82
I4
ssg83
g1198
sg76
(lp1205
S'Mozilla/5.0 (X11; Ubuntu; Linux x86_64; rv:11.0) Gecko/20100101 Firefox/11.0'
p1206
asbasbasbag69
(g85
g71
NtRp1207
(dp1208
g74
(dp1209
sg83
g871
sg76
(lp1210
g69
(g90
g71
NtRp1211
(dp1212
g74
(dp1213
g94
g95
ssg83
g1207
sg76
(lp1214
S'is_jython'
p1215
asbag69
(g90
g71
NtRp1216
(dp1217
g74
(dp1218
g101
g102
ssg83
g1207
sg76
(lp1219
S':'
asbag69
(g90
g71
NtRp1220
(dp1221
g74
(dp1222
sg83
g1207
sg76
(lp1223
g69
(g70
g71
NtRp1224
(dp1225
g74
(dp1226
g82
I4
ssg83
g1220
sg76
(lp1227
g112
asbasbasbag69
(g85
g71
NtRp1228
(dp1229
g74
(dp1230
sg83
g871
sg76
(lp1231
g69
(g90
g71
NtRp1232
(dp1233
g74
(dp1234
g94
g95
ssg83
g1228
sg76
(lp1235
S'is_pypy'
p1236
asbag69
(g90
g71
NtRp1237
(dp1238
g74
(dp1239
g101
g102
ssg83
g1228
sg76
(lp1240
S':'
asbag69
(g90
g71
NtRp1241
(dp1242
g74
(dp1243
sg83
g1228
sg76
(lp1244
g69
(g70
g71
NtRp1245
(dp1246
g74
(dp1247
g82
I4
ssg83
g1241
sg76
(lp1248
g112
asbasbasbag69
(g85
g71
NtRp1249
(dp1250
g74
(dp1251
sg83
g871
sg76
(lp1252
g69
(g90
g71
NtRp1253
(dp1254
g74
(dp1255
g94
g95
ssg83
g1249
sg76
(lp1256
S'local_hosts'
p1257
asbag69
(g90
g71
NtRp1258
(dp1259
g74
(dp1260
g101
g102
ssg83
g1249
sg76
(lp1261
S':'
asbag69
(g90
g71
NtRp1262
(dp1263
g74
(dp1264
sg83
g1249
sg76
(lp1265
g69
(g70
g71
NtRp1266
(dp1267
g74
(dp1268
g82
I4
ssg83
g1262
sg76
(lp1269
g69
(g78
g71
NtRp1270
(dp1271
g74
(dp1272
g82
I3
ssg83
Nsg76
(lp1273
g69
(g85
g71
NtRp1274
(dp1275
g74
(dp1276
sg83
g1270
sg76
(lp1277
g69
(g90
g71
NtRp1278
(dp1279
g74
(dp1280
sg83
g1274
sg76
(lp1281
g69
(g70
g71
NtRp1282
(dp1283
g74
(dp1284
g82
I3
ssg83
g1278
sg76
(lp1285
S'::1'
p1286
asbasbasbag69
(g85
g71
NtRp1287
(dp1288
g74
(dp1289
sg83
g1270
sg76
(lp1290
g69
(g90
g71
NtRp1291
(dp1292
g74
(dp1293
sg83
g1287
sg76
(lp1294
g69
(g70
g71
NtRp1295
(dp1296
g74
(dp1297
g82
I3
ssg83
g1291
sg76
(lp1298
S'127.0.1.1'
p1299
asbasbasbag69
(g85
g71
NtRp1300
(dp1301
g74
(dp1302
sg83
g1270
sg76
(lp1303
g69
(g90
g71
NtRp1304
(dp1305
g74
(dp1306
sg83
g1300
sg76
(lp1307
g69
(g70
g71
NtRp1308
(dp1309
g74
(dp1310
g82
I3
ssg83
g1304
sg76
(lp1311
S'::ffff:127.0.0.1'
p1312
asbasbasbag69
(g85
g71
NtRp1313
(dp1314
g74
(dp1315
sg83
g1270
sg76
(lp1316
g69
(g90
g71
NtRp1317
(dp1318
g74
(dp1319
sg83
g1313
sg76
(lp1320
g69
(g70
g71
NtRp1321
(dp1322
g74
(dp1323
g82
I3
ssg83
g1317
sg76
(lp1324
S'127.0.0.1'
p1325
asbasbasbag69
(g85
g71
NtRp1326
(dp1327
g74
(dp1328
sg83
g1270
sg76
(lp1329
g69
(g90
g71
NtRp1330
(dp1331
g74
(dp1332
sg83
g1326
sg76
(lp1333
g69
(g70
g71
NtRp1334
(dp1335
g74
(dp1336
g82
I3
ssg83
g1330
sg76
(lp1337
S'umang-HP-Pavilion-g6-Notebook-PC'
p1338
asbasbasbasbasbasbasbag69
(g85
g71
NtRp1339
(dp1340
g74
(dp1341
sg83
g871
sg76
(lp1342
g69
(g90
g71
NtRp1343
(dp1344
g74
(dp1345
g94
g95
ssg83
g1339
sg76
(lp1346
S'path_info'
p1347
asbag69
(g90
g71
NtRp1348
(dp1349
g74
(dp1350
g101
g102
ssg83
g1339
sg76
(lp1351
S':'
asbag69
(g90
g71
NtRp1352
(dp1353
g74
(dp1354
sg83
g1339
sg76
(lp1355
g69
(g70
g71
NtRp1356
(dp1357
g74
(dp1358
g82
I4
ssg83
g1352
sg76
(lp1359
S'/assignmen3/default/first_page/2'
p1360
asbasbasbag69
(g85
g71
NtRp1361
(dp1362
g74
(dp1363
sg83
g871
sg76
(lp1364
g69
(g90
g71
NtRp1365
(dp1366
g74
(dp1367
g94
g95
ssg83
g1361
sg76
(lp1368
S'query_string'
p1369
asbag69
(g90
g71
NtRp1370
(dp1371
g74
(dp1372
g101
g102
ssg83
g1361
sg76
(lp1373
S':'
asbag69
(g90
g71
NtRp1374
(dp1375
g74
(dp1376
sg83
g1361
sg76
(lp1377
g69
(g70
g71
NtRp1378
(dp1379
g74
(dp1380
g82
I4
ssg83
g1374
sg76
(lp1381
S''
asbasbasbag69
(g85
g71
NtRp1382
(dp1383
g74
(dp1384
sg83
g871
sg76
(lp1385
g69
(g90
g71
NtRp1386
(dp1387
g74
(dp1388
g94
g95
ssg83
g1382
sg76
(lp1389
S'remote_addr'
p1390
asbag69
(g90
g71
NtRp1391
(dp1392
g74
(dp1393
g101
g102
ssg83
g1382
sg76
(lp1394
S':'
asbag69
(g90
g71
NtRp1395
(dp1396
g74
(dp1397
sg83
g1382
sg76
(lp1398
g69
(g70
g71
NtRp1399
(dp1400
g74
(dp1401
g82
I4
ssg83
g1395
sg76
(lp1402
g236
asbasbasbag69
(g85
g71
NtRp1403
(dp1404
g74
(dp1405
sg83
g871
sg76
(lp1406
g69
(g90
g71
NtRp1407
(dp1408
g74
(dp1409
g94
g95
ssg83
g1403
sg76
(lp1410
S'remote_port'
p1411
asbag69
(g90
g71
NtRp1412
(dp1413
g74
(dp1414
g101
g102
ssg83
g1403
sg76
(lp1415
S':'
asbag69
(g90
g71
NtRp1416
(dp1417
g74
(dp1418
sg83
g1403
sg76
(lp1419
g69
(g70
g71
NtRp1420
(dp1421
g74
(dp1422
g82
I4
ssg83
g1416
sg76
(lp1423
S'32812'
p1424
asbasbasbag69
(g85
g71
NtRp1425
(dp1426
g74
(dp1427
sg83
g871
sg76
(lp1428
g69
(g90
g71
NtRp1429
(dp1430
g74
(dp1431
g94
g95
ssg83
g1425
sg76
(lp1432
S'request_method'
p1433
asbag69
(g90
g71
NtRp1434
(dp1435
g74
(dp1436
g101
g102
ssg83
g1425
sg76
(lp1437
S':'
asbag69
(g90
g71
NtRp1438
(dp1439
g74
(dp1440
sg83
g1425
sg76
(lp1441
g69
(g70
g71
NtRp1442
(dp1443
g74
(dp1444
g82
I4
ssg83
g1438
sg76
(lp1445
S'GET'
p1446
asbasbasbag69
(g85
g71
NtRp1447
(dp1448
g74
(dp1449
sg83
g871
sg76
(lp1450
g69
(g90
g71
NtRp1451
(dp1452
g74
(dp1453
g94
g95
ssg83
g1447
sg76
(lp1454
S'request_uri'
p1455
asbag69
(g90
g71
NtRp1456
(dp1457
g74
(dp1458
g101
g102
ssg83
g1447
sg76
(lp1459
S':'
asbag69
(g90
g71
NtRp1460
(dp1461
g74
(dp1462
sg83
g1447
sg76
(lp1463
g69
(g70
g71
NtRp1464
(dp1465
g74
(dp1466
g82
I4
ssg83
g1460
sg76
(lp1467
g1360
asbasbasbag69
(g85
g71
NtRp1468
(dp1469
g74
(dp1470
sg83
g871
sg76
(lp1471
g69
(g90
g71
NtRp1472
(dp1473
g74
(dp1474
g94
g95
ssg83
g1468
sg76
(lp1475
S'script_name'
p1476
asbag69
(g90
g71
NtRp1477
(dp1478
g74
(dp1479
g101
g102
ssg83
g1468
sg76
(lp1480
S':'
asbag69
(g90
g71
NtRp1481
(dp1482
g74
(dp1483
sg83
g1468
sg76
(lp1484
g69
(g70
g71
NtRp1485
(dp1486
g74
(dp1487
g82
I4
ssg83
g1481
sg76
(lp1488
S''
asbasbasbag69
(g85
g71
NtRp1489
(dp1490
g74
(dp1491
sg83
g871
sg76
(lp1492
g69
(g90
g71
NtRp1493
(dp1494
g74
(dp1495
g94
g95
ssg83
g1489
sg76
(lp1496
S'server_name'
p1497
asbag69
(g90
g71
NtRp1498
(dp1499
g74
(dp1500
g101
g102
ssg83
g1489
sg76
(lp1501
S':'
asbag69
(g90
g71
NtRp1502
(dp1503
g74
(dp1504
sg83
g1489
sg76
(lp1505
g69
(g70
g71
NtRp1506
(dp1507
g74
(dp1508
g82
I4
ssg83
g1502
sg76
(lp1509
S'umang-HP-Pavilion-g6-Notebook-PC'
p1510
asbasbasbag69
(g85
g71
NtRp1511
(dp1512
g74
(dp1513
sg83
g871
sg76
(lp1514
g69
(g90
g71
NtRp1515
(dp1516
g74
(dp1517
g94
g95
ssg83
g1511
sg76
(lp1518
S'server_port'
p1519
asbag69
(g90
g71
NtRp1520
(dp1521
g74
(dp1522
g101
g102
ssg83
g1511
sg76
(lp1523
S':'
asbag69
(g90
g71
NtRp1524
(dp1525
g74
(dp1526
sg83
g1511
sg76
(lp1527
g69
(g70
g71
NtRp1528
(dp1529
g74
(dp1530
g82
I4
ssg83
g1524
sg76
(lp1531
S'8000'
p1532
asbasbasbag69
(g85
g71
NtRp1533
(dp1534
g74
(dp1535
sg83
g871
sg76
(lp1536
g69
(g90
g71
NtRp1537
(dp1538
g74
(dp1539
g94
g95
ssg83
g1533
sg76
(lp1540
S'server_protocol'
p1541
asbag69
(g90
g71
NtRp1542
(dp1543
g74
(dp1544
g101
g102
ssg83
g1533
sg76
(lp1545
S':'
asbag69
(g90
g71
NtRp1546
(dp1547
g74
(dp1548
sg83
g1533
sg76
(lp1549
g69
(g70
g71
NtRp1550
(dp1551
g74
(dp1552
g82
I4
ssg83
g1546
sg76
(lp1553
S'HTTP/1.1'
p1554
asbasbasbag69
(g85
g71
NtRp1555
(dp1556
g74
(dp1557
sg83
g871
sg76
(lp1558
g69
(g90
g71
NtRp1559
(dp1560
g74
(dp1561
g94
g95
ssg83
g1555
sg76
(lp1562
S'server_software'
p1563
asbag69
(g90
g71
NtRp1564
(dp1565
g74
(dp1566
g101
g102
ssg83
g1555
sg76
(lp1567
S':'
asbag69
(g90
g71
NtRp1568
(dp1569
g74
(dp1570
sg83
g1555
sg76
(lp1571
g69
(g70
g71
NtRp1572
(dp1573
g74
(dp1574
g82
I4
ssg83
g1568
sg76
(lp1575
S'Rocket 1.2.6'
p1576
asbasbasbag69
(g85
g71
NtRp1577
(dp1578
g74
(dp1579
sg83
g871
sg76
(lp1580
g69
(g90
g71
NtRp1581
(dp1582
g74
(dp1583
g94
g95
ssg83
g1577
sg76
(lp1584
S'web2py_path'
p1585
asbag69
(g90
g71
NtRp1586
(dp1587
g74
(dp1588
g101
g102
ssg83
g1577
sg76
(lp1589
S':'
asbag69
(g90
g71
NtRp1590
(dp1591
g74
(dp1592
sg83
g1577
sg76
(lp1593
g69
(g70
g71
NtRp1594
(dp1595
g74
(dp1596
g82
I4
ssg83
g1590
sg76
(lp1597
g918
asbasbasbag69
(g85
g71
NtRp1598
(dp1599
g74
(dp1600
sg83
g871
sg76
(lp1601
g69
(g90
g71
NtRp1602
(dp1603
g74
(dp1604
g94
g95
ssg83
g1598
sg76
(lp1605
S'web2py_version'
p1606
asbag69
(g90
g71
NtRp1607
(dp1608
g74
(dp1609
g101
g102
ssg83
g1598
sg76
(lp1610
S':'
asbag69
(g90
g71
NtRp1611
(dp1612
g74
(dp1613
sg83
g1598
sg76
(lp1614
g69
(g70
g71
NtRp1615
(dp1616
g74
(dp1617
g82
I4
ssg83
g1611
sg76
(lp1618
g69
(g78
g71
NtRp1619
(dp1620
g74
(dp1621
g82
I3
ssg83
Nsg76
(lp1622
g69
(g85
g71
NtRp1623
(dp1624
g74
(dp1625
sg83
g1619
sg76
(lp1626
g69
(g90
g71
NtRp1627
(dp1628
g74
(dp1629
sg83
g1623
sg76
(lp1630
g69
(g70
g71
NtRp1631
(dp1632
g74
(dp1633
g82
I3
ssg83
g1627
sg76
(lp1634
S'2'
asbasbasbag69
(g85
g71
NtRp1635
(dp1636
g74
(dp1637
sg83
g1619
sg76
(lp1638
g69
(g90
g71
NtRp1639
(dp1640
g74
(dp1641
sg83
g1635
sg76
(lp1642
g69
(g70
g71
NtRp1643
(dp1644
g74
(dp1645
g82
I3
ssg83
g1639
sg76
(lp1646
S'3'
asbasbasbag69
(g85
g71
NtRp1647
(dp1648
g74
(dp1649
sg83
g1619
sg76
(lp1650
g69
(g90
g71
NtRp1651
(dp1652
g74
(dp1653
sg83
g1647
sg76
(lp1654
g69
(g70
g71
NtRp1655
(dp1656
g74
(dp1657
g82
I3
ssg83
g1651
sg76
(lp1658
S'2'
asbasbasbag69
(g85
g71
NtRp1659
(dp1660
g74
(dp1661
sg83
g1619
sg76
(lp1662
g69
(g90
g71
NtRp1663
(dp1664
g74
(dp1665
sg83
g1659
sg76
(lp1666
g69
(g70
g71
NtRp1667
(dp1668
g74
(dp1669
g82
I3
ssg83
g1663
sg76
(lp1670
S'datetime.datetime(2012, 12, 17, 15, 3, 30)'
p1671
asbasbasbag69
(g85
g71
NtRp1672
(dp1673
g74
(dp1674
sg83
g1619
sg76
(lp1675
g69
(g90
g71
NtRp1676
(dp1677
g74
(dp1678
sg83
g1672
sg76
(lp1679
g69
(g70
g71
NtRp1680
(dp1681
g74
(dp1682
g82
I3
ssg83
g1676
sg76
(lp1683
S'stable'
p1684
asbasbasbasbasbasbasbag69
(g85
g71
NtRp1685
(dp1686
g74
(dp1687
sg83
g871
sg76
(lp1688
g69
(g90
g71
NtRp1689
(dp1690
g74
(dp1691
g94
g95
ssg83
g1685
sg76
(lp1692
S'wsgi_errors'
p1693
asbag69
(g90
g71
NtRp1694
(dp1695
g74
(dp1696
g101
g102
ssg83
g1685
sg76
(lp1697
S':'
asbag69
(g90
g71
NtRp1698
(dp1699
g74
(dp1700
sg83
g1685
sg76
(lp1701
g69
(g70
g71
NtRp1702
(dp1703
g74
(dp1704
g82
I4
ssg83
g1698
sg76
(lp1705
S"<open file '<stderr>', mode 'w' at 0x7f953b4c2270>"
p1706
asbasbasbag69
(g85
g71
NtRp1707
(dp1708
g74
(dp1709
sg83
g871
sg76
(lp1710
g69
(g90
g71
NtRp1711
(dp1712
g74
(dp1713
g94
g95
ssg83
g1707
sg76
(lp1714
S'wsgi_file_wrapper'
p1715
asbag69
(g90
g71
NtRp1716
(dp1717
g74
(dp1718
g101
g102
ssg83
g1707
sg76
(lp1719
S':'
asbag69
(g90
g71
NtRp1720
(dp1721
g74
(dp1722
sg83
g1707
sg76
(lp1723
g69
(g70
g71
NtRp1724
(dp1725
g74
(dp1726
g82
I4
ssg83
g1720
sg76
(lp1727
S'<class wsgiref.util.FileWrapper at 0x1601b48>'
p1728
asbasbasbag69
(g85
g71
NtRp1729
(dp1730
g74
(dp1731
sg83
g871
sg76
(lp1732
g69
(g90
g71
NtRp1733
(dp1734
g74
(dp1735
g94
g95
ssg83
g1729
sg76
(lp1736
S'wsgi_input'
p1737
asbag69
(g90
g71
NtRp1738
(dp1739
g74
(dp1740
g101
g102
ssg83
g1729
sg76
(lp1741
S':'
asbag69
(g90
g71
NtRp1742
(dp1743
g74
(dp1744
sg83
g1729
sg76
(lp1745
g69
(g70
g71
NtRp1746
(dp1747
g74
(dp1748
g82
I4
ssg83
g1742
sg76
(lp1749
S'<socket._fileobject object at 0x7f95143e56d0>'
p1750
asbasbasbag69
(g85
g71
NtRp1751
(dp1752
g74
(dp1753
sg83
g871
sg76
(lp1754
g69
(g90
g71
NtRp1755
(dp1756
g74
(dp1757
g94
g95
ssg83
g1751
sg76
(lp1758
S'wsgi_multiprocess'
p1759
asbag69
(g90
g71
NtRp1760
(dp1761
g74
(dp1762
g101
g102
ssg83
g1751
sg76
(lp1763
S':'
asbag69
(g90
g71
NtRp1764
(dp1765
g74
(dp1766
sg83
g1751
sg76
(lp1767
g69
(g70
g71
NtRp1768
(dp1769
g74
(dp1770
g82
I4
ssg83
g1764
sg76
(lp1771
g112
asbasbasbag69
(g85
g71
NtRp1772
(dp1773
g74
(dp1774
sg83
g871
sg76
(lp1775
g69
(g90
g71
NtRp1776
(dp1777
g74
(dp1778
g94
g95
ssg83
g1772
sg76
(lp1779
S'wsgi_multithread'
p1780
asbag69
(g90
g71
NtRp1781
(dp1782
g74
(dp1783
g101
g102
ssg83
g1772
sg76
(lp1784
S':'
asbag69
(g90
g71
NtRp1785
(dp1786
g74
(dp1787
sg83
g1772
sg76
(lp1788
g69
(g70
g71
NtRp1789
(dp1790
g74
(dp1791
g82
I4
ssg83
g1785
sg76
(lp1792
S'True'
p1793
asbasbasbag69
(g85
g71
NtRp1794
(dp1795
g74
(dp1796
sg83
g871
sg76
(lp1797
g69
(g90
g71
NtRp1798
(dp1799
g74
(dp1800
g94
g95
ssg83
g1794
sg76
(lp1801
S'wsgi_run_once'
p1802
asbag69
(g90
g71
NtRp1803
(dp1804
g74
(dp1805
g101
g102
ssg83
g1794
sg76
(lp1806
S':'
asbag69
(g90
g71
NtRp1807
(dp1808
g74
(dp1809
sg83
g1794
sg76
(lp1810
g69
(g70
g71
NtRp1811
(dp1812
g74
(dp1813
g82
I4
ssg83
g1807
sg76
(lp1814
g112
asbasbasbag69
(g85
g71
NtRp1815
(dp1816
g74
(dp1817
sg83
g871
sg76
(lp1818
g69
(g90
g71
NtRp1819
(dp1820
g74
(dp1821
g94
g95
ssg83
g1815
sg76
(lp1822
S'wsgi_url_scheme'
p1823
asbag69
(g90
g71
NtRp1824
(dp1825
g74
(dp1826
g101
g102
ssg83
g1815
sg76
(lp1827
S':'
asbag69
(g90
g71
NtRp1828
(dp1829
g74
(dp1830
sg83
g1815
sg76
(lp1831
g69
(g70
g71
NtRp1832
(dp1833
g74
(dp1834
g82
I4
ssg83
g1828
sg76
(lp1835
S'http'
p1836
asbasbasbag69
(g85
g71
NtRp1837
(dp1838
g74
(dp1839
sg83
g871
sg76
(lp1840
g69
(g90
g71
NtRp1841
(dp1842
g74
(dp1843
g94
g95
ssg83
g1837
sg76
(lp1844
S'wsgi_version'
p1845
asbag69
(g90
g71
NtRp1846
(dp1847
g74
(dp1848
g101
g102
ssg83
g1837
sg76
(lp1849
S':'
asbag69
(g90
g71
NtRp1850
(dp1851
g74
(dp1852
sg83
g1837
sg76
(lp1853
g69
(g70
g71
NtRp1854
(dp1855
g74
(dp1856
g82
I4
ssg83
g1850
sg76
(lp1857
g69
(g78
g71
NtRp1858
(dp1859
g74
(dp1860
g82
I3
ssg83
Nsg76
(lp1861
g69
(g85
g71
NtRp1862
(dp1863
g74
(dp1864
sg83
g1858
sg76
(lp1865
g69
(g90
g71
NtRp1866
(dp1867
g74
(dp1868
sg83
g1862
sg76
(lp1869
g69
(g70
g71
NtRp1870
(dp1871
g74
(dp1872
g82
I3
ssg83
g1866
sg76
(lp1873
S'1'
asbasbasbag69
(g85
g71
NtRp1874
(dp1875
g74
(dp1876
sg83
g1858
sg76
(lp1877
g69
(g90
g71
NtRp1878
(dp1879
g74
(dp1880
sg83
g1874
sg76
(lp1881
g69
(g70
g71
NtRp1882
(dp1883
g74
(dp1884
g82
I3
ssg83
g1878
sg76
(lp1885
S'0'
asbasbasbasbasbasbasbasbasbasbasbag69
(g85
g71
NtRp1886
(dp1887
g74
(dp1888
sg83
g79
sg76
(lp1889
g69
(g90
g71
NtRp1890
(dp1891
g74
(dp1892
g94
g95
ssg83
g1886
sg76
(lp1893
S'extension'
p1894
asbag69
(g90
g71
NtRp1895
(dp1896
g74
(dp1897
g101
g102
ssg83
g1886
sg76
(lp1898
S':'
asbag69
(g90
g71
NtRp1899
(dp1900
g74
(dp1901
sg83
g1886
sg76
(lp1902
g69
(g70
g71
NtRp1903
(dp1904
g74
(dp1905
g82
I5
ssg83
g1899
sg76
(lp1906
S'html'
p1907
asbasbasbag69
(g85
g71
NtRp1908
(dp1909
g74
(dp1910
sg83
g79
sg76
(lp1911
g69
(g90
g71
NtRp1912
(dp1913
g74
(dp1914
g94
g95
ssg83
g1908
sg76
(lp1915
S'folder'
p1916
asbag69
(g90
g71
NtRp1917
(dp1918
g74
(dp1919
g101
g102
ssg83
g1908
sg76
(lp1920
S':'
asbag69
(g90
g71
NtRp1921
(dp1922
g74
(dp1923
sg83
g1908
sg76
(lp1924
g69
(g70
g71
NtRp1925
(dp1926
g74
(dp1927
g82
I5
ssg83
g1921
sg76
(lp1928
S'/home/umang/web2py/applications/assignmen3/'
p1929
asbasbasbag69
(g85
g71
NtRp1930
(dp1931
g74
(dp1932
sg83
g79
sg76
(lp1933
g69
(g90
g71
NtRp1934
(dp1935
g74
(dp1936
g94
g95
ssg83
g1930
sg76
(lp1937
S'function'
p1938
asbag69
(g90
g71
NtRp1939
(dp1940
g74
(dp1941
g101
g102
ssg83
g1930
sg76
(lp1942
S':'
asbag69
(g90
g71
NtRp1943
(dp1944
g74
(dp1945
sg83
g1930
sg76
(lp1946
g69
(g70
g71
NtRp1947
(dp1948
g74
(dp1949
g82
I5
ssg83
g1943
sg76
(lp1950
S'first_page'
p1951
asbasbasbag69
(g85
g71
NtRp1952
(dp1953
g74
(dp1954
sg83
g79
sg76
(lp1955
g69
(g90
g71
NtRp1956
(dp1957
g74
(dp1958
g94
g95
ssg83
g1952
sg76
(lp1959
S'get_vars'
p1960
asbag69
(g90
g71
NtRp1961
(dp1962
g74
(dp1963
g101
g102
ssg83
g1952
sg76
(lp1964
S':'
asbag69
(g90
g71
NtRp1965
(dp1966
g74
(dp1967
sg83
g1952
sg76
(lp1968
g69
(g70
g71
NtRp1969
(dp1970
g74
(dp1971
g82
I5
ssg83
g1965
sg76
(lp1972
g69
(g78
g71
NtRp1973
(dp1974
g74
(dp1975
g82
I4
ssg83
Nsg76
(lp1976
sbasbasbasbag69
(g85
g71
NtRp1977
(dp1978
g74
(dp1979
sg83
g79
sg76
(lp1980
g69
(g90
g71
NtRp1981
(dp1982
g74
(dp1983
g94
g95
ssg83
g1977
sg76
(lp1984
S'global_settings'
p1985
asbag69
(g90
g71
NtRp1986
(dp1987
g74
(dp1988
g101
g102
ssg83
g1977
sg76
(lp1989
S':'
asbag69
(g90
g71
NtRp1990
(dp1991
g74
(dp1992
sg83
g1977
sg76
(lp1993
g69
(g70
g71
NtRp1994
(dp1995
g74
(dp1996
g82
I5
ssg83
g1990
sg76
(lp1997
g69
(g78
g71
NtRp1998
(dp1999
g74
(dp2000
g82
I4
ssg83
Nsg76
(lp2001
g69
(g85
g71
NtRp2002
(dp2003
g74
(dp2004
sg83
g1998
sg76
(lp2005
g69
(g90
g71
NtRp2006
(dp2007
g74
(dp2008
g94
g95
ssg83
g2002
sg76
(lp2009
g883
asbag69
(g90
g71
NtRp2010
(dp2011
g74
(dp2012
g101
g102
ssg83
g2002
sg76
(lp2013
S':'
asbag69
(g90
g71
NtRp2014
(dp2015
g74
(dp2016
sg83
g2002
sg76
(lp2017
g69
(g70
g71
NtRp2018
(dp2019
g74
(dp2020
g82
I4
ssg83
g2014
sg76
(lp2021
S"set(['/home/umang/web2py/applications/admin/', '/home/umang/web2py/applications/assignmen3/', '/home/umang/web2py/applications/welcome/'])"
p2022
asbasbasbag69
(g85
g71
NtRp2023
(dp2024
g74
(dp2025
sg83
g1998
sg76
(lp2026
g69
(g90
g71
NtRp2027
(dp2028
g74
(dp2029
g94
g95
ssg83
g2023
sg76
(lp2030
g905
asbag69
(g90
g71
NtRp2031
(dp2032
g74
(dp2033
g101
g102
ssg83
g2023
sg76
(lp2034
S':'
asbag69
(g90
g71
NtRp2035
(dp2036
g74
(dp2037
sg83
g2023
sg76
(lp2038
g69
(g70
g71
NtRp2039
(dp2040
g74
(dp2041
g82
I4
ssg83
g2035
sg76
(lp2042
g918
asbasbasbag69
(g85
g71
NtRp2043
(dp2044
g74
(dp2045
sg83
g1998
sg76
(lp2046
g69
(g90
g71
NtRp2047
(dp2048
g74
(dp2049
g94
g95
ssg83
g2043
sg76
(lp2050
g927
asbag69
(g90
g71
NtRp2051
(dp2052
g74
(dp2053
g101
g102
ssg83
g2043
sg76
(lp2054
S':'
asbag69
(g90
g71
NtRp2055
(dp2056
g74
(dp2057
sg83
g2043
sg76
(lp2058
g69
(g70
g71
NtRp2059
(dp2060
g74
(dp2061
g82
I4
ssg83
g2055
sg76
(lp2062
g69
(g78
g71
NtRp2063
(dp2064
g74
(dp2065
g82
I3
ssg83
Nsg76
(lp2066
sbasbasbasbag69
(g85
g71
NtRp2067
(dp2068
g74
(dp2069
sg83
g1998
sg76
(lp2070
g69
(g90
g71
NtRp2071
(dp2072
g74
(dp2073
g94
g95
ssg83
g2067
sg76
(lp2074
g952
asbag69
(g90
g71
NtRp2075
(dp2076
g74
(dp2077
g101
g102
ssg83
g2067
sg76
(lp2078
S':'
asbag69
(g90
g71
NtRp2079
(dp2080
g74
(dp2081
sg83
g2067
sg76
(lp2082
g69
(g70
g71
NtRp2083
(dp2084
g74
(dp2085
g82
I4
ssg83
g2079
sg76
(lp2086
S"<Values at 0x1698200: {'verbose': False, 'ip': '127.0.0.1', 'with_scheduler': False, 'ips': [], 'shutdown_timeout': 5, 'taskbar': False, 'port': 8000, 'maxthreads': None, 'softcron': False, 'server_name': 'umang-HP-Pavilion-g6-Notebook-PC', 'bpython': False, 'nogui': False, 'pid_filename': 'httpserver.pid', 'extcron': False, 'runcron': False, 'run_system_tests': False, 'test': None, 'folder': '/home/umang/web2py', 'config': '', 'minthreads': None, 'winservice': '', 'shell': None, 'run': '', 'log_filename': 'httpserver.log', 'debuglevel': 30, 'args': [''], 'socket_timeout': 5, 'ssl_ca_certificate': None, 'scheduler': None, 'profiler_filename': None, 'ssl_private_key': '', 'scheduler_groups': None, 'password': '<ask>', 'request_queue_size': 5, 'ssl_certificate': '', 'cronjob': False, 'numthreads': None, 'quiet': False, 'interfaces': None, 'import_models': False, 'timeout': 10, 'plain': False, 'nobanner': False}>"
p2087
asbasbasbag69
(g85
g71
NtRp2088
(dp2089
g74
(dp2090
sg83
g1998
sg76
(lp2091
g69
(g90
g71
NtRp2092
(dp2093
g74
(dp2094
g94
g95
ssg83
g2088
sg76
(lp2095
g974
asbag69
(g90
g71
NtRp2096
(dp2097
g74
(dp2098
g101
g102
ssg83
g2088
sg76
(lp2099
S':'
asbag69
(g90
g71
NtRp2100
(dp2101
g74
(dp2102
sg83
g2088
sg76
(lp2103
g69
(g70
g71
NtRp2104
(dp2105
g74
(dp2106
g82
I4
ssg83
g2100
sg76
(lp2107
S'set([])'
p2108
asbasbasbag69
(g85
g71
NtRp2109
(dp2110
g74
(dp2111
sg83
g1998
sg76
(lp2112
g69
(g90
g71
NtRp2113
(dp2114
g74
(dp2115
g94
g95
ssg83
g2109
sg76
(lp2116
g996
asbag69
(g90
g71
NtRp2117
(dp2118
g74
(dp2119
g101
g102
ssg83
g2109
sg76
(lp2120
S':'
asbag69
(g90
g71
NtRp2121
(dp2122
g74
(dp2123
sg83
g2109
sg76
(lp2124
g69
(g70
g71
NtRp2125
(dp2126
g74
(dp2127
g82
I4
ssg83
g2121
sg76
(lp2128
g112
asbasbasbag69
(g85
g71
NtRp2129
(dp2130
g74
(dp2131
sg83
g1998
sg76
(lp2132
g69
(g90
g71
NtRp2133
(dp2134
g74
(dp2135
g94
g95
ssg83
g2129
sg76
(lp2136
g1017
asbag69
(g90
g71
NtRp2137
(dp2138
g74
(dp2139
g101
g102
ssg83
g2129
sg76
(lp2140
S':'
asbag69
(g90
g71
NtRp2141
(dp2142
g74
(dp2143
sg83
g2129
sg76
(lp2144
g69
(g70
g71
NtRp2145
(dp2146
g74
(dp2147
g82
I4
ssg83
g2141
sg76
(lp2148
g1030
asbasbasbag69
(g85
g71
NtRp2149
(dp2150
g74
(dp2151
sg83
g1998
sg76
(lp2152
g69
(g90
g71
NtRp2153
(dp2154
g74
(dp2155
g94
g95
ssg83
g2149
sg76
(lp2156
g1215
asbag69
(g90
g71
NtRp2157
(dp2158
g74
(dp2159
g101
g102
ssg83
g2149
sg76
(lp2160
S':'
asbag69
(g90
g71
NtRp2161
(dp2162
g74
(dp2163
sg83
g2149
sg76
(lp2164
g69
(g70
g71
NtRp2165
(dp2166
g74
(dp2167
g82
I4
ssg83
g2161
sg76
(lp2168
g112
asbasbasbag69
(g85
g71
NtRp2169
(dp2170
g74
(dp2171
sg83
g1998
sg76
(lp2172
g69
(g90
g71
NtRp2173
(dp2174
g74
(dp2175
g94
g95
ssg83
g2169
sg76
(lp2176
g1236
asbag69
(g90
g71
NtRp2177
(dp2178
g74
(dp2179
g101
g102
ssg83
g2169
sg76
(lp2180
S':'
asbag69
(g90
g71
NtRp2181
(dp2182
g74
(dp2183
sg83
g2169
sg76
(lp2184
g69
(g70
g71
NtRp2185
(dp2186
g74
(dp2187
g82
I4
ssg83
g2181
sg76
(lp2188
g112
asbasbasbag69
(g85
g71
NtRp2189
(dp2190
g74
(dp2191
sg83
g1998
sg76
(lp2192
g69
(g90
g71
NtRp2193
(dp2194
g74
(dp2195
g94
g95
ssg83
g2189
sg76
(lp2196
g1257
asbag69
(g90
g71
NtRp2197
(dp2198
g74
(dp2199
g101
g102
ssg83
g2189
sg76
(lp2200
S':'
asbag69
(g90
g71
NtRp2201
(dp2202
g74
(dp2203
sg83
g2189
sg76
(lp2204
g69
(g70
g71
NtRp2205
(dp2206
g74
(dp2207
g82
I4
ssg83
g2201
sg76
(lp2208
g69
(g78
g71
NtRp2209
(dp2210
g74
(dp2211
g82
I3
ssg83
Nsg76
(lp2212
g69
(g85
g71
NtRp2213
(dp2214
g74
(dp2215
sg83
g2209
sg76
(lp2216
g69
(g90
g71
NtRp2217
(dp2218
g74
(dp2219
sg83
g2213
sg76
(lp2220
g69
(g70
g71
NtRp2221
(dp2222
g74
(dp2223
g82
I3
ssg83
g2217
sg76
(lp2224
g1286
asbasbasbag69
(g85
g71
NtRp2225
(dp2226
g74
(dp2227
sg83
g2209
sg76
(lp2228
g69
(g90
g71
NtRp2229
(dp2230
g74
(dp2231
sg83
g2225
sg76
(lp2232
g69
(g70
g71
NtRp2233
(dp2234
g74
(dp2235
g82
I3
ssg83
g2229
sg76
(lp2236
g1299
asbasbasbag69
(g85
g71
NtRp2237
(dp2238
g74
(dp2239
sg83
g2209
sg76
(lp2240
g69
(g90
g71
NtRp2241
(dp2242
g74
(dp2243
sg83
g2237
sg76
(lp2244
g69
(g70
g71
NtRp2245
(dp2246
g74
(dp2247
g82
I3
ssg83
g2241
sg76
(lp2248
g1312
asbasbasbag69
(g85
g71
NtRp2249
(dp2250
g74
(dp2251
sg83
g2209
sg76
(lp2252
g69
(g90
g71
NtRp2253
(dp2254
g74
(dp2255
sg83
g2249
sg76
(lp2256
g69
(g70
g71
NtRp2257
(dp2258
g74
(dp2259
g82
I3
ssg83
g2253
sg76
(lp2260
g1325
asbasbasbag69
(g85
g71
NtRp2261
(dp2262
g74
(dp2263
sg83
g2209
sg76
(lp2264
g69
(g90
g71
NtRp2265
(dp2266
g74
(dp2267
sg83
g2261
sg76
(lp2268
g69
(g70
g71
NtRp2269
(dp2270
g74
(dp2271
g82
I3
ssg83
g2265
sg76
(lp2272
g1338
asbasbasbasbasbasbasbag69
(g85
g71
NtRp2273
(dp2274
g74
(dp2275
sg83
g1998
sg76
(lp2276
g69
(g90
g71
NtRp2277
(dp2278
g74
(dp2279
g94
g95
ssg83
g2273
sg76
(lp2280
g1606
asbag69
(g90
g71
NtRp2281
(dp2282
g74
(dp2283
g101
g102
ssg83
g2273
sg76
(lp2284
S':'
asbag69
(g90
g71
NtRp2285
(dp2286
g74
(dp2287
sg83
g2273
sg76
(lp2288
g69
(g70
g71
NtRp2289
(dp2290
g74
(dp2291
g82
I4
ssg83
g2285
sg76
(lp2292
g69
(g78
g71
NtRp2293
(dp2294
g74
(dp2295
g82
I3
ssg83
Nsg76
(lp2296
g69
(g85
g71
NtRp2297
(dp2298
g74
(dp2299
sg83
g2293
sg76
(lp2300
g69
(g90
g71
NtRp2301
(dp2302
g74
(dp2303
sg83
g2297
sg76
(lp2304
g69
(g70
g71
NtRp2305
(dp2306
g74
(dp2307
g82
I3
ssg83
g2301
sg76
(lp2308
S'2'
asbasbasbag69
(g85
g71
NtRp2309
(dp2310
g74
(dp2311
sg83
g2293
sg76
(lp2312
g69
(g90
g71
NtRp2313
(dp2314
g74
(dp2315
sg83
g2309
sg76
(lp2316
g69
(g70
g71
NtRp2317
(dp2318
g74
(dp2319
g82
I3
ssg83
g2313
sg76
(lp2320
S'3'
asbasbasbag69
(g85
g71
NtRp2321
(dp2322
g74
(dp2323
sg83
g2293
sg76
(lp2324
g69
(g90
g71
NtRp2325
(dp2326
g74
(dp2327
sg83
g2321
sg76
(lp2328
g69
(g70
g71
NtRp2329
(dp2330
g74
(dp2331
g82
I3
ssg83
g2325
sg76
(lp2332
S'2'
asbasbasbag69
(g85
g71
NtRp2333
(dp2334
g74
(dp2335
sg83
g2293
sg76
(lp2336
g69
(g90
g71
NtRp2337
(dp2338
g74
(dp2339
sg83
g2333
sg76
(lp2340
g69
(g70
g71
NtRp2341
(dp2342
g74
(dp2343
g82
I3
ssg83
g2337
sg76
(lp2344
S'datetime.datetime(2012, 12, 17, 15, 3, 30)'
p2345
asbasbasbag69
(g85
g71
NtRp2346
(dp2347
g74
(dp2348
sg83
g2293
sg76
(lp2349
g69
(g90
g71
NtRp2350
(dp2351
g74
(dp2352
sg83
g2346
sg76
(lp2353
g69
(g70
g71
NtRp2354
(dp2355
g74
(dp2356
g82
I3
ssg83
g2350
sg76
(lp2357
g1684
asbasbasbasbasbasbasbasbasbasbasbag69
(g85
g71
NtRp2358
(dp2359
g74
(dp2360
sg83
g79
sg76
(lp2361
g69
(g90
g71
NtRp2362
(dp2363
g74
(dp2364
g94
g95
ssg83
g2358
sg76
(lp2365
S'is_https'
p2366
asbag69
(g90
g71
NtRp2367
(dp2368
g74
(dp2369
g101
g102
ssg83
g2358
sg76
(lp2370
S':'
asbag69
(g90
g71
NtRp2371
(dp2372
g74
(dp2373
sg83
g2358
sg76
(lp2374
g69
(g70
g71
NtRp2375
(dp2376
g74
(dp2377
g82
I5
ssg83
g2371
sg76
(lp2378
g112
asbasbasbag69
(g85
g71
NtRp2379
(dp2380
g74
(dp2381
sg83
g79
sg76
(lp2382
g69
(g90
g71
NtRp2383
(dp2384
g74
(dp2385
g94
g95
ssg83
g2379
sg76
(lp2386
S'is_local'
p2387
asbag69
(g90
g71
NtRp2388
(dp2389
g74
(dp2390
g101
g102
ssg83
g2379
sg76
(lp2391
S':'
asbag69
(g90
g71
NtRp2392
(dp2393
g74
(dp2394
sg83
g2379
sg76
(lp2395
g69
(g70
g71
NtRp2396
(dp2397
g74
(dp2398
g82
I5
ssg83
g2392
sg76
(lp2399
g1793
asbasbasbag69
(g85
g71
NtRp2400
(dp2401
g74
(dp2402
sg83
g79
sg76
(lp2403
g69
(g90
g71
NtRp2404
(dp2405
g74
(dp2406
g94
g95
ssg83
g2400
sg76
(lp2407
S'is_restful'
p2408
asbag69
(g90
g71
NtRp2409
(dp2410
g74
(dp2411
g101
g102
ssg83
g2400
sg76
(lp2412
S':'
asbag69
(g90
g71
NtRp2413
(dp2414
g74
(dp2415
sg83
g2400
sg76
(lp2416
g69
(g70
g71
NtRp2417
(dp2418
g74
(dp2419
g82
I5
ssg83
g2413
sg76
(lp2420
g112
asbasbasbag69
(g85
g71
NtRp2421
(dp2422
g74
(dp2423
sg83
g79
sg76
(lp2424
g69
(g90
g71
NtRp2425
(dp2426
g74
(dp2427
g94
g95
ssg83
g2421
sg76
(lp2428
S'now'
p2429
asbag69
(g90
g71
NtRp2430
(dp2431
g74
(dp2432
g101
g102
ssg83
g2421
sg76
(lp2433
S':'
asbag69
(g90
g71
NtRp2434
(dp2435
g74
(dp2436
sg83
g2421
sg76
(lp2437
g69
(g70
g71
NtRp2438
(dp2439
g74
(dp2440
g82
I5
ssg83
g2434
sg76
(lp2441
S'datetime.datetime(2013, 8, 27, 14, 8, 33, 801341)'
p2442
asbasbasbag69
(g85
g71
NtRp2443
(dp2444
g74
(dp2445
sg83
g79
sg76
(lp2446
g69
(g90
g71
NtRp2447
(dp2448
g74
(dp2449
g94
g95
ssg83
g2443
sg76
(lp2450
S'post_vars'
p2451
asbag69
(g90
g71
NtRp2452
(dp2453
g74
(dp2454
g101
g102
ssg83
g2443
sg76
(lp2455
S':'
asbag69
(g90
g71
NtRp2456
(dp2457
g74
(dp2458
sg83
g2443
sg76
(lp2459
g69
(g70
g71
NtRp2460
(dp2461
g74
(dp2462
g82
I5
ssg83
g2456
sg76
(lp2463
g69
(g78
g71
NtRp2464
(dp2465
g74
(dp2466
g82
I4
ssg83
Nsg76
(lp2467
sbasbasbasbag69
(g85
g71
NtRp2468
(dp2469
g74
(dp2470
sg83
g79
sg76
(lp2471
g69
(g90
g71
NtRp2472
(dp2473
g74
(dp2474
g94
g95
ssg83
g2468
sg76
(lp2475
S'raw_args'
p2476
asbag69
(g90
g71
NtRp2477
(dp2478
g74
(dp2479
g101
g102
ssg83
g2468
sg76
(lp2480
S':'
asbag69
(g90
g71
NtRp2481
(dp2482
g74
(dp2483
sg83
g2468
sg76
(lp2484
g69
(g70
g71
NtRp2485
(dp2486
g74
(dp2487
g82
I5
ssg83
g2481
sg76
(lp2488
S'2'
asbasbasbag69
(g85
g71
NtRp2489
(dp2490
g74
(dp2491
sg83
g79
sg76
(lp2492
g69
(g90
g71
NtRp2493
(dp2494
g74
(dp2495
g94
g95
ssg83
g2489
sg76
(lp2496
S'raw_extension'
p2497
asbag69
(g90
g71
NtRp2498
(dp2499
g74
(dp2500
g101
g102
ssg83
g2489
sg76
(lp2501
S':'
asbag69
(g90
g71
NtRp2502
(dp2503
g74
(dp2504
sg83
g2489
sg76
(lp2505
g69
(g70
g71
NtRp2506
(dp2507
g74
(dp2508
g82
I5
ssg83
g2502
sg76
(lp2509
S'None'
p2510
asbasbasbag69
(g85
g71
NtRp2511
(dp2512
g74
(dp2513
sg83
g79
sg76
(lp2514
g69
(g90
g71
NtRp2515
(dp2516
g74
(dp2517
g94
g95
ssg83
g2511
sg76
(lp2518
S'url'
p2519
asbag69
(g90
g71
NtRp2520
(dp2521
g74
(dp2522
g101
g102
ssg83
g2511
sg76
(lp2523
S':'
asbag69
(g90
g71
NtRp2524
(dp2525
g74
(dp2526
sg83
g2511
sg76
(lp2527
g69
(g70
g71
NtRp2528
(dp2529
g74
(dp2530
g82
I5
ssg83
g2524
sg76
(lp2531
g1360
asbasbasbag69
(g85
g71
NtRp2532
(dp2533
g74
(dp2534
sg83
g79
sg76
(lp2535
g69
(g90
g71
NtRp2536
(dp2537
g74
(dp2538
g94
g95
ssg83
g2532
sg76
(lp2539
S'utcnow'
p2540
asbag69
(g90
g71
NtRp2541
(dp2542
g74
(dp2543
g101
g102
ssg83
g2532
sg76
(lp2544
S':'
asbag69
(g90
g71
NtRp2545
(dp2546
g74
(dp2547
sg83
g2532
sg76
(lp2548
g69
(g70
g71
NtRp2549
(dp2550
g74
(dp2551
g82
I5
ssg83
g2545
sg76
(lp2552
S'datetime.datetime(2013, 8, 27, 8, 38, 33, 801370)'
p2553
asbasbasbag69
(g85
g71
NtRp2554
(dp2555
g74
(dp2556
sg83
g79
sg76
(lp2557
g69
(g90
g71
NtRp2558
(dp2559
g74
(dp2560
g94
g95
ssg83
g2554
sg76
(lp2561
S'uuid'
p2562
asbag69
(g90
g71
NtRp2563
(dp2564
g74
(dp2565
g101
g102
ssg83
g2554
sg76
(lp2566
S':'
asbag69
(g90
g71
NtRp2567
(dp2568
g74
(dp2569
sg83
g2554
sg76
(lp2570
g69
(g70
g71
NtRp2571
(dp2572
g74
(dp2573
g82
I5
ssg83
g2567
sg76
(lp2574
S'assignmen3/127.0.0.1.2013-08-27.14-08-33.56d8c124-e12b-4bed-be1a-f886e0149993'
p2575
asbasbasbag69
(g85
g71
NtRp2576
(dp2577
g74
(dp2578
sg83
g79
sg76
(lp2579
g69
(g90
g71
NtRp2580
(dp2581
g74
(dp2582
g94
g95
ssg83
g2576
sg76
(lp2583
S'vars'
p2584
asbag69
(g90
g71
NtRp2585
(dp2586
g74
(dp2587
g101
g102
ssg83
g2576
sg76
(lp2588
S':'
asbag69
(g90
g71
NtRp2589
(dp2590
g74
(dp2591
sg83
g2576
sg76
(lp2592
g69
(g70
g71
NtRp2593
(dp2594
g74
(dp2595
g82
I5
ssg83
g2589
sg76
(lp2596
g69
(g78
g71
NtRp2597
(dp2598
g74
(dp2599
g82
I4
ssg83
Nsg76
(lp2600
sbasbasbasbag69
(g85
g71
NtRp2601
(dp2602
g74
(dp2603
sg83
g79
sg76
(lp2604
g69
(g90
g71
NtRp2605
(dp2606
g74
(dp2607
g94
g95
ssg83
g2601
sg76
(lp2608
S'wsgi'
p2609
asbag69
(g90
g71
NtRp2610
(dp2611
g74
(dp2612
g101
g102
ssg83
g2601
sg76
(lp2613
S':'
asbag69
(g90
g71
NtRp2614
(dp2615
g74
(dp2616
sg83
g2601
sg76
(lp2617
g69
(g70
g71
NtRp2618
(dp2619
g74
(dp2620
g82
I5
ssg83
g2614
sg76
(lp2621
g69
(g78
g71
NtRp2622
(dp2623
g74
(dp2624
g82
I4
ssg83
Nsg76
(lp2625
g69
(g85
g71
NtRp2626
(dp2627
g74
(dp2628
sg83
g2622
sg76
(lp2629
g69
(g90
g71
NtRp2630
(dp2631
g74
(dp2632
g94
g95
ssg83
g2626
sg76
(lp2633
S'environ'
p2634
asbag69
(g90
g71
NtRp2635
(dp2636
g74
(dp2637
g101
g102
ssg83
g2626
sg76
(lp2638
S':'
asbag69
(g90
g71
NtRp2639
(dp2640
g74
(dp2641
sg83
g2626
sg76
(lp2642
g69
(g70
g71
NtRp2643
(dp2644
g74
(dp2645
g82
I4
ssg83
g2639
sg76
(lp2646
g69
(g78
g71
NtRp2647
(dp2648
g74
(dp2649
g82
I3
ssg83
Nsg76
(lp2650
g69
(g85
g71
NtRp2651
(dp2652
g74
(dp2653
sg83
g2647
sg76
(lp2654
g69
(g90
g71
NtRp2655
(dp2656
g74
(dp2657
g94
g95
ssg83
g2651
sg76
(lp2658
S'HTTP_ACCEPT'
p2659
asbag69
(g90
g71
NtRp2660
(dp2661
g74
(dp2662
g101
g102
ssg83
g2651
sg76
(lp2663
S':'
asbag69
(g90
g71
NtRp2664
(dp2665
g74
(dp2666
sg83
g2651
sg76
(lp2667
g69
(g70
g71
NtRp2668
(dp2669
g74
(dp2670
g82
I3
ssg83
g2664
sg76
(lp2671
g1052
asbasbasbag69
(g85
g71
NtRp2672
(dp2673
g74
(dp2674
sg83
g2647
sg76
(lp2675
g69
(g90
g71
NtRp2676
(dp2677
g74
(dp2678
g94
g95
ssg83
g2672
sg76
(lp2679
S'HTTP_ACCEPT_ENCODING'
p2680
asbag69
(g90
g71
NtRp2681
(dp2682
g74
(dp2683
g101
g102
ssg83
g2672
sg76
(lp2684
S':'
asbag69
(g90
g71
NtRp2685
(dp2686
g74
(dp2687
sg83
g2672
sg76
(lp2688
g69
(g70
g71
NtRp2689
(dp2690
g74
(dp2691
g82
I3
ssg83
g2685
sg76
(lp2692
g1074
asbasbasbag69
(g85
g71
NtRp2693
(dp2694
g74
(dp2695
sg83
g2647
sg76
(lp2696
g69
(g90
g71
NtRp2697
(dp2698
g74
(dp2699
g94
g95
ssg83
g2693
sg76
(lp2700
S'HTTP_ACCEPT_LANGUAGE'
p2701
asbag69
(g90
g71
NtRp2702
(dp2703
g74
(dp2704
g101
g102
ssg83
g2693
sg76
(lp2705
S':'
asbag69
(g90
g71
NtRp2706
(dp2707
g74
(dp2708
sg83
g2693
sg76
(lp2709
g69
(g70
g71
NtRp2710
(dp2711
g74
(dp2712
g82
I3
ssg83
g2706
sg76
(lp2713
g1096
asbasbasbag69
(g85
g71
NtRp2714
(dp2715
g74
(dp2716
sg83
g2647
sg76
(lp2717
g69
(g90
g71
NtRp2718
(dp2719
g74
(dp2720
g94
g95
ssg83
g2714
sg76
(lp2721
S'HTTP_CONNECTION'
p2722
asbag69
(g90
g71
NtRp2723
(dp2724
g74
(dp2725
g101
g102
ssg83
g2714
sg76
(lp2726
S':'
asbag69
(g90
g71
NtRp2727
(dp2728
g74
(dp2729
sg83
g2714
sg76
(lp2730
g69
(g70
g71
NtRp2731
(dp2732
g74
(dp2733
g82
I3
ssg83
g2727
sg76
(lp2734
g1118
asbasbasbag69
(g85
g71
NtRp2735
(dp2736
g74
(dp2737
sg83
g2647
sg76
(lp2738
g69
(g90
g71
NtRp2739
(dp2740
g74
(dp2741
g94
g95
ssg83
g2735
sg76
(lp2742
S'HTTP_COOKIE'
p2743
asbag69
(g90
g71
NtRp2744
(dp2745
g74
(dp2746
g101
g102
ssg83
g2735
sg76
(lp2747
S':'
asbag69
(g90
g71
NtRp2748
(dp2749
g74
(dp2750
sg83
g2735
sg76
(lp2751
g69
(g70
g71
NtRp2752
(dp2753
g74
(dp2754
g82
I3
ssg83
g2748
sg76
(lp2755
g1140
asbasbasbag69
(g85
g71
NtRp2756
(dp2757
g74
(dp2758
sg83
g2647
sg76
(lp2759
g69
(g90
g71
NtRp2760
(dp2761
g74
(dp2762
g94
g95
ssg83
g2756
sg76
(lp2763
S'HTTP_HOST'
p2764
asbag69
(g90
g71
NtRp2765
(dp2766
g74
(dp2767
g101
g102
ssg83
g2756
sg76
(lp2768
S':'
asbag69
(g90
g71
NtRp2769
(dp2770
g74
(dp2771
sg83
g2756
sg76
(lp2772
g69
(g70
g71
NtRp2773
(dp2774
g74
(dp2775
g82
I3
ssg83
g2769
sg76
(lp2776
g1162
asbasbasbag69
(g85
g71
NtRp2777
(dp2778
g74
(dp2779
sg83
g2647
sg76
(lp2780
g69
(g90
g71
NtRp2781
(dp2782
g74
(dp2783
g94
g95
ssg83
g2777
sg76
(lp2784
S'HTTP_REFERER'
p2785
asbag69
(g90
g71
NtRp2786
(dp2787
g74
(dp2788
g101
g102
ssg83
g2777
sg76
(lp2789
S':'
asbag69
(g90
g71
NtRp2790
(dp2791
g74
(dp2792
sg83
g2777
sg76
(lp2793
g69
(g70
g71
NtRp2794
(dp2795
g74
(dp2796
g82
I3
ssg83
g2790
sg76
(lp2797
g1184
asbasbasbag69
(g85
g71
NtRp2798
(dp2799
g74
(dp2800
sg83
g2647
sg76
(lp2801
g69
(g90
g71
NtRp2802
(dp2803
g74
(dp2804
g94
g95
ssg83
g2798
sg76
(lp2805
S'HTTP_USER_AGENT'
p2806
asbag69
(g90
g71
NtRp2807
(dp2808
g74
(dp2809
g101
g102
ssg83
g2798
sg76
(lp2810
S':'
asbag69
(g90
g71
NtRp2811
(dp2812
g74
(dp2813
sg83
g2798
sg76
(lp2814
g69
(g70
g71
NtRp2815
(dp2816
g74
(dp2817
g82
I3
ssg83
g2811
sg76
(lp2818
g1206
asbasbasbag69
(g85
g71
NtRp2819
(dp2820
g74
(dp2821
sg83
g2647
sg76
(lp2822
g69
(g90
g71
NtRp2823
(dp2824
g74
(dp2825
g94
g95
ssg83
g2819
sg76
(lp2826
S'PATH_INFO'
p2827
asbag69
(g90
g71
NtRp2828
(dp2829
g74
(dp2830
g101
g102
ssg83
g2819
sg76
(lp2831
S':'
asbag69
(g90
g71
NtRp2832
(dp2833
g74
(dp2834
sg83
g2819
sg76
(lp2835
g69
(g70
g71
NtRp2836
(dp2837
g74
(dp2838
g82
I3
ssg83
g2832
sg76
(lp2839
g1360
asbasbasbag69
(g85
g71
NtRp2840
(dp2841
g74
(dp2842
sg83
g2647
sg76
(lp2843
g69
(g90
g71
NtRp2844
(dp2845
g74
(dp2846
g94
g95
ssg83
g2840
sg76
(lp2847
S'QUERY_STRING'
p2848
asbag69
(g90
g71
NtRp2849
(dp2850
g74
(dp2851
g101
g102
ssg83
g2840
sg76
(lp2852
S':'
asbag69
(g90
g71
NtRp2853
(dp2854
g74
(dp2855
sg83
g2840
sg76
(lp2856
g69
(g70
g71
NtRp2857
(dp2858
g74
(dp2859
g82
I3
ssg83
g2853
sg76
(lp2860
S''
asbasbasbag69
(g85
g71
NtRp2861
(dp2862
g74
(dp2863
sg83
g2647
sg76
(lp2864
g69
(g90
g71
NtRp2865
(dp2866
g74
(dp2867
g94
g95
ssg83
g2861
sg76
(lp2868
S'REMOTE_ADDR'
p2869
asbag69
(g90
g71
NtRp2870
(dp2871
g74
(dp2872
g101
g102
ssg83
g2861
sg76
(lp2873
S':'
asbag69
(g90
g71
NtRp2874
(dp2875
g74
(dp2876
sg83
g2861
sg76
(lp2877
g69
(g70
g71
NtRp2878
(dp2879
g74
(dp2880
g82
I3
ssg83
g2874
sg76
(lp2881
g236
asbasbasbag69
(g85
g71
NtRp2882
(dp2883
g74
(dp2884
sg83
g2647
sg76
(lp2885
g69
(g90
g71
NtRp2886
(dp2887
g74
(dp2888
g94
g95
ssg83
g2882
sg76
(lp2889
S'REMOTE_PORT'
p2890
asbag69
(g90
g71
NtRp2891
(dp2892
g74
(dp2893
g101
g102
ssg83
g2882
sg76
(lp2894
S':'
asbag69
(g90
g71
NtRp2895
(dp2896
g74
(dp2897
sg83
g2882
sg76
(lp2898
g69
(g70
g71
NtRp2899
(dp2900
g74
(dp2901
g82
I3
ssg83
g2895
sg76
(lp2902
g1424
asbasbasbag69
(g85
g71
NtRp2903
(dp2904
g74
(dp2905
sg83
g2647
sg76
(lp2906
g69
(g90
g71
NtRp2907
(dp2908
g74
(dp2909
g94
g95
ssg83
g2903
sg76
(lp2910
S'REQUEST_METHOD'
p2911
asbag69
(g90
g71
NtRp2912
(dp2913
g74
(dp2914
g101
g102
ssg83
g2903
sg76
(lp2915
S':'
asbag69
(g90
g71
NtRp2916
(dp2917
g74
(dp2918
sg83
g2903
sg76
(lp2919
g69
(g70
g71
NtRp2920
(dp2921
g74
(dp2922
g82
I3
ssg83
g2916
sg76
(lp2923
g1446
asbasbasbag69
(g85
g71
NtRp2924
(dp2925
g74
(dp2926
sg83
g2647
sg76
(lp2927
g69
(g90
g71
NtRp2928
(dp2929
g74
(dp2930
g94
g95
ssg83
g2924
sg76
(lp2931
S'REQUEST_URI'
p2932
asbag69
(g90
g71
NtRp2933
(dp2934
g74
(dp2935
g101
g102
ssg83
g2924
sg76
(lp2936
S':'
asbag69
(g90
g71
NtRp2937
(dp2938
g74
(dp2939
sg83
g2924
sg76
(lp2940
g69
(g70
g71
NtRp2941
(dp2942
g74
(dp2943
g82
I3
ssg83
g2937
sg76
(lp2944
g1360
asbasbasbag69
(g85
g71
NtRp2945
(dp2946
g74
(dp2947
sg83
g2647
sg76
(lp2948
g69
(g90
g71
NtRp2949
(dp2950
g74
(dp2951
g94
g95
ssg83
g2945
sg76
(lp2952
S'SCRIPT_NAME'
p2953
asbag69
(g90
g71
NtRp2954
(dp2955
g74
(dp2956
g101
g102
ssg83
g2945
sg76
(lp2957
S':'
asbag69
(g90
g71
NtRp2958
(dp2959
g74
(dp2960
sg83
g2945
sg76
(lp2961
g69
(g70
g71
NtRp2962
(dp2963
g74
(dp2964
g82
I3
ssg83
g2958
sg76
(lp2965
S''
asbasbasbag69
(g85
g71
NtRp2966
(dp2967
g74
(dp2968
sg83
g2647
sg76
(lp2969
g69
(g90
g71
NtRp2970
(dp2971
g74
(dp2972
g94
g95
ssg83
g2966
sg76
(lp2973
S'SERVER_NAME'
p2974
asbag69
(g90
g71
NtRp2975
(dp2976
g74
(dp2977
g101
g102
ssg83
g2966
sg76
(lp2978
S':'
asbag69
(g90
g71
NtRp2979
(dp2980
g74
(dp2981
sg83
g2966
sg76
(lp2982
g69
(g70
g71
NtRp2983
(dp2984
g74
(dp2985
g82
I3
ssg83
g2979
sg76
(lp2986
g1510
asbasbasbag69
(g85
g71
NtRp2987
(dp2988
g74
(dp2989
sg83
g2647
sg76
(lp2990
g69
(g90
g71
NtRp2991
(dp2992
g74
(dp2993
g94
g95
ssg83
g2987
sg76
(lp2994
S'SERVER_PORT'
p2995
asbag69
(g90
g71
NtRp2996
(dp2997
g74
(dp2998
g101
g102
ssg83
g2987
sg76
(lp2999
S':'
asbag69
(g90
g71
NtRp3000
(dp3001
g74
(dp3002
sg83
g2987
sg76
(lp3003
g69
(g70
g71
NtRp3004
(dp3005
g74
(dp3006
g82
I3
ssg83
g3000
sg76
(lp3007
g1532
asbasbasbag69
(g85
g71
NtRp3008
(dp3009
g74
(dp3010
sg83
g2647
sg76
(lp3011
g69
(g90
g71
NtRp3012
(dp3013
g74
(dp3014
g94
g95
ssg83
g3008
sg76
(lp3015
S'SERVER_PROTOCOL'
p3016
asbag69
(g90
g71
NtRp3017
(dp3018
g74
(dp3019
g101
g102
ssg83
g3008
sg76
(lp3020
S':'
asbag69
(g90
g71
NtRp3021
(dp3022
g74
(dp3023
sg83
g3008
sg76
(lp3024
g69
(g70
g71
NtRp3025
(dp3026
g74
(dp3027
g82
I3
ssg83
g3021
sg76
(lp3028
g1554
asbasbasbag69
(g85
g71
NtRp3029
(dp3030
g74
(dp3031
sg83
g2647
sg76
(lp3032
g69
(g90
g71
NtRp3033
(dp3034
g74
(dp3035
g94
g95
ssg83
g3029
sg76
(lp3036
S'SERVER_SOFTWARE'
p3037
asbag69
(g90
g71
NtRp3038
(dp3039
g74
(dp3040
g101
g102
ssg83
g3029
sg76
(lp3041
S':'
asbag69
(g90
g71
NtRp3042
(dp3043
g74
(dp3044
sg83
g3029
sg76
(lp3045
g69
(g70
g71
NtRp3046
(dp3047
g74
(dp3048
g82
I3
ssg83
g3042
sg76
(lp3049
g1576
asbasbasbag69
(g85
g71
NtRp3050
(dp3051
g74
(dp3052
sg83
g2647
sg76
(lp3053
g69
(g90
g71
NtRp3054
(dp3055
g74
(dp3056
g94
g95
ssg83
g3050
sg76
(lp3057
S'wsgi.errors'
p3058
asbag69
(g90
g71
NtRp3059
(dp3060
g74
(dp3061
g101
g102
ssg83
g3050
sg76
(lp3062
S':'
asbag69
(g90
g71
NtRp3063
(dp3064
g74
(dp3065
sg83
g3050
sg76
(lp3066
g69
(g70
g71
NtRp3067
(dp3068
g74
(dp3069
g82
I3
ssg83
g3063
sg76
(lp3070
S"<open file '<stderr>', mode 'w' at 0x7f953b4c2270>"
p3071
asbasbasbag69
(g85
g71
NtRp3072
(dp3073
g74
(dp3074
sg83
g2647
sg76
(lp3075
g69
(g90
g71
NtRp3076
(dp3077
g74
(dp3078
g94
g95
ssg83
g3072
sg76
(lp3079
S'wsgi.file_wrapper'
p3080
asbag69
(g90
g71
NtRp3081
(dp3082
g74
(dp3083
g101
g102
ssg83
g3072
sg76
(lp3084
S':'
asbag69
(g90
g71
NtRp3085
(dp3086
g74
(dp3087
sg83
g3072
sg76
(lp3088
g69
(g70
g71
NtRp3089
(dp3090
g74
(dp3091
g82
I3
ssg83
g3085
sg76
(lp3092
S'<class wsgiref.util.FileWrapper at 0x1601b48>'
p3093
asbasbasbag69
(g85
g71
NtRp3094
(dp3095
g74
(dp3096
sg83
g2647
sg76
(lp3097
g69
(g90
g71
NtRp3098
(dp3099
g74
(dp3100
g94
g95
ssg83
g3094
sg76
(lp3101
S'wsgi.input'
p3102
asbag69
(g90
g71
NtRp3103
(dp3104
g74
(dp3105
g101
g102
ssg83
g3094
sg76
(lp3106
S':'
asbag69
(g90
g71
NtRp3107
(dp3108
g74
(dp3109
sg83
g3094
sg76
(lp3110
g69
(g70
g71
NtRp3111
(dp3112
g74
(dp3113
g82
I3
ssg83
g3107
sg76
(lp3114
S'<cStringIO.StringO object at 0x7f95140f7d88>'
p3115
asbasbasbag69
(g85
g71
NtRp3116
(dp3117
g74
(dp3118
sg83
g2647
sg76
(lp3119
g69
(g90
g71
NtRp3120
(dp3121
g74
(dp3122
g94
g95
ssg83
g3116
sg76
(lp3123
S'wsgi.multiprocess'
p3124
asbag69
(g90
g71
NtRp3125
(dp3126
g74
(dp3127
g101
g102
ssg83
g3116
sg76
(lp3128
S':'
asbag69
(g90
g71
NtRp3129
(dp3130
g74
(dp3131
sg83
g3116
sg76
(lp3132
g69
(g70
g71
NtRp3133
(dp3134
g74
(dp3135
g82
I3
ssg83
g3129
sg76
(lp3136
g112
asbasbasbag69
(g85
g71
NtRp3137
(dp3138
g74
(dp3139
sg83
g2647
sg76
(lp3140
g69
(g90
g71
NtRp3141
(dp3142
g74
(dp3143
g94
g95
ssg83
g3137
sg76
(lp3144
S'wsgi.multithread'
p3145
asbag69
(g90
g71
NtRp3146
(dp3147
g74
(dp3148
g101
g102
ssg83
g3137
sg76
(lp3149
S':'
asbag69
(g90
g71
NtRp3150
(dp3151
g74
(dp3152
sg83
g3137
sg76
(lp3153
g69
(g70
g71
NtRp3154
(dp3155
g74
(dp3156
g82
I3
ssg83
g3150
sg76
(lp3157
g1793
asbasbasbag69
(g85
g71
NtRp3158
(dp3159
g74
(dp3160
sg83
g2647
sg76
(lp3161
g69
(g90
g71
NtRp3162
(dp3163
g74
(dp3164
g94
g95
ssg83
g3158
sg76
(lp3165
S'wsgi.run_once'
p3166
asbag69
(g90
g71
NtRp3167
(dp3168
g74
(dp3169
g101
g102
ssg83
g3158
sg76
(lp3170
S':'
asbag69
(g90
g71
NtRp3171
(dp3172
g74
(dp3173
sg83
g3158
sg76
(lp3174
g69
(g70
g71
NtRp3175
(dp3176
g74
(dp3177
g82
I3
ssg83
g3171
sg76
(lp3178
g112
asbasbasbag69
(g85
g71
NtRp3179
(dp3180
g74
(dp3181
sg83
g2647
sg76
(lp3182
g69
(g90
g71
NtRp3183
(dp3184
g74
(dp3185
g94
g95
ssg83
g3179
sg76
(lp3186
S'wsgi.url_scheme'
p3187
asbag69
(g90
g71
NtRp3188
(dp3189
g74
(dp3190
g101
g102
ssg83
g3179
sg76
(lp3191
S':'
asbag69
(g90
g71
NtRp3192
(dp3193
g74
(dp3194
sg83
g3179
sg76
(lp3195
g69
(g70
g71
NtRp3196
(dp3197
g74
(dp3198
g82
I3
ssg83
g3192
sg76
(lp3199
g1836
asbasbasbag69
(g85
g71
NtRp3200
(dp3201
g74
(dp3202
sg83
g2647
sg76
(lp3203
g69
(g90
g71
NtRp3204
(dp3205
g74
(dp3206
g94
g95
ssg83
g3200
sg76
(lp3207
S'wsgi.version'
p3208
asbag69
(g90
g71
NtRp3209
(dp3210
g74
(dp3211
g101
g102
ssg83
g3200
sg76
(lp3212
S':'
asbag69
(g90
g71
NtRp3213
(dp3214
g74
(dp3215
sg83
g3200
sg76
(lp3216
g69
(g70
g71
NtRp3217
(dp3218
g74
(dp3219
g82
I3
ssg83
g3213
sg76
(lp3220
S'1'
asbasbasbasbasbasbasbasbasbasbasbasbasbsS'frames'
p3221
(lp3222
(dp3223
S'file'
p3224
S'/home/umang/web2py/gluon/restricted.py'
p3225
sS'dump'
p3226
(dp3227
S'code'
p3228
S"'# -*- coding: utf-8 -*-\\n# this file is released ...())\\n\\nresponse._vars=response._caller(first_page)\\n'"
p3229
sS'layer'
p3230
S"'/home/umang/web2py/applications/assignmen3/controllers/default.py'"
p3231
sS'global compile2'
p3232
S'<function compile2>'
p3233
sS'ccode'
p3234
S'undefined'
p3235
ssS'lnum'
p3236
I211
sS'lines'
p3237
(dp3238
I206
S"    environment['__name__'] = '__restricted__'"
p3239
sI207
S'    try:'
p3240
sI208
S'        if isinstance(code, types.CodeType):'
p3241
sI209
S'            ccode = code'
p3242
sI210
S'        else:'
p3243
sI211
S'            ccode = compile2(code, layer)'
p3244
sI212
S'        exec ccode in environment'
p3245
sI213
S'    except HTTP:'
p3246
sI214
S'        raise'
p3247
sI215
S'    except RestrictedError:'
p3248
ssS'call'
p3249
S"(code='# -*- coding: utf-8 -*-\\n# this file is released ...())\\n\\nresponse._vars=response._caller(first_page)\\n', environment={'A': <class 'gluon.html.A'>, 'Auth': <class 'gluon.tools.Auth'>, 'B': <class 'gluon.html.B'>, 'BEAUTIFY': <class 'gluon.html.BEAUTIFY'>, 'BODY': <class 'gluon.html.BODY'>, 'BR': <class 'gluon.html.BR'>, 'BUTTON': <class 'gluon.html.BUTTON'>, 'CAT': <class 'gluon.html.CAT'>, 'CENTER': <class 'gluon.html.CENTER'>, 'CLEANUP': <class 'gluon.validators.CLEANUP'>, ...}, layer='/home/umang/web2py/applications/assignmen3/controllers/default.py')"
p3250
sS'func'
p3251
S'restricted'
p3252
sa(dp3253
g3224
S'/home/umang/web2py/gluon/restricted.py'
p3254
sg3226
(dp3255
S'builtincompile'
p3256
S'<built-in function compile>'
p3257
sS'code'
p3258
S"'# -*- coding: utf-8 -*-\\n# this file is released ...())\\n\\nresponse._vars=response._caller(first_page)\\n'"
p3259
sS'code.rstrip'
p3260
S'<built-in method rstrip of str object>'
p3261
sS').replace'
p3262
g3235
sS'layer'
p3263
S"'/home/umang/web2py/applications/assignmen3/controllers/default.py'"
p3264
ssg3236
I194
sg3237
(dp3265
I192
S"    The +'\\n' is necessary else compile fails when code ends in a comment."
p3266
sI193
S'    """'
p3267
sI194
S"    return compile(code.rstrip().replace('\\r\\n', '\\n') + '\\n', layer, 'exec')"
p3268
sI195
S''
sI196
S''
sI197
S"def restricted(code, environment=None, layer='Unknown'):"
p3269
sI198
S'    """'
p3270
sI189
S''
sI190
S'def compile2(code, layer):'
p3271
sI191
S'    """'
p3272
ssg3249
S"(code='# -*- coding: utf-8 -*-\\n# this file is released ...())\\n\\nresponse._vars=response._caller(first_page)\\n', layer='/home/umang/web2py/applications/assignmen3/controllers/default.py')"
p3273
sg3251
S'compile2'
p3274
sasS'pyver'
p3275
S'Python 2.7.3: /usr/bin/python'
p3276
sS'session'
p3277
g69
(g70
g71
NtRp3278
(dp3279
g74
(dp3280
sg76
(lp3281
g69
(g78
g71
NtRp3282
(dp3283
g74
(dp3284
g82
I5
ssg83
Nsg76
(lp3285
g69
(g85
g71
NtRp3286
(dp3287
g74
(dp3288
sg83
g3282
sg76
(lp3289
g69
(g90
g71
NtRp3290
(dp3291
g74
(dp3292
g94
g95
ssg83
g3286
sg76
(lp3293
S'auth'
p3294
asbag69
(g90
g71
NtRp3295
(dp3296
g74
(dp3297
g101
g102
ssg83
g3286
sg76
(lp3298
S':'
asbag69
(g90
g71
NtRp3299
(dp3300
g74
(dp3301
sg83
g3286
sg76
(lp3302
g69
(g70
g71
NtRp3303
(dp3304
g74
(dp3305
g82
I5
ssg83
g3299
sg76
(lp3306
g69
(g78
g71
NtRp3307
(dp3308
g74
(dp3309
g82
I4
ssg83
Nsg76
(lp3310
g69
(g85
g71
NtRp3311
(dp3312
g74
(dp3313
sg83
g3307
sg76
(lp3314
g69
(g90
g71
NtRp3315
(dp3316
g74
(dp3317
g94
g95
ssg83
g3311
sg76
(lp3318
S'expiration'
p3319
asbag69
(g90
g71
NtRp3320
(dp3321
g74
(dp3322
g101
g102
ssg83
g3311
sg76
(lp3323
S':'
asbag69
(g90
g71
NtRp3324
(dp3325
g74
(dp3326
sg83
g3311
sg76
(lp3327
g69
(g70
g71
NtRp3328
(dp3329
g74
(dp3330
g82
I4
ssg83
g3324
sg76
(lp3331
S'3600'
p3332
asbasbasbag69
(g85
g71
NtRp3333
(dp3334
g74
(dp3335
sg83
g3307
sg76
(lp3336
g69
(g90
g71
NtRp3337
(dp3338
g74
(dp3339
g94
g95
ssg83
g3333
sg76
(lp3340
S'hmac_key'
p3341
asbag69
(g90
g71
NtRp3342
(dp3343
g74
(dp3344
g101
g102
ssg83
g3333
sg76
(lp3345
S':'
asbag69
(g90
g71
NtRp3346
(dp3347
g74
(dp3348
sg83
g3333
sg76
(lp3349
g69
(g70
g71
NtRp3350
(dp3351
g74
(dp3352
g82
I4
ssg83
g3346
sg76
(lp3353
S'4107bf60-9c3d-438f-9050-70f5ba162069'
p3354
asbasbasbag69
(g85
g71
NtRp3355
(dp3356
g74
(dp3357
sg83
g3307
sg76
(lp3358
g69
(g90
g71
NtRp3359
(dp3360
g74
(dp3361
g94
g95
ssg83
g3355
sg76
(lp3362
S'last_visit'
p3363
asbag69
(g90
g71
NtRp3364
(dp3365
g74
(dp3366
g101
g102
ssg83
g3355
sg76
(lp3367
S':'
asbag69
(g90
g71
NtRp3368
(dp3369
g74
(dp3370
sg83
g3355
sg76
(lp3371
g69
(g70
g71
NtRp3372
(dp3373
g74
(dp3374
g82
I4
ssg83
g3368
sg76
(lp3375
S'datetime.datetime(2013, 8, 27, 14, 6, 48, 192660)'
p3376
asbasbasbag69
(g85
g71
NtRp3377
(dp3378
g74
(dp3379
sg83
g3307
sg76
(lp3380
g69
(g90
g71
NtRp3381
(dp3382
g74
(dp3383
g94
g95
ssg83
g3377
sg76
(lp3384
S'remember'
p3385
asbag69
(g90
g71
NtRp3386
(dp3387
g74
(dp3388
g101
g102
ssg83
g3377
sg76
(lp3389
S':'
asbag69
(g90
g71
NtRp3390
(dp3391
g74
(dp3392
sg83
g3377
sg76
(lp3393
g69
(g70
g71
NtRp3394
(dp3395
g74
(dp3396
g82
I4
ssg83
g3390
sg76
(lp3397
g112
asbasbasbag69
(g85
g71
NtRp3398
(dp3399
g74
(dp3400
sg83
g3307
sg76
(lp3401
g69
(g90
g71
NtRp3402
(dp3403
g74
(dp3404
g94
g95
ssg83
g3398
sg76
(lp3405
S'user'
p3406
asbag69
(g90
g71
NtRp3407
(dp3408
g74
(dp3409
g101
g102
ssg83
g3398
sg76
(lp3410
S':'
asbag69
(g90
g71
NtRp3411
(dp3412
g74
(dp3413
sg83
g3398
sg76
(lp3414
g69
(g70
g71
NtRp3415
(dp3416
g74
(dp3417
g82
I4
ssg83
g3411
sg76
(lp3418
g69
(g78
g71
NtRp3419
(dp3420
g74
(dp3421
g82
I3
ssg83
Nsg76
(lp3422
g69
(g85
g71
NtRp3423
(dp3424
g74
(dp3425
sg83
g3419
sg76
(lp3426
g69
(g90
g71
NtRp3427
(dp3428
g74
(dp3429
g94
g95
ssg83
g3423
sg76
(lp3430
S'email'
p3431
asbag69
(g90
g71
NtRp3432
(dp3433
g74
(dp3434
g101
g102
ssg83
g3423
sg76
(lp3435
S':'
asbag69
(g90
g71
NtRp3436
(dp3437
g74
(dp3438
sg83
g3423
sg76
(lp3439
g69
(g70
g71
NtRp3440
(dp3441
g74
(dp3442
g82
I3
ssg83
g3436
sg76
(lp3443
S'umang.goel@students.iiit.ac.in'
p3444
asbasbasbag69
(g85
g71
NtRp3445
(dp3446
g74
(dp3447
sg83
g3419
sg76
(lp3448
g69
(g90
g71
NtRp3449
(dp3450
g74
(dp3451
g94
g95
ssg83
g3445
sg76
(lp3452
S'first_name'
p3453
asbag69
(g90
g71
NtRp3454
(dp3455
g74
(dp3456
g101
g102
ssg83
g3445
sg76
(lp3457
S':'
asbag69
(g90
g71
NtRp3458
(dp3459
g74
(dp3460
sg83
g3445
sg76
(lp3461
g69
(g70
g71
NtRp3462
(dp3463
g74
(dp3464
g82
I3
ssg83
g3458
sg76
(lp3465
S'Umang'
p3466
asbasbasbag69
(g85
g71
NtRp3467
(dp3468
g74
(dp3469
sg83
g3419
sg76
(lp3470
g69
(g90
g71
NtRp3471
(dp3472
g74
(dp3473
g94
g95
ssg83
g3467
sg76
(lp3474
S'id'
p3475
asbag69
(g90
g71
NtRp3476
(dp3477
g74
(dp3478
g101
g102
ssg83
g3467
sg76
(lp3479
S':'
asbag69
(g90
g71
NtRp3480
(dp3481
g74
(dp3482
sg83
g3467
sg76
(lp3483
g69
(g70
g71
NtRp3484
(dp3485
g74
(dp3486
g82
I3
ssg83
g3480
sg76
(lp3487
S'1'
asbasbasbag69
(g85
g71
NtRp3488
(dp3489
g74
(dp3490
sg83
g3419
sg76
(lp3491
g69
(g90
g71
NtRp3492
(dp3493
g74
(dp3494
g94
g95
ssg83
g3488
sg76
(lp3495
S'last_name'
p3496
asbag69
(g90
g71
NtRp3497
(dp3498
g74
(dp3499
g101
g102
ssg83
g3488
sg76
(lp3500
S':'
asbag69
(g90
g71
NtRp3501
(dp3502
g74
(dp3503
sg83
g3488
sg76
(lp3504
g69
(g70
g71
NtRp3505
(dp3506
g74
(dp3507
g82
I3
ssg83
g3501
sg76
(lp3508
S'Goel'
p3509
asbasbasbag69
(g85
g71
NtRp3510
(dp3511
g74
(dp3512
sg83
g3419
sg76
(lp3513
g69
(g90
g71
NtRp3514
(dp3515
g74
(dp3516
g94
g95
ssg83
g3510
sg76
(lp3517
S'registration_id'
p3518
asbag69
(g90
g71
NtRp3519
(dp3520
g74
(dp3521
g101
g102
ssg83
g3510
sg76
(lp3522
S':'
asbag69
(g90
g71
NtRp3523
(dp3524
g74
(dp3525
sg83
g3510
sg76
(lp3526
g69
(g70
g71
NtRp3527
(dp3528
g74
(dp3529
g82
I3
ssg83
g3523
sg76
(lp3530
S''
asbasbasbag69
(g85
g71
NtRp3531
(dp3532
g74
(dp3533
sg83
g3419
sg76
(lp3534
g69
(g90
g71
NtRp3535
(dp3536
g74
(dp3537
g94
g95
ssg83
g3531
sg76
(lp3538
S'registration_key'
p3539
asbag69
(g90
g71
NtRp3540
(dp3541
g74
(dp3542
g101
g102
ssg83
g3531
sg76
(lp3543
S':'
asbag69
(g90
g71
NtRp3544
(dp3545
g74
(dp3546
sg83
g3531
sg76
(lp3547
g69
(g70
g71
NtRp3548
(dp3549
g74
(dp3550
g82
I3
ssg83
g3544
sg76
(lp3551
S''
asbasbasbag69
(g85
g71
NtRp3552
(dp3553
g74
(dp3554
sg83
g3419
sg76
(lp3555
g69
(g90
g71
NtRp3556
(dp3557
g74
(dp3558
g94
g95
ssg83
g3552
sg76
(lp3559
S'reset_password_key'
p3560
asbag69
(g90
g71
NtRp3561
(dp3562
g74
(dp3563
g101
g102
ssg83
g3552
sg76
(lp3564
S':'
asbag69
(g90
g71
NtRp3565
(dp3566
g74
(dp3567
sg83
g3552
sg76
(lp3568
g69
(g70
g71
NtRp3569
(dp3570
g74
(dp3571
g82
I3
ssg83
g3565
sg76
(lp3572
S''
asbasbasbasbasbasbasbag69
(g85
g71
NtRp3573
(dp3574
g74
(dp3575
sg83
g3307
sg76
(lp3576
g69
(g90
g71
NtRp3577
(dp3578
g74
(dp3579
g94
g95
ssg83
g3573
sg76
(lp3580
S'user_groups'
p3581
asbag69
(g90
g71
NtRp3582
(dp3583
g74
(dp3584
g101
g102
ssg83
g3573
sg76
(lp3585
S':'
asbag69
(g90
g71
NtRp3586
(dp3587
g74
(dp3588
sg83
g3573
sg76
(lp3589
g69
(g70
g71
NtRp3590
(dp3591
g74
(dp3592
g82
I4
ssg83
g3586
sg76
(lp3593
g69
(g78
g71
NtRp3594
(dp3595
g74
(dp3596
g82
I3
ssg83
Nsg76
(lp3597
g69
(g85
g71
NtRp3598
(dp3599
g74
(dp3600
sg83
g3594
sg76
(lp3601
g69
(g90
g71
NtRp3602
(dp3603
g74
(dp3604
g94
g95
ssg83
g3598
sg76
(lp3605
S'1'
asbag69
(g90
g71
NtRp3606
(dp3607
g74
(dp3608
g101
g102
ssg83
g3598
sg76
(lp3609
S':'
asbag69
(g90
g71
NtRp3610
(dp3611
g74
(dp3612
sg83
g3598
sg76
(lp3613
g69
(g70
g71
NtRp3614
(dp3615
g74
(dp3616
g82
I3
ssg83
g3610
sg76
(lp3617
S'user_1'
p3618
asbasbasbasbasbasbasbasbasbasbasbag69
(g85
g71
NtRp3619
(dp3620
g74
(dp3621
sg83
g3282
sg76
(lp3622
g69
(g90
g71
NtRp3623
(dp3624
g74
(dp3625
g94
g95
ssg83
g3619
sg76
(lp3626
S'flash'
p3627
asbag69
(g90
g71
NtRp3628
(dp3629
g74
(dp3630
g101
g102
ssg83
g3619
sg76
(lp3631
S':'
asbag69
(g90
g71
NtRp3632
(dp3633
g74
(dp3634
sg83
g3619
sg76
(lp3635
g69
(g70
g71
NtRp3636
(dp3637
g74
(dp3638
g82
I5
ssg83
g3632
sg76
(lp3639
S'None'
p3640
asbasbasbag69
(g85
g71
NtRp3641
(dp3642
g74
(dp3643
sg83
g3282
sg76
(lp3644
g69
(g90
g71
NtRp3645
(dp3646
g74
(dp3647
g94
g95
ssg83
g3641
sg76
(lp3648
S'last_orderby'
p3649
asbag69
(g90
g71
NtRp3650
(dp3651
g74
(dp3652
g101
g102
ssg83
g3641
sg76
(lp3653
S':'
asbag69
(g90
g71
NtRp3654
(dp3655
g74
(dp3656
sg83
g3641
sg76
(lp3657
g69
(g70
g71
NtRp3658
(dp3659
g74
(dp3660
g82
I5
ssg83
g3654
sg76
(lp3661
S'None'
p3662
asbasbasbag69
(g85
g71
NtRp3663
(dp3664
g74
(dp3665
sg83
g3282
sg76
(lp3666
g69
(g90
g71
NtRp3667
(dp3668
g74
(dp3669
g94
g95
ssg83
g3663
sg76
(lp3670
S'last_query'
p3671
asbag69
(g90
g71
NtRp3672
(dp3673
g74
(dp3674
g101
g102
ssg83
g3663
sg76
(lp3675
S':'
asbag69
(g90
g71
NtRp3676
(dp3677
g74
(dp3678
sg83
g3663
sg76
(lp3679
g69
(g70
g71
NtRp3680
(dp3681
g74
(dp3682
g82
I5
ssg83
g3676
sg76
(lp3683
S'db.rating.id>0'
p3684
asbasbasbasbasbsS'etype'
p3685
S"<type 'exceptions.SyntaxError'>"
p3686
sS'date'
p3687
S'Tue Aug 27 14:08:33 2013'
p3688
sS'response'
p3689
g69
(g70
g71
NtRp3690
(dp3691
g74
(dp3692
sg76
(lp3693
g69
(g78
g71
NtRp3694
(dp3695
g74
(dp3696
g82
I5
ssg83
Nsg76
(lp3697
g69
(g85
g71
NtRp3698
(dp3699
g74
(dp3700
sg83
g3694
sg76
(lp3701
g69
(g90
g71
NtRp3702
(dp3703
g74
(dp3704
g94
g95
ssg83
g3698
sg76
(lp3705
g179
asbag69
(g90
g71
NtRp3706
(dp3707
g74
(dp3708
g101
g102
ssg83
g3698
sg76
(lp3709
S':'
asbag69
(g90
g71
NtRp3710
(dp3711
g74
(dp3712
sg83
g3698
sg76
(lp3713
g69
(g70
g71
NtRp3714
(dp3715
g74
(dp3716
g82
I5
ssg83
g3710
sg76
(lp3717
S'<cStringIO.StringO object at 0x7f951c67aed8>'
p3718
asbasbasbag69
(g85
g71
NtRp3719
(dp3720
g74
(dp3721
sg83
g3694
sg76
(lp3722
g69
(g90
g71
NtRp3723
(dp3724
g74
(dp3725
g94
g95
ssg83
g3719
sg76
(lp3726
g267
asbag69
(g90
g71
NtRp3727
(dp3728
g74
(dp3729
g101
g102
ssg83
g3719
sg76
(lp3730
S':'
asbag69
(g90
g71
NtRp3731
(dp3732
g74
(dp3733
sg83
g3719
sg76
(lp3734
g69
(g70
g71
NtRp3735
(dp3736
g74
(dp3737
g82
I5
ssg83
g3731
sg76
(lp3738
g69
(g78
g71
NtRp3739
(dp3740
g74
(dp3741
g82
I4
ssg83
Nsg76
(lp3742
g69
(g85
g71
NtRp3743
(dp3744
g74
(dp3745
sg83
g3739
sg76
(lp3746
g69
(g90
g71
NtRp3747
(dp3748
g74
(dp3749
g94
g95
ssg83
g3743
sg76
(lp3750
S'session_id_assignmen3'
p3751
asbag69
(g90
g71
NtRp3752
(dp3753
g74
(dp3754
g101
g102
ssg83
g3743
sg76
(lp3755
S':'
asbag69
(g90
g71
NtRp3756
(dp3757
g74
(dp3758
sg83
g3743
sg76
(lp3759
g69
(g70
g71
NtRp3760
(dp3761
g74
(dp3762
g82
I4
ssg83
g3756
sg76
(lp3763
g499
ag69
(g78
g71
NtRp3764
(dp3765
g74
(dp3766
g82
I3
ssg83
Nsg76
(lp3767
g69
(g85
g71
NtRp3768
(dp3769
g74
(dp3770
sg83
g3764
sg76
(lp3771
g69
(g90
g71
NtRp3772
(dp3773
g74
(dp3774
g94
g95
ssg83
g3768
sg76
(lp3775
g318
asbag69
(g90
g71
NtRp3776
(dp3777
g74
(dp3778
g101
g102
ssg83
g3768
sg76
(lp3779
S':'
asbag69
(g90
g71
NtRp3780
(dp3781
g74
(dp3782
sg83
g3768
sg76
(lp3783
g69
(g70
g71
NtRp3784
(dp3785
g74
(dp3786
g82
I3
ssg83
g3780
sg76
(lp3787
S''
asbasbasbag69
(g85
g71
NtRp3788
(dp3789
g74
(dp3790
sg83
g3764
sg76
(lp3791
g69
(g90
g71
NtRp3792
(dp3793
g74
(dp3794
g94
g95
ssg83
g3788
sg76
(lp3795
g339
asbag69
(g90
g71
NtRp3796
(dp3797
g74
(dp3798
g101
g102
ssg83
g3788
sg76
(lp3799
S':'
asbag69
(g90
g71
NtRp3800
(dp3801
g74
(dp3802
sg83
g3788
sg76
(lp3803
g69
(g70
g71
NtRp3804
(dp3805
g74
(dp3806
g82
I3
ssg83
g3800
sg76
(lp3807
S''
asbasbasbag69
(g85
g71
NtRp3808
(dp3809
g74
(dp3810
sg83
g3764
sg76
(lp3811
g69
(g90
g71
NtRp3812
(dp3813
g74
(dp3814
g94
g95
ssg83
g3808
sg76
(lp3815
g360
asbag69
(g90
g71
NtRp3816
(dp3817
g74
(dp3818
g101
g102
ssg83
g3808
sg76
(lp3819
S':'
asbag69
(g90
g71
NtRp3820
(dp3821
g74
(dp3822
sg83
g3808
sg76
(lp3823
g69
(g70
g71
NtRp3824
(dp3825
g74
(dp3826
g82
I3
ssg83
g3820
sg76
(lp3827
S''
asbasbasbag69
(g85
g71
NtRp3828
(dp3829
g74
(dp3830
sg83
g3764
sg76
(lp3831
g69
(g90
g71
NtRp3832
(dp3833
g74
(dp3834
g94
g95
ssg83
g3828
sg76
(lp3835
g381
asbag69
(g90
g71
NtRp3836
(dp3837
g74
(dp3838
g101
g102
ssg83
g3828
sg76
(lp3839
S':'
asbag69
(g90
g71
NtRp3840
(dp3841
g74
(dp3842
sg83
g3828
sg76
(lp3843
g69
(g70
g71
NtRp3844
(dp3845
g74
(dp3846
g82
I3
ssg83
g3840
sg76
(lp3847
S''
asbasbasbag69
(g85
g71
NtRp3848
(dp3849
g74
(dp3850
sg83
g3764
sg76
(lp3851
g69
(g90
g71
NtRp3852
(dp3853
g74
(dp3854
g94
g95
ssg83
g3848
sg76
(lp3855
g402
asbag69
(g90
g71
NtRp3856
(dp3857
g74
(dp3858
g101
g102
ssg83
g3848
sg76
(lp3859
S':'
asbag69
(g90
g71
NtRp3860
(dp3861
g74
(dp3862
sg83
g3848
sg76
(lp3863
g69
(g70
g71
NtRp3864
(dp3865
g74
(dp3866
g82
I3
ssg83
g3860
sg76
(lp3867
S''
asbasbasbag69
(g85
g71
NtRp3868
(dp3869
g74
(dp3870
sg83
g3764
sg76
(lp3871
g69
(g90
g71
NtRp3872
(dp3873
g74
(dp3874
g94
g95
ssg83
g3868
sg76
(lp3875
g423
asbag69
(g90
g71
NtRp3876
(dp3877
g74
(dp3878
g101
g102
ssg83
g3868
sg76
(lp3879
S':'
asbag69
(g90
g71
NtRp3880
(dp3881
g74
(dp3882
sg83
g3868
sg76
(lp3883
g69
(g70
g71
NtRp3884
(dp3885
g74
(dp3886
g82
I3
ssg83
g3880
sg76
(lp3887
S'/'
asbasbasbag69
(g85
g71
NtRp3888
(dp3889
g74
(dp3890
sg83
g3764
sg76
(lp3891
g69
(g90
g71
NtRp3892
(dp3893
g74
(dp3894
g94
g95
ssg83
g3888
sg76
(lp3895
g444
asbag69
(g90
g71
NtRp3896
(dp3897
g74
(dp3898
g101
g102
ssg83
g3888
sg76
(lp3899
S':'
asbag69
(g90
g71
NtRp3900
(dp3901
g74
(dp3902
sg83
g3888
sg76
(lp3903
g69
(g70
g71
NtRp3904
(dp3905
g74
(dp3906
g82
I3
ssg83
g3900
sg76
(lp3907
S''
asbasbasbag69
(g85
g71
NtRp3908
(dp3909
g74
(dp3910
sg83
g3764
sg76
(lp3911
g69
(g90
g71
NtRp3912
(dp3913
g74
(dp3914
g94
g95
ssg83
g3908
sg76
(lp3915
g465
asbag69
(g90
g71
NtRp3916
(dp3917
g74
(dp3918
g101
g102
ssg83
g3908
sg76
(lp3919
S':'
asbag69
(g90
g71
NtRp3920
(dp3921
g74
(dp3922
sg83
g3908
sg76
(lp3923
g69
(g70
g71
NtRp3924
(dp3925
g74
(dp3926
g82
I3
ssg83
g3920
sg76
(lp3927
S''
asbasbasbasbasbasbasbasbasbasbasbag69
(g85
g71
NtRp3928
(dp3929
g74
(dp3930
sg83
g3694
sg76
(lp3931
g69
(g90
g71
NtRp3932
(dp3933
g74
(dp3934
g94
g95
ssg83
g3928
sg76
(lp3935
S'delimiters'
p3936
asbag69
(g90
g71
NtRp3937
(dp3938
g74
(dp3939
g101
g102
ssg83
g3928
sg76
(lp3940
S':'
asbag69
(g90
g71
NtRp3941
(dp3942
g74
(dp3943
sg83
g3928
sg76
(lp3944
g69
(g70
g71
NtRp3945
(dp3946
g74
(dp3947
g82
I5
ssg83
g3941
sg76
(lp3948
g69
(g78
g71
NtRp3949
(dp3950
g74
(dp3951
g82
I4
ssg83
Nsg76
(lp3952
g69
(g85
g71
NtRp3953
(dp3954
g74
(dp3955
sg83
g3949
sg76
(lp3956
g69
(g90
g71
NtRp3957
(dp3958
g74
(dp3959
sg83
g3953
sg76
(lp3960
g69
(g70
g71
NtRp3961
(dp3962
g74
(dp3963
g82
I4
ssg83
g3957
sg76
(lp3964
S'{{'
p3965
asbasbasbag69
(g85
g71
NtRp3966
(dp3967
g74
(dp3968
sg83
g3949
sg76
(lp3969
g69
(g90
g71
NtRp3970
(dp3971
g74
(dp3972
sg83
g3966
sg76
(lp3973
g69
(g70
g71
NtRp3974
(dp3975
g74
(dp3976
g82
I4
ssg83
g3970
sg76
(lp3977
S'}}'
p3978
asbasbasbasbasbasbasbag69
(g85
g71
NtRp3979
(dp3980
g74
(dp3981
sg83
g3694
sg76
(lp3982
g69
(g90
g71
NtRp3983
(dp3984
g74
(dp3985
g94
g95
ssg83
g3979
sg76
(lp3986
S'files'
p3987
asbag69
(g90
g71
NtRp3988
(dp3989
g74
(dp3990
g101
g102
ssg83
g3979
sg76
(lp3991
S':'
asbag69
(g90
g71
NtRp3992
(dp3993
g74
(dp3994
sg83
g3979
sg76
(lp3995
g69
(g70
g71
NtRp3996
(dp3997
g74
(dp3998
g82
I5
ssg83
g3992
sg76
(lp3999
g69
(g78
g71
NtRp4000
(dp4001
g74
(dp4002
g82
I4
ssg83
Nsg76
(lp4003
sbasbasbasbag69
(g85
g71
NtRp4004
(dp4005
g74
(dp4006
sg83
g3694
sg76
(lp4007
g69
(g90
g71
NtRp4008
(dp4009
g74
(dp4010
g94
g95
ssg83
g4004
sg76
(lp4011
S'flash'
p4012
asbag69
(g90
g71
NtRp4013
(dp4014
g74
(dp4015
g101
g102
ssg83
g4004
sg76
(lp4016
S':'
asbag69
(g90
g71
NtRp4017
(dp4018
g74
(dp4019
sg83
g4004
sg76
(lp4020
g69
(g70
g71
NtRp4021
(dp4022
g74
(dp4023
g82
I5
ssg83
g4017
sg76
(lp4024
S''
asbasbasbag69
(g85
g71
NtRp4025
(dp4026
g74
(dp4027
sg83
g3694
sg76
(lp4028
g69
(g90
g71
NtRp4029
(dp4030
g74
(dp4031
g94
g95
ssg83
g4025
sg76
(lp4032
S'generic_patterns'
p4033
asbag69
(g90
g71
NtRp4034
(dp4035
g74
(dp4036
g101
g102
ssg83
g4025
sg76
(lp4037
S':'
asbag69
(g90
g71
NtRp4038
(dp4039
g74
(dp4040
sg83
g4025
sg76
(lp4041
g69
(g70
g71
NtRp4042
(dp4043
g74
(dp4044
g82
I5
ssg83
g4038
sg76
(lp4045
g69
(g78
g71
NtRp4046
(dp4047
g74
(dp4048
g82
I4
ssg83
Nsg76
(lp4049
g69
(g85
g71
NtRp4050
(dp4051
g74
(dp4052
sg83
g4046
sg76
(lp4053
g69
(g90
g71
NtRp4054
(dp4055
g74
(dp4056
sg83
g4050
sg76
(lp4057
g69
(g70
g71
NtRp4058
(dp4059
g74
(dp4060
g82
I4
ssg83
g4054
sg76
(lp4061
S'*'
asbasbasbasbasbasbasbag69
(g85
g71
NtRp4062
(dp4063
g74
(dp4064
sg83
g3694
sg76
(lp4065
g69
(g90
g71
NtRp4066
(dp4067
g74
(dp4068
g94
g95
ssg83
g4062
sg76
(lp4069
S'google_analytics_id'
p4070
asbag69
(g90
g71
NtRp4071
(dp4072
g74
(dp4073
g101
g102
ssg83
g4062
sg76
(lp4074
S':'
asbag69
(g90
g71
NtRp4075
(dp4076
g74
(dp4077
sg83
g4062
sg76
(lp4078
g69
(g70
g71
NtRp4079
(dp4080
g74
(dp4081
g82
I5
ssg83
g4075
sg76
(lp4082
S'None'
p4083
asbasbasbag69
(g85
g71
NtRp4084
(dp4085
g74
(dp4086
sg83
g3694
sg76
(lp4087
g69
(g90
g71
NtRp4088
(dp4089
g74
(dp4090
g94
g95
ssg83
g4084
sg76
(lp4091
S'headers'
p4092
asbag69
(g90
g71
NtRp4093
(dp4094
g74
(dp4095
g101
g102
ssg83
g4084
sg76
(lp4096
S':'
asbag69
(g90
g71
NtRp4097
(dp4098
g74
(dp4099
sg83
g4084
sg76
(lp4100
g69
(g70
g71
NtRp4101
(dp4102
g74
(dp4103
g82
I5
ssg83
g4097
sg76
(lp4104
g69
(g78
g71
NtRp4105
(dp4106
g74
(dp4107
g82
I4
ssg83
Nsg76
(lp4108
g69
(g85
g71
NtRp4109
(dp4110
g74
(dp4111
sg83
g4105
sg76
(lp4112
g69
(g90
g71
NtRp4113
(dp4114
g74
(dp4115
g94
g95
ssg83
g4109
sg76
(lp4116
S'X-Powered-By'
p4117
asbag69
(g90
g71
NtRp4118
(dp4119
g74
(dp4120
g101
g102
ssg83
g4109
sg76
(lp4121
S':'
asbag69
(g90
g71
NtRp4122
(dp4123
g74
(dp4124
sg83
g4109
sg76
(lp4125
g69
(g70
g71
NtRp4126
(dp4127
g74
(dp4128
g82
I4
ssg83
g4122
sg76
(lp4129
S'web2py'
p4130
asbasbasbasbasbasbasbag69
(g85
g71
NtRp4131
(dp4132
g74
(dp4133
sg83
g3694
sg76
(lp4134
g69
(g90
g71
NtRp4135
(dp4136
g74
(dp4137
g94
g95
ssg83
g4131
sg76
(lp4138
S'logo'
p4139
asbag69
(g90
g71
NtRp4140
(dp4141
g74
(dp4142
g101
g102
ssg83
g4131
sg76
(lp4143
S':'
asbag69
(g90
g71
NtRp4144
(dp4145
g74
(dp4146
sg83
g4131
sg76
(lp4147
g69
(g70
g71
NtRp4148
(dp4149
g74
(dp4150
g82
I5
ssg83
g4144
sg76
(lp4151
g69
(cgluon.html
A
p4152
g71
NtRp4153
(dp4154
g74
(dp4155
S'_class'
p4156
S'brand'
p4157
sS'_href'
p4158
S'http://www.web2py.com/'
p4159
ssg83
Nsg76
(lp4160
g69
(cgluon.html
B
p4161
g71
NtRp4162
(dp4163
g74
(dp4164
sg83
g4153
sg76
(lp4165
S'web'
p4166
ag69
(cgluon.html
SPAN
p4167
g71
NtRp4168
(dp4169
g74
(dp4170
sg83
g4162
sg76
(lp4171
I2
asbaS'py'
p4172
asbacgluon.html
XML_unpickle
p4173
(S's\r\x00\x00\x00&trade;&nbsp;'
tRp4174
asbasbasbasbag69
(g85
g71
NtRp4175
(dp4176
g74
(dp4177
sg83
g3694
sg76
(lp4178
g69
(g90
g71
NtRp4179
(dp4180
g74
(dp4181
g94
g95
ssg83
g4175
sg76
(lp4182
S'menu'
p4183
asbag69
(g90
g71
NtRp4184
(dp4185
g74
(dp4186
g101
g102
ssg83
g4175
sg76
(lp4187
S':'
asbag69
(g90
g71
NtRp4188
(dp4189
g74
(dp4190
sg83
g4175
sg76
(lp4191
g69
(g70
g71
NtRp4192
(dp4193
g74
(dp4194
g82
I5
ssg83
g4188
sg76
(lp4195
g69
(g78
g71
NtRp4196
(dp4197
g74
(dp4198
g82
I4
ssg83
Nsg76
(lp4199
g69
(g85
g71
NtRp4200
(dp4201
g74
(dp4202
sg83
g4196
sg76
(lp4203
g69
(g90
g71
NtRp4204
(dp4205
g74
(dp4206
sg83
g4200
sg76
(lp4207
g69
(g70
g71
NtRp4208
(dp4209
g74
(dp4210
g82
I4
ssg83
g4204
sg76
(lp4211
g69
(g78
g71
NtRp4212
(dp4213
g74
(dp4214
g82
I3
ssg83
Nsg76
(lp4215
g69
(g85
g71
NtRp4216
(dp4217
g74
(dp4218
sg83
g4212
sg76
(lp4219
g69
(g90
g71
NtRp4220
(dp4221
g74
(dp4222
sg83
g4216
sg76
(lp4223
g69
(g70
g71
NtRp4224
(dp4225
g74
(dp4226
g82
I3
ssg83
g4220
sg76
(lp4227
cgluon.languages
lazyT_unpickle
p4228
(S's\x04\x00\x00\x00Home'
tRp4229
asbasbasbag69
(g85
g71
NtRp4230
(dp4231
g74
(dp4232
sg83
g4212
sg76
(lp4233
g69
(g90
g71
NtRp4234
(dp4235
g74
(dp4236
sg83
g4230
sg76
(lp4237
g69
(g70
g71
NtRp4238
(dp4239
g74
(dp4240
g82
I3
ssg83
g4234
sg76
(lp4241
g112
asbasbasbag69
(g85
g71
NtRp4242
(dp4243
g74
(dp4244
sg83
g4212
sg76
(lp4245
g69
(g90
g71
NtRp4246
(dp4247
g74
(dp4248
sg83
g4242
sg76
(lp4249
g69
(g70
g71
NtRp4250
(dp4251
g74
(dp4252
g82
I3
ssg83
g4246
sg76
(lp4253
S'/assignmen3/default/index'
p4254
asbasbasbag69
(g85
g71
NtRp4255
(dp4256
g74
(dp4257
sg83
g4212
sg76
(lp4258
g69
(g90
g71
NtRp4259
(dp4260
g74
(dp4261
sg83
g4255
sg76
(lp4262
g69
(g70
g71
NtRp4263
(dp4264
g74
(dp4265
g82
I3
ssg83
g4259
sg76
(lp4266
g69
(g78
g71
NtRp4267
(dp4268
g74
(dp4269
g82
I2
ssg83
Nsg76
(lp4270
sbasbasbasbasbasbasbasbag69
(g85
g71
NtRp4271
(dp4272
g74
(dp4273
sg83
g4196
sg76
(lp4274
g69
(g90
g71
NtRp4275
(dp4276
g74
(dp4277
sg83
g4271
sg76
(lp4278
g69
(g70
g71
NtRp4279
(dp4280
g74
(dp4281
g82
I4
ssg83
g4275
sg76
(lp4282
g69
(g78
g71
NtRp4283
(dp4284
g74
(dp4285
g82
I3
ssg83
Nsg76
(lp4286
g69
(g85
g71
NtRp4287
(dp4288
g74
(dp4289
sg83
g4283
sg76
(lp4290
g69
(g90
g71
NtRp4291
(dp4292
g74
(dp4293
sg83
g4287
sg76
(lp4294
g69
(g70
g71
NtRp4295
(dp4296
g74
(dp4297
g82
I3
ssg83
g4291
sg76
(lp4298
g69
(g4167
g71
NtRp4299
(dp4300
g74
(dp4301
g4156
S'highlighted'
p4302
ssg83
Nsg76
(lp4303
g4130
asbasbasbasbag69
(g85
g71
NtRp4304
(dp4305
g74
(dp4306
sg83
g4283
sg76
(lp4307
g69
(g90
g71
NtRp4308
(dp4309
g74
(dp4310
sg83
g4304
sg76
(lp4311
g69
(g70
g71
NtRp4312
(dp4313
g74
(dp4314
g82
I3
ssg83
g4308
sg76
(lp4315
g112
asbasbasbag69
(g85
g71
NtRp4316
(dp4317
g74
(dp4318
sg83
g4283
sg76
(lp4319
g69
(g90
g71
NtRp4320
(dp4321
g74
(dp4322
sg83
g4316
sg76
(lp4323
g69
(g70
g71
NtRp4324
(dp4325
g74
(dp4326
g82
I3
ssg83
g4320
sg76
(lp4327
S'http://web2py.com'
p4328
asbasbasbag69
(g85
g71
NtRp4329
(dp4330
g74
(dp4331
sg83
g4283
sg76
(lp4332
g69
(g90
g71
NtRp4333
(dp4334
g74
(dp4335
sg83
g4329
sg76
(lp4336
g69
(g70
g71
NtRp4337
(dp4338
g74
(dp4339
g82
I3
ssg83
g4333
sg76
(lp4340
g69
(g78
g71
NtRp4341
(dp4342
g74
(dp4343
g82
I2
ssg83
Nsg76
(lp4344
g69
(g85
g71
NtRp4345
(dp4346
g74
(dp4347
sg83
g4341
sg76
(lp4348
g69
(g90
g71
NtRp4349
(dp4350
g74
(dp4351
sg83
g4345
sg76
(lp4352
g69
(g70
g71
NtRp4353
(dp4354
g74
(dp4355
g82
I2
ssg83
g4349
sg76
(lp4356
g69
(g78
g71
NtRp4357
(dp4358
g74
(dp4359
g82
I1
ssg83
Nsg76
(lp4360
g69
(g85
g71
NtRp4361
(dp4362
g74
(dp4363
sg83
g4357
sg76
(lp4364
g69
(g90
g71
NtRp4365
(dp4366
g74
(dp4367
sg83
g4361
sg76
(lp4368
g69
(g70
g71
NtRp4369
(dp4370
g74
(dp4371
g82
I1
ssg83
g4365
sg76
(lp4372
g4228
(S's\x08\x00\x00\x00My Sites'
tRp4373
asbasbasbag69
(g85
g71
NtRp4374
(dp4375
g74
(dp4376
sg83
g4357
sg76
(lp4377
g69
(g90
g71
NtRp4378
(dp4379
g74
(dp4380
sg83
g4374
sg76
(lp4381
g69
(g70
g71
NtRp4382
(dp4383
g74
(dp4384
g82
I1
ssg83
g4378
sg76
(lp4385
I00
asbasbasbag69
(g85
g71
NtRp4386
(dp4387
g74
(dp4388
sg83
g4357
sg76
(lp4389
g69
(g90
g71
NtRp4390
(dp4391
g74
(dp4392
sg83
g4386
sg76
(lp4393
g69
(g70
g71
NtRp4394
(dp4395
g74
(dp4396
g82
I1
ssg83
g4390
sg76
(lp4397
S'/admin/default/site'
p4398
asbasbasbasbasbasbasbag69
(g85
g71
NtRp4399
(dp4400
g74
(dp4401
sg83
g4341
sg76
(lp4402
g69
(g90
g71
NtRp4403
(dp4404
g74
(dp4405
sg83
g4399
sg76
(lp4406
g69
(g70
g71
NtRp4407
(dp4408
g74
(dp4409
g82
I2
ssg83
g4403
sg76
(lp4410
g69
(g78
g71
NtRp4411
(dp4412
g74
(dp4413
g82
I1
ssg83
Nsg76
(lp4414
g69
(g85
g71
NtRp4415
(dp4416
g74
(dp4417
sg83
g4411
sg76
(lp4418
g69
(g90
g71
NtRp4419
(dp4420
g74
(dp4421
sg83
g4415
sg76
(lp4422
g69
(g70
g71
NtRp4423
(dp4424
g74
(dp4425
g82
I1
ssg83
g4419
sg76
(lp4426
g4228
(S's\x08\x00\x00\x00This App'
tRp4427
asbasbasbag69
(g85
g71
NtRp4428
(dp4429
g74
(dp4430
sg83
g4411
sg76
(lp4431
g69
(g90
g71
NtRp4432
(dp4433
g74
(dp4434
sg83
g4428
sg76
(lp4435
g69
(g70
g71
NtRp4436
(dp4437
g74
(dp4438
g82
I1
ssg83
g4432
sg76
(lp4439
I00
asbasbasbag69
(g85
g71
NtRp4440
(dp4441
g74
(dp4442
sg83
g4411
sg76
(lp4443
g69
(g90
g71
NtRp4444
(dp4445
g74
(dp4446
sg83
g4440
sg76
(lp4447
g69
(g70
g71
NtRp4448
(dp4449
g74
(dp4450
g82
I1
ssg83
g4444
sg76
(lp4451
S'/admin/default/design/assignmen3'
p4452
asbasbasbag69
(g85
g71
NtRp4453
(dp4454
g74
(dp4455
sg83
g4411
sg76
(lp4456
g69
(g90
g71
NtRp4457
(dp4458
g74
(dp4459
sg83
g4453
sg76
(lp4460
g69
(g70
g71
NtRp4461
(dp4462
g74
(dp4463
g82
I1
ssg83
g4457
sg76
(lp4464
(lp4465
(g4228
(S's\n\x00\x00\x00Controller'
tRp4466
I00
S'/admin/default/edit/assignmen3/controllers/default.py'
tp4467
a(g4228
(S's\x04\x00\x00\x00View'
tRp4468
I00
S'/admin/default/edit/assignmen3/views/default/first_page.html'
tp4469
a(g4228
(S's\x06\x00\x00\x00Layout'
tRp4470
I00
S'/admin/default/edit/assignmen3/views/layout.html'
tp4471
a(g4228
(S's\n\x00\x00\x00Stylesheet'
tRp4472
I00
S'/admin/default/edit/assignmen3/static/css/web2py.css'
tp4473
a(g4228
(S's\x08\x00\x00\x00DB Model'
tRp4474
I00
S'/admin/default/edit/assignmen3/models/db.py'
tp4475
a(g4228
(S's\n\x00\x00\x00Menu Model'
tRp4476
I00
S'/admin/default/edit/assignmen3/models/menu.py'
tp4477
a(g4228
(S's\x08\x00\x00\x00Database'
tRp4478
I00
S'/assignmen3/appadmin/index'
tp4479
a(g4228
(S's\x06\x00\x00\x00Errors'
tRp4480
I00
S'/admin/default/errors/assignmen3'
tp4481
a(g4228
(S's\x05\x00\x00\x00About'
tRp4482
I00
S'/admin/default/about/assignmen3'
tp4483
aasbasbasbasbasbasbasbag69
(g85
g71
NtRp4484
(dp4485
g74
(dp4486
sg83
g4341
sg76
(lp4487
g69
(g90
g71
NtRp4488
(dp4489
g74
(dp4490
sg83
g4484
sg76
(lp4491
g69
(g70
g71
NtRp4492
(dp4493
g74
(dp4494
g82
I2
ssg83
g4488
sg76
(lp4495
g69
(g78
g71
NtRp4496
(dp4497
g74
(dp4498
g82
I1
ssg83
Nsg76
(lp4499
g69
(g85
g71
NtRp4500
(dp4501
g74
(dp4502
sg83
g4496
sg76
(lp4503
g69
(g90
g71
NtRp4504
(dp4505
g74
(dp4506
sg83
g4500
sg76
(lp4507
g69
(g70
g71
NtRp4508
(dp4509
g74
(dp4510
g82
I1
ssg83
g4504
sg76
(lp4511
S'web2py.com'
p4512
asbasbasbag69
(g85
g71
NtRp4513
(dp4514
g74
(dp4515
sg83
g4496
sg76
(lp4516
g69
(g90
g71
NtRp4517
(dp4518
g74
(dp4519
sg83
g4513
sg76
(lp4520
g69
(g70
g71
NtRp4521
(dp4522
g74
(dp4523
g82
I1
ssg83
g4517
sg76
(lp4524
I00
asbasbasbag69
(g85
g71
NtRp4525
(dp4526
g74
(dp4527
sg83
g4496
sg76
(lp4528
g69
(g90
g71
NtRp4529
(dp4530
g74
(dp4531
sg83
g4525
sg76
(lp4532
g69
(g70
g71
NtRp4533
(dp4534
g74
(dp4535
g82
I1
ssg83
g4529
sg76
(lp4536
S'http://www.web2py.com'
p4537
asbasbasbag69
(g85
g71
NtRp4538
(dp4539
g74
(dp4540
sg83
g4496
sg76
(lp4541
g69
(g90
g71
NtRp4542
(dp4543
g74
(dp4544
sg83
g4538
sg76
(lp4545
g69
(g70
g71
NtRp4546
(dp4547
g74
(dp4548
g82
I1
ssg83
g4542
sg76
(lp4549
(lp4550
(g4228
(S's\x08\x00\x00\x00Download'
tRp4551
I00
S'http://www.web2py.com/examples/default/download'
p4552
tp4553
a(g4228
(S's\x07\x00\x00\x00Support'
tRp4554
I00
S'http://www.web2py.com/examples/default/support'
p4555
tp4556
a(g4228
(S's\x04\x00\x00\x00Demo'
tRp4557
I00
S'http://web2py.com/demo_admin'
p4558
tp4559
a(g4228
(S's\x0e\x00\x00\x00Quick Examples'
tRp4560
I00
S'http://web2py.com/examples/default/examples'
p4561
tp4562
a(g4228
(S's\x03\x00\x00\x00FAQ'
tRp4563
I00
S'http://web2py.com/AlterEgo'
p4564
tp4565
a(g4228
(S's\x06\x00\x00\x00Videos'
tRp4566
I00
S'http://www.web2py.com/examples/default/videos/'
p4567
tp4568
a(g4228
(S's\x11\x00\x00\x00Free Applications'
tRp4569
I00
S'http://web2py.com/appliances'
p4570
tp4571
a(g4228
(S's\x07\x00\x00\x00Plugins'
tRp4572
I00
S'http://web2py.com/plugins'
p4573
tp4574
a(g4228
(S's\x07\x00\x00\x00Layouts'
tRp4575
I00
S'http://web2py.com/layouts'
p4576
tp4577
a(g4228
(S's\x07\x00\x00\x00Recipes'
tRp4578
I00
S'http://web2pyslices.com/'
p4579
tp4580
a(g4228
(S's\x08\x00\x00\x00Semantic'
tRp4581
I00
S'http://web2py.com/semantic'
p4582
tp4583
aasbasbasbasbasbasbasbag69
(g85
g71
NtRp4584
(dp4585
g74
(dp4586
sg83
g4341
sg76
(lp4587
g69
(g90
g71
NtRp4588
(dp4589
g74
(dp4590
sg83
g4584
sg76
(lp4591
g69
(g70
g71
NtRp4592
(dp4593
g74
(dp4594
g82
I2
ssg83
g4588
sg76
(lp4595
g69
(g78
g71
NtRp4596
(dp4597
g74
(dp4598
g82
I1
ssg83
Nsg76
(lp4599
g69
(g85
g71
NtRp4600
(dp4601
g74
(dp4602
sg83
g4596
sg76
(lp4603
g69
(g90
g71
NtRp4604
(dp4605
g74
(dp4606
sg83
g4600
sg76
(lp4607
g69
(g70
g71
NtRp4608
(dp4609
g74
(dp4610
g82
I1
ssg83
g4604
sg76
(lp4611
g4228
(S's\r\x00\x00\x00Documentation'
tRp4612
asbasbasbag69
(g85
g71
NtRp4613
(dp4614
g74
(dp4615
sg83
g4596
sg76
(lp4616
g69
(g90
g71
NtRp4617
(dp4618
g74
(dp4619
sg83
g4613
sg76
(lp4620
g69
(g70
g71
NtRp4621
(dp4622
g74
(dp4623
g82
I1
ssg83
g4617
sg76
(lp4624
I00
asbasbasbag69
(g85
g71
NtRp4625
(dp4626
g74
(dp4627
sg83
g4596
sg76
(lp4628
g69
(g90
g71
NtRp4629
(dp4630
g74
(dp4631
sg83
g4625
sg76
(lp4632
g69
(g70
g71
NtRp4633
(dp4634
g74
(dp4635
g82
I1
ssg83
g4629
sg76
(lp4636
S'http://www.web2py.com/book'
p4637
asbasbasbag69
(g85
g71
NtRp4638
(dp4639
g74
(dp4640
sg83
g4596
sg76
(lp4641
g69
(g90
g71
NtRp4642
(dp4643
g74
(dp4644
sg83
g4638
sg76
(lp4645
g69
(g70
g71
NtRp4646
(dp4647
g74
(dp4648
g82
I1
ssg83
g4642
sg76
(lp4649
(lp4650
(g4228
(S's\x07\x00\x00\x00Preface'
tRp4651
I00
S'http://www.web2py.com/book/default/chapter/00'
p4652
tp4653
a(g4228
(S's\x0c\x00\x00\x00Introduction'
tRp4654
I00
S'http://www.web2py.com/book/default/chapter/01'
p4655
tp4656
a(g4228
(S's\x06\x00\x00\x00Python'
tRp4657
I00
S'http://www.web2py.com/book/default/chapter/02'
p4658
tp4659
a(g4228
(S's\x08\x00\x00\x00Overview'
tRp4660
I00
S'http://www.web2py.com/book/default/chapter/03'
p4661
tp4662
a(g4228
(S's\x08\x00\x00\x00The Core'
tRp4663
I00
S'http://www.web2py.com/book/default/chapter/04'
p4664
tp4665
a(g4228
(S's\t\x00\x00\x00The Views'
tRp4666
I00
S'http://www.web2py.com/book/default/chapter/05'
p4667
tp4668
a(g4228
(S's\x08\x00\x00\x00Database'
tRp4669
I00
S'http://www.web2py.com/book/default/chapter/06'
p4670
tp4671
a(g4228
(S's\x14\x00\x00\x00Forms and Validators'
tRp4672
I00
S'http://www.web2py.com/book/default/chapter/07'
p4673
tp4674
a(g4228
(S's\r\x00\x00\x00Email and SMS'
tRp4675
I00
S'http://www.web2py.com/book/default/chapter/08'
p4676
tp4677
a(g4228
(S's\x0e\x00\x00\x00Access Control'
tRp4678
I00
S'http://www.web2py.com/book/default/chapter/09'
p4679
tp4680
a(g4228
(S's\x08\x00\x00\x00Services'
tRp4681
I00
S'http://www.web2py.com/book/default/chapter/10'
p4682
tp4683
a(g4228
(S's\x0c\x00\x00\x00Ajax Recipes'
tRp4684
I00
S'http://www.web2py.com/book/default/chapter/11'
p4685
tp4686
a(g4228
(S's\x16\x00\x00\x00Components and Plugins'
tRp4687
I00
S'http://www.web2py.com/book/default/chapter/12'
p4688
tp4689
a(g4228
(S's\x12\x00\x00\x00Deployment Recipes'
tRp4690
I00
S'http://www.web2py.com/book/default/chapter/13'
p4691
tp4692
a(g4228
(S's\r\x00\x00\x00Other Recipes'
tRp4693
I00
S'http://www.web2py.com/book/default/chapter/14'
p4694
tp4695
a(g4228
(S's\r\x00\x00\x00Buy this book'
tRp4696
I00
S'http://stores.lulu.com/web2py'
p4697
tp4698
aasbasbasbasbasbasbasbag69
(g85
g71
NtRp4699
(dp4700
g74
(dp4701
sg83
g4341
sg76
(lp4702
g69
(g90
g71
NtRp4703
(dp4704
g74
(dp4705
sg83
g4699
sg76
(lp4706
g69
(g70
g71
NtRp4707
(dp4708
g74
(dp4709
g82
I2
ssg83
g4703
sg76
(lp4710
g69
(g78
g71
NtRp4711
(dp4712
g74
(dp4713
g82
I1
ssg83
Nsg76
(lp4714
g69
(g85
g71
NtRp4715
(dp4716
g74
(dp4717
sg83
g4711
sg76
(lp4718
g69
(g90
g71
NtRp4719
(dp4720
g74
(dp4721
sg83
g4715
sg76
(lp4722
g69
(g70
g71
NtRp4723
(dp4724
g74
(dp4725
g82
I1
ssg83
g4719
sg76
(lp4726
g4228
(S's\t\x00\x00\x00Community'
tRp4727
asbasbasbag69
(g85
g71
NtRp4728
(dp4729
g74
(dp4730
sg83
g4711
sg76
(lp4731
g69
(g90
g71
NtRp4732
(dp4733
g74
(dp4734
sg83
g4728
sg76
(lp4735
g69
(g70
g71
NtRp4736
(dp4737
g74
(dp4738
g82
I1
ssg83
g4732
sg76
(lp4739
I00
asbasbasbag69
(g85
g71
NtRp4740
(dp4741
g74
(dp4742
sg83
g4711
sg76
(lp4743
g69
(g90
g71
NtRp4744
(dp4745
g74
(dp4746
sg83
g4740
sg76
(lp4747
g69
(g70
g71
NtRp4748
(dp4749
g74
(dp4750
g82
I1
ssg83
g4744
sg76
(lp4751
Nasbasbasbag69
(g85
g71
NtRp4752
(dp4753
g74
(dp4754
sg83
g4711
sg76
(lp4755
g69
(g90
g71
NtRp4756
(dp4757
g74
(dp4758
sg83
g4752
sg76
(lp4759
g69
(g70
g71
NtRp4760
(dp4761
g74
(dp4762
g82
I1
ssg83
g4756
sg76
(lp4763
(lp4764
(g4228
(S's\x06\x00\x00\x00Groups'
tRp4765
I00
S'http://www.web2py.com/examples/default/usergroups'
p4766
tp4767
a(g4228
(S's\x07\x00\x00\x00Twitter'
tRp4768
I00
S'http://twitter.com/web2py'
p4769
tp4770
a(g4228
(S's\t\x00\x00\x00Live Chat'
tRp4771
I00
S'http://webchat.freenode.net/?channels=web2py'
p4772
tp4773
aasbasbasbasbasbasbasbag69
(g85
g71
NtRp4774
(dp4775
g74
(dp4776
sg83
g4341
sg76
(lp4777
g69
(g90
g71
NtRp4778
(dp4779
g74
(dp4780
sg83
g4774
sg76
(lp4781
g69
(g70
g71
NtRp4782
(dp4783
g74
(dp4784
g82
I2
ssg83
g4778
sg76
(lp4785
g69
(g78
g71
NtRp4786
(dp4787
g74
(dp4788
g82
I1
ssg83
Nsg76
(lp4789
g69
(g85
g71
NtRp4790
(dp4791
g74
(dp4792
sg83
g4786
sg76
(lp4793
g69
(g90
g71
NtRp4794
(dp4795
g74
(dp4796
sg83
g4790
sg76
(lp4797
g69
(g70
g71
NtRp4798
(dp4799
g74
(dp4800
g82
I1
ssg83
g4794
sg76
(lp4801
g4228
(S's\x07\x00\x00\x00Plugins'
tRp4802
asbasbasbag69
(g85
g71
NtRp4803
(dp4804
g74
(dp4805
sg83
g4786
sg76
(lp4806
g69
(g90
g71
NtRp4807
(dp4808
g74
(dp4809
sg83
g4803
sg76
(lp4810
g69
(g70
g71
NtRp4811
(dp4812
g74
(dp4813
g82
I1
ssg83
g4807
sg76
(lp4814
I00
asbasbasbag69
(g85
g71
NtRp4815
(dp4816
g74
(dp4817
sg83
g4786
sg76
(lp4818
g69
(g90
g71
NtRp4819
(dp4820
g74
(dp4821
sg83
g4815
sg76
(lp4822
g69
(g70
g71
NtRp4823
(dp4824
g74
(dp4825
g82
I1
ssg83
g4819
sg76
(lp4826
Nasbasbasbag69
(g85
g71
NtRp4827
(dp4828
g74
(dp4829
sg83
g4786
sg76
(lp4830
g69
(g90
g71
NtRp4831
(dp4832
g74
(dp4833
sg83
g4827
sg76
(lp4834
g69
(g70
g71
NtRp4835
(dp4836
g74
(dp4837
g82
I1
ssg83
g4831
sg76
(lp4838
(lp4839
(S'plugin_wiki'
p4840
I00
S'http://web2py.com/examples/default/download'
p4841
tp4842
a(g4228
(S's\r\x00\x00\x00Other Plugins'
tRp4843
I00
g4573
tp4844
a(g4228
(S's\x0e\x00\x00\x00Layout Plugins'
tRp4845
I00
g4576
tp4846
aasbasbasbasbasbasbasbasbasbasbasbasbasbasbasbasbasbasbasbag69
(g85
g71
NtRp4847
(dp4848
g74
(dp4849
sg83
g3694
sg76
(lp4850
g69
(g90
g71
NtRp4851
(dp4852
g74
(dp4853
g94
g95
ssg83
g4847
sg76
(lp4854
S'meta'
p4855
asbag69
(g90
g71
NtRp4856
(dp4857
g74
(dp4858
g101
g102
ssg83
g4847
sg76
(lp4859
S':'
asbag69
(g90
g71
NtRp4860
(dp4861
g74
(dp4862
sg83
g4847
sg76
(lp4863
g69
(g70
g71
NtRp4864
(dp4865
g74
(dp4866
g82
I5
ssg83
g4860
sg76
(lp4867
g69
(g78
g71
NtRp4868
(dp4869
g74
(dp4870
g82
I4
ssg83
Nsg76
(lp4871
g69
(g85
g71
NtRp4872
(dp4873
g74
(dp4874
sg83
g4868
sg76
(lp4875
g69
(g90
g71
NtRp4876
(dp4877
g74
(dp4878
g94
g95
ssg83
g4872
sg76
(lp4879
S'author'
p4880
asbag69
(g90
g71
NtRp4881
(dp4882
g74
(dp4883
g101
g102
ssg83
g4872
sg76
(lp4884
S':'
asbag69
(g90
g71
NtRp4885
(dp4886
g74
(dp4887
sg83
g4872
sg76
(lp4888
g69
(g70
g71
NtRp4889
(dp4890
g74
(dp4891
g82
I4
ssg83
g4885
sg76
(lp4892
S'Your Name <you@example.com>'
p4893
asbasbasbag69
(g85
g71
NtRp4894
(dp4895
g74
(dp4896
sg83
g4868
sg76
(lp4897
g69
(g90
g71
NtRp4898
(dp4899
g74
(dp4900
g94
g95
ssg83
g4894
sg76
(lp4901
S'description'
p4902
asbag69
(g90
g71
NtRp4903
(dp4904
g74
(dp4905
g101
g102
ssg83
g4894
sg76
(lp4906
S':'
asbag69
(g90
g71
NtRp4907
(dp4908
g74
(dp4909
sg83
g4894
sg76
(lp4910
g69
(g70
g71
NtRp4911
(dp4912
g74
(dp4913
g82
I4
ssg83
g4907
sg76
(lp4914
S'a cool new app'
p4915
asbasbasbag69
(g85
g71
NtRp4916
(dp4917
g74
(dp4918
sg83
g4868
sg76
(lp4919
g69
(g90
g71
NtRp4920
(dp4921
g74
(dp4922
g94
g95
ssg83
g4916
sg76
(lp4923
S'generator'
p4924
asbag69
(g90
g71
NtRp4925
(dp4926
g74
(dp4927
g101
g102
ssg83
g4916
sg76
(lp4928
S':'
asbag69
(g90
g71
NtRp4929
(dp4930
g74
(dp4931
sg83
g4916
sg76
(lp4932
g69
(g70
g71
NtRp4933
(dp4934
g74
(dp4935
g82
I4
ssg83
g4929
sg76
(lp4936
S'Web2py Web Framework'
p4937
asbasbasbag69
(g85
g71
NtRp4938
(dp4939
g74
(dp4940
sg83
g4868
sg76
(lp4941
g69
(g90
g71
NtRp4942
(dp4943
g74
(dp4944
g94
g95
ssg83
g4938
sg76
(lp4945
S'keywords'
p4946
asbag69
(g90
g71
NtRp4947
(dp4948
g74
(dp4949
g101
g102
ssg83
g4938
sg76
(lp4950
S':'
asbag69
(g90
g71
NtRp4951
(dp4952
g74
(dp4953
sg83
g4938
sg76
(lp4954
g69
(g70
g71
NtRp4955
(dp4956
g74
(dp4957
g82
I4
ssg83
g4951
sg76
(lp4958
S'web2py, python, framework'
p4959
asbasbasbasbasbasbasbag69
(g85
g71
NtRp4960
(dp4961
g74
(dp4962
sg83
g3694
sg76
(lp4963
g69
(g90
g71
NtRp4964
(dp4965
g74
(dp4966
g94
g95
ssg83
g4960
sg76
(lp4967
S'models_to_run'
p4968
asbag69
(g90
g71
NtRp4969
(dp4970
g74
(dp4971
g101
g102
ssg83
g4960
sg76
(lp4972
S':'
asbag69
(g90
g71
NtRp4973
(dp4974
g74
(dp4975
sg83
g4960
sg76
(lp4976
g69
(g70
g71
NtRp4977
(dp4978
g74
(dp4979
g82
I5
ssg83
g4973
sg76
(lp4980
g69
(g78
g71
NtRp4981
(dp4982
g74
(dp4983
g82
I4
ssg83
Nsg76
(lp4984
g69
(g85
g71
NtRp4985
(dp4986
g74
(dp4987
sg83
g4981
sg76
(lp4988
g69
(g90
g71
NtRp4989
(dp4990
g74
(dp4991
sg83
g4985
sg76
(lp4992
g69
(g70
g71
NtRp4993
(dp4994
g74
(dp4995
g82
I4
ssg83
g4989
sg76
(lp4996
S'^\\w+\\.py$'
p4997
asbasbasbag69
(g85
g71
NtRp4998
(dp4999
g74
(dp5000
sg83
g4981
sg76
(lp5001
g69
(g90
g71
NtRp5002
(dp5003
g74
(dp5004
sg83
g4998
sg76
(lp5005
g69
(g70
g71
NtRp5006
(dp5007
g74
(dp5008
g82
I4
ssg83
g5002
sg76
(lp5009
S'^default/\\w+\\.py$'
p5010
asbasbasbag69
(g85
g71
NtRp5011
(dp5012
g74
(dp5013
sg83
g4981
sg76
(lp5014
g69
(g90
g71
NtRp5015
(dp5016
g74
(dp5017
sg83
g5011
sg76
(lp5018
g69
(g70
g71
NtRp5019
(dp5020
g74
(dp5021
g82
I4
ssg83
g5015
sg76
(lp5022
S'^default/first_page/\\w+\\.py$'
p5023
asbasbasbasbasbasbasbag69
(g85
g71
NtRp5024
(dp5025
g74
(dp5026
sg83
g3694
sg76
(lp5027
g69
(g90
g71
NtRp5028
(dp5029
g74
(dp5030
g94
g95
ssg83
g5024
sg76
(lp5031
S'postprocessing'
p5032
asbag69
(g90
g71
NtRp5033
(dp5034
g74
(dp5035
g101
g102
ssg83
g5024
sg76
(lp5036
S':'
asbag69
(g90
g71
NtRp5037
(dp5038
g74
(dp5039
sg83
g5024
sg76
(lp5040
g69
(g70
g71
NtRp5041
(dp5042
g74
(dp5043
g82
I5
ssg83
g5037
sg76
(lp5044
g69
(g78
g71
NtRp5045
(dp5046
g74
(dp5047
g82
I4
ssg83
Nsg76
(lp5048
sbasbasbasbag69
(g85
g71
NtRp5049
(dp5050
g74
(dp5051
sg83
g3694
sg76
(lp5052
g69
(g90
g71
NtRp5053
(dp5054
g74
(dp5055
g94
g95
ssg83
g5049
sg76
(lp5056
S'session_cookie_expires'
p5057
asbag69
(g90
g71
NtRp5058
(dp5059
g74
(dp5060
g101
g102
ssg83
g5049
sg76
(lp5061
S':'
asbag69
(g90
g71
NtRp5062
(dp5063
g74
(dp5064
sg83
g5049
sg76
(lp5065
g69
(g70
g71
NtRp5066
(dp5067
g74
(dp5068
g82
I5
ssg83
g5062
sg76
(lp5069
S'None'
p5070
asbasbasbag69
(g85
g71
NtRp5071
(dp5072
g74
(dp5073
sg83
g3694
sg76
(lp5074
g69
(g90
g71
NtRp5075
(dp5076
g74
(dp5077
g94
g95
ssg83
g5071
sg76
(lp5078
S'session_data_name'
p5079
asbag69
(g90
g71
NtRp5080
(dp5081
g74
(dp5082
g101
g102
ssg83
g5071
sg76
(lp5083
S':'
asbag69
(g90
g71
NtRp5084
(dp5085
g74
(dp5086
sg83
g5071
sg76
(lp5087
g69
(g70
g71
NtRp5088
(dp5089
g74
(dp5090
g82
I5
ssg83
g5084
sg76
(lp5091
S'session_data_assignmen3'
p5092
asbasbasbag69
(g85
g71
NtRp5093
(dp5094
g74
(dp5095
sg83
g3694
sg76
(lp5096
g69
(g90
g71
NtRp5097
(dp5098
g74
(dp5099
g94
g95
ssg83
g5093
sg76
(lp5100
S'session_file'
p5101
asbag69
(g90
g71
NtRp5102
(dp5103
g74
(dp5104
g101
g102
ssg83
g5093
sg76
(lp5105
S':'
asbag69
(g90
g71
NtRp5106
(dp5107
g74
(dp5108
sg83
g5093
sg76
(lp5109
g69
(g70
g71
NtRp5110
(dp5111
g74
(dp5112
g82
I5
ssg83
g5106
sg76
(lp5113
S"<open file '/home/umang/web2py/applications/assignmen3/sessions/127.0.0.1-f78a0883-b419-4f1b-8802-d13ae89341f4', mode 'rb+' at 0x7f950811a930>"
p5114
asbasbasbag69
(g85
g71
NtRp5115
(dp5116
g74
(dp5117
sg83
g3694
sg76
(lp5118
g69
(g90
g71
NtRp5119
(dp5120
g74
(dp5121
g94
g95
ssg83
g5115
sg76
(lp5122
S'session_filename'
p5123
asbag69
(g90
g71
NtRp5124
(dp5125
g74
(dp5126
g101
g102
ssg83
g5115
sg76
(lp5127
S':'
asbag69
(g90
g71
NtRp5128
(dp5129
g74
(dp5130
sg83
g5115
sg76
(lp5131
g69
(g70
g71
NtRp5132
(dp5133
g74
(dp5134
g82
I5
ssg83
g5128
sg76
(lp5135
S'/home/umang/web2py/applications/assignmen3/sessions/127.0.0.1-f78a0883-b419-4f1b-8802-d13ae89341f4'
p5136
asbasbasbag69
(g85
g71
NtRp5137
(dp5138
g74
(dp5139
sg83
g3694
sg76
(lp5140
g69
(g90
g71
NtRp5141
(dp5142
g74
(dp5143
g94
g95
ssg83
g5137
sg76
(lp5144
S'session_id'
p5145
asbag69
(g90
g71
NtRp5146
(dp5147
g74
(dp5148
g101
g102
ssg83
g5137
sg76
(lp5149
S':'
asbag69
(g90
g71
NtRp5150
(dp5151
g74
(dp5152
sg83
g5137
sg76
(lp5153
g69
(g70
g71
NtRp5154
(dp5155
g74
(dp5156
g82
I5
ssg83
g5150
sg76
(lp5157
g499
asbasbasbag69
(g85
g71
NtRp5158
(dp5159
g74
(dp5160
sg83
g3694
sg76
(lp5161
g69
(g90
g71
NtRp5162
(dp5163
g74
(dp5164
g94
g95
ssg83
g5158
sg76
(lp5165
S'session_id_name'
p5166
asbag69
(g90
g71
NtRp5167
(dp5168
g74
(dp5169
g101
g102
ssg83
g5158
sg76
(lp5170
S':'
asbag69
(g90
g71
NtRp5171
(dp5172
g74
(dp5173
sg83
g5158
sg76
(lp5174
g69
(g70
g71
NtRp5175
(dp5176
g74
(dp5177
g82
I5
ssg83
g5171
sg76
(lp5178
g3751
asbasbasbag69
(g85
g71
NtRp5179
(dp5180
g74
(dp5181
sg83
g3694
sg76
(lp5182
g69
(g90
g71
NtRp5183
(dp5184
g74
(dp5185
g94
g95
ssg83
g5179
sg76
(lp5186
S'session_locked'
p5187
asbag69
(g90
g71
NtRp5188
(dp5189
g74
(dp5190
g101
g102
ssg83
g5179
sg76
(lp5191
S':'
asbag69
(g90
g71
NtRp5192
(dp5193
g74
(dp5194
sg83
g5179
sg76
(lp5195
g69
(g70
g71
NtRp5196
(dp5197
g74
(dp5198
g82
I5
ssg83
g5192
sg76
(lp5199
g1793
asbasbasbag69
(g85
g71
NtRp5200
(dp5201
g74
(dp5202
sg83
g3694
sg76
(lp5203
g69
(g90
g71
NtRp5204
(dp5205
g74
(dp5206
g94
g95
ssg83
g5200
sg76
(lp5207
S'session_new'
p5208
asbag69
(g90
g71
NtRp5209
(dp5210
g74
(dp5211
g101
g102
ssg83
g5200
sg76
(lp5212
S':'
asbag69
(g90
g71
NtRp5213
(dp5214
g74
(dp5215
sg83
g5200
sg76
(lp5216
g69
(g70
g71
NtRp5217
(dp5218
g74
(dp5219
g82
I5
ssg83
g5213
sg76
(lp5220
g112
asbasbasbag69
(g85
g71
NtRp5221
(dp5222
g74
(dp5223
sg83
g3694
sg76
(lp5224
g69
(g90
g71
NtRp5225
(dp5226
g74
(dp5227
g94
g95
ssg83
g5221
sg76
(lp5228
S'session_storage_type'
p5229
asbag69
(g90
g71
NtRp5230
(dp5231
g74
(dp5232
g101
g102
ssg83
g5221
sg76
(lp5233
S':'
asbag69
(g90
g71
NtRp5234
(dp5235
g74
(dp5236
sg83
g5221
sg76
(lp5237
g69
(g70
g71
NtRp5238
(dp5239
g74
(dp5240
g82
I5
ssg83
g5234
sg76
(lp5241
g3224
asbasbasbag69
(g85
g71
NtRp5242
(dp5243
g74
(dp5244
sg83
g3694
sg76
(lp5245
g69
(g90
g71
NtRp5246
(dp5247
g74
(dp5248
g94
g95
ssg83
g5242
sg76
(lp5249
S'status'
p5250
asbag69
(g90
g71
NtRp5251
(dp5252
g74
(dp5253
g101
g102
ssg83
g5242
sg76
(lp5254
S':'
asbag69
(g90
g71
NtRp5255
(dp5256
g74
(dp5257
sg83
g5242
sg76
(lp5258
g69
(g70
g71
NtRp5259
(dp5260
g74
(dp5261
g82
I5
ssg83
g5255
sg76
(lp5262
S'200'
p5263
asbasbasbag69
(g85
g71
NtRp5264
(dp5265
g74
(dp5266
sg83
g3694
sg76
(lp5267
g69
(g90
g71
NtRp5268
(dp5269
g74
(dp5270
g94
g95
ssg83
g5264
sg76
(lp5271
S'subtitle'
p5272
asbag69
(g90
g71
NtRp5273
(dp5274
g74
(dp5275
g101
g102
ssg83
g5264
sg76
(lp5276
S':'
asbag69
(g90
g71
NtRp5277
(dp5278
g74
(dp5279
sg83
g5264
sg76
(lp5280
g69
(g70
g71
NtRp5281
(dp5282
g74
(dp5283
g82
I5
ssg83
g5277
sg76
(lp5284
g4228
(S's\r\x00\x00\x00customize me!'
tRp5285
asbasbasbag69
(g85
g71
NtRp5286
(dp5287
g74
(dp5288
sg83
g3694
sg76
(lp5289
g69
(g90
g71
NtRp5290
(dp5291
g74
(dp5292
g94
g95
ssg83
g5286
sg76
(lp5293
S'title'
p5294
asbag69
(g90
g71
NtRp5295
(dp5296
g74
(dp5297
g101
g102
ssg83
g5286
sg76
(lp5298
S':'
asbag69
(g90
g71
NtRp5299
(dp5300
g74
(dp5301
sg83
g5286
sg76
(lp5302
g69
(g70
g71
NtRp5303
(dp5304
g74
(dp5305
g82
I5
ssg83
g5299
sg76
(lp5306
S'Assignmen3'
p5307
asbasbasbag69
(g85
g71
NtRp5308
(dp5309
g74
(dp5310
sg83
g3694
sg76
(lp5311
g69
(g90
g71
NtRp5312
(dp5313
g74
(dp5314
g94
g95
ssg83
g5308
sg76
(lp5315
S'view'
p5316
asbag69
(g90
g71
NtRp5317
(dp5318
g74
(dp5319
g101
g102
ssg83
g5308
sg76
(lp5320
S':'
asbag69
(g90
g71
NtRp5321
(dp5322
g74
(dp5323
sg83
g5308
sg76
(lp5324
g69
(g70
g71
NtRp5325
(dp5326
g74
(dp5327
g82
I5
ssg83
g5321
sg76
(lp5328
S'default/first_page.html'
p5329
asbasbasbasbasbsS'locals'
p5330
(dp5331
g4
S"'/home/umang/web2py/applications/assignmen3/controllers/default.py'"
p5332
sg6
S"'# -*- coding: utf-8 -*-\\n# this file is released ...())\\n\\nresponse._vars=response._caller(first_page)\\n'"
p5333
sssS'traceback'
p5334
S'Traceback (most recent call last):\n  File "/home/umang/web2py/gluon/restricted.py", line 211, in restricted\n    ccode = compile2(code, layer)\n  File "/home/umang/web2py/gluon/restricted.py", line 194, in compile2\n    return compile(code.rstrip().replace(\'\\r\\n\', \'\\n\') + \'\\n\', layer, \'exec\')\n  File "/home/umang/web2py/applications/assignmen3/controllers/default.py", line 87\n    if(len(query)==0 || query[0].liked==0):\n                      ^\nSyntaxError: invalid syntax\n'
p5335
s.