(dp1
S'output'
p2
S"<type 'exceptions.SyntaxError'> invalid syntax (default.py, line 45)"
p3
sS'layer'
p4
S'/home/umang/web2py/applications/assignmen3/controllers/default.py'
p5
sS'code'
p6
S'# -*- coding: utf-8 -*-\n# this file is released under public domain and you can use without limitations\n\n#########################################################################\n## This is a samples controller\n## - index is the default action of any application\n## - user is required for authentication and authorization\n## - download is for downloading files uploaded in the db (does streaming)\n## - call exposes all registered services (none by default)\n#########################################################################\nimport datetime\n\ndef index():\n    """\n    example action using the internationalization operator T and flash\n    rendered by views/default/index.html or views/generic.html\n\n    if you need a simple wiki simple replace the two lines below with:\n    return auth.wiki()\n    """\n    #redirect(URL(r=request,f=\'first_page?query=new\'))\n    query=db(db.category.name==\'New\').select(db.category.id)\n    redirect(URL(r=request, f=\'first_page\',args=[int(query[0].id)]))\n\n@auth.requires_login()\ndef login_to_account():\n\tar=db((db.auth_membership.user_id==auth.user_id) & (db.auth_group.id==db.auth_membership.group_id)).select(db.auth_group.role)\n\tif(len(ar)==0):\n\t\tredirect(URL(r=request,f=\'user\'))\n\telif(len(ar)==1):\n\t\tx=db(db.auth_group.role==\'normal\').select(db.auth_group.id)\n\t\tdb.auth_membership.insert(user_id=auth.user_id,group_id=x[0][\'id\'])\n\t\tredirect(URL(r=request,f=\'login_normal\'))\n\telif(ar[1][\'role\']==\'normal\'):\n\t\tredirect(URL(r=request,f=\'login_normal\'))\n\telif(ar[1][\'role\']==\'admin\'):\n\t\tredirect(URL(r=request,f=\'login_admin\'))\n\ndef login_normal():\n\tdisp=db(db.news.user_id==auth.user_id).select(db.news.heading,db.news.url,db.news.category,db.news.ntype)\n\treturn dict(disp=disp)\t\n\ndef first_page():\n\tquery=int(request.args(0))\n\tdisp=db(db.news.category_id==query).select(db.news.heading,db.news.url,db.news.rating,db.news.ntype,db.news.id db.news.pres_time,orderby=db.news.rating)\n\tq_comment=db((db.news.category_id==query) & (db.comments.news_id==db.news.id)).select(db.comments.body,db.comments.commentor)\n\tcatg=db(db.category.id>0).select(db.category.name,db.category.id)\n\tpres_catg=db(db.category.id==query).select(db.category.name)\n\tdisp=sorted(disp,key=lambda a:-a[\'rating\'])\n\tform=SQLFORM.factory(\n\t db.Field(\'comm_body\',\'string\',label=""),\n\t formstyle=\'divs\',\n\t buttons=[],)\n   \tform[0].insert(1,DIV(INPUT(_type=\'submit\',_value=\'Post\')))\n   \tif form.accepts(request.vars,session):\n        \t insert_comment(form.vars.comm_body,auth.user_id,query)\n    \telif form.errors:\n        \t response.flash=\'Some Error Occured Please Refresh\'\n    \t\n\treturn dict(query=query,disp=disp,q_comment=q_comment,catg=catg,pres_catg=pres_catg)\n\n@auth.requires_login()\ndef add_news():\n\tcatg=int(request.args(0))\n\tdb.news.pres_time.default=datetime.datetime.now().ctime()\n\tdb.news.pres_time.readable=False\n\tdb.news.pres_time.writable=False\n\tdb.news.category_id.default=catg\n\tdb.news.category_id.readable=False\n\tdb.news.category_id.writable=False\n\tdb.news.user_id.default=auth.user_id\n\tdb.news.user_id.writable=False\n\tdb.news.user_id.readable=False\n\tdb.news.rating.default=100\n\tdb.news.rating.writable=False\n\tdb.news.rating.readable=False\n\tform=SQLFORM(db.news,submit_button="Post",labels={\'ntype\':\'Post Type\'})\n\tif form.process().accepted:\n        \tredirect(URL(r=request, f=\'first_page\',args=[int(catg)]))\n\t\t#redirect(URL(r=request,f=\'first_page?query=%s\' % catg))\n\telif form.errors:\n\t\tresponse.flash="Error posting it"\n\treturn dict(form=form)\n\n@auth.requires_login()\ndef like():\n\tnews_id=int(request.args(0))\n\tcatg=int(request.args(1))\n\tar=db(db.news.id==news_id).select(db.news.rating)\n\tquery=db((db.rating.news_id==news_id) & (db.rating.rater_id==auth.user_id)).select(db.rating.liked)\n\tflag=1\n\t"""\n\tif((len(query)==0) or (query[0].liked==0)):\n\t\tdb(db.news.id==news_id).update(rating=ar[0].rating+5)\n\t\tflag=2\n\t\tif(len(query)==0):\n\t\t\tdb.rating.insert(news_id=news_id,rater_id=auth.user_id,liked=1,disliked=0)\n\t\telse:\n\t\t\tflag=3\n\t\t\tdb((db.rating.news_id==news_id) & (db.rating.rater_id==auth.user_id)).update(liked=1)\n\t#redirect(URL(r=request, f=\'first_page\',args=[int(catg)]))\n\treturn dict(query=query,flag=flag)\n\t"""\n\tif(len(query)==0):\n\t\tdb(db.news.id==news_id).update(rating=ar[0].rating+5)\n\t\tdb.rating.insert(news_id=news_id,rater_id=auth.user_id,liked=1,disliked=0)\n\tredirect(URL(r=request, f=\'first_page\',args=[int(catg)]))\n\n@auth.requires_login()\ndef dislike():\n\tnews_id=int(request.args(0))\n\tcatg=int(request.args(1))\n\tar=db(db.news.id==news_id).select(db.news.rating)\n\tquery=db((db.rating.news_id==news_id) & (db.rating.rater_id==auth.user_id)).select(db.rating.disliked)\n\tif(len(query)==0):\n\t\tdb(db.news.id==news_id).update(rating=ar[0].rating-3)\n\t\tdb.rating.insert(news_id=news_id,rater_id=auth.user_id,liked=0,disliked=1)\n\tredirect(URL(r=request,f=\'first_page\',args=[(int)(catg)]))\n\t#return dict(query=query)\n\n@auth.requires_login()\ndef edit_news():\n\tnews_id=int(request.args(0))\n\tcatg=int(request.args(1))\n\tquery=db((db.news.id==news_id) & (db.news.user_id==auth.user_id)).select(db.news.heading)\n\tif(len(query)==0):\n\t\tredirect(URL(r=request,f=\'first_page\',args=[(int)(catg)]))\n\telse :\n\t\tform=SQLFORM.factory(\n\t\t db.Field(\'new_heading\',\'string\',label="Enter Heading"),\n\t\t db.Field(\'new_url\',\'string\',label="Enter URL",requires=IS_URL()),\n\t\t db.Field(\'new_type\',\'string\',label="Enter Type",requires=IS_IN_SET(["Text","Video"])),\n\t\t formstyle=\'divs\',\n\t\t buttons=[],)\n   \t\tform[0].insert(3,DIV(INPUT(_type=\'submit\',_value=\'Edit IT\')))\n\t   \tif form.accepts(request.vars,session):\n        \t\t tmp_edit(form.vars.new_heading,form.vars.new_url,form.vars.new_type,news_id,catg)\n\t    \telif form.errors:\n        \t\t response.flash=\'Some Error Occured Please Refresh\'\n\t\treturn dict(form=form)\n\n@auth.requires_login()\ndef tmp_edit(new_heading,new_url,new_type,news_id,catg):\n\tdb(db.news.id==news_id).update(heading=new_heading,url=new_url,rating=100,ntype=new_type)\n\tdb(db.rating.news_id==news_id).delete()\n\tredirect(URL(r=request,f=\'first_page\',args=[(int)(catg)]))\n\n@auth.requires_login()\ndef delete_news():\n\tnews_id=int(request.args(0))\n\tcatg=int(request.args(1))\n\tdb((db.news.id==news_id) & (db.news.user_id==auth.user_id)).delete()\n\tredirect(URL(r=request,f=\'first_page\',args=[(int)(catg)]))\n\n@auth.requires_login()\ndef insert_comment(c_body,rec,query):\n\tdb.comments.insert(body=c_body,sender_id=auth.user_id,receiver=int(rec))\n        query=db(db.coment.id>0).select(db.coment.id,db.coment.receiver)\n        redirect(URL(r=request, f=\'first_page\',args=[int(query)]))\n\n\n\ndef user():\n    """\n    exposes:\n    http://..../[app]/default/user/login\n    http://..../[app]/default/user/logout\n    http://..../[app]/default/user/register\n    http://..../[app]/default/user/profile\n    http://..../[app]/default/user/retrieve_password\n    http://..../[app]/default/user/change_password\n    use @auth.requires_login()\n        @auth.requires_membership(\'group name\')\n        @auth.requires_permission(\'read\',\'table name\',record_id)\n    to decorate functions that need access control\n    """\n    return dict(form=auth())\n\n\ndef download():\n    """\n    allows downloading of uploaded files\n    http://..../[app]/default/download/[filename]\n    """\n    return response.download(request, db)\n\n\ndef call():\n    """\n    exposes services. for example:\n    http://..../[app]/default/call/jsonrpc\n    decorate with @services.jsonrpc the functions to expose\n    supports xml, json, xmlrpc, jsonrpc, amfrpc, rss, csv\n    """\n    return service()\n\n\n@auth.requires_signature()\ndef data():\n    """\n    http://..../[app]/default/data/tables\n    http://..../[app]/default/data/create/[table]\n    http://..../[app]/default/data/read/[table]/[id]\n    http://..../[app]/default/data/update/[table]/[id]\n    http://..../[app]/default/data/delete/[table]/[id]\n    http://..../[app]/default/data/select/[table]\n    http://..../[app]/default/data/search/[table]\n    but URLs must be signed, i.e. linked with\n      A(\'table\',_href=URL(\'data/tables\',user_signature=True))\n    or with the signed load operator\n      LOAD(\'default\',\'data.load\',args=\'tables\',ajax=True,user_signature=True)\n    """\n    return dict(form=crud())\n\nresponse._vars=response._caller(edit_news)\n'
p7
sS'snapshot'
p8
(dp9
S'exception'
p10
(dp11
S'__getslice__'
p12
S"<method-wrapper '__getslice__' of exceptions.SyntaxError object>"
p13
sS'text'
p14
S"'\\tdisp=db(db.news.category_id==query).select(db.n...ews.id db.news.pres_time,orderby=db.news.rating)\\n'"
p15
sS'__str__'
p16
S"<method-wrapper '__str__' of exceptions.SyntaxError object>"
p17
sS'__reduce__'
p18
S'<built-in method __reduce__ of exceptions.SyntaxError object>'
p19
sS'__dict__'
p20
S'{}'
p21
sS'__sizeof__'
p22
S'<built-in method __sizeof__ of exceptions.SyntaxError object>'
p23
sS'__init__'
p24
S"<method-wrapper '__init__' of exceptions.SyntaxError object>"
p25
sS'__setattr__'
p26
S"<method-wrapper '__setattr__' of exceptions.SyntaxError object>"
p27
sS'__reduce_ex__'
p28
S'<built-in method __reduce_ex__ of exceptions.SyntaxError object>'
p29
sS'__new__'
p30
S'<built-in method __new__ of type object>'
p31
sS'__format__'
p32
S'<built-in method __format__ of exceptions.SyntaxError object>'
p33
sS'__class__'
p34
S"<type 'exceptions.SyntaxError'>"
p35
sS'filename'
p36
S"'/home/umang/web2py/applications/assignmen3/controllers/default.py'"
p37
sS'lineno'
p38
S'45'
p39
sS'msg'
p40
S"'invalid syntax'"
p41
sS'__doc__'
p42
S"'Invalid syntax.'"
p43
sS'__getitem__'
p44
S"<method-wrapper '__getitem__' of exceptions.SyntaxError object>"
p45
sS'__setstate__'
p46
S'<built-in method __setstate__ of exceptions.SyntaxError object>'
p47
sS'__getattribute__'
p48
S"<method-wrapper '__getattribute__' of exceptions.SyntaxError object>"
p49
sS'print_file_and_line'
p50
S'None'
p51
sS'args'
p52
S"('invalid syntax', ('/home/umang/web2py/applications/assignmen3/controllers/default.py', 45, 114, '\\tdisp=db(db.news.category_id==query).select(db.n...ews.id db.news.pres_time,orderby=db.news.rating)\\n'))"
p53
sS'__subclasshook__'
p54
S'<built-in method __subclasshook__ of type object>'
p55
sS'offset'
p56
S'114'
p57
sS'__unicode__'
p58
S'<built-in method __unicode__ of exceptions.SyntaxError object>'
p59
sS'__delattr__'
p60
S"<method-wrapper '__delattr__' of exceptions.SyntaxError object>"
p61
sS'__repr__'
p62
S"<method-wrapper '__repr__' of exceptions.SyntaxError object>"
p63
sS'__hash__'
p64
S"<method-wrapper '__hash__' of exceptions.SyntaxError object>"
p65
ssS'evalue'
p66
S'invalid syntax (default.py, line 45)'
p67
sS'request'
p68
ccopy_reg
_reconstructor
p69
(cgluon.html
BEAUTIFY
p70
c__builtin__
object
p71
NtRp72
(dp73
S'attributes'
p74
(dp75
sS'components'
p76
(lp77
g69
(cgluon.html
TABLE
p78
g71
NtRp79
(dp80
g74
(dp81
S'level'
p82
I5
ssS'parent'
p83
Nsg76
(lp84
g69
(cgluon.html
TR
p85
g71
NtRp86
(dp87
g74
(dp88
sg83
g79
sg76
(lp89
g69
(cgluon.html
TD
p90
g71
NtRp91
(dp92
g74
(dp93
S'_style'
p94
S'font-weight:bold;vertical-align:top'
p95
ssg83
g86
sg76
(lp96
S'ajax'
p97
asbag69
(g90
g71
NtRp98
(dp99
g74
(dp100
S'_valign'
p101
S'top'
p102
ssg83
g86
sg76
(lp103
S':'
asbag69
(g90
g71
NtRp104
(dp105
g74
(dp106
sg83
g86
sg76
(lp107
g69
(g70
g71
NtRp108
(dp109
g74
(dp110
g82
I5
ssg83
g104
sg76
(lp111
S'False'
p112
asbasbasbag69
(g85
g71
NtRp113
(dp114
g74
(dp115
sg83
g79
sg76
(lp116
g69
(g90
g71
NtRp117
(dp118
g74
(dp119
g94
g95
ssg83
g113
sg76
(lp120
S'application'
p121
asbag69
(g90
g71
NtRp122
(dp123
g74
(dp124
g101
g102
ssg83
g113
sg76
(lp125
S':'
asbag69
(g90
g71
NtRp126
(dp127
g74
(dp128
sg83
g113
sg76
(lp129
g69
(g70
g71
NtRp130
(dp131
g74
(dp132
g82
I5
ssg83
g126
sg76
(lp133
S'assignmen3'
p134
asbasbasbag69
(g85
g71
NtRp135
(dp136
g74
(dp137
sg83
g79
sg76
(lp138
g69
(g90
g71
NtRp139
(dp140
g74
(dp141
g94
g95
ssg83
g135
sg76
(lp142
g52
asbag69
(g90
g71
NtRp143
(dp144
g74
(dp145
g101
g102
ssg83
g135
sg76
(lp146
S':'
asbag69
(g90
g71
NtRp147
(dp148
g74
(dp149
sg83
g135
sg76
(lp150
g69
(g70
g71
NtRp151
(dp152
g74
(dp153
g82
I5
ssg83
g147
sg76
(lp154
g69
(g78
g71
NtRp155
(dp156
g74
(dp157
g82
I4
ssg83
Nsg76
(lp158
g69
(g85
g71
NtRp159
(dp160
g74
(dp161
sg83
g155
sg76
(lp162
g69
(g90
g71
NtRp163
(dp164
g74
(dp165
sg83
g159
sg76
(lp166
g69
(g70
g71
NtRp167
(dp168
g74
(dp169
g82
I4
ssg83
g163
sg76
(lp170
S'3'
asbasbasbag69
(g85
g71
NtRp171
(dp172
g74
(dp173
sg83
g155
sg76
(lp174
g69
(g90
g71
NtRp175
(dp176
g74
(dp177
sg83
g171
sg76
(lp178
g69
(g70
g71
NtRp179
(dp180
g74
(dp181
g82
I4
ssg83
g175
sg76
(lp182
S'2'
asbasbasbasbasbasbasbag69
(g85
g71
NtRp183
(dp184
g74
(dp185
sg83
g79
sg76
(lp186
g69
(g90
g71
NtRp187
(dp188
g74
(dp189
g94
g95
ssg83
g183
sg76
(lp190
S'body'
p191
asbag69
(g90
g71
NtRp192
(dp193
g74
(dp194
g101
g102
ssg83
g183
sg76
(lp195
S':'
asbag69
(g90
g71
NtRp196
(dp197
g74
(dp198
sg83
g183
sg76
(lp199
g69
(g70
g71
NtRp200
(dp201
g74
(dp202
g82
I5
ssg83
g196
sg76
(lp203
S'<cStringIO.StringO object at 0x7f950c1975a8>'
p204
asbasbasbag69
(g85
g71
NtRp205
(dp206
g74
(dp207
sg83
g79
sg76
(lp208
g69
(g90
g71
NtRp209
(dp210
g74
(dp211
g94
g95
ssg83
g205
sg76
(lp212
S'cid'
p213
asbag69
(g90
g71
NtRp214
(dp215
g74
(dp216
g101
g102
ssg83
g205
sg76
(lp217
S':'
asbag69
(g90
g71
NtRp218
(dp219
g74
(dp220
sg83
g205
sg76
(lp221
g69
(g70
g71
NtRp222
(dp223
g74
(dp224
g82
I5
ssg83
g218
sg76
(lp225
S'None'
p226
asbasbasbag69
(g85
g71
NtRp227
(dp228
g74
(dp229
sg83
g79
sg76
(lp230
g69
(g90
g71
NtRp231
(dp232
g74
(dp233
g94
g95
ssg83
g227
sg76
(lp234
S'client'
p235
asbag69
(g90
g71
NtRp236
(dp237
g74
(dp238
g101
g102
ssg83
g227
sg76
(lp239
S':'
asbag69
(g90
g71
NtRp240
(dp241
g74
(dp242
sg83
g227
sg76
(lp243
g69
(g70
g71
NtRp244
(dp245
g74
(dp246
g82
I5
ssg83
g240
sg76
(lp247
S'127.0.0.1'
p248
asbasbasbag69
(g85
g71
NtRp249
(dp250
g74
(dp251
sg83
g79
sg76
(lp252
g69
(g90
g71
NtRp253
(dp254
g74
(dp255
g94
g95
ssg83
g249
sg76
(lp256
S'controller'
p257
asbag69
(g90
g71
NtRp258
(dp259
g74
(dp260
g101
g102
ssg83
g249
sg76
(lp261
S':'
asbag69
(g90
g71
NtRp262
(dp263
g74
(dp264
sg83
g249
sg76
(lp265
g69
(g70
g71
NtRp266
(dp267
g74
(dp268
g82
I5
ssg83
g262
sg76
(lp269
S'default'
p270
asbasbasbag69
(g85
g71
NtRp271
(dp272
g74
(dp273
sg83
g79
sg76
(lp274
g69
(g90
g71
NtRp275
(dp276
g74
(dp277
g94
g95
ssg83
g271
sg76
(lp278
S'cookies'
p279
asbag69
(g90
g71
NtRp280
(dp281
g74
(dp282
g101
g102
ssg83
g271
sg76
(lp283
S':'
asbag69
(g90
g71
NtRp284
(dp285
g74
(dp286
sg83
g271
sg76
(lp287
g69
(g70
g71
NtRp288
(dp289
g74
(dp290
g82
I5
ssg83
g284
sg76
(lp291
g69
(g78
g71
NtRp292
(dp293
g74
(dp294
g82
I4
ssg83
Nsg76
(lp295
g69
(g85
g71
NtRp296
(dp297
g74
(dp298
sg83
g292
sg76
(lp299
g69
(g90
g71
NtRp300
(dp301
g74
(dp302
g94
g95
ssg83
g296
sg76
(lp303
S'session_id_admin'
p304
asbag69
(g90
g71
NtRp305
(dp306
g74
(dp307
g101
g102
ssg83
g296
sg76
(lp308
S':'
asbag69
(g90
g71
NtRp309
(dp310
g74
(dp311
sg83
g296
sg76
(lp312
g69
(g70
g71
NtRp313
(dp314
g74
(dp315
g82
I4
ssg83
g309
sg76
(lp316
S'127.0.0.1-d509f0cc-4c80-4380-be27-aebf7c06a1e6'
p317
ag69
(g78
g71
NtRp318
(dp319
g74
(dp320
g82
I3
ssg83
Nsg76
(lp321
g69
(g85
g71
NtRp322
(dp323
g74
(dp324
sg83
g318
sg76
(lp325
g69
(g90
g71
NtRp326
(dp327
g74
(dp328
g94
g95
ssg83
g322
sg76
(lp329
S'comment'
p330
asbag69
(g90
g71
NtRp331
(dp332
g74
(dp333
g101
g102
ssg83
g322
sg76
(lp334
S':'
asbag69
(g90
g71
NtRp335
(dp336
g74
(dp337
sg83
g322
sg76
(lp338
g69
(g70
g71
NtRp339
(dp340
g74
(dp341
g82
I3
ssg83
g335
sg76
(lp342
S''
asbasbasbag69
(g85
g71
NtRp343
(dp344
g74
(dp345
sg83
g318
sg76
(lp346
g69
(g90
g71
NtRp347
(dp348
g74
(dp349
g94
g95
ssg83
g343
sg76
(lp350
S'domain'
p351
asbag69
(g90
g71
NtRp352
(dp353
g74
(dp354
g101
g102
ssg83
g343
sg76
(lp355
S':'
asbag69
(g90
g71
NtRp356
(dp357
g74
(dp358
sg83
g343
sg76
(lp359
g69
(g70
g71
NtRp360
(dp361
g74
(dp362
g82
I3
ssg83
g356
sg76
(lp363
S''
asbasbasbag69
(g85
g71
NtRp364
(dp365
g74
(dp366
sg83
g318
sg76
(lp367
g69
(g90
g71
NtRp368
(dp369
g74
(dp370
g94
g95
ssg83
g364
sg76
(lp371
S'expires'
p372
asbag69
(g90
g71
NtRp373
(dp374
g74
(dp375
g101
g102
ssg83
g364
sg76
(lp376
S':'
asbag69
(g90
g71
NtRp377
(dp378
g74
(dp379
sg83
g364
sg76
(lp380
g69
(g70
g71
NtRp381
(dp382
g74
(dp383
g82
I3
ssg83
g377
sg76
(lp384
S''
asbasbasbag69
(g85
g71
NtRp385
(dp386
g74
(dp387
sg83
g318
sg76
(lp388
g69
(g90
g71
NtRp389
(dp390
g74
(dp391
g94
g95
ssg83
g385
sg76
(lp392
S'httponly'
p393
asbag69
(g90
g71
NtRp394
(dp395
g74
(dp396
g101
g102
ssg83
g385
sg76
(lp397
S':'
asbag69
(g90
g71
NtRp398
(dp399
g74
(dp400
sg83
g385
sg76
(lp401
g69
(g70
g71
NtRp402
(dp403
g74
(dp404
g82
I3
ssg83
g398
sg76
(lp405
S''
asbasbasbag69
(g85
g71
NtRp406
(dp407
g74
(dp408
sg83
g318
sg76
(lp409
g69
(g90
g71
NtRp410
(dp411
g74
(dp412
g94
g95
ssg83
g406
sg76
(lp413
S'max-age'
p414
asbag69
(g90
g71
NtRp415
(dp416
g74
(dp417
g101
g102
ssg83
g406
sg76
(lp418
S':'
asbag69
(g90
g71
NtRp419
(dp420
g74
(dp421
sg83
g406
sg76
(lp422
g69
(g70
g71
NtRp423
(dp424
g74
(dp425
g82
I3
ssg83
g419
sg76
(lp426
S''
asbasbasbag69
(g85
g71
NtRp427
(dp428
g74
(dp429
sg83
g318
sg76
(lp430
g69
(g90
g71
NtRp431
(dp432
g74
(dp433
g94
g95
ssg83
g427
sg76
(lp434
S'path'
p435
asbag69
(g90
g71
NtRp436
(dp437
g74
(dp438
g101
g102
ssg83
g427
sg76
(lp439
S':'
asbag69
(g90
g71
NtRp440
(dp441
g74
(dp442
sg83
g427
sg76
(lp443
g69
(g70
g71
NtRp444
(dp445
g74
(dp446
g82
I3
ssg83
g440
sg76
(lp447
S''
asbasbasbag69
(g85
g71
NtRp448
(dp449
g74
(dp450
sg83
g318
sg76
(lp451
g69
(g90
g71
NtRp452
(dp453
g74
(dp454
g94
g95
ssg83
g448
sg76
(lp455
S'secure'
p456
asbag69
(g90
g71
NtRp457
(dp458
g74
(dp459
g101
g102
ssg83
g448
sg76
(lp460
S':'
asbag69
(g90
g71
NtRp461
(dp462
g74
(dp463
sg83
g448
sg76
(lp464
g69
(g70
g71
NtRp465
(dp466
g74
(dp467
g82
I3
ssg83
g461
sg76
(lp468
S''
asbasbasbag69
(g85
g71
NtRp469
(dp470
g74
(dp471
sg83
g318
sg76
(lp472
g69
(g90
g71
NtRp473
(dp474
g74
(dp475
g94
g95
ssg83
g469
sg76
(lp476
S'version'
p477
asbag69
(g90
g71
NtRp478
(dp479
g74
(dp480
g101
g102
ssg83
g469
sg76
(lp481
S':'
asbag69
(g90
g71
NtRp482
(dp483
g74
(dp484
sg83
g469
sg76
(lp485
g69
(g70
g71
NtRp486
(dp487
g74
(dp488
g82
I3
ssg83
g482
sg76
(lp489
S''
asbasbasbasbasbasbasbag69
(g85
g71
NtRp490
(dp491
g74
(dp492
sg83
g292
sg76
(lp493
g69
(g90
g71
NtRp494
(dp495
g74
(dp496
g94
g95
ssg83
g490
sg76
(lp497
S'session_id_assignmen3'
p498
asbag69
(g90
g71
NtRp499
(dp500
g74
(dp501
g101
g102
ssg83
g490
sg76
(lp502
S':'
asbag69
(g90
g71
NtRp503
(dp504
g74
(dp505
sg83
g490
sg76
(lp506
g69
(g70
g71
NtRp507
(dp508
g74
(dp509
g82
I4
ssg83
g503
sg76
(lp510
S'127.0.0.1-f78a0883-b419-4f1b-8802-d13ae89341f4'
p511
ag69
(g78
g71
NtRp512
(dp513
g74
(dp514
g82
I3
ssg83
Nsg76
(lp515
g69
(g85
g71
NtRp516
(dp517
g74
(dp518
sg83
g512
sg76
(lp519
g69
(g90
g71
NtRp520
(dp521
g74
(dp522
g94
g95
ssg83
g516
sg76
(lp523
g330
asbag69
(g90
g71
NtRp524
(dp525
g74
(dp526
g101
g102
ssg83
g516
sg76
(lp527
S':'
asbag69
(g90
g71
NtRp528
(dp529
g74
(dp530
sg83
g516
sg76
(lp531
g69
(g70
g71
NtRp532
(dp533
g74
(dp534
g82
I3
ssg83
g528
sg76
(lp535
S''
asbasbasbag69
(g85
g71
NtRp536
(dp537
g74
(dp538
sg83
g512
sg76
(lp539
g69
(g90
g71
NtRp540
(dp541
g74
(dp542
g94
g95
ssg83
g536
sg76
(lp543
g351
asbag69
(g90
g71
NtRp544
(dp545
g74
(dp546
g101
g102
ssg83
g536
sg76
(lp547
S':'
asbag69
(g90
g71
NtRp548
(dp549
g74
(dp550
sg83
g536
sg76
(lp551
g69
(g70
g71
NtRp552
(dp553
g74
(dp554
g82
I3
ssg83
g548
sg76
(lp555
S''
asbasbasbag69
(g85
g71
NtRp556
(dp557
g74
(dp558
sg83
g512
sg76
(lp559
g69
(g90
g71
NtRp560
(dp561
g74
(dp562
g94
g95
ssg83
g556
sg76
(lp563
g372
asbag69
(g90
g71
NtRp564
(dp565
g74
(dp566
g101
g102
ssg83
g556
sg76
(lp567
S':'
asbag69
(g90
g71
NtRp568
(dp569
g74
(dp570
sg83
g556
sg76
(lp571
g69
(g70
g71
NtRp572
(dp573
g74
(dp574
g82
I3
ssg83
g568
sg76
(lp575
S''
asbasbasbag69
(g85
g71
NtRp576
(dp577
g74
(dp578
sg83
g512
sg76
(lp579
g69
(g90
g71
NtRp580
(dp581
g74
(dp582
g94
g95
ssg83
g576
sg76
(lp583
g393
asbag69
(g90
g71
NtRp584
(dp585
g74
(dp586
g101
g102
ssg83
g576
sg76
(lp587
S':'
asbag69
(g90
g71
NtRp588
(dp589
g74
(dp590
sg83
g576
sg76
(lp591
g69
(g70
g71
NtRp592
(dp593
g74
(dp594
g82
I3
ssg83
g588
sg76
(lp595
S''
asbasbasbag69
(g85
g71
NtRp596
(dp597
g74
(dp598
sg83
g512
sg76
(lp599
g69
(g90
g71
NtRp600
(dp601
g74
(dp602
g94
g95
ssg83
g596
sg76
(lp603
g414
asbag69
(g90
g71
NtRp604
(dp605
g74
(dp606
g101
g102
ssg83
g596
sg76
(lp607
S':'
asbag69
(g90
g71
NtRp608
(dp609
g74
(dp610
sg83
g596
sg76
(lp611
g69
(g70
g71
NtRp612
(dp613
g74
(dp614
g82
I3
ssg83
g608
sg76
(lp615
S''
asbasbasbag69
(g85
g71
NtRp616
(dp617
g74
(dp618
sg83
g512
sg76
(lp619
g69
(g90
g71
NtRp620
(dp621
g74
(dp622
g94
g95
ssg83
g616
sg76
(lp623
g435
asbag69
(g90
g71
NtRp624
(dp625
g74
(dp626
g101
g102
ssg83
g616
sg76
(lp627
S':'
asbag69
(g90
g71
NtRp628
(dp629
g74
(dp630
sg83
g616
sg76
(lp631
g69
(g70
g71
NtRp632
(dp633
g74
(dp634
g82
I3
ssg83
g628
sg76
(lp635
S''
asbasbasbag69
(g85
g71
NtRp636
(dp637
g74
(dp638
sg83
g512
sg76
(lp639
g69
(g90
g71
NtRp640
(dp641
g74
(dp642
g94
g95
ssg83
g636
sg76
(lp643
g456
asbag69
(g90
g71
NtRp644
(dp645
g74
(dp646
g101
g102
ssg83
g636
sg76
(lp647
S':'
asbag69
(g90
g71
NtRp648
(dp649
g74
(dp650
sg83
g636
sg76
(lp651
g69
(g70
g71
NtRp652
(dp653
g74
(dp654
g82
I3
ssg83
g648
sg76
(lp655
S''
asbasbasbag69
(g85
g71
NtRp656
(dp657
g74
(dp658
sg83
g512
sg76
(lp659
g69
(g90
g71
NtRp660
(dp661
g74
(dp662
g94
g95
ssg83
g656
sg76
(lp663
g477
asbag69
(g90
g71
NtRp664
(dp665
g74
(dp666
g101
g102
ssg83
g656
sg76
(lp667
S':'
asbag69
(g90
g71
NtRp668
(dp669
g74
(dp670
sg83
g656
sg76
(lp671
g69
(g70
g71
NtRp672
(dp673
g74
(dp674
g82
I3
ssg83
g668
sg76
(lp675
S''
asbasbasbasbasbasbasbag69
(g85
g71
NtRp676
(dp677
g74
(dp678
sg83
g292
sg76
(lp679
g69
(g90
g71
NtRp680
(dp681
g74
(dp682
g94
g95
ssg83
g676
sg76
(lp683
S'session_id_welcome'
p684
asbag69
(g90
g71
NtRp685
(dp686
g74
(dp687
g101
g102
ssg83
g676
sg76
(lp688
S':'
asbag69
(g90
g71
NtRp689
(dp690
g74
(dp691
sg83
g676
sg76
(lp692
g69
(g70
g71
NtRp693
(dp694
g74
(dp695
g82
I4
ssg83
g689
sg76
(lp696
S'127.0.0.1-a2b1b4d6-eba7-4458-9892-ba028024c0c4'
p697
ag69
(g78
g71
NtRp698
(dp699
g74
(dp700
g82
I3
ssg83
Nsg76
(lp701
g69
(g85
g71
NtRp702
(dp703
g74
(dp704
sg83
g698
sg76
(lp705
g69
(g90
g71
NtRp706
(dp707
g74
(dp708
g94
g95
ssg83
g702
sg76
(lp709
g330
asbag69
(g90
g71
NtRp710
(dp711
g74
(dp712
g101
g102
ssg83
g702
sg76
(lp713
S':'
asbag69
(g90
g71
NtRp714
(dp715
g74
(dp716
sg83
g702
sg76
(lp717
g69
(g70
g71
NtRp718
(dp719
g74
(dp720
g82
I3
ssg83
g714
sg76
(lp721
S''
asbasbasbag69
(g85
g71
NtRp722
(dp723
g74
(dp724
sg83
g698
sg76
(lp725
g69
(g90
g71
NtRp726
(dp727
g74
(dp728
g94
g95
ssg83
g722
sg76
(lp729
g351
asbag69
(g90
g71
NtRp730
(dp731
g74
(dp732
g101
g102
ssg83
g722
sg76
(lp733
S':'
asbag69
(g90
g71
NtRp734
(dp735
g74
(dp736
sg83
g722
sg76
(lp737
g69
(g70
g71
NtRp738
(dp739
g74
(dp740
g82
I3
ssg83
g734
sg76
(lp741
S''
asbasbasbag69
(g85
g71
NtRp742
(dp743
g74
(dp744
sg83
g698
sg76
(lp745
g69
(g90
g71
NtRp746
(dp747
g74
(dp748
g94
g95
ssg83
g742
sg76
(lp749
g372
asbag69
(g90
g71
NtRp750
(dp751
g74
(dp752
g101
g102
ssg83
g742
sg76
(lp753
S':'
asbag69
(g90
g71
NtRp754
(dp755
g74
(dp756
sg83
g742
sg76
(lp757
g69
(g70
g71
NtRp758
(dp759
g74
(dp760
g82
I3
ssg83
g754
sg76
(lp761
S''
asbasbasbag69
(g85
g71
NtRp762
(dp763
g74
(dp764
sg83
g698
sg76
(lp765
g69
(g90
g71
NtRp766
(dp767
g74
(dp768
g94
g95
ssg83
g762
sg76
(lp769
g393
asbag69
(g90
g71
NtRp770
(dp771
g74
(dp772
g101
g102
ssg83
g762
sg76
(lp773
S':'
asbag69
(g90
g71
NtRp774
(dp775
g74
(dp776
sg83
g762
sg76
(lp777
g69
(g70
g71
NtRp778
(dp779
g74
(dp780
g82
I3
ssg83
g774
sg76
(lp781
S''
asbasbasbag69
(g85
g71
NtRp782
(dp783
g74
(dp784
sg83
g698
sg76
(lp785
g69
(g90
g71
NtRp786
(dp787
g74
(dp788
g94
g95
ssg83
g782
sg76
(lp789
g414
asbag69
(g90
g71
NtRp790
(dp791
g74
(dp792
g101
g102
ssg83
g782
sg76
(lp793
S':'
asbag69
(g90
g71
NtRp794
(dp795
g74
(dp796
sg83
g782
sg76
(lp797
g69
(g70
g71
NtRp798
(dp799
g74
(dp800
g82
I3
ssg83
g794
sg76
(lp801
S''
asbasbasbag69
(g85
g71
NtRp802
(dp803
g74
(dp804
sg83
g698
sg76
(lp805
g69
(g90
g71
NtRp806
(dp807
g74
(dp808
g94
g95
ssg83
g802
sg76
(lp809
g435
asbag69
(g90
g71
NtRp810
(dp811
g74
(dp812
g101
g102
ssg83
g802
sg76
(lp813
S':'
asbag69
(g90
g71
NtRp814
(dp815
g74
(dp816
sg83
g802
sg76
(lp817
g69
(g70
g71
NtRp818
(dp819
g74
(dp820
g82
I3
ssg83
g814
sg76
(lp821
S''
asbasbasbag69
(g85
g71
NtRp822
(dp823
g74
(dp824
sg83
g698
sg76
(lp825
g69
(g90
g71
NtRp826
(dp827
g74
(dp828
g94
g95
ssg83
g822
sg76
(lp829
g456
asbag69
(g90
g71
NtRp830
(dp831
g74
(dp832
g101
g102
ssg83
g822
sg76
(lp833
S':'
asbag69
(g90
g71
NtRp834
(dp835
g74
(dp836
sg83
g822
sg76
(lp837
g69
(g70
g71
NtRp838
(dp839
g74
(dp840
g82
I3
ssg83
g834
sg76
(lp841
S''
asbasbasbag69
(g85
g71
NtRp842
(dp843
g74
(dp844
sg83
g698
sg76
(lp845
g69
(g90
g71
NtRp846
(dp847
g74
(dp848
g94
g95
ssg83
g842
sg76
(lp849
g477
asbag69
(g90
g71
NtRp850
(dp851
g74
(dp852
g101
g102
ssg83
g842
sg76
(lp853
S':'
asbag69
(g90
g71
NtRp854
(dp855
g74
(dp856
sg83
g842
sg76
(lp857
g69
(g70
g71
NtRp858
(dp859
g74
(dp860
g82
I3
ssg83
g854
sg76
(lp861
S''
asbasbasbasbasbasbasbasbasbasbasbag69
(g85
g71
NtRp862
(dp863
g74
(dp864
sg83
g79
sg76
(lp865
g69
(g90
g71
NtRp866
(dp867
g74
(dp868
g94
g95
ssg83
g862
sg76
(lp869
S'env'
p870
asbag69
(g90
g71
NtRp871
(dp872
g74
(dp873
g101
g102
ssg83
g862
sg76
(lp874
S':'
asbag69
(g90
g71
NtRp875
(dp876
g74
(dp877
sg83
g862
sg76
(lp878
g69
(g70
g71
NtRp879
(dp880
g74
(dp881
g82
I5
ssg83
g875
sg76
(lp882
g69
(g78
g71
NtRp883
(dp884
g74
(dp885
g82
I4
ssg83
Nsg76
(lp886
g69
(g85
g71
NtRp887
(dp888
g74
(dp889
sg83
g883
sg76
(lp890
g69
(g90
g71
NtRp891
(dp892
g74
(dp893
g94
g95
ssg83
g887
sg76
(lp894
S'app_folders'
p895
asbag69
(g90
g71
NtRp896
(dp897
g74
(dp898
g101
g102
ssg83
g887
sg76
(lp899
S':'
asbag69
(g90
g71
NtRp900
(dp901
g74
(dp902
sg83
g887
sg76
(lp903
g69
(g70
g71
NtRp904
(dp905
g74
(dp906
g82
I4
ssg83
g900
sg76
(lp907
S"set(['/home/umang/web2py/applications/admin/', '/home/umang/web2py/applications/assignmen3/', '/home/umang/web2py/applications/welcome/'])"
p908
asbasbasbag69
(g85
g71
NtRp909
(dp910
g74
(dp911
sg83
g883
sg76
(lp912
g69
(g90
g71
NtRp913
(dp914
g74
(dp915
g94
g95
ssg83
g909
sg76
(lp916
S'applications_parent'
p917
asbag69
(g90
g71
NtRp918
(dp919
g74
(dp920
g101
g102
ssg83
g909
sg76
(lp921
S':'
asbag69
(g90
g71
NtRp922
(dp923
g74
(dp924
sg83
g909
sg76
(lp925
g69
(g70
g71
NtRp926
(dp927
g74
(dp928
g82
I4
ssg83
g922
sg76
(lp929
S'/home/umang/web2py'
p930
asbasbasbag69
(g85
g71
NtRp931
(dp932
g74
(dp933
sg83
g883
sg76
(lp934
g69
(g90
g71
NtRp935
(dp936
g74
(dp937
g94
g95
ssg83
g931
sg76
(lp938
S'cmd_args'
p939
asbag69
(g90
g71
NtRp940
(dp941
g74
(dp942
g101
g102
ssg83
g931
sg76
(lp943
S':'
asbag69
(g90
g71
NtRp944
(dp945
g74
(dp946
sg83
g931
sg76
(lp947
g69
(g70
g71
NtRp948
(dp949
g74
(dp950
g82
I4
ssg83
g944
sg76
(lp951
g69
(g78
g71
NtRp952
(dp953
g74
(dp954
g82
I3
ssg83
Nsg76
(lp955
sbasbasbasbag69
(g85
g71
NtRp956
(dp957
g74
(dp958
sg83
g883
sg76
(lp959
g69
(g90
g71
NtRp960
(dp961
g74
(dp962
g94
g95
ssg83
g956
sg76
(lp963
S'cmd_options'
p964
asbag69
(g90
g71
NtRp965
(dp966
g74
(dp967
g101
g102
ssg83
g956
sg76
(lp968
S':'
asbag69
(g90
g71
NtRp969
(dp970
g74
(dp971
sg83
g956
sg76
(lp972
g69
(g70
g71
NtRp973
(dp974
g74
(dp975
g82
I4
ssg83
g969
sg76
(lp976
S"<Values at 0x1698200: {'verbose': False, 'ip': '127.0.0.1', 'with_scheduler': False, 'ips': [], 'shutdown_timeout': 5, 'taskbar': False, 'port': 8000, 'maxthreads': None, 'softcron': False, 'server_name': 'umang-HP-Pavilion-g6-Notebook-PC', 'bpython': False, 'nogui': False, 'pid_filename': 'httpserver.pid', 'extcron': False, 'runcron': False, 'run_system_tests': False, 'test': None, 'folder': '/home/umang/web2py', 'config': '', 'minthreads': None, 'winservice': '', 'shell': None, 'run': '', 'log_filename': 'httpserver.log', 'debuglevel': 30, 'args': [''], 'socket_timeout': 5, 'ssl_ca_certificate': None, 'scheduler': None, 'profiler_filename': None, 'ssl_private_key': '', 'scheduler_groups': None, 'password': '<ask>', 'request_queue_size': 5, 'ssl_certificate': '', 'cronjob': False, 'numthreads': None, 'quiet': False, 'interfaces': None, 'import_models': False, 'timeout': 10, 'plain': False, 'nobanner': False}>"
p977
asbasbasbag69
(g85
g71
NtRp978
(dp979
g74
(dp980
sg83
g883
sg76
(lp981
g69
(g90
g71
NtRp982
(dp983
g74
(dp984
g94
g95
ssg83
g978
sg76
(lp985
S'db_sessions'
p986
asbag69
(g90
g71
NtRp987
(dp988
g74
(dp989
g101
g102
ssg83
g978
sg76
(lp990
S':'
asbag69
(g90
g71
NtRp991
(dp992
g74
(dp993
sg83
g978
sg76
(lp994
g69
(g70
g71
NtRp995
(dp996
g74
(dp997
g82
I4
ssg83
g991
sg76
(lp998
S'set([])'
p999
asbasbasbag69
(g85
g71
NtRp1000
(dp1001
g74
(dp1002
sg83
g883
sg76
(lp1003
g69
(g90
g71
NtRp1004
(dp1005
g74
(dp1006
g94
g95
ssg83
g1000
sg76
(lp1007
S'debugging'
p1008
asbag69
(g90
g71
NtRp1009
(dp1010
g74
(dp1011
g101
g102
ssg83
g1000
sg76
(lp1012
S':'
asbag69
(g90
g71
NtRp1013
(dp1014
g74
(dp1015
sg83
g1000
sg76
(lp1016
g69
(g70
g71
NtRp1017
(dp1018
g74
(dp1019
g82
I4
ssg83
g1013
sg76
(lp1020
g112
asbasbasbag69
(g85
g71
NtRp1021
(dp1022
g74
(dp1023
sg83
g883
sg76
(lp1024
g69
(g90
g71
NtRp1025
(dp1026
g74
(dp1027
g94
g95
ssg83
g1021
sg76
(lp1028
S'gluon_parent'
p1029
asbag69
(g90
g71
NtRp1030
(dp1031
g74
(dp1032
g101
g102
ssg83
g1021
sg76
(lp1033
S':'
asbag69
(g90
g71
NtRp1034
(dp1035
g74
(dp1036
sg83
g1021
sg76
(lp1037
g69
(g70
g71
NtRp1038
(dp1039
g74
(dp1040
g82
I4
ssg83
g1034
sg76
(lp1041
S'/home/umang/web2py'
p1042
asbasbasbag69
(g85
g71
NtRp1043
(dp1044
g74
(dp1045
sg83
g883
sg76
(lp1046
g69
(g90
g71
NtRp1047
(dp1048
g74
(dp1049
g94
g95
ssg83
g1043
sg76
(lp1050
S'http_accept'
p1051
asbag69
(g90
g71
NtRp1052
(dp1053
g74
(dp1054
g101
g102
ssg83
g1043
sg76
(lp1055
S':'
asbag69
(g90
g71
NtRp1056
(dp1057
g74
(dp1058
sg83
g1043
sg76
(lp1059
g69
(g70
g71
NtRp1060
(dp1061
g74
(dp1062
g82
I4
ssg83
g1056
sg76
(lp1063
S'text/html,application/xhtml+xml,application/xml;q=0.9,*/*;q=0.8'
p1064
asbasbasbag69
(g85
g71
NtRp1065
(dp1066
g74
(dp1067
sg83
g883
sg76
(lp1068
g69
(g90
g71
NtRp1069
(dp1070
g74
(dp1071
g94
g95
ssg83
g1065
sg76
(lp1072
S'http_accept_encoding'
p1073
asbag69
(g90
g71
NtRp1074
(dp1075
g74
(dp1076
g101
g102
ssg83
g1065
sg76
(lp1077
S':'
asbag69
(g90
g71
NtRp1078
(dp1079
g74
(dp1080
sg83
g1065
sg76
(lp1081
g69
(g70
g71
NtRp1082
(dp1083
g74
(dp1084
g82
I4
ssg83
g1078
sg76
(lp1085
S'gzip, deflate'
p1086
asbasbasbag69
(g85
g71
NtRp1087
(dp1088
g74
(dp1089
sg83
g883
sg76
(lp1090
g69
(g90
g71
NtRp1091
(dp1092
g74
(dp1093
g94
g95
ssg83
g1087
sg76
(lp1094
S'http_accept_language'
p1095
asbag69
(g90
g71
NtRp1096
(dp1097
g74
(dp1098
g101
g102
ssg83
g1087
sg76
(lp1099
S':'
asbag69
(g90
g71
NtRp1100
(dp1101
g74
(dp1102
sg83
g1087
sg76
(lp1103
g69
(g70
g71
NtRp1104
(dp1105
g74
(dp1106
g82
I4
ssg83
g1100
sg76
(lp1107
S'en-us,en;q=0.5'
p1108
asbasbasbag69
(g85
g71
NtRp1109
(dp1110
g74
(dp1111
sg83
g883
sg76
(lp1112
g69
(g90
g71
NtRp1113
(dp1114
g74
(dp1115
g94
g95
ssg83
g1109
sg76
(lp1116
S'http_connection'
p1117
asbag69
(g90
g71
NtRp1118
(dp1119
g74
(dp1120
g101
g102
ssg83
g1109
sg76
(lp1121
S':'
asbag69
(g90
g71
NtRp1122
(dp1123
g74
(dp1124
sg83
g1109
sg76
(lp1125
g69
(g70
g71
NtRp1126
(dp1127
g74
(dp1128
g82
I4
ssg83
g1122
sg76
(lp1129
S'keep-alive'
p1130
asbasbasbag69
(g85
g71
NtRp1131
(dp1132
g74
(dp1133
sg83
g883
sg76
(lp1134
g69
(g90
g71
NtRp1135
(dp1136
g74
(dp1137
g94
g95
ssg83
g1131
sg76
(lp1138
S'http_cookie'
p1139
asbag69
(g90
g71
NtRp1140
(dp1141
g74
(dp1142
g101
g102
ssg83
g1131
sg76
(lp1143
S':'
asbag69
(g90
g71
NtRp1144
(dp1145
g74
(dp1146
sg83
g1131
sg76
(lp1147
g69
(g70
g71
NtRp1148
(dp1149
g74
(dp1150
g82
I4
ssg83
g1144
sg76
(lp1151
S'session_id_welcome=127.0.0.1-a2b1b4d6-eba7-4458-9892-ba028024c0c4; session_id_admin=127.0.0.1-d509f0cc-4c80-4380-be27-aebf7c06a1e6; session_id_assignmen3=127.0.0.1-f78a0883-b419-4f1b-8802-d13ae89341f4'
p1152
asbasbasbag69
(g85
g71
NtRp1153
(dp1154
g74
(dp1155
sg83
g883
sg76
(lp1156
g69
(g90
g71
NtRp1157
(dp1158
g74
(dp1159
g94
g95
ssg83
g1153
sg76
(lp1160
S'http_host'
p1161
asbag69
(g90
g71
NtRp1162
(dp1163
g74
(dp1164
g101
g102
ssg83
g1153
sg76
(lp1165
S':'
asbag69
(g90
g71
NtRp1166
(dp1167
g74
(dp1168
sg83
g1153
sg76
(lp1169
g69
(g70
g71
NtRp1170
(dp1171
g74
(dp1172
g82
I4
ssg83
g1166
sg76
(lp1173
S'127.0.0.1:8000'
p1174
asbasbasbag69
(g85
g71
NtRp1175
(dp1176
g74
(dp1177
sg83
g883
sg76
(lp1178
g69
(g90
g71
NtRp1179
(dp1180
g74
(dp1181
g94
g95
ssg83
g1175
sg76
(lp1182
S'http_referer'
p1183
asbag69
(g90
g71
NtRp1184
(dp1185
g74
(dp1186
g101
g102
ssg83
g1175
sg76
(lp1187
S':'
asbag69
(g90
g71
NtRp1188
(dp1189
g74
(dp1190
sg83
g1175
sg76
(lp1191
g69
(g70
g71
NtRp1192
(dp1193
g74
(dp1194
g82
I4
ssg83
g1188
sg76
(lp1195
S'http://127.0.0.1:8000/assignmen3/default/first_page/2'
p1196
asbasbasbag69
(g85
g71
NtRp1197
(dp1198
g74
(dp1199
sg83
g883
sg76
(lp1200
g69
(g90
g71
NtRp1201
(dp1202
g74
(dp1203
g94
g95
ssg83
g1197
sg76
(lp1204
S'http_user_agent'
p1205
asbag69
(g90
g71
NtRp1206
(dp1207
g74
(dp1208
g101
g102
ssg83
g1197
sg76
(lp1209
S':'
asbag69
(g90
g71
NtRp1210
(dp1211
g74
(dp1212
sg83
g1197
sg76
(lp1213
g69
(g70
g71
NtRp1214
(dp1215
g74
(dp1216
g82
I4
ssg83
g1210
sg76
(lp1217
S'Mozilla/5.0 (X11; Ubuntu; Linux x86_64; rv:11.0) Gecko/20100101 Firefox/11.0'
p1218
asbasbasbag69
(g85
g71
NtRp1219
(dp1220
g74
(dp1221
sg83
g883
sg76
(lp1222
g69
(g90
g71
NtRp1223
(dp1224
g74
(dp1225
g94
g95
ssg83
g1219
sg76
(lp1226
S'is_jython'
p1227
asbag69
(g90
g71
NtRp1228
(dp1229
g74
(dp1230
g101
g102
ssg83
g1219
sg76
(lp1231
S':'
asbag69
(g90
g71
NtRp1232
(dp1233
g74
(dp1234
sg83
g1219
sg76
(lp1235
g69
(g70
g71
NtRp1236
(dp1237
g74
(dp1238
g82
I4
ssg83
g1232
sg76
(lp1239
g112
asbasbasbag69
(g85
g71
NtRp1240
(dp1241
g74
(dp1242
sg83
g883
sg76
(lp1243
g69
(g90
g71
NtRp1244
(dp1245
g74
(dp1246
g94
g95
ssg83
g1240
sg76
(lp1247
S'is_pypy'
p1248
asbag69
(g90
g71
NtRp1249
(dp1250
g74
(dp1251
g101
g102
ssg83
g1240
sg76
(lp1252
S':'
asbag69
(g90
g71
NtRp1253
(dp1254
g74
(dp1255
sg83
g1240
sg76
(lp1256
g69
(g70
g71
NtRp1257
(dp1258
g74
(dp1259
g82
I4
ssg83
g1253
sg76
(lp1260
g112
asbasbasbag69
(g85
g71
NtRp1261
(dp1262
g74
(dp1263
sg83
g883
sg76
(lp1264
g69
(g90
g71
NtRp1265
(dp1266
g74
(dp1267
g94
g95
ssg83
g1261
sg76
(lp1268
S'local_hosts'
p1269
asbag69
(g90
g71
NtRp1270
(dp1271
g74
(dp1272
g101
g102
ssg83
g1261
sg76
(lp1273
S':'
asbag69
(g90
g71
NtRp1274
(dp1275
g74
(dp1276
sg83
g1261
sg76
(lp1277
g69
(g70
g71
NtRp1278
(dp1279
g74
(dp1280
g82
I4
ssg83
g1274
sg76
(lp1281
g69
(g78
g71
NtRp1282
(dp1283
g74
(dp1284
g82
I3
ssg83
Nsg76
(lp1285
g69
(g85
g71
NtRp1286
(dp1287
g74
(dp1288
sg83
g1282
sg76
(lp1289
g69
(g90
g71
NtRp1290
(dp1291
g74
(dp1292
sg83
g1286
sg76
(lp1293
g69
(g70
g71
NtRp1294
(dp1295
g74
(dp1296
g82
I3
ssg83
g1290
sg76
(lp1297
S'::1'
p1298
asbasbasbag69
(g85
g71
NtRp1299
(dp1300
g74
(dp1301
sg83
g1282
sg76
(lp1302
g69
(g90
g71
NtRp1303
(dp1304
g74
(dp1305
sg83
g1299
sg76
(lp1306
g69
(g70
g71
NtRp1307
(dp1308
g74
(dp1309
g82
I3
ssg83
g1303
sg76
(lp1310
S'127.0.1.1'
p1311
asbasbasbag69
(g85
g71
NtRp1312
(dp1313
g74
(dp1314
sg83
g1282
sg76
(lp1315
g69
(g90
g71
NtRp1316
(dp1317
g74
(dp1318
sg83
g1312
sg76
(lp1319
g69
(g70
g71
NtRp1320
(dp1321
g74
(dp1322
g82
I3
ssg83
g1316
sg76
(lp1323
S'::ffff:127.0.0.1'
p1324
asbasbasbag69
(g85
g71
NtRp1325
(dp1326
g74
(dp1327
sg83
g1282
sg76
(lp1328
g69
(g90
g71
NtRp1329
(dp1330
g74
(dp1331
sg83
g1325
sg76
(lp1332
g69
(g70
g71
NtRp1333
(dp1334
g74
(dp1335
g82
I3
ssg83
g1329
sg76
(lp1336
S'127.0.0.1'
p1337
asbasbasbag69
(g85
g71
NtRp1338
(dp1339
g74
(dp1340
sg83
g1282
sg76
(lp1341
g69
(g90
g71
NtRp1342
(dp1343
g74
(dp1344
sg83
g1338
sg76
(lp1345
g69
(g70
g71
NtRp1346
(dp1347
g74
(dp1348
g82
I3
ssg83
g1342
sg76
(lp1349
S'umang-HP-Pavilion-g6-Notebook-PC'
p1350
asbasbasbasbasbasbasbag69
(g85
g71
NtRp1351
(dp1352
g74
(dp1353
sg83
g883
sg76
(lp1354
g69
(g90
g71
NtRp1355
(dp1356
g74
(dp1357
g94
g95
ssg83
g1351
sg76
(lp1358
S'path_info'
p1359
asbag69
(g90
g71
NtRp1360
(dp1361
g74
(dp1362
g101
g102
ssg83
g1351
sg76
(lp1363
S':'
asbag69
(g90
g71
NtRp1364
(dp1365
g74
(dp1366
sg83
g1351
sg76
(lp1367
g69
(g70
g71
NtRp1368
(dp1369
g74
(dp1370
g82
I4
ssg83
g1364
sg76
(lp1371
S'/assignmen3/default/edit_news/3/2'
p1372
asbasbasbag69
(g85
g71
NtRp1373
(dp1374
g74
(dp1375
sg83
g883
sg76
(lp1376
g69
(g90
g71
NtRp1377
(dp1378
g74
(dp1379
g94
g95
ssg83
g1373
sg76
(lp1380
S'query_string'
p1381
asbag69
(g90
g71
NtRp1382
(dp1383
g74
(dp1384
g101
g102
ssg83
g1373
sg76
(lp1385
S':'
asbag69
(g90
g71
NtRp1386
(dp1387
g74
(dp1388
sg83
g1373
sg76
(lp1389
g69
(g70
g71
NtRp1390
(dp1391
g74
(dp1392
g82
I4
ssg83
g1386
sg76
(lp1393
S''
asbasbasbag69
(g85
g71
NtRp1394
(dp1395
g74
(dp1396
sg83
g883
sg76
(lp1397
g69
(g90
g71
NtRp1398
(dp1399
g74
(dp1400
g94
g95
ssg83
g1394
sg76
(lp1401
S'remote_addr'
p1402
asbag69
(g90
g71
NtRp1403
(dp1404
g74
(dp1405
g101
g102
ssg83
g1394
sg76
(lp1406
S':'
asbag69
(g90
g71
NtRp1407
(dp1408
g74
(dp1409
sg83
g1394
sg76
(lp1410
g69
(g70
g71
NtRp1411
(dp1412
g74
(dp1413
g82
I4
ssg83
g1407
sg76
(lp1414
g248
asbasbasbag69
(g85
g71
NtRp1415
(dp1416
g74
(dp1417
sg83
g883
sg76
(lp1418
g69
(g90
g71
NtRp1419
(dp1420
g74
(dp1421
g94
g95
ssg83
g1415
sg76
(lp1422
S'remote_port'
p1423
asbag69
(g90
g71
NtRp1424
(dp1425
g74
(dp1426
g101
g102
ssg83
g1415
sg76
(lp1427
S':'
asbag69
(g90
g71
NtRp1428
(dp1429
g74
(dp1430
sg83
g1415
sg76
(lp1431
g69
(g70
g71
NtRp1432
(dp1433
g74
(dp1434
g82
I4
ssg83
g1428
sg76
(lp1435
S'33856'
p1436
asbasbasbag69
(g85
g71
NtRp1437
(dp1438
g74
(dp1439
sg83
g883
sg76
(lp1440
g69
(g90
g71
NtRp1441
(dp1442
g74
(dp1443
g94
g95
ssg83
g1437
sg76
(lp1444
S'request_method'
p1445
asbag69
(g90
g71
NtRp1446
(dp1447
g74
(dp1448
g101
g102
ssg83
g1437
sg76
(lp1449
S':'
asbag69
(g90
g71
NtRp1450
(dp1451
g74
(dp1452
sg83
g1437
sg76
(lp1453
g69
(g70
g71
NtRp1454
(dp1455
g74
(dp1456
g82
I4
ssg83
g1450
sg76
(lp1457
S'GET'
p1458
asbasbasbag69
(g85
g71
NtRp1459
(dp1460
g74
(dp1461
sg83
g883
sg76
(lp1462
g69
(g90
g71
NtRp1463
(dp1464
g74
(dp1465
g94
g95
ssg83
g1459
sg76
(lp1466
S'request_uri'
p1467
asbag69
(g90
g71
NtRp1468
(dp1469
g74
(dp1470
g101
g102
ssg83
g1459
sg76
(lp1471
S':'
asbag69
(g90
g71
NtRp1472
(dp1473
g74
(dp1474
sg83
g1459
sg76
(lp1475
g69
(g70
g71
NtRp1476
(dp1477
g74
(dp1478
g82
I4
ssg83
g1472
sg76
(lp1479
g1372
asbasbasbag69
(g85
g71
NtRp1480
(dp1481
g74
(dp1482
sg83
g883
sg76
(lp1483
g69
(g90
g71
NtRp1484
(dp1485
g74
(dp1486
g94
g95
ssg83
g1480
sg76
(lp1487
S'script_name'
p1488
asbag69
(g90
g71
NtRp1489
(dp1490
g74
(dp1491
g101
g102
ssg83
g1480
sg76
(lp1492
S':'
asbag69
(g90
g71
NtRp1493
(dp1494
g74
(dp1495
sg83
g1480
sg76
(lp1496
g69
(g70
g71
NtRp1497
(dp1498
g74
(dp1499
g82
I4
ssg83
g1493
sg76
(lp1500
S''
asbasbasbag69
(g85
g71
NtRp1501
(dp1502
g74
(dp1503
sg83
g883
sg76
(lp1504
g69
(g90
g71
NtRp1505
(dp1506
g74
(dp1507
g94
g95
ssg83
g1501
sg76
(lp1508
S'server_name'
p1509
asbag69
(g90
g71
NtRp1510
(dp1511
g74
(dp1512
g101
g102
ssg83
g1501
sg76
(lp1513
S':'
asbag69
(g90
g71
NtRp1514
(dp1515
g74
(dp1516
sg83
g1501
sg76
(lp1517
g69
(g70
g71
NtRp1518
(dp1519
g74
(dp1520
g82
I4
ssg83
g1514
sg76
(lp1521
S'umang-HP-Pavilion-g6-Notebook-PC'
p1522
asbasbasbag69
(g85
g71
NtRp1523
(dp1524
g74
(dp1525
sg83
g883
sg76
(lp1526
g69
(g90
g71
NtRp1527
(dp1528
g74
(dp1529
g94
g95
ssg83
g1523
sg76
(lp1530
S'server_port'
p1531
asbag69
(g90
g71
NtRp1532
(dp1533
g74
(dp1534
g101
g102
ssg83
g1523
sg76
(lp1535
S':'
asbag69
(g90
g71
NtRp1536
(dp1537
g74
(dp1538
sg83
g1523
sg76
(lp1539
g69
(g70
g71
NtRp1540
(dp1541
g74
(dp1542
g82
I4
ssg83
g1536
sg76
(lp1543
S'8000'
p1544
asbasbasbag69
(g85
g71
NtRp1545
(dp1546
g74
(dp1547
sg83
g883
sg76
(lp1548
g69
(g90
g71
NtRp1549
(dp1550
g74
(dp1551
g94
g95
ssg83
g1545
sg76
(lp1552
S'server_protocol'
p1553
asbag69
(g90
g71
NtRp1554
(dp1555
g74
(dp1556
g101
g102
ssg83
g1545
sg76
(lp1557
S':'
asbag69
(g90
g71
NtRp1558
(dp1559
g74
(dp1560
sg83
g1545
sg76
(lp1561
g69
(g70
g71
NtRp1562
(dp1563
g74
(dp1564
g82
I4
ssg83
g1558
sg76
(lp1565
S'HTTP/1.1'
p1566
asbasbasbag69
(g85
g71
NtRp1567
(dp1568
g74
(dp1569
sg83
g883
sg76
(lp1570
g69
(g90
g71
NtRp1571
(dp1572
g74
(dp1573
g94
g95
ssg83
g1567
sg76
(lp1574
S'server_software'
p1575
asbag69
(g90
g71
NtRp1576
(dp1577
g74
(dp1578
g101
g102
ssg83
g1567
sg76
(lp1579
S':'
asbag69
(g90
g71
NtRp1580
(dp1581
g74
(dp1582
sg83
g1567
sg76
(lp1583
g69
(g70
g71
NtRp1584
(dp1585
g74
(dp1586
g82
I4
ssg83
g1580
sg76
(lp1587
S'Rocket 1.2.6'
p1588
asbasbasbag69
(g85
g71
NtRp1589
(dp1590
g74
(dp1591
sg83
g883
sg76
(lp1592
g69
(g90
g71
NtRp1593
(dp1594
g74
(dp1595
g94
g95
ssg83
g1589
sg76
(lp1596
S'web2py_path'
p1597
asbag69
(g90
g71
NtRp1598
(dp1599
g74
(dp1600
g101
g102
ssg83
g1589
sg76
(lp1601
S':'
asbag69
(g90
g71
NtRp1602
(dp1603
g74
(dp1604
sg83
g1589
sg76
(lp1605
g69
(g70
g71
NtRp1606
(dp1607
g74
(dp1608
g82
I4
ssg83
g1602
sg76
(lp1609
g930
asbasbasbag69
(g85
g71
NtRp1610
(dp1611
g74
(dp1612
sg83
g883
sg76
(lp1613
g69
(g90
g71
NtRp1614
(dp1615
g74
(dp1616
g94
g95
ssg83
g1610
sg76
(lp1617
S'web2py_version'
p1618
asbag69
(g90
g71
NtRp1619
(dp1620
g74
(dp1621
g101
g102
ssg83
g1610
sg76
(lp1622
S':'
asbag69
(g90
g71
NtRp1623
(dp1624
g74
(dp1625
sg83
g1610
sg76
(lp1626
g69
(g70
g71
NtRp1627
(dp1628
g74
(dp1629
g82
I4
ssg83
g1623
sg76
(lp1630
g69
(g78
g71
NtRp1631
(dp1632
g74
(dp1633
g82
I3
ssg83
Nsg76
(lp1634
g69
(g85
g71
NtRp1635
(dp1636
g74
(dp1637
sg83
g1631
sg76
(lp1638
g69
(g90
g71
NtRp1639
(dp1640
g74
(dp1641
sg83
g1635
sg76
(lp1642
g69
(g70
g71
NtRp1643
(dp1644
g74
(dp1645
g82
I3
ssg83
g1639
sg76
(lp1646
S'2'
asbasbasbag69
(g85
g71
NtRp1647
(dp1648
g74
(dp1649
sg83
g1631
sg76
(lp1650
g69
(g90
g71
NtRp1651
(dp1652
g74
(dp1653
sg83
g1647
sg76
(lp1654
g69
(g70
g71
NtRp1655
(dp1656
g74
(dp1657
g82
I3
ssg83
g1651
sg76
(lp1658
S'3'
asbasbasbag69
(g85
g71
NtRp1659
(dp1660
g74
(dp1661
sg83
g1631
sg76
(lp1662
g69
(g90
g71
NtRp1663
(dp1664
g74
(dp1665
sg83
g1659
sg76
(lp1666
g69
(g70
g71
NtRp1667
(dp1668
g74
(dp1669
g82
I3
ssg83
g1663
sg76
(lp1670
S'2'
asbasbasbag69
(g85
g71
NtRp1671
(dp1672
g74
(dp1673
sg83
g1631
sg76
(lp1674
g69
(g90
g71
NtRp1675
(dp1676
g74
(dp1677
sg83
g1671
sg76
(lp1678
g69
(g70
g71
NtRp1679
(dp1680
g74
(dp1681
g82
I3
ssg83
g1675
sg76
(lp1682
S'datetime.datetime(2012, 12, 17, 15, 3, 30)'
p1683
asbasbasbag69
(g85
g71
NtRp1684
(dp1685
g74
(dp1686
sg83
g1631
sg76
(lp1687
g69
(g90
g71
NtRp1688
(dp1689
g74
(dp1690
sg83
g1684
sg76
(lp1691
g69
(g70
g71
NtRp1692
(dp1693
g74
(dp1694
g82
I3
ssg83
g1688
sg76
(lp1695
S'stable'
p1696
asbasbasbasbasbasbasbag69
(g85
g71
NtRp1697
(dp1698
g74
(dp1699
sg83
g883
sg76
(lp1700
g69
(g90
g71
NtRp1701
(dp1702
g74
(dp1703
g94
g95
ssg83
g1697
sg76
(lp1704
S'wsgi_errors'
p1705
asbag69
(g90
g71
NtRp1706
(dp1707
g74
(dp1708
g101
g102
ssg83
g1697
sg76
(lp1709
S':'
asbag69
(g90
g71
NtRp1710
(dp1711
g74
(dp1712
sg83
g1697
sg76
(lp1713
g69
(g70
g71
NtRp1714
(dp1715
g74
(dp1716
g82
I4
ssg83
g1710
sg76
(lp1717
S"<open file '<stderr>', mode 'w' at 0x7f953b4c2270>"
p1718
asbasbasbag69
(g85
g71
NtRp1719
(dp1720
g74
(dp1721
sg83
g883
sg76
(lp1722
g69
(g90
g71
NtRp1723
(dp1724
g74
(dp1725
g94
g95
ssg83
g1719
sg76
(lp1726
S'wsgi_file_wrapper'
p1727
asbag69
(g90
g71
NtRp1728
(dp1729
g74
(dp1730
g101
g102
ssg83
g1719
sg76
(lp1731
S':'
asbag69
(g90
g71
NtRp1732
(dp1733
g74
(dp1734
sg83
g1719
sg76
(lp1735
g69
(g70
g71
NtRp1736
(dp1737
g74
(dp1738
g82
I4
ssg83
g1732
sg76
(lp1739
S'<class wsgiref.util.FileWrapper at 0x1601b48>'
p1740
asbasbasbag69
(g85
g71
NtRp1741
(dp1742
g74
(dp1743
sg83
g883
sg76
(lp1744
g69
(g90
g71
NtRp1745
(dp1746
g74
(dp1747
g94
g95
ssg83
g1741
sg76
(lp1748
S'wsgi_input'
p1749
asbag69
(g90
g71
NtRp1750
(dp1751
g74
(dp1752
g101
g102
ssg83
g1741
sg76
(lp1753
S':'
asbag69
(g90
g71
NtRp1754
(dp1755
g74
(dp1756
sg83
g1741
sg76
(lp1757
g69
(g70
g71
NtRp1758
(dp1759
g74
(dp1760
g82
I4
ssg83
g1754
sg76
(lp1761
S'<socket._fileobject object at 0x7f951c11d650>'
p1762
asbasbasbag69
(g85
g71
NtRp1763
(dp1764
g74
(dp1765
sg83
g883
sg76
(lp1766
g69
(g90
g71
NtRp1767
(dp1768
g74
(dp1769
g94
g95
ssg83
g1763
sg76
(lp1770
S'wsgi_multiprocess'
p1771
asbag69
(g90
g71
NtRp1772
(dp1773
g74
(dp1774
g101
g102
ssg83
g1763
sg76
(lp1775
S':'
asbag69
(g90
g71
NtRp1776
(dp1777
g74
(dp1778
sg83
g1763
sg76
(lp1779
g69
(g70
g71
NtRp1780
(dp1781
g74
(dp1782
g82
I4
ssg83
g1776
sg76
(lp1783
g112
asbasbasbag69
(g85
g71
NtRp1784
(dp1785
g74
(dp1786
sg83
g883
sg76
(lp1787
g69
(g90
g71
NtRp1788
(dp1789
g74
(dp1790
g94
g95
ssg83
g1784
sg76
(lp1791
S'wsgi_multithread'
p1792
asbag69
(g90
g71
NtRp1793
(dp1794
g74
(dp1795
g101
g102
ssg83
g1784
sg76
(lp1796
S':'
asbag69
(g90
g71
NtRp1797
(dp1798
g74
(dp1799
sg83
g1784
sg76
(lp1800
g69
(g70
g71
NtRp1801
(dp1802
g74
(dp1803
g82
I4
ssg83
g1797
sg76
(lp1804
S'True'
p1805
asbasbasbag69
(g85
g71
NtRp1806
(dp1807
g74
(dp1808
sg83
g883
sg76
(lp1809
g69
(g90
g71
NtRp1810
(dp1811
g74
(dp1812
g94
g95
ssg83
g1806
sg76
(lp1813
S'wsgi_run_once'
p1814
asbag69
(g90
g71
NtRp1815
(dp1816
g74
(dp1817
g101
g102
ssg83
g1806
sg76
(lp1818
S':'
asbag69
(g90
g71
NtRp1819
(dp1820
g74
(dp1821
sg83
g1806
sg76
(lp1822
g69
(g70
g71
NtRp1823
(dp1824
g74
(dp1825
g82
I4
ssg83
g1819
sg76
(lp1826
g112
asbasbasbag69
(g85
g71
NtRp1827
(dp1828
g74
(dp1829
sg83
g883
sg76
(lp1830
g69
(g90
g71
NtRp1831
(dp1832
g74
(dp1833
g94
g95
ssg83
g1827
sg76
(lp1834
S'wsgi_url_scheme'
p1835
asbag69
(g90
g71
NtRp1836
(dp1837
g74
(dp1838
g101
g102
ssg83
g1827
sg76
(lp1839
S':'
asbag69
(g90
g71
NtRp1840
(dp1841
g74
(dp1842
sg83
g1827
sg76
(lp1843
g69
(g70
g71
NtRp1844
(dp1845
g74
(dp1846
g82
I4
ssg83
g1840
sg76
(lp1847
S'http'
p1848
asbasbasbag69
(g85
g71
NtRp1849
(dp1850
g74
(dp1851
sg83
g883
sg76
(lp1852
g69
(g90
g71
NtRp1853
(dp1854
g74
(dp1855
g94
g95
ssg83
g1849
sg76
(lp1856
S'wsgi_version'
p1857
asbag69
(g90
g71
NtRp1858
(dp1859
g74
(dp1860
g101
g102
ssg83
g1849
sg76
(lp1861
S':'
asbag69
(g90
g71
NtRp1862
(dp1863
g74
(dp1864
sg83
g1849
sg76
(lp1865
g69
(g70
g71
NtRp1866
(dp1867
g74
(dp1868
g82
I4
ssg83
g1862
sg76
(lp1869
g69
(g78
g71
NtRp1870
(dp1871
g74
(dp1872
g82
I3
ssg83
Nsg76
(lp1873
g69
(g85
g71
NtRp1874
(dp1875
g74
(dp1876
sg83
g1870
sg76
(lp1877
g69
(g90
g71
NtRp1878
(dp1879
g74
(dp1880
sg83
g1874
sg76
(lp1881
g69
(g70
g71
NtRp1882
(dp1883
g74
(dp1884
g82
I3
ssg83
g1878
sg76
(lp1885
S'1'
asbasbasbag69
(g85
g71
NtRp1886
(dp1887
g74
(dp1888
sg83
g1870
sg76
(lp1889
g69
(g90
g71
NtRp1890
(dp1891
g74
(dp1892
sg83
g1886
sg76
(lp1893
g69
(g70
g71
NtRp1894
(dp1895
g74
(dp1896
g82
I3
ssg83
g1890
sg76
(lp1897
S'0'
asbasbasbasbasbasbasbasbasbasbasbag69
(g85
g71
NtRp1898
(dp1899
g74
(dp1900
sg83
g79
sg76
(lp1901
g69
(g90
g71
NtRp1902
(dp1903
g74
(dp1904
g94
g95
ssg83
g1898
sg76
(lp1905
S'extension'
p1906
asbag69
(g90
g71
NtRp1907
(dp1908
g74
(dp1909
g101
g102
ssg83
g1898
sg76
(lp1910
S':'
asbag69
(g90
g71
NtRp1911
(dp1912
g74
(dp1913
sg83
g1898
sg76
(lp1914
g69
(g70
g71
NtRp1915
(dp1916
g74
(dp1917
g82
I5
ssg83
g1911
sg76
(lp1918
S'html'
p1919
asbasbasbag69
(g85
g71
NtRp1920
(dp1921
g74
(dp1922
sg83
g79
sg76
(lp1923
g69
(g90
g71
NtRp1924
(dp1925
g74
(dp1926
g94
g95
ssg83
g1920
sg76
(lp1927
S'folder'
p1928
asbag69
(g90
g71
NtRp1929
(dp1930
g74
(dp1931
g101
g102
ssg83
g1920
sg76
(lp1932
S':'
asbag69
(g90
g71
NtRp1933
(dp1934
g74
(dp1935
sg83
g1920
sg76
(lp1936
g69
(g70
g71
NtRp1937
(dp1938
g74
(dp1939
g82
I5
ssg83
g1933
sg76
(lp1940
S'/home/umang/web2py/applications/assignmen3/'
p1941
asbasbasbag69
(g85
g71
NtRp1942
(dp1943
g74
(dp1944
sg83
g79
sg76
(lp1945
g69
(g90
g71
NtRp1946
(dp1947
g74
(dp1948
g94
g95
ssg83
g1942
sg76
(lp1949
S'function'
p1950
asbag69
(g90
g71
NtRp1951
(dp1952
g74
(dp1953
g101
g102
ssg83
g1942
sg76
(lp1954
S':'
asbag69
(g90
g71
NtRp1955
(dp1956
g74
(dp1957
sg83
g1942
sg76
(lp1958
g69
(g70
g71
NtRp1959
(dp1960
g74
(dp1961
g82
I5
ssg83
g1955
sg76
(lp1962
S'edit_news'
p1963
asbasbasbag69
(g85
g71
NtRp1964
(dp1965
g74
(dp1966
sg83
g79
sg76
(lp1967
g69
(g90
g71
NtRp1968
(dp1969
g74
(dp1970
g94
g95
ssg83
g1964
sg76
(lp1971
S'get_vars'
p1972
asbag69
(g90
g71
NtRp1973
(dp1974
g74
(dp1975
g101
g102
ssg83
g1964
sg76
(lp1976
S':'
asbag69
(g90
g71
NtRp1977
(dp1978
g74
(dp1979
sg83
g1964
sg76
(lp1980
g69
(g70
g71
NtRp1981
(dp1982
g74
(dp1983
g82
I5
ssg83
g1977
sg76
(lp1984
g69
(g78
g71
NtRp1985
(dp1986
g74
(dp1987
g82
I4
ssg83
Nsg76
(lp1988
sbasbasbasbag69
(g85
g71
NtRp1989
(dp1990
g74
(dp1991
sg83
g79
sg76
(lp1992
g69
(g90
g71
NtRp1993
(dp1994
g74
(dp1995
g94
g95
ssg83
g1989
sg76
(lp1996
S'global_settings'
p1997
asbag69
(g90
g71
NtRp1998
(dp1999
g74
(dp2000
g101
g102
ssg83
g1989
sg76
(lp2001
S':'
asbag69
(g90
g71
NtRp2002
(dp2003
g74
(dp2004
sg83
g1989
sg76
(lp2005
g69
(g70
g71
NtRp2006
(dp2007
g74
(dp2008
g82
I5
ssg83
g2002
sg76
(lp2009
g69
(g78
g71
NtRp2010
(dp2011
g74
(dp2012
g82
I4
ssg83
Nsg76
(lp2013
g69
(g85
g71
NtRp2014
(dp2015
g74
(dp2016
sg83
g2010
sg76
(lp2017
g69
(g90
g71
NtRp2018
(dp2019
g74
(dp2020
g94
g95
ssg83
g2014
sg76
(lp2021
g895
asbag69
(g90
g71
NtRp2022
(dp2023
g74
(dp2024
g101
g102
ssg83
g2014
sg76
(lp2025
S':'
asbag69
(g90
g71
NtRp2026
(dp2027
g74
(dp2028
sg83
g2014
sg76
(lp2029
g69
(g70
g71
NtRp2030
(dp2031
g74
(dp2032
g82
I4
ssg83
g2026
sg76
(lp2033
S"set(['/home/umang/web2py/applications/admin/', '/home/umang/web2py/applications/assignmen3/', '/home/umang/web2py/applications/welcome/'])"
p2034
asbasbasbag69
(g85
g71
NtRp2035
(dp2036
g74
(dp2037
sg83
g2010
sg76
(lp2038
g69
(g90
g71
NtRp2039
(dp2040
g74
(dp2041
g94
g95
ssg83
g2035
sg76
(lp2042
g917
asbag69
(g90
g71
NtRp2043
(dp2044
g74
(dp2045
g101
g102
ssg83
g2035
sg76
(lp2046
S':'
asbag69
(g90
g71
NtRp2047
(dp2048
g74
(dp2049
sg83
g2035
sg76
(lp2050
g69
(g70
g71
NtRp2051
(dp2052
g74
(dp2053
g82
I4
ssg83
g2047
sg76
(lp2054
g930
asbasbasbag69
(g85
g71
NtRp2055
(dp2056
g74
(dp2057
sg83
g2010
sg76
(lp2058
g69
(g90
g71
NtRp2059
(dp2060
g74
(dp2061
g94
g95
ssg83
g2055
sg76
(lp2062
g939
asbag69
(g90
g71
NtRp2063
(dp2064
g74
(dp2065
g101
g102
ssg83
g2055
sg76
(lp2066
S':'
asbag69
(g90
g71
NtRp2067
(dp2068
g74
(dp2069
sg83
g2055
sg76
(lp2070
g69
(g70
g71
NtRp2071
(dp2072
g74
(dp2073
g82
I4
ssg83
g2067
sg76
(lp2074
g69
(g78
g71
NtRp2075
(dp2076
g74
(dp2077
g82
I3
ssg83
Nsg76
(lp2078
sbasbasbasbag69
(g85
g71
NtRp2079
(dp2080
g74
(dp2081
sg83
g2010
sg76
(lp2082
g69
(g90
g71
NtRp2083
(dp2084
g74
(dp2085
g94
g95
ssg83
g2079
sg76
(lp2086
g964
asbag69
(g90
g71
NtRp2087
(dp2088
g74
(dp2089
g101
g102
ssg83
g2079
sg76
(lp2090
S':'
asbag69
(g90
g71
NtRp2091
(dp2092
g74
(dp2093
sg83
g2079
sg76
(lp2094
g69
(g70
g71
NtRp2095
(dp2096
g74
(dp2097
g82
I4
ssg83
g2091
sg76
(lp2098
S"<Values at 0x1698200: {'verbose': False, 'ip': '127.0.0.1', 'with_scheduler': False, 'ips': [], 'shutdown_timeout': 5, 'taskbar': False, 'port': 8000, 'maxthreads': None, 'softcron': False, 'server_name': 'umang-HP-Pavilion-g6-Notebook-PC', 'bpython': False, 'nogui': False, 'pid_filename': 'httpserver.pid', 'extcron': False, 'runcron': False, 'run_system_tests': False, 'test': None, 'folder': '/home/umang/web2py', 'config': '', 'minthreads': None, 'winservice': '', 'shell': None, 'run': '', 'log_filename': 'httpserver.log', 'debuglevel': 30, 'args': [''], 'socket_timeout': 5, 'ssl_ca_certificate': None, 'scheduler': None, 'profiler_filename': None, 'ssl_private_key': '', 'scheduler_groups': None, 'password': '<ask>', 'request_queue_size': 5, 'ssl_certificate': '', 'cronjob': False, 'numthreads': None, 'quiet': False, 'interfaces': None, 'import_models': False, 'timeout': 10, 'plain': False, 'nobanner': False}>"
p2099
asbasbasbag69
(g85
g71
NtRp2100
(dp2101
g74
(dp2102
sg83
g2010
sg76
(lp2103
g69
(g90
g71
NtRp2104
(dp2105
g74
(dp2106
g94
g95
ssg83
g2100
sg76
(lp2107
g986
asbag69
(g90
g71
NtRp2108
(dp2109
g74
(dp2110
g101
g102
ssg83
g2100
sg76
(lp2111
S':'
asbag69
(g90
g71
NtRp2112
(dp2113
g74
(dp2114
sg83
g2100
sg76
(lp2115
g69
(g70
g71
NtRp2116
(dp2117
g74
(dp2118
g82
I4
ssg83
g2112
sg76
(lp2119
S'set([])'
p2120
asbasbasbag69
(g85
g71
NtRp2121
(dp2122
g74
(dp2123
sg83
g2010
sg76
(lp2124
g69
(g90
g71
NtRp2125
(dp2126
g74
(dp2127
g94
g95
ssg83
g2121
sg76
(lp2128
g1008
asbag69
(g90
g71
NtRp2129
(dp2130
g74
(dp2131
g101
g102
ssg83
g2121
sg76
(lp2132
S':'
asbag69
(g90
g71
NtRp2133
(dp2134
g74
(dp2135
sg83
g2121
sg76
(lp2136
g69
(g70
g71
NtRp2137
(dp2138
g74
(dp2139
g82
I4
ssg83
g2133
sg76
(lp2140
g112
asbasbasbag69
(g85
g71
NtRp2141
(dp2142
g74
(dp2143
sg83
g2010
sg76
(lp2144
g69
(g90
g71
NtRp2145
(dp2146
g74
(dp2147
g94
g95
ssg83
g2141
sg76
(lp2148
g1029
asbag69
(g90
g71
NtRp2149
(dp2150
g74
(dp2151
g101
g102
ssg83
g2141
sg76
(lp2152
S':'
asbag69
(g90
g71
NtRp2153
(dp2154
g74
(dp2155
sg83
g2141
sg76
(lp2156
g69
(g70
g71
NtRp2157
(dp2158
g74
(dp2159
g82
I4
ssg83
g2153
sg76
(lp2160
g1042
asbasbasbag69
(g85
g71
NtRp2161
(dp2162
g74
(dp2163
sg83
g2010
sg76
(lp2164
g69
(g90
g71
NtRp2165
(dp2166
g74
(dp2167
g94
g95
ssg83
g2161
sg76
(lp2168
g1227
asbag69
(g90
g71
NtRp2169
(dp2170
g74
(dp2171
g101
g102
ssg83
g2161
sg76
(lp2172
S':'
asbag69
(g90
g71
NtRp2173
(dp2174
g74
(dp2175
sg83
g2161
sg76
(lp2176
g69
(g70
g71
NtRp2177
(dp2178
g74
(dp2179
g82
I4
ssg83
g2173
sg76
(lp2180
g112
asbasbasbag69
(g85
g71
NtRp2181
(dp2182
g74
(dp2183
sg83
g2010
sg76
(lp2184
g69
(g90
g71
NtRp2185
(dp2186
g74
(dp2187
g94
g95
ssg83
g2181
sg76
(lp2188
g1248
asbag69
(g90
g71
NtRp2189
(dp2190
g74
(dp2191
g101
g102
ssg83
g2181
sg76
(lp2192
S':'
asbag69
(g90
g71
NtRp2193
(dp2194
g74
(dp2195
sg83
g2181
sg76
(lp2196
g69
(g70
g71
NtRp2197
(dp2198
g74
(dp2199
g82
I4
ssg83
g2193
sg76
(lp2200
g112
asbasbasbag69
(g85
g71
NtRp2201
(dp2202
g74
(dp2203
sg83
g2010
sg76
(lp2204
g69
(g90
g71
NtRp2205
(dp2206
g74
(dp2207
g94
g95
ssg83
g2201
sg76
(lp2208
g1269
asbag69
(g90
g71
NtRp2209
(dp2210
g74
(dp2211
g101
g102
ssg83
g2201
sg76
(lp2212
S':'
asbag69
(g90
g71
NtRp2213
(dp2214
g74
(dp2215
sg83
g2201
sg76
(lp2216
g69
(g70
g71
NtRp2217
(dp2218
g74
(dp2219
g82
I4
ssg83
g2213
sg76
(lp2220
g69
(g78
g71
NtRp2221
(dp2222
g74
(dp2223
g82
I3
ssg83
Nsg76
(lp2224
g69
(g85
g71
NtRp2225
(dp2226
g74
(dp2227
sg83
g2221
sg76
(lp2228
g69
(g90
g71
NtRp2229
(dp2230
g74
(dp2231
sg83
g2225
sg76
(lp2232
g69
(g70
g71
NtRp2233
(dp2234
g74
(dp2235
g82
I3
ssg83
g2229
sg76
(lp2236
g1298
asbasbasbag69
(g85
g71
NtRp2237
(dp2238
g74
(dp2239
sg83
g2221
sg76
(lp2240
g69
(g90
g71
NtRp2241
(dp2242
g74
(dp2243
sg83
g2237
sg76
(lp2244
g69
(g70
g71
NtRp2245
(dp2246
g74
(dp2247
g82
I3
ssg83
g2241
sg76
(lp2248
g1311
asbasbasbag69
(g85
g71
NtRp2249
(dp2250
g74
(dp2251
sg83
g2221
sg76
(lp2252
g69
(g90
g71
NtRp2253
(dp2254
g74
(dp2255
sg83
g2249
sg76
(lp2256
g69
(g70
g71
NtRp2257
(dp2258
g74
(dp2259
g82
I3
ssg83
g2253
sg76
(lp2260
g1324
asbasbasbag69
(g85
g71
NtRp2261
(dp2262
g74
(dp2263
sg83
g2221
sg76
(lp2264
g69
(g90
g71
NtRp2265
(dp2266
g74
(dp2267
sg83
g2261
sg76
(lp2268
g69
(g70
g71
NtRp2269
(dp2270
g74
(dp2271
g82
I3
ssg83
g2265
sg76
(lp2272
g1337
asbasbasbag69
(g85
g71
NtRp2273
(dp2274
g74
(dp2275
sg83
g2221
sg76
(lp2276
g69
(g90
g71
NtRp2277
(dp2278
g74
(dp2279
sg83
g2273
sg76
(lp2280
g69
(g70
g71
NtRp2281
(dp2282
g74
(dp2283
g82
I3
ssg83
g2277
sg76
(lp2284
g1350
asbasbasbasbasbasbasbag69
(g85
g71
NtRp2285
(dp2286
g74
(dp2287
sg83
g2010
sg76
(lp2288
g69
(g90
g71
NtRp2289
(dp2290
g74
(dp2291
g94
g95
ssg83
g2285
sg76
(lp2292
g1618
asbag69
(g90
g71
NtRp2293
(dp2294
g74
(dp2295
g101
g102
ssg83
g2285
sg76
(lp2296
S':'
asbag69
(g90
g71
NtRp2297
(dp2298
g74
(dp2299
sg83
g2285
sg76
(lp2300
g69
(g70
g71
NtRp2301
(dp2302
g74
(dp2303
g82
I4
ssg83
g2297
sg76
(lp2304
g69
(g78
g71
NtRp2305
(dp2306
g74
(dp2307
g82
I3
ssg83
Nsg76
(lp2308
g69
(g85
g71
NtRp2309
(dp2310
g74
(dp2311
sg83
g2305
sg76
(lp2312
g69
(g90
g71
NtRp2313
(dp2314
g74
(dp2315
sg83
g2309
sg76
(lp2316
g69
(g70
g71
NtRp2317
(dp2318
g74
(dp2319
g82
I3
ssg83
g2313
sg76
(lp2320
S'2'
asbasbasbag69
(g85
g71
NtRp2321
(dp2322
g74
(dp2323
sg83
g2305
sg76
(lp2324
g69
(g90
g71
NtRp2325
(dp2326
g74
(dp2327
sg83
g2321
sg76
(lp2328
g69
(g70
g71
NtRp2329
(dp2330
g74
(dp2331
g82
I3
ssg83
g2325
sg76
(lp2332
S'3'
asbasbasbag69
(g85
g71
NtRp2333
(dp2334
g74
(dp2335
sg83
g2305
sg76
(lp2336
g69
(g90
g71
NtRp2337
(dp2338
g74
(dp2339
sg83
g2333
sg76
(lp2340
g69
(g70
g71
NtRp2341
(dp2342
g74
(dp2343
g82
I3
ssg83
g2337
sg76
(lp2344
S'2'
asbasbasbag69
(g85
g71
NtRp2345
(dp2346
g74
(dp2347
sg83
g2305
sg76
(lp2348
g69
(g90
g71
NtRp2349
(dp2350
g74
(dp2351
sg83
g2345
sg76
(lp2352
g69
(g70
g71
NtRp2353
(dp2354
g74
(dp2355
g82
I3
ssg83
g2349
sg76
(lp2356
S'datetime.datetime(2012, 12, 17, 15, 3, 30)'
p2357
asbasbasbag69
(g85
g71
NtRp2358
(dp2359
g74
(dp2360
sg83
g2305
sg76
(lp2361
g69
(g90
g71
NtRp2362
(dp2363
g74
(dp2364
sg83
g2358
sg76
(lp2365
g69
(g70
g71
NtRp2366
(dp2367
g74
(dp2368
g82
I3
ssg83
g2362
sg76
(lp2369
g1696
asbasbasbasbasbasbasbasbasbasbasbag69
(g85
g71
NtRp2370
(dp2371
g74
(dp2372
sg83
g79
sg76
(lp2373
g69
(g90
g71
NtRp2374
(dp2375
g74
(dp2376
g94
g95
ssg83
g2370
sg76
(lp2377
S'is_https'
p2378
asbag69
(g90
g71
NtRp2379
(dp2380
g74
(dp2381
g101
g102
ssg83
g2370
sg76
(lp2382
S':'
asbag69
(g90
g71
NtRp2383
(dp2384
g74
(dp2385
sg83
g2370
sg76
(lp2386
g69
(g70
g71
NtRp2387
(dp2388
g74
(dp2389
g82
I5
ssg83
g2383
sg76
(lp2390
g112
asbasbasbag69
(g85
g71
NtRp2391
(dp2392
g74
(dp2393
sg83
g79
sg76
(lp2394
g69
(g90
g71
NtRp2395
(dp2396
g74
(dp2397
g94
g95
ssg83
g2391
sg76
(lp2398
S'is_local'
p2399
asbag69
(g90
g71
NtRp2400
(dp2401
g74
(dp2402
g101
g102
ssg83
g2391
sg76
(lp2403
S':'
asbag69
(g90
g71
NtRp2404
(dp2405
g74
(dp2406
sg83
g2391
sg76
(lp2407
g69
(g70
g71
NtRp2408
(dp2409
g74
(dp2410
g82
I5
ssg83
g2404
sg76
(lp2411
g1805
asbasbasbag69
(g85
g71
NtRp2412
(dp2413
g74
(dp2414
sg83
g79
sg76
(lp2415
g69
(g90
g71
NtRp2416
(dp2417
g74
(dp2418
g94
g95
ssg83
g2412
sg76
(lp2419
S'is_restful'
p2420
asbag69
(g90
g71
NtRp2421
(dp2422
g74
(dp2423
g101
g102
ssg83
g2412
sg76
(lp2424
S':'
asbag69
(g90
g71
NtRp2425
(dp2426
g74
(dp2427
sg83
g2412
sg76
(lp2428
g69
(g70
g71
NtRp2429
(dp2430
g74
(dp2431
g82
I5
ssg83
g2425
sg76
(lp2432
g112
asbasbasbag69
(g85
g71
NtRp2433
(dp2434
g74
(dp2435
sg83
g79
sg76
(lp2436
g69
(g90
g71
NtRp2437
(dp2438
g74
(dp2439
g94
g95
ssg83
g2433
sg76
(lp2440
S'now'
p2441
asbag69
(g90
g71
NtRp2442
(dp2443
g74
(dp2444
g101
g102
ssg83
g2433
sg76
(lp2445
S':'
asbag69
(g90
g71
NtRp2446
(dp2447
g74
(dp2448
sg83
g2433
sg76
(lp2449
g69
(g70
g71
NtRp2450
(dp2451
g74
(dp2452
g82
I5
ssg83
g2446
sg76
(lp2453
S'datetime.datetime(2013, 8, 27, 21, 15, 28, 836601)'
p2454
asbasbasbag69
(g85
g71
NtRp2455
(dp2456
g74
(dp2457
sg83
g79
sg76
(lp2458
g69
(g90
g71
NtRp2459
(dp2460
g74
(dp2461
g94
g95
ssg83
g2455
sg76
(lp2462
S'post_vars'
p2463
asbag69
(g90
g71
NtRp2464
(dp2465
g74
(dp2466
g101
g102
ssg83
g2455
sg76
(lp2467
S':'
asbag69
(g90
g71
NtRp2468
(dp2469
g74
(dp2470
sg83
g2455
sg76
(lp2471
g69
(g70
g71
NtRp2472
(dp2473
g74
(dp2474
g82
I5
ssg83
g2468
sg76
(lp2475
g69
(g78
g71
NtRp2476
(dp2477
g74
(dp2478
g82
I4
ssg83
Nsg76
(lp2479
sbasbasbasbag69
(g85
g71
NtRp2480
(dp2481
g74
(dp2482
sg83
g79
sg76
(lp2483
g69
(g90
g71
NtRp2484
(dp2485
g74
(dp2486
g94
g95
ssg83
g2480
sg76
(lp2487
S'raw_args'
p2488
asbag69
(g90
g71
NtRp2489
(dp2490
g74
(dp2491
g101
g102
ssg83
g2480
sg76
(lp2492
S':'
asbag69
(g90
g71
NtRp2493
(dp2494
g74
(dp2495
sg83
g2480
sg76
(lp2496
g69
(g70
g71
NtRp2497
(dp2498
g74
(dp2499
g82
I5
ssg83
g2493
sg76
(lp2500
S'3/2'
p2501
asbasbasbag69
(g85
g71
NtRp2502
(dp2503
g74
(dp2504
sg83
g79
sg76
(lp2505
g69
(g90
g71
NtRp2506
(dp2507
g74
(dp2508
g94
g95
ssg83
g2502
sg76
(lp2509
S'raw_extension'
p2510
asbag69
(g90
g71
NtRp2511
(dp2512
g74
(dp2513
g101
g102
ssg83
g2502
sg76
(lp2514
S':'
asbag69
(g90
g71
NtRp2515
(dp2516
g74
(dp2517
sg83
g2502
sg76
(lp2518
g69
(g70
g71
NtRp2519
(dp2520
g74
(dp2521
g82
I5
ssg83
g2515
sg76
(lp2522
S'None'
p2523
asbasbasbag69
(g85
g71
NtRp2524
(dp2525
g74
(dp2526
sg83
g79
sg76
(lp2527
g69
(g90
g71
NtRp2528
(dp2529
g74
(dp2530
g94
g95
ssg83
g2524
sg76
(lp2531
S'url'
p2532
asbag69
(g90
g71
NtRp2533
(dp2534
g74
(dp2535
g101
g102
ssg83
g2524
sg76
(lp2536
S':'
asbag69
(g90
g71
NtRp2537
(dp2538
g74
(dp2539
sg83
g2524
sg76
(lp2540
g69
(g70
g71
NtRp2541
(dp2542
g74
(dp2543
g82
I5
ssg83
g2537
sg76
(lp2544
g1372
asbasbasbag69
(g85
g71
NtRp2545
(dp2546
g74
(dp2547
sg83
g79
sg76
(lp2548
g69
(g90
g71
NtRp2549
(dp2550
g74
(dp2551
g94
g95
ssg83
g2545
sg76
(lp2552
S'utcnow'
p2553
asbag69
(g90
g71
NtRp2554
(dp2555
g74
(dp2556
g101
g102
ssg83
g2545
sg76
(lp2557
S':'
asbag69
(g90
g71
NtRp2558
(dp2559
g74
(dp2560
sg83
g2545
sg76
(lp2561
g69
(g70
g71
NtRp2562
(dp2563
g74
(dp2564
g82
I5
ssg83
g2558
sg76
(lp2565
S'datetime.datetime(2013, 8, 27, 15, 45, 28, 836667)'
p2566
asbasbasbag69
(g85
g71
NtRp2567
(dp2568
g74
(dp2569
sg83
g79
sg76
(lp2570
g69
(g90
g71
NtRp2571
(dp2572
g74
(dp2573
g94
g95
ssg83
g2567
sg76
(lp2574
S'uuid'
p2575
asbag69
(g90
g71
NtRp2576
(dp2577
g74
(dp2578
g101
g102
ssg83
g2567
sg76
(lp2579
S':'
asbag69
(g90
g71
NtRp2580
(dp2581
g74
(dp2582
sg83
g2567
sg76
(lp2583
g69
(g70
g71
NtRp2584
(dp2585
g74
(dp2586
g82
I5
ssg83
g2580
sg76
(lp2587
S'assignmen3/127.0.0.1.2013-08-27.21-15-28.24456ba5-d554-4f14-a7d9-96c241f26a6f'
p2588
asbasbasbag69
(g85
g71
NtRp2589
(dp2590
g74
(dp2591
sg83
g79
sg76
(lp2592
g69
(g90
g71
NtRp2593
(dp2594
g74
(dp2595
g94
g95
ssg83
g2589
sg76
(lp2596
S'vars'
p2597
asbag69
(g90
g71
NtRp2598
(dp2599
g74
(dp2600
g101
g102
ssg83
g2589
sg76
(lp2601
S':'
asbag69
(g90
g71
NtRp2602
(dp2603
g74
(dp2604
sg83
g2589
sg76
(lp2605
g69
(g70
g71
NtRp2606
(dp2607
g74
(dp2608
g82
I5
ssg83
g2602
sg76
(lp2609
g69
(g78
g71
NtRp2610
(dp2611
g74
(dp2612
g82
I4
ssg83
Nsg76
(lp2613
sbasbasbasbag69
(g85
g71
NtRp2614
(dp2615
g74
(dp2616
sg83
g79
sg76
(lp2617
g69
(g90
g71
NtRp2618
(dp2619
g74
(dp2620
g94
g95
ssg83
g2614
sg76
(lp2621
S'wsgi'
p2622
asbag69
(g90
g71
NtRp2623
(dp2624
g74
(dp2625
g101
g102
ssg83
g2614
sg76
(lp2626
S':'
asbag69
(g90
g71
NtRp2627
(dp2628
g74
(dp2629
sg83
g2614
sg76
(lp2630
g69
(g70
g71
NtRp2631
(dp2632
g74
(dp2633
g82
I5
ssg83
g2627
sg76
(lp2634
g69
(g78
g71
NtRp2635
(dp2636
g74
(dp2637
g82
I4
ssg83
Nsg76
(lp2638
g69
(g85
g71
NtRp2639
(dp2640
g74
(dp2641
sg83
g2635
sg76
(lp2642
g69
(g90
g71
NtRp2643
(dp2644
g74
(dp2645
g94
g95
ssg83
g2639
sg76
(lp2646
S'environ'
p2647
asbag69
(g90
g71
NtRp2648
(dp2649
g74
(dp2650
g101
g102
ssg83
g2639
sg76
(lp2651
S':'
asbag69
(g90
g71
NtRp2652
(dp2653
g74
(dp2654
sg83
g2639
sg76
(lp2655
g69
(g70
g71
NtRp2656
(dp2657
g74
(dp2658
g82
I4
ssg83
g2652
sg76
(lp2659
g69
(g78
g71
NtRp2660
(dp2661
g74
(dp2662
g82
I3
ssg83
Nsg76
(lp2663
g69
(g85
g71
NtRp2664
(dp2665
g74
(dp2666
sg83
g2660
sg76
(lp2667
g69
(g90
g71
NtRp2668
(dp2669
g74
(dp2670
g94
g95
ssg83
g2664
sg76
(lp2671
S'HTTP_ACCEPT'
p2672
asbag69
(g90
g71
NtRp2673
(dp2674
g74
(dp2675
g101
g102
ssg83
g2664
sg76
(lp2676
S':'
asbag69
(g90
g71
NtRp2677
(dp2678
g74
(dp2679
sg83
g2664
sg76
(lp2680
g69
(g70
g71
NtRp2681
(dp2682
g74
(dp2683
g82
I3
ssg83
g2677
sg76
(lp2684
g1064
asbasbasbag69
(g85
g71
NtRp2685
(dp2686
g74
(dp2687
sg83
g2660
sg76
(lp2688
g69
(g90
g71
NtRp2689
(dp2690
g74
(dp2691
g94
g95
ssg83
g2685
sg76
(lp2692
S'HTTP_ACCEPT_ENCODING'
p2693
asbag69
(g90
g71
NtRp2694
(dp2695
g74
(dp2696
g101
g102
ssg83
g2685
sg76
(lp2697
S':'
asbag69
(g90
g71
NtRp2698
(dp2699
g74
(dp2700
sg83
g2685
sg76
(lp2701
g69
(g70
g71
NtRp2702
(dp2703
g74
(dp2704
g82
I3
ssg83
g2698
sg76
(lp2705
g1086
asbasbasbag69
(g85
g71
NtRp2706
(dp2707
g74
(dp2708
sg83
g2660
sg76
(lp2709
g69
(g90
g71
NtRp2710
(dp2711
g74
(dp2712
g94
g95
ssg83
g2706
sg76
(lp2713
S'HTTP_ACCEPT_LANGUAGE'
p2714
asbag69
(g90
g71
NtRp2715
(dp2716
g74
(dp2717
g101
g102
ssg83
g2706
sg76
(lp2718
S':'
asbag69
(g90
g71
NtRp2719
(dp2720
g74
(dp2721
sg83
g2706
sg76
(lp2722
g69
(g70
g71
NtRp2723
(dp2724
g74
(dp2725
g82
I3
ssg83
g2719
sg76
(lp2726
g1108
asbasbasbag69
(g85
g71
NtRp2727
(dp2728
g74
(dp2729
sg83
g2660
sg76
(lp2730
g69
(g90
g71
NtRp2731
(dp2732
g74
(dp2733
g94
g95
ssg83
g2727
sg76
(lp2734
S'HTTP_CONNECTION'
p2735
asbag69
(g90
g71
NtRp2736
(dp2737
g74
(dp2738
g101
g102
ssg83
g2727
sg76
(lp2739
S':'
asbag69
(g90
g71
NtRp2740
(dp2741
g74
(dp2742
sg83
g2727
sg76
(lp2743
g69
(g70
g71
NtRp2744
(dp2745
g74
(dp2746
g82
I3
ssg83
g2740
sg76
(lp2747
g1130
asbasbasbag69
(g85
g71
NtRp2748
(dp2749
g74
(dp2750
sg83
g2660
sg76
(lp2751
g69
(g90
g71
NtRp2752
(dp2753
g74
(dp2754
g94
g95
ssg83
g2748
sg76
(lp2755
S'HTTP_COOKIE'
p2756
asbag69
(g90
g71
NtRp2757
(dp2758
g74
(dp2759
g101
g102
ssg83
g2748
sg76
(lp2760
S':'
asbag69
(g90
g71
NtRp2761
(dp2762
g74
(dp2763
sg83
g2748
sg76
(lp2764
g69
(g70
g71
NtRp2765
(dp2766
g74
(dp2767
g82
I3
ssg83
g2761
sg76
(lp2768
g1152
asbasbasbag69
(g85
g71
NtRp2769
(dp2770
g74
(dp2771
sg83
g2660
sg76
(lp2772
g69
(g90
g71
NtRp2773
(dp2774
g74
(dp2775
g94
g95
ssg83
g2769
sg76
(lp2776
S'HTTP_HOST'
p2777
asbag69
(g90
g71
NtRp2778
(dp2779
g74
(dp2780
g101
g102
ssg83
g2769
sg76
(lp2781
S':'
asbag69
(g90
g71
NtRp2782
(dp2783
g74
(dp2784
sg83
g2769
sg76
(lp2785
g69
(g70
g71
NtRp2786
(dp2787
g74
(dp2788
g82
I3
ssg83
g2782
sg76
(lp2789
g1174
asbasbasbag69
(g85
g71
NtRp2790
(dp2791
g74
(dp2792
sg83
g2660
sg76
(lp2793
g69
(g90
g71
NtRp2794
(dp2795
g74
(dp2796
g94
g95
ssg83
g2790
sg76
(lp2797
S'HTTP_REFERER'
p2798
asbag69
(g90
g71
NtRp2799
(dp2800
g74
(dp2801
g101
g102
ssg83
g2790
sg76
(lp2802
S':'
asbag69
(g90
g71
NtRp2803
(dp2804
g74
(dp2805
sg83
g2790
sg76
(lp2806
g69
(g70
g71
NtRp2807
(dp2808
g74
(dp2809
g82
I3
ssg83
g2803
sg76
(lp2810
g1196
asbasbasbag69
(g85
g71
NtRp2811
(dp2812
g74
(dp2813
sg83
g2660
sg76
(lp2814
g69
(g90
g71
NtRp2815
(dp2816
g74
(dp2817
g94
g95
ssg83
g2811
sg76
(lp2818
S'HTTP_USER_AGENT'
p2819
asbag69
(g90
g71
NtRp2820
(dp2821
g74
(dp2822
g101
g102
ssg83
g2811
sg76
(lp2823
S':'
asbag69
(g90
g71
NtRp2824
(dp2825
g74
(dp2826
sg83
g2811
sg76
(lp2827
g69
(g70
g71
NtRp2828
(dp2829
g74
(dp2830
g82
I3
ssg83
g2824
sg76
(lp2831
g1218
asbasbasbag69
(g85
g71
NtRp2832
(dp2833
g74
(dp2834
sg83
g2660
sg76
(lp2835
g69
(g90
g71
NtRp2836
(dp2837
g74
(dp2838
g94
g95
ssg83
g2832
sg76
(lp2839
S'PATH_INFO'
p2840
asbag69
(g90
g71
NtRp2841
(dp2842
g74
(dp2843
g101
g102
ssg83
g2832
sg76
(lp2844
S':'
asbag69
(g90
g71
NtRp2845
(dp2846
g74
(dp2847
sg83
g2832
sg76
(lp2848
g69
(g70
g71
NtRp2849
(dp2850
g74
(dp2851
g82
I3
ssg83
g2845
sg76
(lp2852
g1372
asbasbasbag69
(g85
g71
NtRp2853
(dp2854
g74
(dp2855
sg83
g2660
sg76
(lp2856
g69
(g90
g71
NtRp2857
(dp2858
g74
(dp2859
g94
g95
ssg83
g2853
sg76
(lp2860
S'QUERY_STRING'
p2861
asbag69
(g90
g71
NtRp2862
(dp2863
g74
(dp2864
g101
g102
ssg83
g2853
sg76
(lp2865
S':'
asbag69
(g90
g71
NtRp2866
(dp2867
g74
(dp2868
sg83
g2853
sg76
(lp2869
g69
(g70
g71
NtRp2870
(dp2871
g74
(dp2872
g82
I3
ssg83
g2866
sg76
(lp2873
S''
asbasbasbag69
(g85
g71
NtRp2874
(dp2875
g74
(dp2876
sg83
g2660
sg76
(lp2877
g69
(g90
g71
NtRp2878
(dp2879
g74
(dp2880
g94
g95
ssg83
g2874
sg76
(lp2881
S'REMOTE_ADDR'
p2882
asbag69
(g90
g71
NtRp2883
(dp2884
g74
(dp2885
g101
g102
ssg83
g2874
sg76
(lp2886
S':'
asbag69
(g90
g71
NtRp2887
(dp2888
g74
(dp2889
sg83
g2874
sg76
(lp2890
g69
(g70
g71
NtRp2891
(dp2892
g74
(dp2893
g82
I3
ssg83
g2887
sg76
(lp2894
g248
asbasbasbag69
(g85
g71
NtRp2895
(dp2896
g74
(dp2897
sg83
g2660
sg76
(lp2898
g69
(g90
g71
NtRp2899
(dp2900
g74
(dp2901
g94
g95
ssg83
g2895
sg76
(lp2902
S'REMOTE_PORT'
p2903
asbag69
(g90
g71
NtRp2904
(dp2905
g74
(dp2906
g101
g102
ssg83
g2895
sg76
(lp2907
S':'
asbag69
(g90
g71
NtRp2908
(dp2909
g74
(dp2910
sg83
g2895
sg76
(lp2911
g69
(g70
g71
NtRp2912
(dp2913
g74
(dp2914
g82
I3
ssg83
g2908
sg76
(lp2915
g1436
asbasbasbag69
(g85
g71
NtRp2916
(dp2917
g74
(dp2918
sg83
g2660
sg76
(lp2919
g69
(g90
g71
NtRp2920
(dp2921
g74
(dp2922
g94
g95
ssg83
g2916
sg76
(lp2923
S'REQUEST_METHOD'
p2924
asbag69
(g90
g71
NtRp2925
(dp2926
g74
(dp2927
g101
g102
ssg83
g2916
sg76
(lp2928
S':'
asbag69
(g90
g71
NtRp2929
(dp2930
g74
(dp2931
sg83
g2916
sg76
(lp2932
g69
(g70
g71
NtRp2933
(dp2934
g74
(dp2935
g82
I3
ssg83
g2929
sg76
(lp2936
g1458
asbasbasbag69
(g85
g71
NtRp2937
(dp2938
g74
(dp2939
sg83
g2660
sg76
(lp2940
g69
(g90
g71
NtRp2941
(dp2942
g74
(dp2943
g94
g95
ssg83
g2937
sg76
(lp2944
S'REQUEST_URI'
p2945
asbag69
(g90
g71
NtRp2946
(dp2947
g74
(dp2948
g101
g102
ssg83
g2937
sg76
(lp2949
S':'
asbag69
(g90
g71
NtRp2950
(dp2951
g74
(dp2952
sg83
g2937
sg76
(lp2953
g69
(g70
g71
NtRp2954
(dp2955
g74
(dp2956
g82
I3
ssg83
g2950
sg76
(lp2957
g1372
asbasbasbag69
(g85
g71
NtRp2958
(dp2959
g74
(dp2960
sg83
g2660
sg76
(lp2961
g69
(g90
g71
NtRp2962
(dp2963
g74
(dp2964
g94
g95
ssg83
g2958
sg76
(lp2965
S'SCRIPT_NAME'
p2966
asbag69
(g90
g71
NtRp2967
(dp2968
g74
(dp2969
g101
g102
ssg83
g2958
sg76
(lp2970
S':'
asbag69
(g90
g71
NtRp2971
(dp2972
g74
(dp2973
sg83
g2958
sg76
(lp2974
g69
(g70
g71
NtRp2975
(dp2976
g74
(dp2977
g82
I3
ssg83
g2971
sg76
(lp2978
S''
asbasbasbag69
(g85
g71
NtRp2979
(dp2980
g74
(dp2981
sg83
g2660
sg76
(lp2982
g69
(g90
g71
NtRp2983
(dp2984
g74
(dp2985
g94
g95
ssg83
g2979
sg76
(lp2986
S'SERVER_NAME'
p2987
asbag69
(g90
g71
NtRp2988
(dp2989
g74
(dp2990
g101
g102
ssg83
g2979
sg76
(lp2991
S':'
asbag69
(g90
g71
NtRp2992
(dp2993
g74
(dp2994
sg83
g2979
sg76
(lp2995
g69
(g70
g71
NtRp2996
(dp2997
g74
(dp2998
g82
I3
ssg83
g2992
sg76
(lp2999
g1522
asbasbasbag69
(g85
g71
NtRp3000
(dp3001
g74
(dp3002
sg83
g2660
sg76
(lp3003
g69
(g90
g71
NtRp3004
(dp3005
g74
(dp3006
g94
g95
ssg83
g3000
sg76
(lp3007
S'SERVER_PORT'
p3008
asbag69
(g90
g71
NtRp3009
(dp3010
g74
(dp3011
g101
g102
ssg83
g3000
sg76
(lp3012
S':'
asbag69
(g90
g71
NtRp3013
(dp3014
g74
(dp3015
sg83
g3000
sg76
(lp3016
g69
(g70
g71
NtRp3017
(dp3018
g74
(dp3019
g82
I3
ssg83
g3013
sg76
(lp3020
g1544
asbasbasbag69
(g85
g71
NtRp3021
(dp3022
g74
(dp3023
sg83
g2660
sg76
(lp3024
g69
(g90
g71
NtRp3025
(dp3026
g74
(dp3027
g94
g95
ssg83
g3021
sg76
(lp3028
S'SERVER_PROTOCOL'
p3029
asbag69
(g90
g71
NtRp3030
(dp3031
g74
(dp3032
g101
g102
ssg83
g3021
sg76
(lp3033
S':'
asbag69
(g90
g71
NtRp3034
(dp3035
g74
(dp3036
sg83
g3021
sg76
(lp3037
g69
(g70
g71
NtRp3038
(dp3039
g74
(dp3040
g82
I3
ssg83
g3034
sg76
(lp3041
g1566
asbasbasbag69
(g85
g71
NtRp3042
(dp3043
g74
(dp3044
sg83
g2660
sg76
(lp3045
g69
(g90
g71
NtRp3046
(dp3047
g74
(dp3048
g94
g95
ssg83
g3042
sg76
(lp3049
S'SERVER_SOFTWARE'
p3050
asbag69
(g90
g71
NtRp3051
(dp3052
g74
(dp3053
g101
g102
ssg83
g3042
sg76
(lp3054
S':'
asbag69
(g90
g71
NtRp3055
(dp3056
g74
(dp3057
sg83
g3042
sg76
(lp3058
g69
(g70
g71
NtRp3059
(dp3060
g74
(dp3061
g82
I3
ssg83
g3055
sg76
(lp3062
g1588
asbasbasbag69
(g85
g71
NtRp3063
(dp3064
g74
(dp3065
sg83
g2660
sg76
(lp3066
g69
(g90
g71
NtRp3067
(dp3068
g74
(dp3069
g94
g95
ssg83
g3063
sg76
(lp3070
S'wsgi.errors'
p3071
asbag69
(g90
g71
NtRp3072
(dp3073
g74
(dp3074
g101
g102
ssg83
g3063
sg76
(lp3075
S':'
asbag69
(g90
g71
NtRp3076
(dp3077
g74
(dp3078
sg83
g3063
sg76
(lp3079
g69
(g70
g71
NtRp3080
(dp3081
g74
(dp3082
g82
I3
ssg83
g3076
sg76
(lp3083
S"<open file '<stderr>', mode 'w' at 0x7f953b4c2270>"
p3084
asbasbasbag69
(g85
g71
NtRp3085
(dp3086
g74
(dp3087
sg83
g2660
sg76
(lp3088
g69
(g90
g71
NtRp3089
(dp3090
g74
(dp3091
g94
g95
ssg83
g3085
sg76
(lp3092
S'wsgi.file_wrapper'
p3093
asbag69
(g90
g71
NtRp3094
(dp3095
g74
(dp3096
g101
g102
ssg83
g3085
sg76
(lp3097
S':'
asbag69
(g90
g71
NtRp3098
(dp3099
g74
(dp3100
sg83
g3085
sg76
(lp3101
g69
(g70
g71
NtRp3102
(dp3103
g74
(dp3104
g82
I3
ssg83
g3098
sg76
(lp3105
S'<class wsgiref.util.FileWrapper at 0x1601b48>'
p3106
asbasbasbag69
(g85
g71
NtRp3107
(dp3108
g74
(dp3109
sg83
g2660
sg76
(lp3110
g69
(g90
g71
NtRp3111
(dp3112
g74
(dp3113
g94
g95
ssg83
g3107
sg76
(lp3114
S'wsgi.input'
p3115
asbag69
(g90
g71
NtRp3116
(dp3117
g74
(dp3118
g101
g102
ssg83
g3107
sg76
(lp3119
S':'
asbag69
(g90
g71
NtRp3120
(dp3121
g74
(dp3122
sg83
g3107
sg76
(lp3123
g69
(g70
g71
NtRp3124
(dp3125
g74
(dp3126
g82
I3
ssg83
g3120
sg76
(lp3127
S'<cStringIO.StringO object at 0x7f950c1975a8>'
p3128
asbasbasbag69
(g85
g71
NtRp3129
(dp3130
g74
(dp3131
sg83
g2660
sg76
(lp3132
g69
(g90
g71
NtRp3133
(dp3134
g74
(dp3135
g94
g95
ssg83
g3129
sg76
(lp3136
S'wsgi.multiprocess'
p3137
asbag69
(g90
g71
NtRp3138
(dp3139
g74
(dp3140
g101
g102
ssg83
g3129
sg76
(lp3141
S':'
asbag69
(g90
g71
NtRp3142
(dp3143
g74
(dp3144
sg83
g3129
sg76
(lp3145
g69
(g70
g71
NtRp3146
(dp3147
g74
(dp3148
g82
I3
ssg83
g3142
sg76
(lp3149
g112
asbasbasbag69
(g85
g71
NtRp3150
(dp3151
g74
(dp3152
sg83
g2660
sg76
(lp3153
g69
(g90
g71
NtRp3154
(dp3155
g74
(dp3156
g94
g95
ssg83
g3150
sg76
(lp3157
S'wsgi.multithread'
p3158
asbag69
(g90
g71
NtRp3159
(dp3160
g74
(dp3161
g101
g102
ssg83
g3150
sg76
(lp3162
S':'
asbag69
(g90
g71
NtRp3163
(dp3164
g74
(dp3165
sg83
g3150
sg76
(lp3166
g69
(g70
g71
NtRp3167
(dp3168
g74
(dp3169
g82
I3
ssg83
g3163
sg76
(lp3170
g1805
asbasbasbag69
(g85
g71
NtRp3171
(dp3172
g74
(dp3173
sg83
g2660
sg76
(lp3174
g69
(g90
g71
NtRp3175
(dp3176
g74
(dp3177
g94
g95
ssg83
g3171
sg76
(lp3178
S'wsgi.run_once'
p3179
asbag69
(g90
g71
NtRp3180
(dp3181
g74
(dp3182
g101
g102
ssg83
g3171
sg76
(lp3183
S':'
asbag69
(g90
g71
NtRp3184
(dp3185
g74
(dp3186
sg83
g3171
sg76
(lp3187
g69
(g70
g71
NtRp3188
(dp3189
g74
(dp3190
g82
I3
ssg83
g3184
sg76
(lp3191
g112
asbasbasbag69
(g85
g71
NtRp3192
(dp3193
g74
(dp3194
sg83
g2660
sg76
(lp3195
g69
(g90
g71
NtRp3196
(dp3197
g74
(dp3198
g94
g95
ssg83
g3192
sg76
(lp3199
S'wsgi.url_scheme'
p3200
asbag69
(g90
g71
NtRp3201
(dp3202
g74
(dp3203
g101
g102
ssg83
g3192
sg76
(lp3204
S':'
asbag69
(g90
g71
NtRp3205
(dp3206
g74
(dp3207
sg83
g3192
sg76
(lp3208
g69
(g70
g71
NtRp3209
(dp3210
g74
(dp3211
g82
I3
ssg83
g3205
sg76
(lp3212
g1848
asbasbasbag69
(g85
g71
NtRp3213
(dp3214
g74
(dp3215
sg83
g2660
sg76
(lp3216
g69
(g90
g71
NtRp3217
(dp3218
g74
(dp3219
g94
g95
ssg83
g3213
sg76
(lp3220
S'wsgi.version'
p3221
asbag69
(g90
g71
NtRp3222
(dp3223
g74
(dp3224
g101
g102
ssg83
g3213
sg76
(lp3225
S':'
asbag69
(g90
g71
NtRp3226
(dp3227
g74
(dp3228
sg83
g3213
sg76
(lp3229
g69
(g70
g71
NtRp3230
(dp3231
g74
(dp3232
g82
I3
ssg83
g3226
sg76
(lp3233
S'1'
asbasbasbasbasbasbasbasbasbasbasbasbasbsS'frames'
p3234
(lp3235
(dp3236
S'file'
p3237
S'/home/umang/web2py/gluon/restricted.py'
p3238
sS'dump'
p3239
(dp3240
S'code'
p3241
S"'# -*- coding: utf-8 -*-\\n# this file is released ...d())\\n\\nresponse._vars=response._caller(edit_news)\\n'"
p3242
sS'layer'
p3243
S"'/home/umang/web2py/applications/assignmen3/controllers/default.py'"
p3244
sS'global compile2'
p3245
S'<function compile2>'
p3246
sS'ccode'
p3247
S'undefined'
p3248
ssS'lnum'
p3249
I211
sS'lines'
p3250
(dp3251
I206
S"    environment['__name__'] = '__restricted__'"
p3252
sI207
S'    try:'
p3253
sI208
S'        if isinstance(code, types.CodeType):'
p3254
sI209
S'            ccode = code'
p3255
sI210
S'        else:'
p3256
sI211
S'            ccode = compile2(code, layer)'
p3257
sI212
S'        exec ccode in environment'
p3258
sI213
S'    except HTTP:'
p3259
sI214
S'        raise'
p3260
sI215
S'    except RestrictedError:'
p3261
ssS'call'
p3262
S"(code='# -*- coding: utf-8 -*-\\n# this file is released ...d())\\n\\nresponse._vars=response._caller(edit_news)\\n', environment={'A': <class 'gluon.html.A'>, 'Auth': <class 'gluon.tools.Auth'>, 'B': <class 'gluon.html.B'>, 'BEAUTIFY': <class 'gluon.html.BEAUTIFY'>, 'BODY': <class 'gluon.html.BODY'>, 'BR': <class 'gluon.html.BR'>, 'BUTTON': <class 'gluon.html.BUTTON'>, 'CAT': <class 'gluon.html.CAT'>, 'CENTER': <class 'gluon.html.CENTER'>, 'CLEANUP': <class 'gluon.validators.CLEANUP'>, ...}, layer='/home/umang/web2py/applications/assignmen3/controllers/default.py')"
p3263
sS'func'
p3264
S'restricted'
p3265
sa(dp3266
g3237
S'/home/umang/web2py/gluon/restricted.py'
p3267
sg3239
(dp3268
S'builtincompile'
p3269
S'<built-in function compile>'
p3270
sS'code'
p3271
S"'# -*- coding: utf-8 -*-\\n# this file is released ...d())\\n\\nresponse._vars=response._caller(edit_news)\\n'"
p3272
sS'code.rstrip'
p3273
S'<built-in method rstrip of str object>'
p3274
sS').replace'
p3275
g3248
sS'layer'
p3276
S"'/home/umang/web2py/applications/assignmen3/controllers/default.py'"
p3277
ssg3249
I194
sg3250
(dp3278
I192
S"    The +'\\n' is necessary else compile fails when code ends in a comment."
p3279
sI193
S'    """'
p3280
sI194
S"    return compile(code.rstrip().replace('\\r\\n', '\\n') + '\\n', layer, 'exec')"
p3281
sI195
S''
sI196
S''
sI197
S"def restricted(code, environment=None, layer='Unknown'):"
p3282
sI198
S'    """'
p3283
sI189
S''
sI190
S'def compile2(code, layer):'
p3284
sI191
S'    """'
p3285
ssg3262
S"(code='# -*- coding: utf-8 -*-\\n# this file is released ...d())\\n\\nresponse._vars=response._caller(edit_news)\\n', layer='/home/umang/web2py/applications/assignmen3/controllers/default.py')"
p3286
sg3264
S'compile2'
p3287
sasS'pyver'
p3288
S'Python 2.7.3: /usr/bin/python'
p3289
sS'session'
p3290
g69
(g70
g71
NtRp3291
(dp3292
g74
(dp3293
sg76
(lp3294
g69
(g78
g71
NtRp3295
(dp3296
g74
(dp3297
g82
I5
ssg83
Nsg76
(lp3298
g69
(g85
g71
NtRp3299
(dp3300
g74
(dp3301
sg83
g3295
sg76
(lp3302
g69
(g90
g71
NtRp3303
(dp3304
g74
(dp3305
g94
g95
ssg83
g3299
sg76
(lp3306
S'flash'
p3307
asbag69
(g90
g71
NtRp3308
(dp3309
g74
(dp3310
g101
g102
ssg83
g3299
sg76
(lp3311
S':'
asbag69
(g90
g71
NtRp3312
(dp3313
g74
(dp3314
sg83
g3299
sg76
(lp3315
g69
(g70
g71
NtRp3316
(dp3317
g74
(dp3318
g82
I5
ssg83
g3312
sg76
(lp3319
S'None'
p3320
asbasbasbag69
(g85
g71
NtRp3321
(dp3322
g74
(dp3323
sg83
g3295
sg76
(lp3324
g69
(g90
g71
NtRp3325
(dp3326
g74
(dp3327
g94
g95
ssg83
g3321
sg76
(lp3328
S'last_orderby'
p3329
asbag69
(g90
g71
NtRp3330
(dp3331
g74
(dp3332
g101
g102
ssg83
g3321
sg76
(lp3333
S':'
asbag69
(g90
g71
NtRp3334
(dp3335
g74
(dp3336
sg83
g3321
sg76
(lp3337
g69
(g70
g71
NtRp3338
(dp3339
g74
(dp3340
g82
I5
ssg83
g3334
sg76
(lp3341
S'None'
p3342
asbasbasbag69
(g85
g71
NtRp3343
(dp3344
g74
(dp3345
sg83
g3295
sg76
(lp3346
g69
(g90
g71
NtRp3347
(dp3348
g74
(dp3349
g94
g95
ssg83
g3343
sg76
(lp3350
S'last_query'
p3351
asbag69
(g90
g71
NtRp3352
(dp3353
g74
(dp3354
g101
g102
ssg83
g3343
sg76
(lp3355
S':'
asbag69
(g90
g71
NtRp3356
(dp3357
g74
(dp3358
sg83
g3343
sg76
(lp3359
g69
(g70
g71
NtRp3360
(dp3361
g74
(dp3362
g82
I5
ssg83
g3356
sg76
(lp3363
S'db.news.id>0'
p3364
asbasbasbasbasbsS'etype'
p3365
S"<type 'exceptions.SyntaxError'>"
p3366
sS'date'
p3367
S'Tue Aug 27 21:15:28 2013'
p3368
sS'response'
p3369
g69
(g70
g71
NtRp3370
(dp3371
g74
(dp3372
sg76
(lp3373
g69
(g78
g71
NtRp3374
(dp3375
g74
(dp3376
g82
I5
ssg83
Nsg76
(lp3377
g69
(g85
g71
NtRp3378
(dp3379
g74
(dp3380
sg83
g3374
sg76
(lp3381
g69
(g90
g71
NtRp3382
(dp3383
g74
(dp3384
g94
g95
ssg83
g3378
sg76
(lp3385
g191
asbag69
(g90
g71
NtRp3386
(dp3387
g74
(dp3388
g101
g102
ssg83
g3378
sg76
(lp3389
S':'
asbag69
(g90
g71
NtRp3390
(dp3391
g74
(dp3392
sg83
g3378
sg76
(lp3393
g69
(g70
g71
NtRp3394
(dp3395
g74
(dp3396
g82
I5
ssg83
g3390
sg76
(lp3397
S'<cStringIO.StringO object at 0x7f950c197068>'
p3398
asbasbasbag69
(g85
g71
NtRp3399
(dp3400
g74
(dp3401
sg83
g3374
sg76
(lp3402
g69
(g90
g71
NtRp3403
(dp3404
g74
(dp3405
g94
g95
ssg83
g3399
sg76
(lp3406
g279
asbag69
(g90
g71
NtRp3407
(dp3408
g74
(dp3409
g101
g102
ssg83
g3399
sg76
(lp3410
S':'
asbag69
(g90
g71
NtRp3411
(dp3412
g74
(dp3413
sg83
g3399
sg76
(lp3414
g69
(g70
g71
NtRp3415
(dp3416
g74
(dp3417
g82
I5
ssg83
g3411
sg76
(lp3418
g69
(g78
g71
NtRp3419
(dp3420
g74
(dp3421
g82
I4
ssg83
Nsg76
(lp3422
g69
(g85
g71
NtRp3423
(dp3424
g74
(dp3425
sg83
g3419
sg76
(lp3426
g69
(g90
g71
NtRp3427
(dp3428
g74
(dp3429
g94
g95
ssg83
g3423
sg76
(lp3430
S'session_id_assignmen3'
p3431
asbag69
(g90
g71
NtRp3432
(dp3433
g74
(dp3434
g101
g102
ssg83
g3423
sg76
(lp3435
S':'
asbag69
(g90
g71
NtRp3436
(dp3437
g74
(dp3438
sg83
g3423
sg76
(lp3439
g69
(g70
g71
NtRp3440
(dp3441
g74
(dp3442
g82
I4
ssg83
g3436
sg76
(lp3443
g511
ag69
(g78
g71
NtRp3444
(dp3445
g74
(dp3446
g82
I3
ssg83
Nsg76
(lp3447
g69
(g85
g71
NtRp3448
(dp3449
g74
(dp3450
sg83
g3444
sg76
(lp3451
g69
(g90
g71
NtRp3452
(dp3453
g74
(dp3454
g94
g95
ssg83
g3448
sg76
(lp3455
g330
asbag69
(g90
g71
NtRp3456
(dp3457
g74
(dp3458
g101
g102
ssg83
g3448
sg76
(lp3459
S':'
asbag69
(g90
g71
NtRp3460
(dp3461
g74
(dp3462
sg83
g3448
sg76
(lp3463
g69
(g70
g71
NtRp3464
(dp3465
g74
(dp3466
g82
I3
ssg83
g3460
sg76
(lp3467
S''
asbasbasbag69
(g85
g71
NtRp3468
(dp3469
g74
(dp3470
sg83
g3444
sg76
(lp3471
g69
(g90
g71
NtRp3472
(dp3473
g74
(dp3474
g94
g95
ssg83
g3468
sg76
(lp3475
g351
asbag69
(g90
g71
NtRp3476
(dp3477
g74
(dp3478
g101
g102
ssg83
g3468
sg76
(lp3479
S':'
asbag69
(g90
g71
NtRp3480
(dp3481
g74
(dp3482
sg83
g3468
sg76
(lp3483
g69
(g70
g71
NtRp3484
(dp3485
g74
(dp3486
g82
I3
ssg83
g3480
sg76
(lp3487
S''
asbasbasbag69
(g85
g71
NtRp3488
(dp3489
g74
(dp3490
sg83
g3444
sg76
(lp3491
g69
(g90
g71
NtRp3492
(dp3493
g74
(dp3494
g94
g95
ssg83
g3488
sg76
(lp3495
g372
asbag69
(g90
g71
NtRp3496
(dp3497
g74
(dp3498
g101
g102
ssg83
g3488
sg76
(lp3499
S':'
asbag69
(g90
g71
NtRp3500
(dp3501
g74
(dp3502
sg83
g3488
sg76
(lp3503
g69
(g70
g71
NtRp3504
(dp3505
g74
(dp3506
g82
I3
ssg83
g3500
sg76
(lp3507
S''
asbasbasbag69
(g85
g71
NtRp3508
(dp3509
g74
(dp3510
sg83
g3444
sg76
(lp3511
g69
(g90
g71
NtRp3512
(dp3513
g74
(dp3514
g94
g95
ssg83
g3508
sg76
(lp3515
g393
asbag69
(g90
g71
NtRp3516
(dp3517
g74
(dp3518
g101
g102
ssg83
g3508
sg76
(lp3519
S':'
asbag69
(g90
g71
NtRp3520
(dp3521
g74
(dp3522
sg83
g3508
sg76
(lp3523
g69
(g70
g71
NtRp3524
(dp3525
g74
(dp3526
g82
I3
ssg83
g3520
sg76
(lp3527
S''
asbasbasbag69
(g85
g71
NtRp3528
(dp3529
g74
(dp3530
sg83
g3444
sg76
(lp3531
g69
(g90
g71
NtRp3532
(dp3533
g74
(dp3534
g94
g95
ssg83
g3528
sg76
(lp3535
g414
asbag69
(g90
g71
NtRp3536
(dp3537
g74
(dp3538
g101
g102
ssg83
g3528
sg76
(lp3539
S':'
asbag69
(g90
g71
NtRp3540
(dp3541
g74
(dp3542
sg83
g3528
sg76
(lp3543
g69
(g70
g71
NtRp3544
(dp3545
g74
(dp3546
g82
I3
ssg83
g3540
sg76
(lp3547
S''
asbasbasbag69
(g85
g71
NtRp3548
(dp3549
g74
(dp3550
sg83
g3444
sg76
(lp3551
g69
(g90
g71
NtRp3552
(dp3553
g74
(dp3554
g94
g95
ssg83
g3548
sg76
(lp3555
g435
asbag69
(g90
g71
NtRp3556
(dp3557
g74
(dp3558
g101
g102
ssg83
g3548
sg76
(lp3559
S':'
asbag69
(g90
g71
NtRp3560
(dp3561
g74
(dp3562
sg83
g3548
sg76
(lp3563
g69
(g70
g71
NtRp3564
(dp3565
g74
(dp3566
g82
I3
ssg83
g3560
sg76
(lp3567
S'/'
asbasbasbag69
(g85
g71
NtRp3568
(dp3569
g74
(dp3570
sg83
g3444
sg76
(lp3571
g69
(g90
g71
NtRp3572
(dp3573
g74
(dp3574
g94
g95
ssg83
g3568
sg76
(lp3575
g456
asbag69
(g90
g71
NtRp3576
(dp3577
g74
(dp3578
g101
g102
ssg83
g3568
sg76
(lp3579
S':'
asbag69
(g90
g71
NtRp3580
(dp3581
g74
(dp3582
sg83
g3568
sg76
(lp3583
g69
(g70
g71
NtRp3584
(dp3585
g74
(dp3586
g82
I3
ssg83
g3580
sg76
(lp3587
S''
asbasbasbag69
(g85
g71
NtRp3588
(dp3589
g74
(dp3590
sg83
g3444
sg76
(lp3591
g69
(g90
g71
NtRp3592
(dp3593
g74
(dp3594
g94
g95
ssg83
g3588
sg76
(lp3595
g477
asbag69
(g90
g71
NtRp3596
(dp3597
g74
(dp3598
g101
g102
ssg83
g3588
sg76
(lp3599
S':'
asbag69
(g90
g71
NtRp3600
(dp3601
g74
(dp3602
sg83
g3588
sg76
(lp3603
g69
(g70
g71
NtRp3604
(dp3605
g74
(dp3606
g82
I3
ssg83
g3600
sg76
(lp3607
S''
asbasbasbasbasbasbasbasbasbasbasbag69
(g85
g71
NtRp3608
(dp3609
g74
(dp3610
sg83
g3374
sg76
(lp3611
g69
(g90
g71
NtRp3612
(dp3613
g74
(dp3614
g94
g95
ssg83
g3608
sg76
(lp3615
S'delimiters'
p3616
asbag69
(g90
g71
NtRp3617
(dp3618
g74
(dp3619
g101
g102
ssg83
g3608
sg76
(lp3620
S':'
asbag69
(g90
g71
NtRp3621
(dp3622
g74
(dp3623
sg83
g3608
sg76
(lp3624
g69
(g70
g71
NtRp3625
(dp3626
g74
(dp3627
g82
I5
ssg83
g3621
sg76
(lp3628
g69
(g78
g71
NtRp3629
(dp3630
g74
(dp3631
g82
I4
ssg83
Nsg76
(lp3632
g69
(g85
g71
NtRp3633
(dp3634
g74
(dp3635
sg83
g3629
sg76
(lp3636
g69
(g90
g71
NtRp3637
(dp3638
g74
(dp3639
sg83
g3633
sg76
(lp3640
g69
(g70
g71
NtRp3641
(dp3642
g74
(dp3643
g82
I4
ssg83
g3637
sg76
(lp3644
S'{{'
p3645
asbasbasbag69
(g85
g71
NtRp3646
(dp3647
g74
(dp3648
sg83
g3629
sg76
(lp3649
g69
(g90
g71
NtRp3650
(dp3651
g74
(dp3652
sg83
g3646
sg76
(lp3653
g69
(g70
g71
NtRp3654
(dp3655
g74
(dp3656
g82
I4
ssg83
g3650
sg76
(lp3657
S'}}'
p3658
asbasbasbasbasbasbasbag69
(g85
g71
NtRp3659
(dp3660
g74
(dp3661
sg83
g3374
sg76
(lp3662
g69
(g90
g71
NtRp3663
(dp3664
g74
(dp3665
g94
g95
ssg83
g3659
sg76
(lp3666
S'files'
p3667
asbag69
(g90
g71
NtRp3668
(dp3669
g74
(dp3670
g101
g102
ssg83
g3659
sg76
(lp3671
S':'
asbag69
(g90
g71
NtRp3672
(dp3673
g74
(dp3674
sg83
g3659
sg76
(lp3675
g69
(g70
g71
NtRp3676
(dp3677
g74
(dp3678
g82
I5
ssg83
g3672
sg76
(lp3679
g69
(g78
g71
NtRp3680
(dp3681
g74
(dp3682
g82
I4
ssg83
Nsg76
(lp3683
sbasbasbasbag69
(g85
g71
NtRp3684
(dp3685
g74
(dp3686
sg83
g3374
sg76
(lp3687
g69
(g90
g71
NtRp3688
(dp3689
g74
(dp3690
g94
g95
ssg83
g3684
sg76
(lp3691
S'flash'
p3692
asbag69
(g90
g71
NtRp3693
(dp3694
g74
(dp3695
g101
g102
ssg83
g3684
sg76
(lp3696
S':'
asbag69
(g90
g71
NtRp3697
(dp3698
g74
(dp3699
sg83
g3684
sg76
(lp3700
g69
(g70
g71
NtRp3701
(dp3702
g74
(dp3703
g82
I5
ssg83
g3697
sg76
(lp3704
S''
asbasbasbag69
(g85
g71
NtRp3705
(dp3706
g74
(dp3707
sg83
g3374
sg76
(lp3708
g69
(g90
g71
NtRp3709
(dp3710
g74
(dp3711
g94
g95
ssg83
g3705
sg76
(lp3712
S'generic_patterns'
p3713
asbag69
(g90
g71
NtRp3714
(dp3715
g74
(dp3716
g101
g102
ssg83
g3705
sg76
(lp3717
S':'
asbag69
(g90
g71
NtRp3718
(dp3719
g74
(dp3720
sg83
g3705
sg76
(lp3721
g69
(g70
g71
NtRp3722
(dp3723
g74
(dp3724
g82
I5
ssg83
g3718
sg76
(lp3725
g69
(g78
g71
NtRp3726
(dp3727
g74
(dp3728
g82
I4
ssg83
Nsg76
(lp3729
g69
(g85
g71
NtRp3730
(dp3731
g74
(dp3732
sg83
g3726
sg76
(lp3733
g69
(g90
g71
NtRp3734
(dp3735
g74
(dp3736
sg83
g3730
sg76
(lp3737
g69
(g70
g71
NtRp3738
(dp3739
g74
(dp3740
g82
I4
ssg83
g3734
sg76
(lp3741
S'*'
asbasbasbasbasbasbasbag69
(g85
g71
NtRp3742
(dp3743
g74
(dp3744
sg83
g3374
sg76
(lp3745
g69
(g90
g71
NtRp3746
(dp3747
g74
(dp3748
g94
g95
ssg83
g3742
sg76
(lp3749
S'google_analytics_id'
p3750
asbag69
(g90
g71
NtRp3751
(dp3752
g74
(dp3753
g101
g102
ssg83
g3742
sg76
(lp3754
S':'
asbag69
(g90
g71
NtRp3755
(dp3756
g74
(dp3757
sg83
g3742
sg76
(lp3758
g69
(g70
g71
NtRp3759
(dp3760
g74
(dp3761
g82
I5
ssg83
g3755
sg76
(lp3762
S'None'
p3763
asbasbasbag69
(g85
g71
NtRp3764
(dp3765
g74
(dp3766
sg83
g3374
sg76
(lp3767
g69
(g90
g71
NtRp3768
(dp3769
g74
(dp3770
g94
g95
ssg83
g3764
sg76
(lp3771
S'headers'
p3772
asbag69
(g90
g71
NtRp3773
(dp3774
g74
(dp3775
g101
g102
ssg83
g3764
sg76
(lp3776
S':'
asbag69
(g90
g71
NtRp3777
(dp3778
g74
(dp3779
sg83
g3764
sg76
(lp3780
g69
(g70
g71
NtRp3781
(dp3782
g74
(dp3783
g82
I5
ssg83
g3777
sg76
(lp3784
g69
(g78
g71
NtRp3785
(dp3786
g74
(dp3787
g82
I4
ssg83
Nsg76
(lp3788
g69
(g85
g71
NtRp3789
(dp3790
g74
(dp3791
sg83
g3785
sg76
(lp3792
g69
(g90
g71
NtRp3793
(dp3794
g74
(dp3795
g94
g95
ssg83
g3789
sg76
(lp3796
S'X-Powered-By'
p3797
asbag69
(g90
g71
NtRp3798
(dp3799
g74
(dp3800
g101
g102
ssg83
g3789
sg76
(lp3801
S':'
asbag69
(g90
g71
NtRp3802
(dp3803
g74
(dp3804
sg83
g3789
sg76
(lp3805
g69
(g70
g71
NtRp3806
(dp3807
g74
(dp3808
g82
I4
ssg83
g3802
sg76
(lp3809
S'web2py'
p3810
asbasbasbasbasbasbasbag69
(g85
g71
NtRp3811
(dp3812
g74
(dp3813
sg83
g3374
sg76
(lp3814
g69
(g90
g71
NtRp3815
(dp3816
g74
(dp3817
g94
g95
ssg83
g3811
sg76
(lp3818
S'logo'
p3819
asbag69
(g90
g71
NtRp3820
(dp3821
g74
(dp3822
g101
g102
ssg83
g3811
sg76
(lp3823
S':'
asbag69
(g90
g71
NtRp3824
(dp3825
g74
(dp3826
sg83
g3811
sg76
(lp3827
g69
(g70
g71
NtRp3828
(dp3829
g74
(dp3830
g82
I5
ssg83
g3824
sg76
(lp3831
g69
(cgluon.html
A
p3832
g71
NtRp3833
(dp3834
g74
(dp3835
S'_class'
p3836
S'brand'
p3837
sS'_href'
p3838
S'http://www.web2py.com/'
p3839
ssg83
Nsg76
(lp3840
g69
(cgluon.html
B
p3841
g71
NtRp3842
(dp3843
g74
(dp3844
sg83
g3833
sg76
(lp3845
S'web'
p3846
ag69
(cgluon.html
SPAN
p3847
g71
NtRp3848
(dp3849
g74
(dp3850
sg83
g3842
sg76
(lp3851
I2
asbaS'py'
p3852
asbacgluon.html
XML_unpickle
p3853
(S's\r\x00\x00\x00&trade;&nbsp;'
tRp3854
asbasbasbasbag69
(g85
g71
NtRp3855
(dp3856
g74
(dp3857
sg83
g3374
sg76
(lp3858
g69
(g90
g71
NtRp3859
(dp3860
g74
(dp3861
g94
g95
ssg83
g3855
sg76
(lp3862
S'menu'
p3863
asbag69
(g90
g71
NtRp3864
(dp3865
g74
(dp3866
g101
g102
ssg83
g3855
sg76
(lp3867
S':'
asbag69
(g90
g71
NtRp3868
(dp3869
g74
(dp3870
sg83
g3855
sg76
(lp3871
g69
(g70
g71
NtRp3872
(dp3873
g74
(dp3874
g82
I5
ssg83
g3868
sg76
(lp3875
g69
(g78
g71
NtRp3876
(dp3877
g74
(dp3878
g82
I4
ssg83
Nsg76
(lp3879
g69
(g85
g71
NtRp3880
(dp3881
g74
(dp3882
sg83
g3876
sg76
(lp3883
g69
(g90
g71
NtRp3884
(dp3885
g74
(dp3886
sg83
g3880
sg76
(lp3887
g69
(g70
g71
NtRp3888
(dp3889
g74
(dp3890
g82
I4
ssg83
g3884
sg76
(lp3891
g69
(g78
g71
NtRp3892
(dp3893
g74
(dp3894
g82
I3
ssg83
Nsg76
(lp3895
g69
(g85
g71
NtRp3896
(dp3897
g74
(dp3898
sg83
g3892
sg76
(lp3899
g69
(g90
g71
NtRp3900
(dp3901
g74
(dp3902
sg83
g3896
sg76
(lp3903
g69
(g70
g71
NtRp3904
(dp3905
g74
(dp3906
g82
I3
ssg83
g3900
sg76
(lp3907
cgluon.languages
lazyT_unpickle
p3908
(S's\x04\x00\x00\x00Home'
tRp3909
asbasbasbag69
(g85
g71
NtRp3910
(dp3911
g74
(dp3912
sg83
g3892
sg76
(lp3913
g69
(g90
g71
NtRp3914
(dp3915
g74
(dp3916
sg83
g3910
sg76
(lp3917
g69
(g70
g71
NtRp3918
(dp3919
g74
(dp3920
g82
I3
ssg83
g3914
sg76
(lp3921
g112
asbasbasbag69
(g85
g71
NtRp3922
(dp3923
g74
(dp3924
sg83
g3892
sg76
(lp3925
g69
(g90
g71
NtRp3926
(dp3927
g74
(dp3928
sg83
g3922
sg76
(lp3929
g69
(g70
g71
NtRp3930
(dp3931
g74
(dp3932
g82
I3
ssg83
g3926
sg76
(lp3933
S'/assignmen3/default/index'
p3934
asbasbasbag69
(g85
g71
NtRp3935
(dp3936
g74
(dp3937
sg83
g3892
sg76
(lp3938
g69
(g90
g71
NtRp3939
(dp3940
g74
(dp3941
sg83
g3935
sg76
(lp3942
g69
(g70
g71
NtRp3943
(dp3944
g74
(dp3945
g82
I3
ssg83
g3939
sg76
(lp3946
g69
(g78
g71
NtRp3947
(dp3948
g74
(dp3949
g82
I2
ssg83
Nsg76
(lp3950
sbasbasbasbasbasbasbasbag69
(g85
g71
NtRp3951
(dp3952
g74
(dp3953
sg83
g3876
sg76
(lp3954
g69
(g90
g71
NtRp3955
(dp3956
g74
(dp3957
sg83
g3951
sg76
(lp3958
g69
(g70
g71
NtRp3959
(dp3960
g74
(dp3961
g82
I4
ssg83
g3955
sg76
(lp3962
g69
(g78
g71
NtRp3963
(dp3964
g74
(dp3965
g82
I3
ssg83
Nsg76
(lp3966
g69
(g85
g71
NtRp3967
(dp3968
g74
(dp3969
sg83
g3963
sg76
(lp3970
g69
(g90
g71
NtRp3971
(dp3972
g74
(dp3973
sg83
g3967
sg76
(lp3974
g69
(g70
g71
NtRp3975
(dp3976
g74
(dp3977
g82
I3
ssg83
g3971
sg76
(lp3978
g69
(g3847
g71
NtRp3979
(dp3980
g74
(dp3981
g3836
S'highlighted'
p3982
ssg83
Nsg76
(lp3983
g3810
asbasbasbasbag69
(g85
g71
NtRp3984
(dp3985
g74
(dp3986
sg83
g3963
sg76
(lp3987
g69
(g90
g71
NtRp3988
(dp3989
g74
(dp3990
sg83
g3984
sg76
(lp3991
g69
(g70
g71
NtRp3992
(dp3993
g74
(dp3994
g82
I3
ssg83
g3988
sg76
(lp3995
g112
asbasbasbag69
(g85
g71
NtRp3996
(dp3997
g74
(dp3998
sg83
g3963
sg76
(lp3999
g69
(g90
g71
NtRp4000
(dp4001
g74
(dp4002
sg83
g3996
sg76
(lp4003
g69
(g70
g71
NtRp4004
(dp4005
g74
(dp4006
g82
I3
ssg83
g4000
sg76
(lp4007
S'http://web2py.com'
p4008
asbasbasbag69
(g85
g71
NtRp4009
(dp4010
g74
(dp4011
sg83
g3963
sg76
(lp4012
g69
(g90
g71
NtRp4013
(dp4014
g74
(dp4015
sg83
g4009
sg76
(lp4016
g69
(g70
g71
NtRp4017
(dp4018
g74
(dp4019
g82
I3
ssg83
g4013
sg76
(lp4020
g69
(g78
g71
NtRp4021
(dp4022
g74
(dp4023
g82
I2
ssg83
Nsg76
(lp4024
g69
(g85
g71
NtRp4025
(dp4026
g74
(dp4027
sg83
g4021
sg76
(lp4028
g69
(g90
g71
NtRp4029
(dp4030
g74
(dp4031
sg83
g4025
sg76
(lp4032
g69
(g70
g71
NtRp4033
(dp4034
g74
(dp4035
g82
I2
ssg83
g4029
sg76
(lp4036
g69
(g78
g71
NtRp4037
(dp4038
g74
(dp4039
g82
I1
ssg83
Nsg76
(lp4040
g69
(g85
g71
NtRp4041
(dp4042
g74
(dp4043
sg83
g4037
sg76
(lp4044
g69
(g90
g71
NtRp4045
(dp4046
g74
(dp4047
sg83
g4041
sg76
(lp4048
g69
(g70
g71
NtRp4049
(dp4050
g74
(dp4051
g82
I1
ssg83
g4045
sg76
(lp4052
g3908
(S's\x08\x00\x00\x00My Sites'
tRp4053
asbasbasbag69
(g85
g71
NtRp4054
(dp4055
g74
(dp4056
sg83
g4037
sg76
(lp4057
g69
(g90
g71
NtRp4058
(dp4059
g74
(dp4060
sg83
g4054
sg76
(lp4061
g69
(g70
g71
NtRp4062
(dp4063
g74
(dp4064
g82
I1
ssg83
g4058
sg76
(lp4065
I00
asbasbasbag69
(g85
g71
NtRp4066
(dp4067
g74
(dp4068
sg83
g4037
sg76
(lp4069
g69
(g90
g71
NtRp4070
(dp4071
g74
(dp4072
sg83
g4066
sg76
(lp4073
g69
(g70
g71
NtRp4074
(dp4075
g74
(dp4076
g82
I1
ssg83
g4070
sg76
(lp4077
S'/admin/default/site'
p4078
asbasbasbasbasbasbasbag69
(g85
g71
NtRp4079
(dp4080
g74
(dp4081
sg83
g4021
sg76
(lp4082
g69
(g90
g71
NtRp4083
(dp4084
g74
(dp4085
sg83
g4079
sg76
(lp4086
g69
(g70
g71
NtRp4087
(dp4088
g74
(dp4089
g82
I2
ssg83
g4083
sg76
(lp4090
g69
(g78
g71
NtRp4091
(dp4092
g74
(dp4093
g82
I1
ssg83
Nsg76
(lp4094
g69
(g85
g71
NtRp4095
(dp4096
g74
(dp4097
sg83
g4091
sg76
(lp4098
g69
(g90
g71
NtRp4099
(dp4100
g74
(dp4101
sg83
g4095
sg76
(lp4102
g69
(g70
g71
NtRp4103
(dp4104
g74
(dp4105
g82
I1
ssg83
g4099
sg76
(lp4106
g3908
(S's\x08\x00\x00\x00This App'
tRp4107
asbasbasbag69
(g85
g71
NtRp4108
(dp4109
g74
(dp4110
sg83
g4091
sg76
(lp4111
g69
(g90
g71
NtRp4112
(dp4113
g74
(dp4114
sg83
g4108
sg76
(lp4115
g69
(g70
g71
NtRp4116
(dp4117
g74
(dp4118
g82
I1
ssg83
g4112
sg76
(lp4119
I00
asbasbasbag69
(g85
g71
NtRp4120
(dp4121
g74
(dp4122
sg83
g4091
sg76
(lp4123
g69
(g90
g71
NtRp4124
(dp4125
g74
(dp4126
sg83
g4120
sg76
(lp4127
g69
(g70
g71
NtRp4128
(dp4129
g74
(dp4130
g82
I1
ssg83
g4124
sg76
(lp4131
S'/admin/default/design/assignmen3'
p4132
asbasbasbag69
(g85
g71
NtRp4133
(dp4134
g74
(dp4135
sg83
g4091
sg76
(lp4136
g69
(g90
g71
NtRp4137
(dp4138
g74
(dp4139
sg83
g4133
sg76
(lp4140
g69
(g70
g71
NtRp4141
(dp4142
g74
(dp4143
g82
I1
ssg83
g4137
sg76
(lp4144
(lp4145
(g3908
(S's\n\x00\x00\x00Controller'
tRp4146
I00
S'/admin/default/edit/assignmen3/controllers/default.py'
tp4147
a(g3908
(S's\x04\x00\x00\x00View'
tRp4148
I00
S'/admin/default/edit/assignmen3/views/default/edit_news.html'
tp4149
a(g3908
(S's\x06\x00\x00\x00Layout'
tRp4150
I00
S'/admin/default/edit/assignmen3/views/layout.html'
tp4151
a(g3908
(S's\n\x00\x00\x00Stylesheet'
tRp4152
I00
S'/admin/default/edit/assignmen3/static/css/web2py.css'
tp4153
a(g3908
(S's\x08\x00\x00\x00DB Model'
tRp4154
I00
S'/admin/default/edit/assignmen3/models/db.py'
tp4155
a(g3908
(S's\n\x00\x00\x00Menu Model'
tRp4156
I00
S'/admin/default/edit/assignmen3/models/menu.py'
tp4157
a(g3908
(S's\x08\x00\x00\x00Database'
tRp4158
I00
S'/assignmen3/appadmin/index'
tp4159
a(g3908
(S's\x06\x00\x00\x00Errors'
tRp4160
I00
S'/admin/default/errors/assignmen3'
tp4161
a(g3908
(S's\x05\x00\x00\x00About'
tRp4162
I00
S'/admin/default/about/assignmen3'
tp4163
aasbasbasbasbasbasbasbag69
(g85
g71
NtRp4164
(dp4165
g74
(dp4166
sg83
g4021
sg76
(lp4167
g69
(g90
g71
NtRp4168
(dp4169
g74
(dp4170
sg83
g4164
sg76
(lp4171
g69
(g70
g71
NtRp4172
(dp4173
g74
(dp4174
g82
I2
ssg83
g4168
sg76
(lp4175
g69
(g78
g71
NtRp4176
(dp4177
g74
(dp4178
g82
I1
ssg83
Nsg76
(lp4179
g69
(g85
g71
NtRp4180
(dp4181
g74
(dp4182
sg83
g4176
sg76
(lp4183
g69
(g90
g71
NtRp4184
(dp4185
g74
(dp4186
sg83
g4180
sg76
(lp4187
g69
(g70
g71
NtRp4188
(dp4189
g74
(dp4190
g82
I1
ssg83
g4184
sg76
(lp4191
S'web2py.com'
p4192
asbasbasbag69
(g85
g71
NtRp4193
(dp4194
g74
(dp4195
sg83
g4176
sg76
(lp4196
g69
(g90
g71
NtRp4197
(dp4198
g74
(dp4199
sg83
g4193
sg76
(lp4200
g69
(g70
g71
NtRp4201
(dp4202
g74
(dp4203
g82
I1
ssg83
g4197
sg76
(lp4204
I00
asbasbasbag69
(g85
g71
NtRp4205
(dp4206
g74
(dp4207
sg83
g4176
sg76
(lp4208
g69
(g90
g71
NtRp4209
(dp4210
g74
(dp4211
sg83
g4205
sg76
(lp4212
g69
(g70
g71
NtRp4213
(dp4214
g74
(dp4215
g82
I1
ssg83
g4209
sg76
(lp4216
S'http://www.web2py.com'
p4217
asbasbasbag69
(g85
g71
NtRp4218
(dp4219
g74
(dp4220
sg83
g4176
sg76
(lp4221
g69
(g90
g71
NtRp4222
(dp4223
g74
(dp4224
sg83
g4218
sg76
(lp4225
g69
(g70
g71
NtRp4226
(dp4227
g74
(dp4228
g82
I1
ssg83
g4222
sg76
(lp4229
(lp4230
(g3908
(S's\x08\x00\x00\x00Download'
tRp4231
I00
S'http://www.web2py.com/examples/default/download'
p4232
tp4233
a(g3908
(S's\x07\x00\x00\x00Support'
tRp4234
I00
S'http://www.web2py.com/examples/default/support'
p4235
tp4236
a(g3908
(S's\x04\x00\x00\x00Demo'
tRp4237
I00
S'http://web2py.com/demo_admin'
p4238
tp4239
a(g3908
(S's\x0e\x00\x00\x00Quick Examples'
tRp4240
I00
S'http://web2py.com/examples/default/examples'
p4241
tp4242
a(g3908
(S's\x03\x00\x00\x00FAQ'
tRp4243
I00
S'http://web2py.com/AlterEgo'
p4244
tp4245
a(g3908
(S's\x06\x00\x00\x00Videos'
tRp4246
I00
S'http://www.web2py.com/examples/default/videos/'
p4247
tp4248
a(g3908
(S's\x11\x00\x00\x00Free Applications'
tRp4249
I00
S'http://web2py.com/appliances'
p4250
tp4251
a(g3908
(S's\x07\x00\x00\x00Plugins'
tRp4252
I00
S'http://web2py.com/plugins'
p4253
tp4254
a(g3908
(S's\x07\x00\x00\x00Layouts'
tRp4255
I00
S'http://web2py.com/layouts'
p4256
tp4257
a(g3908
(S's\x07\x00\x00\x00Recipes'
tRp4258
I00
S'http://web2pyslices.com/'
p4259
tp4260
a(g3908
(S's\x08\x00\x00\x00Semantic'
tRp4261
I00
S'http://web2py.com/semantic'
p4262
tp4263
aasbasbasbasbasbasbasbag69
(g85
g71
NtRp4264
(dp4265
g74
(dp4266
sg83
g4021
sg76
(lp4267
g69
(g90
g71
NtRp4268
(dp4269
g74
(dp4270
sg83
g4264
sg76
(lp4271
g69
(g70
g71
NtRp4272
(dp4273
g74
(dp4274
g82
I2
ssg83
g4268
sg76
(lp4275
g69
(g78
g71
NtRp4276
(dp4277
g74
(dp4278
g82
I1
ssg83
Nsg76
(lp4279
g69
(g85
g71
NtRp4280
(dp4281
g74
(dp4282
sg83
g4276
sg76
(lp4283
g69
(g90
g71
NtRp4284
(dp4285
g74
(dp4286
sg83
g4280
sg76
(lp4287
g69
(g70
g71
NtRp4288
(dp4289
g74
(dp4290
g82
I1
ssg83
g4284
sg76
(lp4291
g3908
(S's\r\x00\x00\x00Documentation'
tRp4292
asbasbasbag69
(g85
g71
NtRp4293
(dp4294
g74
(dp4295
sg83
g4276
sg76
(lp4296
g69
(g90
g71
NtRp4297
(dp4298
g74
(dp4299
sg83
g4293
sg76
(lp4300
g69
(g70
g71
NtRp4301
(dp4302
g74
(dp4303
g82
I1
ssg83
g4297
sg76
(lp4304
I00
asbasbasbag69
(g85
g71
NtRp4305
(dp4306
g74
(dp4307
sg83
g4276
sg76
(lp4308
g69
(g90
g71
NtRp4309
(dp4310
g74
(dp4311
sg83
g4305
sg76
(lp4312
g69
(g70
g71
NtRp4313
(dp4314
g74
(dp4315
g82
I1
ssg83
g4309
sg76
(lp4316
S'http://www.web2py.com/book'
p4317
asbasbasbag69
(g85
g71
NtRp4318
(dp4319
g74
(dp4320
sg83
g4276
sg76
(lp4321
g69
(g90
g71
NtRp4322
(dp4323
g74
(dp4324
sg83
g4318
sg76
(lp4325
g69
(g70
g71
NtRp4326
(dp4327
g74
(dp4328
g82
I1
ssg83
g4322
sg76
(lp4329
(lp4330
(g3908
(S's\x07\x00\x00\x00Preface'
tRp4331
I00
S'http://www.web2py.com/book/default/chapter/00'
p4332
tp4333
a(g3908
(S's\x0c\x00\x00\x00Introduction'
tRp4334
I00
S'http://www.web2py.com/book/default/chapter/01'
p4335
tp4336
a(g3908
(S's\x06\x00\x00\x00Python'
tRp4337
I00
S'http://www.web2py.com/book/default/chapter/02'
p4338
tp4339
a(g3908
(S's\x08\x00\x00\x00Overview'
tRp4340
I00
S'http://www.web2py.com/book/default/chapter/03'
p4341
tp4342
a(g3908
(S's\x08\x00\x00\x00The Core'
tRp4343
I00
S'http://www.web2py.com/book/default/chapter/04'
p4344
tp4345
a(g3908
(S's\t\x00\x00\x00The Views'
tRp4346
I00
S'http://www.web2py.com/book/default/chapter/05'
p4347
tp4348
a(g3908
(S's\x08\x00\x00\x00Database'
tRp4349
I00
S'http://www.web2py.com/book/default/chapter/06'
p4350
tp4351
a(g3908
(S's\x14\x00\x00\x00Forms and Validators'
tRp4352
I00
S'http://www.web2py.com/book/default/chapter/07'
p4353
tp4354
a(g3908
(S's\r\x00\x00\x00Email and SMS'
tRp4355
I00
S'http://www.web2py.com/book/default/chapter/08'
p4356
tp4357
a(g3908
(S's\x0e\x00\x00\x00Access Control'
tRp4358
I00
S'http://www.web2py.com/book/default/chapter/09'
p4359
tp4360
a(g3908
(S's\x08\x00\x00\x00Services'
tRp4361
I00
S'http://www.web2py.com/book/default/chapter/10'
p4362
tp4363
a(g3908
(S's\x0c\x00\x00\x00Ajax Recipes'
tRp4364
I00
S'http://www.web2py.com/book/default/chapter/11'
p4365
tp4366
a(g3908
(S's\x16\x00\x00\x00Components and Plugins'
tRp4367
I00
S'http://www.web2py.com/book/default/chapter/12'
p4368
tp4369
a(g3908
(S's\x12\x00\x00\x00Deployment Recipes'
tRp4370
I00
S'http://www.web2py.com/book/default/chapter/13'
p4371
tp4372
a(g3908
(S's\r\x00\x00\x00Other Recipes'
tRp4373
I00
S'http://www.web2py.com/book/default/chapter/14'
p4374
tp4375
a(g3908
(S's\r\x00\x00\x00Buy this book'
tRp4376
I00
S'http://stores.lulu.com/web2py'
p4377
tp4378
aasbasbasbasbasbasbasbag69
(g85
g71
NtRp4379
(dp4380
g74
(dp4381
sg83
g4021
sg76
(lp4382
g69
(g90
g71
NtRp4383
(dp4384
g74
(dp4385
sg83
g4379
sg76
(lp4386
g69
(g70
g71
NtRp4387
(dp4388
g74
(dp4389
g82
I2
ssg83
g4383
sg76
(lp4390
g69
(g78
g71
NtRp4391
(dp4392
g74
(dp4393
g82
I1
ssg83
Nsg76
(lp4394
g69
(g85
g71
NtRp4395
(dp4396
g74
(dp4397
sg83
g4391
sg76
(lp4398
g69
(g90
g71
NtRp4399
(dp4400
g74
(dp4401
sg83
g4395
sg76
(lp4402
g69
(g70
g71
NtRp4403
(dp4404
g74
(dp4405
g82
I1
ssg83
g4399
sg76
(lp4406
g3908
(S's\t\x00\x00\x00Community'
tRp4407
asbasbasbag69
(g85
g71
NtRp4408
(dp4409
g74
(dp4410
sg83
g4391
sg76
(lp4411
g69
(g90
g71
NtRp4412
(dp4413
g74
(dp4414
sg83
g4408
sg76
(lp4415
g69
(g70
g71
NtRp4416
(dp4417
g74
(dp4418
g82
I1
ssg83
g4412
sg76
(lp4419
I00
asbasbasbag69
(g85
g71
NtRp4420
(dp4421
g74
(dp4422
sg83
g4391
sg76
(lp4423
g69
(g90
g71
NtRp4424
(dp4425
g74
(dp4426
sg83
g4420
sg76
(lp4427
g69
(g70
g71
NtRp4428
(dp4429
g74
(dp4430
g82
I1
ssg83
g4424
sg76
(lp4431
Nasbasbasbag69
(g85
g71
NtRp4432
(dp4433
g74
(dp4434
sg83
g4391
sg76
(lp4435
g69
(g90
g71
NtRp4436
(dp4437
g74
(dp4438
sg83
g4432
sg76
(lp4439
g69
(g70
g71
NtRp4440
(dp4441
g74
(dp4442
g82
I1
ssg83
g4436
sg76
(lp4443
(lp4444
(g3908
(S's\x06\x00\x00\x00Groups'
tRp4445
I00
S'http://www.web2py.com/examples/default/usergroups'
p4446
tp4447
a(g3908
(S's\x07\x00\x00\x00Twitter'
tRp4448
I00
S'http://twitter.com/web2py'
p4449
tp4450
a(g3908
(S's\t\x00\x00\x00Live Chat'
tRp4451
I00
S'http://webchat.freenode.net/?channels=web2py'
p4452
tp4453
aasbasbasbasbasbasbasbag69
(g85
g71
NtRp4454
(dp4455
g74
(dp4456
sg83
g4021
sg76
(lp4457
g69
(g90
g71
NtRp4458
(dp4459
g74
(dp4460
sg83
g4454
sg76
(lp4461
g69
(g70
g71
NtRp4462
(dp4463
g74
(dp4464
g82
I2
ssg83
g4458
sg76
(lp4465
g69
(g78
g71
NtRp4466
(dp4467
g74
(dp4468
g82
I1
ssg83
Nsg76
(lp4469
g69
(g85
g71
NtRp4470
(dp4471
g74
(dp4472
sg83
g4466
sg76
(lp4473
g69
(g90
g71
NtRp4474
(dp4475
g74
(dp4476
sg83
g4470
sg76
(lp4477
g69
(g70
g71
NtRp4478
(dp4479
g74
(dp4480
g82
I1
ssg83
g4474
sg76
(lp4481
g3908
(S's\x07\x00\x00\x00Plugins'
tRp4482
asbasbasbag69
(g85
g71
NtRp4483
(dp4484
g74
(dp4485
sg83
g4466
sg76
(lp4486
g69
(g90
g71
NtRp4487
(dp4488
g74
(dp4489
sg83
g4483
sg76
(lp4490
g69
(g70
g71
NtRp4491
(dp4492
g74
(dp4493
g82
I1
ssg83
g4487
sg76
(lp4494
I00
asbasbasbag69
(g85
g71
NtRp4495
(dp4496
g74
(dp4497
sg83
g4466
sg76
(lp4498
g69
(g90
g71
NtRp4499
(dp4500
g74
(dp4501
sg83
g4495
sg76
(lp4502
g69
(g70
g71
NtRp4503
(dp4504
g74
(dp4505
g82
I1
ssg83
g4499
sg76
(lp4506
Nasbasbasbag69
(g85
g71
NtRp4507
(dp4508
g74
(dp4509
sg83
g4466
sg76
(lp4510
g69
(g90
g71
NtRp4511
(dp4512
g74
(dp4513
sg83
g4507
sg76
(lp4514
g69
(g70
g71
NtRp4515
(dp4516
g74
(dp4517
g82
I1
ssg83
g4511
sg76
(lp4518
(lp4519
(S'plugin_wiki'
p4520
I00
S'http://web2py.com/examples/default/download'
p4521
tp4522
a(g3908
(S's\r\x00\x00\x00Other Plugins'
tRp4523
I00
g4253
tp4524
a(g3908
(S's\x0e\x00\x00\x00Layout Plugins'
tRp4525
I00
g4256
tp4526
aasbasbasbasbasbasbasbasbasbasbasbasbasbasbasbasbasbasbasbag69
(g85
g71
NtRp4527
(dp4528
g74
(dp4529
sg83
g3374
sg76
(lp4530
g69
(g90
g71
NtRp4531
(dp4532
g74
(dp4533
g94
g95
ssg83
g4527
sg76
(lp4534
S'meta'
p4535
asbag69
(g90
g71
NtRp4536
(dp4537
g74
(dp4538
g101
g102
ssg83
g4527
sg76
(lp4539
S':'
asbag69
(g90
g71
NtRp4540
(dp4541
g74
(dp4542
sg83
g4527
sg76
(lp4543
g69
(g70
g71
NtRp4544
(dp4545
g74
(dp4546
g82
I5
ssg83
g4540
sg76
(lp4547
g69
(g78
g71
NtRp4548
(dp4549
g74
(dp4550
g82
I4
ssg83
Nsg76
(lp4551
g69
(g85
g71
NtRp4552
(dp4553
g74
(dp4554
sg83
g4548
sg76
(lp4555
g69
(g90
g71
NtRp4556
(dp4557
g74
(dp4558
g94
g95
ssg83
g4552
sg76
(lp4559
S'author'
p4560
asbag69
(g90
g71
NtRp4561
(dp4562
g74
(dp4563
g101
g102
ssg83
g4552
sg76
(lp4564
S':'
asbag69
(g90
g71
NtRp4565
(dp4566
g74
(dp4567
sg83
g4552
sg76
(lp4568
g69
(g70
g71
NtRp4569
(dp4570
g74
(dp4571
g82
I4
ssg83
g4565
sg76
(lp4572
S'Your Name <you@example.com>'
p4573
asbasbasbag69
(g85
g71
NtRp4574
(dp4575
g74
(dp4576
sg83
g4548
sg76
(lp4577
g69
(g90
g71
NtRp4578
(dp4579
g74
(dp4580
g94
g95
ssg83
g4574
sg76
(lp4581
S'description'
p4582
asbag69
(g90
g71
NtRp4583
(dp4584
g74
(dp4585
g101
g102
ssg83
g4574
sg76
(lp4586
S':'
asbag69
(g90
g71
NtRp4587
(dp4588
g74
(dp4589
sg83
g4574
sg76
(lp4590
g69
(g70
g71
NtRp4591
(dp4592
g74
(dp4593
g82
I4
ssg83
g4587
sg76
(lp4594
S'a cool new app'
p4595
asbasbasbag69
(g85
g71
NtRp4596
(dp4597
g74
(dp4598
sg83
g4548
sg76
(lp4599
g69
(g90
g71
NtRp4600
(dp4601
g74
(dp4602
g94
g95
ssg83
g4596
sg76
(lp4603
S'generator'
p4604
asbag69
(g90
g71
NtRp4605
(dp4606
g74
(dp4607
g101
g102
ssg83
g4596
sg76
(lp4608
S':'
asbag69
(g90
g71
NtRp4609
(dp4610
g74
(dp4611
sg83
g4596
sg76
(lp4612
g69
(g70
g71
NtRp4613
(dp4614
g74
(dp4615
g82
I4
ssg83
g4609
sg76
(lp4616
S'Web2py Web Framework'
p4617
asbasbasbag69
(g85
g71
NtRp4618
(dp4619
g74
(dp4620
sg83
g4548
sg76
(lp4621
g69
(g90
g71
NtRp4622
(dp4623
g74
(dp4624
g94
g95
ssg83
g4618
sg76
(lp4625
S'keywords'
p4626
asbag69
(g90
g71
NtRp4627
(dp4628
g74
(dp4629
g101
g102
ssg83
g4618
sg76
(lp4630
S':'
asbag69
(g90
g71
NtRp4631
(dp4632
g74
(dp4633
sg83
g4618
sg76
(lp4634
g69
(g70
g71
NtRp4635
(dp4636
g74
(dp4637
g82
I4
ssg83
g4631
sg76
(lp4638
S'web2py, python, framework'
p4639
asbasbasbasbasbasbasbag69
(g85
g71
NtRp4640
(dp4641
g74
(dp4642
sg83
g3374
sg76
(lp4643
g69
(g90
g71
NtRp4644
(dp4645
g74
(dp4646
g94
g95
ssg83
g4640
sg76
(lp4647
S'models_to_run'
p4648
asbag69
(g90
g71
NtRp4649
(dp4650
g74
(dp4651
g101
g102
ssg83
g4640
sg76
(lp4652
S':'
asbag69
(g90
g71
NtRp4653
(dp4654
g74
(dp4655
sg83
g4640
sg76
(lp4656
g69
(g70
g71
NtRp4657
(dp4658
g74
(dp4659
g82
I5
ssg83
g4653
sg76
(lp4660
g69
(g78
g71
NtRp4661
(dp4662
g74
(dp4663
g82
I4
ssg83
Nsg76
(lp4664
g69
(g85
g71
NtRp4665
(dp4666
g74
(dp4667
sg83
g4661
sg76
(lp4668
g69
(g90
g71
NtRp4669
(dp4670
g74
(dp4671
sg83
g4665
sg76
(lp4672
g69
(g70
g71
NtRp4673
(dp4674
g74
(dp4675
g82
I4
ssg83
g4669
sg76
(lp4676
S'^\\w+\\.py$'
p4677
asbasbasbag69
(g85
g71
NtRp4678
(dp4679
g74
(dp4680
sg83
g4661
sg76
(lp4681
g69
(g90
g71
NtRp4682
(dp4683
g74
(dp4684
sg83
g4678
sg76
(lp4685
g69
(g70
g71
NtRp4686
(dp4687
g74
(dp4688
g82
I4
ssg83
g4682
sg76
(lp4689
S'^default/\\w+\\.py$'
p4690
asbasbasbag69
(g85
g71
NtRp4691
(dp4692
g74
(dp4693
sg83
g4661
sg76
(lp4694
g69
(g90
g71
NtRp4695
(dp4696
g74
(dp4697
sg83
g4691
sg76
(lp4698
g69
(g70
g71
NtRp4699
(dp4700
g74
(dp4701
g82
I4
ssg83
g4695
sg76
(lp4702
S'^default/edit_news/\\w+\\.py$'
p4703
asbasbasbasbasbasbasbag69
(g85
g71
NtRp4704
(dp4705
g74
(dp4706
sg83
g3374
sg76
(lp4707
g69
(g90
g71
NtRp4708
(dp4709
g74
(dp4710
g94
g95
ssg83
g4704
sg76
(lp4711
S'postprocessing'
p4712
asbag69
(g90
g71
NtRp4713
(dp4714
g74
(dp4715
g101
g102
ssg83
g4704
sg76
(lp4716
S':'
asbag69
(g90
g71
NtRp4717
(dp4718
g74
(dp4719
sg83
g4704
sg76
(lp4720
g69
(g70
g71
NtRp4721
(dp4722
g74
(dp4723
g82
I5
ssg83
g4717
sg76
(lp4724
g69
(g78
g71
NtRp4725
(dp4726
g74
(dp4727
g82
I4
ssg83
Nsg76
(lp4728
sbasbasbasbag69
(g85
g71
NtRp4729
(dp4730
g74
(dp4731
sg83
g3374
sg76
(lp4732
g69
(g90
g71
NtRp4733
(dp4734
g74
(dp4735
g94
g95
ssg83
g4729
sg76
(lp4736
S'session_cookie_expires'
p4737
asbag69
(g90
g71
NtRp4738
(dp4739
g74
(dp4740
g101
g102
ssg83
g4729
sg76
(lp4741
S':'
asbag69
(g90
g71
NtRp4742
(dp4743
g74
(dp4744
sg83
g4729
sg76
(lp4745
g69
(g70
g71
NtRp4746
(dp4747
g74
(dp4748
g82
I5
ssg83
g4742
sg76
(lp4749
S'None'
p4750
asbasbasbag69
(g85
g71
NtRp4751
(dp4752
g74
(dp4753
sg83
g3374
sg76
(lp4754
g69
(g90
g71
NtRp4755
(dp4756
g74
(dp4757
g94
g95
ssg83
g4751
sg76
(lp4758
S'session_data_name'
p4759
asbag69
(g90
g71
NtRp4760
(dp4761
g74
(dp4762
g101
g102
ssg83
g4751
sg76
(lp4763
S':'
asbag69
(g90
g71
NtRp4764
(dp4765
g74
(dp4766
sg83
g4751
sg76
(lp4767
g69
(g70
g71
NtRp4768
(dp4769
g74
(dp4770
g82
I5
ssg83
g4764
sg76
(lp4771
S'session_data_assignmen3'
p4772
asbasbasbag69
(g85
g71
NtRp4773
(dp4774
g74
(dp4775
sg83
g3374
sg76
(lp4776
g69
(g90
g71
NtRp4777
(dp4778
g74
(dp4779
g94
g95
ssg83
g4773
sg76
(lp4780
S'session_file'
p4781
asbag69
(g90
g71
NtRp4782
(dp4783
g74
(dp4784
g101
g102
ssg83
g4773
sg76
(lp4785
S':'
asbag69
(g90
g71
NtRp4786
(dp4787
g74
(dp4788
sg83
g4773
sg76
(lp4789
g69
(g70
g71
NtRp4790
(dp4791
g74
(dp4792
g82
I5
ssg83
g4786
sg76
(lp4793
S"<open file '/home/umang/web2py/applications/assignmen3/sessions/127.0.0.1-f78a0883-b419-4f1b-8802-d13ae89341f4', mode 'rb+' at 0x7f95140f3f60>"
p4794
asbasbasbag69
(g85
g71
NtRp4795
(dp4796
g74
(dp4797
sg83
g3374
sg76
(lp4798
g69
(g90
g71
NtRp4799
(dp4800
g74
(dp4801
g94
g95
ssg83
g4795
sg76
(lp4802
S'session_filename'
p4803
asbag69
(g90
g71
NtRp4804
(dp4805
g74
(dp4806
g101
g102
ssg83
g4795
sg76
(lp4807
S':'
asbag69
(g90
g71
NtRp4808
(dp4809
g74
(dp4810
sg83
g4795
sg76
(lp4811
g69
(g70
g71
NtRp4812
(dp4813
g74
(dp4814
g82
I5
ssg83
g4808
sg76
(lp4815
S'/home/umang/web2py/applications/assignmen3/sessions/127.0.0.1-f78a0883-b419-4f1b-8802-d13ae89341f4'
p4816
asbasbasbag69
(g85
g71
NtRp4817
(dp4818
g74
(dp4819
sg83
g3374
sg76
(lp4820
g69
(g90
g71
NtRp4821
(dp4822
g74
(dp4823
g94
g95
ssg83
g4817
sg76
(lp4824
S'session_id'
p4825
asbag69
(g90
g71
NtRp4826
(dp4827
g74
(dp4828
g101
g102
ssg83
g4817
sg76
(lp4829
S':'
asbag69
(g90
g71
NtRp4830
(dp4831
g74
(dp4832
sg83
g4817
sg76
(lp4833
g69
(g70
g71
NtRp4834
(dp4835
g74
(dp4836
g82
I5
ssg83
g4830
sg76
(lp4837
g511
asbasbasbag69
(g85
g71
NtRp4838
(dp4839
g74
(dp4840
sg83
g3374
sg76
(lp4841
g69
(g90
g71
NtRp4842
(dp4843
g74
(dp4844
g94
g95
ssg83
g4838
sg76
(lp4845
S'session_id_name'
p4846
asbag69
(g90
g71
NtRp4847
(dp4848
g74
(dp4849
g101
g102
ssg83
g4838
sg76
(lp4850
S':'
asbag69
(g90
g71
NtRp4851
(dp4852
g74
(dp4853
sg83
g4838
sg76
(lp4854
g69
(g70
g71
NtRp4855
(dp4856
g74
(dp4857
g82
I5
ssg83
g4851
sg76
(lp4858
g3431
asbasbasbag69
(g85
g71
NtRp4859
(dp4860
g74
(dp4861
sg83
g3374
sg76
(lp4862
g69
(g90
g71
NtRp4863
(dp4864
g74
(dp4865
g94
g95
ssg83
g4859
sg76
(lp4866
S'session_locked'
p4867
asbag69
(g90
g71
NtRp4868
(dp4869
g74
(dp4870
g101
g102
ssg83
g4859
sg76
(lp4871
S':'
asbag69
(g90
g71
NtRp4872
(dp4873
g74
(dp4874
sg83
g4859
sg76
(lp4875
g69
(g70
g71
NtRp4876
(dp4877
g74
(dp4878
g82
I5
ssg83
g4872
sg76
(lp4879
g1805
asbasbasbag69
(g85
g71
NtRp4880
(dp4881
g74
(dp4882
sg83
g3374
sg76
(lp4883
g69
(g90
g71
NtRp4884
(dp4885
g74
(dp4886
g94
g95
ssg83
g4880
sg76
(lp4887
S'session_new'
p4888
asbag69
(g90
g71
NtRp4889
(dp4890
g74
(dp4891
g101
g102
ssg83
g4880
sg76
(lp4892
S':'
asbag69
(g90
g71
NtRp4893
(dp4894
g74
(dp4895
sg83
g4880
sg76
(lp4896
g69
(g70
g71
NtRp4897
(dp4898
g74
(dp4899
g82
I5
ssg83
g4893
sg76
(lp4900
g112
asbasbasbag69
(g85
g71
NtRp4901
(dp4902
g74
(dp4903
sg83
g3374
sg76
(lp4904
g69
(g90
g71
NtRp4905
(dp4906
g74
(dp4907
g94
g95
ssg83
g4901
sg76
(lp4908
S'session_storage_type'
p4909
asbag69
(g90
g71
NtRp4910
(dp4911
g74
(dp4912
g101
g102
ssg83
g4901
sg76
(lp4913
S':'
asbag69
(g90
g71
NtRp4914
(dp4915
g74
(dp4916
sg83
g4901
sg76
(lp4917
g69
(g70
g71
NtRp4918
(dp4919
g74
(dp4920
g82
I5
ssg83
g4914
sg76
(lp4921
g3237
asbasbasbag69
(g85
g71
NtRp4922
(dp4923
g74
(dp4924
sg83
g3374
sg76
(lp4925
g69
(g90
g71
NtRp4926
(dp4927
g74
(dp4928
g94
g95
ssg83
g4922
sg76
(lp4929
S'status'
p4930
asbag69
(g90
g71
NtRp4931
(dp4932
g74
(dp4933
g101
g102
ssg83
g4922
sg76
(lp4934
S':'
asbag69
(g90
g71
NtRp4935
(dp4936
g74
(dp4937
sg83
g4922
sg76
(lp4938
g69
(g70
g71
NtRp4939
(dp4940
g74
(dp4941
g82
I5
ssg83
g4935
sg76
(lp4942
S'200'
p4943
asbasbasbag69
(g85
g71
NtRp4944
(dp4945
g74
(dp4946
sg83
g3374
sg76
(lp4947
g69
(g90
g71
NtRp4948
(dp4949
g74
(dp4950
g94
g95
ssg83
g4944
sg76
(lp4951
S'subtitle'
p4952
asbag69
(g90
g71
NtRp4953
(dp4954
g74
(dp4955
g101
g102
ssg83
g4944
sg76
(lp4956
S':'
asbag69
(g90
g71
NtRp4957
(dp4958
g74
(dp4959
sg83
g4944
sg76
(lp4960
g69
(g70
g71
NtRp4961
(dp4962
g74
(dp4963
g82
I5
ssg83
g4957
sg76
(lp4964
g3908
(S's\r\x00\x00\x00customize me!'
tRp4965
asbasbasbag69
(g85
g71
NtRp4966
(dp4967
g74
(dp4968
sg83
g3374
sg76
(lp4969
g69
(g90
g71
NtRp4970
(dp4971
g74
(dp4972
g94
g95
ssg83
g4966
sg76
(lp4973
S'title'
p4974
asbag69
(g90
g71
NtRp4975
(dp4976
g74
(dp4977
g101
g102
ssg83
g4966
sg76
(lp4978
S':'
asbag69
(g90
g71
NtRp4979
(dp4980
g74
(dp4981
sg83
g4966
sg76
(lp4982
g69
(g70
g71
NtRp4983
(dp4984
g74
(dp4985
g82
I5
ssg83
g4979
sg76
(lp4986
S'Assignmen3'
p4987
asbasbasbag69
(g85
g71
NtRp4988
(dp4989
g74
(dp4990
sg83
g3374
sg76
(lp4991
g69
(g90
g71
NtRp4992
(dp4993
g74
(dp4994
g94
g95
ssg83
g4988
sg76
(lp4995
S'view'
p4996
asbag69
(g90
g71
NtRp4997
(dp4998
g74
(dp4999
g101
g102
ssg83
g4988
sg76
(lp5000
S':'
asbag69
(g90
g71
NtRp5001
(dp5002
g74
(dp5003
sg83
g4988
sg76
(lp5004
g69
(g70
g71
NtRp5005
(dp5006
g74
(dp5007
g82
I5
ssg83
g5001
sg76
(lp5008
S'default/edit_news.html'
p5009
asbasbasbasbasbsS'locals'
p5010
(dp5011
g4
S"'/home/umang/web2py/applications/assignmen3/controllers/default.py'"
p5012
sg6
S"'# -*- coding: utf-8 -*-\\n# this file is released ...d())\\n\\nresponse._vars=response._caller(edit_news)\\n'"
p5013
sssS'traceback'
p5014
S'Traceback (most recent call last):\n  File "/home/umang/web2py/gluon/restricted.py", line 211, in restricted\n    ccode = compile2(code, layer)\n  File "/home/umang/web2py/gluon/restricted.py", line 194, in compile2\n    return compile(code.rstrip().replace(\'\\r\\n\', \'\\n\') + \'\\n\', layer, \'exec\')\n  File "/home/umang/web2py/applications/assignmen3/controllers/default.py", line 45\n    disp=db(db.news.category_id==query).select(db.news.heading,db.news.url,db.news.rating,db.news.ntype,db.news.id db.news.pres_time,orderby=db.news.rating)\n                                                                                                                    ^\nSyntaxError: invalid syntax\n'
p5015
s.