(dp1
S'output'
p2
S"<type 'exceptions.SyntaxError'> invalid syntax (like.html, line 85)"
p3
sS'layer'
p4
S'/home/umang/web2py/applications/assignmen3/views/default/like.html'
p5
sS'code'
p6
S'response.write(\'<!DOCTYPE html>\\n<!-- paulirish.com/2008/conditional-stylesheets-vs-css-hacks-answer-neither/ -->\\n<!--[if lt IE 7]><html class="ie ie6 ie-lte9 ie-lte8 ie-lte7 no-js" lang="\', escape=False)\nresponse.write(T.accepted_language or \'en\')\nresponse.write(\'"> <![endif]-->\\n<!--[if IE 7]><html class="ie ie7 ie-lte9 ie-lte8 ie-lte7 no-js" lang="\', escape=False)\nresponse.write(T.accepted_language or \'en\')\nresponse.write(\'"> <![endif]-->\\n<!--[if IE 8]><html class="ie ie8 ie-lte9 ie-lte8 no-js" lang="\', escape=False)\nresponse.write(T.accepted_language or \'en\')\nresponse.write(\'"> <![endif]-->\\n<!--[if IE 9]><html class="ie9 ie-lte9 no-js" lang="\', escape=False)\nresponse.write(T.accepted_language or \'en\')\nresponse.write(\'"> <![endif]-->\\n<!--[if (gt IE 9)|!(IE)]><!--> <html class="no-js" lang="\', escape=False)\nresponse.write(T.accepted_language or \'en\')\nresponse.write(\'"> <!--<![endif]-->\\n<head>\\n  <meta charset="utf-8" />\\n  <!-- www.phpied.com/conditional-comments-block-downloads/ -->\\n  <!-- Always force latest IE rendering engine\\n       (even in intranet) & Chrome Frame\\n       Remove this if you use the .htaccess -->\\n  <!--[if IE]>\\n      <meta http-equiv="X-UA-Compatible" content="IE=edge\', escape=False)\nresponse.write(not request.is_local and \',chrome=1\' or \'\')\nresponse.write(\'">\\n      <![endif]-->\\n\\n  <title>\', escape=False)\nresponse.write(response.title or request.application)\nresponse.write(\'</title>\\n\\n  <!-- http://dev.w3.org/html5/markup/meta.name.html -->\\n  <meta name="application-name" content="\', escape=False)\nresponse.write(request.application)\nresponse.write(\'" />\\n\\n  <!-- Speaking of Google, don\\\'t forget to set your site up:\\n       http://google.com/webmasters -->\\n  <meta name="google-site-verification" content="" />\\n\\n  <!--  Mobile Viewport Fix\\n        j.mp/mobileviewport & davidbcalhoun.com/2010/viewport-metatag\\n        device-width: Occupy full width of the screen in its current orientation\\n        initial-scale = 1.0 retains dimensions instead of zooming out if page height > device height\\n        user-scalable = yes allows the user to zoom in -->\\n  <meta name="viewport" content="width=device-width, initial-scale=1.0" />\\n\\n  <link rel="shortcut icon" href="\', escape=False)\nresponse.write(URL(\'static\',\'images/favicon.ico\'))\nresponse.write(\'" type="image/x-icon">\\n  <link rel="apple-touch-icon" href="\', escape=False)\nresponse.write(URL(\'static\',\'images/favicon.png\'))\nresponse.write(\'">\\n\\n  <!-- All JavaScript at the bottom, except for Modernizr which enables\\n       HTML5 elements & feature detects -->\\n  <script src="\', escape=False)\nresponse.write(URL(\'static\',\'js/modernizr.custom.js\'))\nresponse.write(\'"></script>\\n\\n  <!-- include stylesheets -->\\n  \', escape=False)\nresponse.files.append(URL(\'static\',\'css/web2py.css\'))\nresponse.files.append(URL(\'static\',\'css/bootstrap.min.css\'))\nresponse.files.append(URL(\'static\',\'css/bootstrap-responsive.min.css\'))\nresponse.files.append(URL(\'static\',\'css/web2py_bootstrap.css\'))\nresponse.write(\'\\n\\n  \', escape=False)\nresponse.write(\'<script type="text/javascript"><!--\\n    // These variables are used by the web2py_ajax_init function in web2py_ajax.js (which is loaded below).\\n    var w2p_ajax_confirm_message = "\', escape=False)\nresponse.write(T(\'Are you sure you want to delete this object?\'))\nresponse.write(\'";\\n    var w2p_ajax_date_format = "\', escape=False)\nresponse.write(T(\'%Y-%m-%d\'))\nresponse.write(\'";\\n    var w2p_ajax_datetime_format = "\', escape=False)\nresponse.write(T(\'%Y-%m-%d %H:%M:%S\'))\nresponse.write(\'";\\n    //--></script>\\n\', escape=False)\nresponse.files.insert(0,URL(\'static\',\'js/jquery.js\'))\nresponse.files.insert(1,URL(\'static\',\'css/calendar.css\'))\nresponse.files.insert(2,URL(\'static\',\'js/calendar.js\'))\nresponse.files.insert(3,URL(\'static\',\'js/web2py.js\'))\nresponse.include_meta()\nresponse.include_files()\nresponse.write(\'\\n\', escape=False)\nresponse.write(\'\\n\\n  \', escape=False)\n# using sidebars need to know what sidebar you want to use\nleft_sidebar_enabled = globals().get(\'left_sidebar_enabled\',False)\nright_sidebar_enabled = globals().get(\'right_sidebar_enabled\',False)\nmiddle_columns = {0:\'span12\',1:\'span9\',2:\'span6\'}[\n(left_sidebar_enabled and 1 or 0)+(right_sidebar_enabled and 1 or 0)]\nresponse.write(\'\\n\\n  <!-- uncomment here to load jquery-ui\\n       <link rel="stylesheet" href="http://ajax.googleapis.com/ajax/libs/jqueryui/1.8.16/themes/base/jquery-ui.css" type="text/css" media="all" />\\n       <script src="http://ajax.googleapis.com/ajax/libs/jqueryui/1.8.16/jquery-ui.min.js" type="text/javascript"></script>\\n       uncomment to load jquery-ui //-->\\n  <noscript><link href="\', escape=False)\nresponse.write(URL(\'static\', \'css/web2py_bootstrap_nojs.css\'))\nresponse.write(\'" rel="stylesheet" type="text/css" /></noscript>\\n  \', escape=False)\nresponse.write(\'\\n</head>\\n\\n<body>\\n  <!-- Navbar ================================================== -->\\n  <div class="navbar navbar-inverse navbar-fixed-top">\\n    <div class="flash">\', escape=False)\nresponse.write(response.flash or \'\')\nresponse.write(\'</div>\\n    <div class="navbar-inner">\\n      <div class="container">\\n        <!-- the next tag is necessary for bootstrap menus, do not remove -->\\n        <button type="button" class="btn btn-navbar" data-toggle="collapse" data-target=".nav-collapse">\\n          <span class="icon-bar"></span>\\n          <span class="icon-bar"></span>\\n          <span class="icon-bar"></span>\\n        </button>\\n\\t\', escape=False)\nresponse.write(response.logo or \'\')\nresponse.write(\'\\n        <ul id="navbar" class="nav pull-right">\', escape=False)\nresponse.write(\'auth\' in globals() and auth.navbar(mode="dropdown") or \'\')\nresponse.write(\'</ul>\\n        <div class="nav-collapse">\\n          \', escape=False)\nis_mobile=request.user_agent().is_mobile\nresponse.write(\'\\n          \', escape=False)\nif response.menu:\n    response.write(\'\\n          \', escape=False)\n    response.write(MENU(response.menu, _class=\'mobile-menu nav\' if is_mobile else \'nav\',mobile=is_mobile,li_class=\'dropdown\',ul_class=\'dropdown-menu\'))\n    response.write(\'\\n          \', escape=False)\n    pass\nresponse.write(\'\\n        </div><!--/.nav-collapse -->\\n      </div>\\n    </div>\\n  </div><!--/top navbar -->\\n\\n  <div class="container">\\n    <!-- Masthead ================================================== -->\\n    <header class="mastheader row" id="header">\\n        <div class="span12">\\n            <div class="page-header">\\n                <h1>\\n                    \', escape=False)\nresponse.write(response.title or request.application)\nresponse.write(\'\\n                    <small>\', escape=False)\nresponse.write(response.subtitle or \'\')\nresponse.write(\'</small>\\n                </h1>\\n            </div>\\n        </div>\\n    </header>\\n\\n    <section id="main" class="main row">\\n        \', escape=False)\nif left_sidebar_enabled:\n    response.write(\'\\n        <div class="span3 left-sidebar">\\n            \', escape=False)\n    response.write(\'\\n            <h3>Left Sidebar</h3>\\n            <p></p>\\n            \', escape=False)\n    response.write(\'\\n        </div>\\n        \', escape=False)\n    pass\nresponse.write(\'\\n\\n        <div class="\', escape=False)\nresponse.write(middle_columns)\nresponse.write(\'">\\n            \', escape=False)\nresponse.write(\'\\n            \', escape=False)\nresponse.write(\'\\n\', escape=False)\nresponse.write(len(query))\nresponse.write(\'\\n\', escape=False)\nresponse.write(flag)\nresponse.write(\'\\n\', escape=False)\nif len(query)>0\nresponse.write(\'\\n\', escape=False)\nresponse.write(query[0].liked)\nresponse.write(\'\\n\', escape=False)\npass\nresponse.write(\'\\n\', escape=False)\nresponse.write(\'\\n            \', escape=False)\nresponse.write(\'\\n        </div>\\n\\n        \', escape=False)\nif right_sidebar_enabled:\n    response.write(\'\\n        <div class="span3">\\n            \', escape=False)\n    response.write(\'\\n            <h3>Right Sidebar</h3>\\n            <p></p>\\n            \', escape=False)\n    response.write(\'\\n        </div>\\n        \', escape=False)\n    pass\nresponse.write(\'\\n    </section><!--/main-->\\n\\n    <!-- Footer ================================================== -->\\n    <div class="row">\\n        <footer class="footer span12" id="footer">\\n            <div class="footer-content">\\n                \', escape=False)\nresponse.write(\' <!-- this is default footer -->\\n                <div class="copyright pull-left">\', escape=False)\nresponse.write(T(\'Copyright\'))\nresponse.write(\' &#169; \', escape=False)\nresponse.write(request.now.year)\nresponse.write(\'</div>\\n                <div id="poweredBy" class="pull-right">\\n                    \', escape=False)\nresponse.write(T(\'Powered by\'))\nresponse.write(\'\\n                    <a href="http://www.web2py.com/">web2py</a>\\n                </div>\\n                \', escape=False)\nresponse.write(\'\\n            </div>\\n        </footer>\\n    </div>\\n\\n  </div> <!-- /container -->\\n\\n  <!-- The javascript =============================================\\n       (Placed at the end of the document so the pages load faster) -->\\n  <script src="\', escape=False)\nresponse.write(URL(\'static\',\'js/bootstrap.min.js\'))\nresponse.write(\'"></script>\\n  <script src="\', escape=False)\nresponse.write(URL(\'static\',\'js/web2py_bootstrap.js\'))\nresponse.write(\'"></script>\\n  <!--[if lt IE 7 ]>\\n      <script src="\', escape=False)\nresponse.write(URL(\'static\',\'js/dd_belatedpng.js\'))\nresponse.write(\'"></script>\\n      <script> DD_belatedPNG.fix(\\\'img, .png_bg\\\'); //fix any <img> or .png_bg background-images </script>\\n      <![endif]-->\\n  \\n  \', escape=False)\nif response.google_analytics_id:\n    response.write(\'\\n  <script src="\', escape=False)\n    response.write(URL(\'static\',\'js/analytics.js\'))\n    response.write(\'"></script>\\n  <script type="text/javascript">\\n  analytics.initialize({\\n    \\\'Google Analytics\\\':{trackingId:\\\'\', escape=False)\n    response.write(response.google_analytics_id)\n    response.write("\'} \\n  });</script>\\n  ", escape=False)\n    pass\nresponse.write(\'\\n  <script src="\', escape=False)\nresponse.write(URL(\'static\',\'js/share.js\',vars=dict(static=URL(\'static\',\'images\'))))\nresponse.write(\'"></script>\\n</body>\\n</html>\\n\\n\', escape=False)'
p7
sS'snapshot'
p8
(dp9
S'exception'
p10
(dp11
S'__getslice__'
p12
S"<method-wrapper '__getslice__' of exceptions.SyntaxError object>"
p13
sS'text'
p14
S"'if len(query)>0\\n'"
p15
sS'__str__'
p16
S"<method-wrapper '__str__' of exceptions.SyntaxError object>"
p17
sS'__reduce__'
p18
S'<built-in method __reduce__ of exceptions.SyntaxError object>'
p19
sS'__dict__'
p20
S'{}'
p21
sS'__sizeof__'
p22
S'<built-in method __sizeof__ of exceptions.SyntaxError object>'
p23
sS'__init__'
p24
S"<method-wrapper '__init__' of exceptions.SyntaxError object>"
p25
sS'__setattr__'
p26
S"<method-wrapper '__setattr__' of exceptions.SyntaxError object>"
p27
sS'__reduce_ex__'
p28
S'<built-in method __reduce_ex__ of exceptions.SyntaxError object>'
p29
sS'__new__'
p30
S'<built-in method __new__ of type object>'
p31
sS'__format__'
p32
S'<built-in method __format__ of exceptions.SyntaxError object>'
p33
sS'__class__'
p34
S"<type 'exceptions.SyntaxError'>"
p35
sS'filename'
p36
S"'/home/umang/web2py/applications/assignmen3/views/default/like.html'"
p37
sS'lineno'
p38
S'85'
p39
sS'msg'
p40
S"'invalid syntax'"
p41
sS'__doc__'
p42
S"'Invalid syntax.'"
p43
sS'__getitem__'
p44
S"<method-wrapper '__getitem__' of exceptions.SyntaxError object>"
p45
sS'__setstate__'
p46
S'<built-in method __setstate__ of exceptions.SyntaxError object>'
p47
sS'__getattribute__'
p48
S"<method-wrapper '__getattribute__' of exceptions.SyntaxError object>"
p49
sS'print_file_and_line'
p50
S'None'
p51
sS'args'
p52
S"('invalid syntax', ('/home/umang/web2py/applications/assignmen3/views/default/like.html', 85, 16, 'if len(query)>0\\n'))"
p53
sS'__subclasshook__'
p54
S'<built-in method __subclasshook__ of type object>'
p55
sS'offset'
p56
S'16'
p57
sS'__unicode__'
p58
S'<built-in method __unicode__ of exceptions.SyntaxError object>'
p59
sS'__delattr__'
p60
S"<method-wrapper '__delattr__' of exceptions.SyntaxError object>"
p61
sS'__repr__'
p62
S"<method-wrapper '__repr__' of exceptions.SyntaxError object>"
p63
sS'__hash__'
p64
S"<method-wrapper '__hash__' of exceptions.SyntaxError object>"
p65
ssS'evalue'
p66
S'invalid syntax (like.html, line 85)'
p67
sS'request'
p68
ccopy_reg
_reconstructor
p69
(cgluon.html
BEAUTIFY
p70
c__builtin__
object
p71
NtRp72
(dp73
S'attributes'
p74
(dp75
sS'components'
p76
(lp77
g69
(cgluon.html
TABLE
p78
g71
NtRp79
(dp80
g74
(dp81
S'level'
p82
I5
ssS'parent'
p83
Nsg76
(lp84
g69
(cgluon.html
TR
p85
g71
NtRp86
(dp87
g74
(dp88
sg83
g79
sg76
(lp89
g69
(cgluon.html
TD
p90
g71
NtRp91
(dp92
g74
(dp93
S'_style'
p94
S'font-weight:bold;vertical-align:top'
p95
ssg83
g86
sg76
(lp96
S'ajax'
p97
asbag69
(g90
g71
NtRp98
(dp99
g74
(dp100
S'_valign'
p101
S'top'
p102
ssg83
g86
sg76
(lp103
S':'
asbag69
(g90
g71
NtRp104
(dp105
g74
(dp106
sg83
g86
sg76
(lp107
g69
(g70
g71
NtRp108
(dp109
g74
(dp110
g82
I5
ssg83
g104
sg76
(lp111
S'False'
p112
asbasbasbag69
(g85
g71
NtRp113
(dp114
g74
(dp115
sg83
g79
sg76
(lp116
g69
(g90
g71
NtRp117
(dp118
g74
(dp119
g94
g95
ssg83
g113
sg76
(lp120
S'application'
p121
asbag69
(g90
g71
NtRp122
(dp123
g74
(dp124
g101
g102
ssg83
g113
sg76
(lp125
S':'
asbag69
(g90
g71
NtRp126
(dp127
g74
(dp128
sg83
g113
sg76
(lp129
g69
(g70
g71
NtRp130
(dp131
g74
(dp132
g82
I5
ssg83
g126
sg76
(lp133
S'assignmen3'
p134
asbasbasbag69
(g85
g71
NtRp135
(dp136
g74
(dp137
sg83
g79
sg76
(lp138
g69
(g90
g71
NtRp139
(dp140
g74
(dp141
g94
g95
ssg83
g135
sg76
(lp142
g52
asbag69
(g90
g71
NtRp143
(dp144
g74
(dp145
g101
g102
ssg83
g135
sg76
(lp146
S':'
asbag69
(g90
g71
NtRp147
(dp148
g74
(dp149
sg83
g135
sg76
(lp150
g69
(g70
g71
NtRp151
(dp152
g74
(dp153
g82
I5
ssg83
g147
sg76
(lp154
g69
(g78
g71
NtRp155
(dp156
g74
(dp157
g82
I4
ssg83
Nsg76
(lp158
g69
(g85
g71
NtRp159
(dp160
g74
(dp161
sg83
g155
sg76
(lp162
g69
(g90
g71
NtRp163
(dp164
g74
(dp165
sg83
g159
sg76
(lp166
g69
(g70
g71
NtRp167
(dp168
g74
(dp169
g82
I4
ssg83
g163
sg76
(lp170
S'3'
asbasbasbag69
(g85
g71
NtRp171
(dp172
g74
(dp173
sg83
g155
sg76
(lp174
g69
(g90
g71
NtRp175
(dp176
g74
(dp177
sg83
g171
sg76
(lp178
g69
(g70
g71
NtRp179
(dp180
g74
(dp181
g82
I4
ssg83
g175
sg76
(lp182
S'2'
asbasbasbasbasbasbasbag69
(g85
g71
NtRp183
(dp184
g74
(dp185
sg83
g79
sg76
(lp186
g69
(g90
g71
NtRp187
(dp188
g74
(dp189
g94
g95
ssg83
g183
sg76
(lp190
S'body'
p191
asbag69
(g90
g71
NtRp192
(dp193
g74
(dp194
g101
g102
ssg83
g183
sg76
(lp195
S':'
asbag69
(g90
g71
NtRp196
(dp197
g74
(dp198
sg83
g183
sg76
(lp199
g69
(g70
g71
NtRp200
(dp201
g74
(dp202
g82
I5
ssg83
g196
sg76
(lp203
S'<cStringIO.StringO object at 0x1a01618>'
p204
asbasbasbag69
(g85
g71
NtRp205
(dp206
g74
(dp207
sg83
g79
sg76
(lp208
g69
(g90
g71
NtRp209
(dp210
g74
(dp211
g94
g95
ssg83
g205
sg76
(lp212
S'cid'
p213
asbag69
(g90
g71
NtRp214
(dp215
g74
(dp216
g101
g102
ssg83
g205
sg76
(lp217
S':'
asbag69
(g90
g71
NtRp218
(dp219
g74
(dp220
sg83
g205
sg76
(lp221
g69
(g70
g71
NtRp222
(dp223
g74
(dp224
g82
I5
ssg83
g218
sg76
(lp225
S'None'
p226
asbasbasbag69
(g85
g71
NtRp227
(dp228
g74
(dp229
sg83
g79
sg76
(lp230
g69
(g90
g71
NtRp231
(dp232
g74
(dp233
g94
g95
ssg83
g227
sg76
(lp234
S'client'
p235
asbag69
(g90
g71
NtRp236
(dp237
g74
(dp238
g101
g102
ssg83
g227
sg76
(lp239
S':'
asbag69
(g90
g71
NtRp240
(dp241
g74
(dp242
sg83
g227
sg76
(lp243
g69
(g70
g71
NtRp244
(dp245
g74
(dp246
g82
I5
ssg83
g240
sg76
(lp247
S'127.0.0.1'
p248
asbasbasbag69
(g85
g71
NtRp249
(dp250
g74
(dp251
sg83
g79
sg76
(lp252
g69
(g90
g71
NtRp253
(dp254
g74
(dp255
g94
g95
ssg83
g249
sg76
(lp256
S'controller'
p257
asbag69
(g90
g71
NtRp258
(dp259
g74
(dp260
g101
g102
ssg83
g249
sg76
(lp261
S':'
asbag69
(g90
g71
NtRp262
(dp263
g74
(dp264
sg83
g249
sg76
(lp265
g69
(g70
g71
NtRp266
(dp267
g74
(dp268
g82
I5
ssg83
g262
sg76
(lp269
S'default'
p270
asbasbasbag69
(g85
g71
NtRp271
(dp272
g74
(dp273
sg83
g79
sg76
(lp274
g69
(g90
g71
NtRp275
(dp276
g74
(dp277
g94
g95
ssg83
g271
sg76
(lp278
S'cookies'
p279
asbag69
(g90
g71
NtRp280
(dp281
g74
(dp282
g101
g102
ssg83
g271
sg76
(lp283
S':'
asbag69
(g90
g71
NtRp284
(dp285
g74
(dp286
sg83
g271
sg76
(lp287
g69
(g70
g71
NtRp288
(dp289
g74
(dp290
g82
I5
ssg83
g284
sg76
(lp291
g69
(g78
g71
NtRp292
(dp293
g74
(dp294
g82
I4
ssg83
Nsg76
(lp295
g69
(g85
g71
NtRp296
(dp297
g74
(dp298
sg83
g292
sg76
(lp299
g69
(g90
g71
NtRp300
(dp301
g74
(dp302
g94
g95
ssg83
g296
sg76
(lp303
S'session_id_admin'
p304
asbag69
(g90
g71
NtRp305
(dp306
g74
(dp307
g101
g102
ssg83
g296
sg76
(lp308
S':'
asbag69
(g90
g71
NtRp309
(dp310
g74
(dp311
sg83
g296
sg76
(lp312
g69
(g70
g71
NtRp313
(dp314
g74
(dp315
g82
I4
ssg83
g309
sg76
(lp316
S'127.0.0.1-d509f0cc-4c80-4380-be27-aebf7c06a1e6'
p317
ag69
(g78
g71
NtRp318
(dp319
g74
(dp320
g82
I3
ssg83
Nsg76
(lp321
g69
(g85
g71
NtRp322
(dp323
g74
(dp324
sg83
g318
sg76
(lp325
g69
(g90
g71
NtRp326
(dp327
g74
(dp328
g94
g95
ssg83
g322
sg76
(lp329
S'comment'
p330
asbag69
(g90
g71
NtRp331
(dp332
g74
(dp333
g101
g102
ssg83
g322
sg76
(lp334
S':'
asbag69
(g90
g71
NtRp335
(dp336
g74
(dp337
sg83
g322
sg76
(lp338
g69
(g70
g71
NtRp339
(dp340
g74
(dp341
g82
I3
ssg83
g335
sg76
(lp342
S''
asbasbasbag69
(g85
g71
NtRp343
(dp344
g74
(dp345
sg83
g318
sg76
(lp346
g69
(g90
g71
NtRp347
(dp348
g74
(dp349
g94
g95
ssg83
g343
sg76
(lp350
S'domain'
p351
asbag69
(g90
g71
NtRp352
(dp353
g74
(dp354
g101
g102
ssg83
g343
sg76
(lp355
S':'
asbag69
(g90
g71
NtRp356
(dp357
g74
(dp358
sg83
g343
sg76
(lp359
g69
(g70
g71
NtRp360
(dp361
g74
(dp362
g82
I3
ssg83
g356
sg76
(lp363
S''
asbasbasbag69
(g85
g71
NtRp364
(dp365
g74
(dp366
sg83
g318
sg76
(lp367
g69
(g90
g71
NtRp368
(dp369
g74
(dp370
g94
g95
ssg83
g364
sg76
(lp371
S'expires'
p372
asbag69
(g90
g71
NtRp373
(dp374
g74
(dp375
g101
g102
ssg83
g364
sg76
(lp376
S':'
asbag69
(g90
g71
NtRp377
(dp378
g74
(dp379
sg83
g364
sg76
(lp380
g69
(g70
g71
NtRp381
(dp382
g74
(dp383
g82
I3
ssg83
g377
sg76
(lp384
S''
asbasbasbag69
(g85
g71
NtRp385
(dp386
g74
(dp387
sg83
g318
sg76
(lp388
g69
(g90
g71
NtRp389
(dp390
g74
(dp391
g94
g95
ssg83
g385
sg76
(lp392
S'httponly'
p393
asbag69
(g90
g71
NtRp394
(dp395
g74
(dp396
g101
g102
ssg83
g385
sg76
(lp397
S':'
asbag69
(g90
g71
NtRp398
(dp399
g74
(dp400
sg83
g385
sg76
(lp401
g69
(g70
g71
NtRp402
(dp403
g74
(dp404
g82
I3
ssg83
g398
sg76
(lp405
S''
asbasbasbag69
(g85
g71
NtRp406
(dp407
g74
(dp408
sg83
g318
sg76
(lp409
g69
(g90
g71
NtRp410
(dp411
g74
(dp412
g94
g95
ssg83
g406
sg76
(lp413
S'max-age'
p414
asbag69
(g90
g71
NtRp415
(dp416
g74
(dp417
g101
g102
ssg83
g406
sg76
(lp418
S':'
asbag69
(g90
g71
NtRp419
(dp420
g74
(dp421
sg83
g406
sg76
(lp422
g69
(g70
g71
NtRp423
(dp424
g74
(dp425
g82
I3
ssg83
g419
sg76
(lp426
S''
asbasbasbag69
(g85
g71
NtRp427
(dp428
g74
(dp429
sg83
g318
sg76
(lp430
g69
(g90
g71
NtRp431
(dp432
g74
(dp433
g94
g95
ssg83
g427
sg76
(lp434
S'path'
p435
asbag69
(g90
g71
NtRp436
(dp437
g74
(dp438
g101
g102
ssg83
g427
sg76
(lp439
S':'
asbag69
(g90
g71
NtRp440
(dp441
g74
(dp442
sg83
g427
sg76
(lp443
g69
(g70
g71
NtRp444
(dp445
g74
(dp446
g82
I3
ssg83
g440
sg76
(lp447
S''
asbasbasbag69
(g85
g71
NtRp448
(dp449
g74
(dp450
sg83
g318
sg76
(lp451
g69
(g90
g71
NtRp452
(dp453
g74
(dp454
g94
g95
ssg83
g448
sg76
(lp455
S'secure'
p456
asbag69
(g90
g71
NtRp457
(dp458
g74
(dp459
g101
g102
ssg83
g448
sg76
(lp460
S':'
asbag69
(g90
g71
NtRp461
(dp462
g74
(dp463
sg83
g448
sg76
(lp464
g69
(g70
g71
NtRp465
(dp466
g74
(dp467
g82
I3
ssg83
g461
sg76
(lp468
S''
asbasbasbag69
(g85
g71
NtRp469
(dp470
g74
(dp471
sg83
g318
sg76
(lp472
g69
(g90
g71
NtRp473
(dp474
g74
(dp475
g94
g95
ssg83
g469
sg76
(lp476
S'version'
p477
asbag69
(g90
g71
NtRp478
(dp479
g74
(dp480
g101
g102
ssg83
g469
sg76
(lp481
S':'
asbag69
(g90
g71
NtRp482
(dp483
g74
(dp484
sg83
g469
sg76
(lp485
g69
(g70
g71
NtRp486
(dp487
g74
(dp488
g82
I3
ssg83
g482
sg76
(lp489
S''
asbasbasbasbasbasbasbag69
(g85
g71
NtRp490
(dp491
g74
(dp492
sg83
g292
sg76
(lp493
g69
(g90
g71
NtRp494
(dp495
g74
(dp496
g94
g95
ssg83
g490
sg76
(lp497
S'session_id_assignmen3'
p498
asbag69
(g90
g71
NtRp499
(dp500
g74
(dp501
g101
g102
ssg83
g490
sg76
(lp502
S':'
asbag69
(g90
g71
NtRp503
(dp504
g74
(dp505
sg83
g490
sg76
(lp506
g69
(g70
g71
NtRp507
(dp508
g74
(dp509
g82
I4
ssg83
g503
sg76
(lp510
S'127.0.0.1-f78a0883-b419-4f1b-8802-d13ae89341f4'
p511
ag69
(g78
g71
NtRp512
(dp513
g74
(dp514
g82
I3
ssg83
Nsg76
(lp515
g69
(g85
g71
NtRp516
(dp517
g74
(dp518
sg83
g512
sg76
(lp519
g69
(g90
g71
NtRp520
(dp521
g74
(dp522
g94
g95
ssg83
g516
sg76
(lp523
g330
asbag69
(g90
g71
NtRp524
(dp525
g74
(dp526
g101
g102
ssg83
g516
sg76
(lp527
S':'
asbag69
(g90
g71
NtRp528
(dp529
g74
(dp530
sg83
g516
sg76
(lp531
g69
(g70
g71
NtRp532
(dp533
g74
(dp534
g82
I3
ssg83
g528
sg76
(lp535
S''
asbasbasbag69
(g85
g71
NtRp536
(dp537
g74
(dp538
sg83
g512
sg76
(lp539
g69
(g90
g71
NtRp540
(dp541
g74
(dp542
g94
g95
ssg83
g536
sg76
(lp543
g351
asbag69
(g90
g71
NtRp544
(dp545
g74
(dp546
g101
g102
ssg83
g536
sg76
(lp547
S':'
asbag69
(g90
g71
NtRp548
(dp549
g74
(dp550
sg83
g536
sg76
(lp551
g69
(g70
g71
NtRp552
(dp553
g74
(dp554
g82
I3
ssg83
g548
sg76
(lp555
S''
asbasbasbag69
(g85
g71
NtRp556
(dp557
g74
(dp558
sg83
g512
sg76
(lp559
g69
(g90
g71
NtRp560
(dp561
g74
(dp562
g94
g95
ssg83
g556
sg76
(lp563
g372
asbag69
(g90
g71
NtRp564
(dp565
g74
(dp566
g101
g102
ssg83
g556
sg76
(lp567
S':'
asbag69
(g90
g71
NtRp568
(dp569
g74
(dp570
sg83
g556
sg76
(lp571
g69
(g70
g71
NtRp572
(dp573
g74
(dp574
g82
I3
ssg83
g568
sg76
(lp575
S''
asbasbasbag69
(g85
g71
NtRp576
(dp577
g74
(dp578
sg83
g512
sg76
(lp579
g69
(g90
g71
NtRp580
(dp581
g74
(dp582
g94
g95
ssg83
g576
sg76
(lp583
g393
asbag69
(g90
g71
NtRp584
(dp585
g74
(dp586
g101
g102
ssg83
g576
sg76
(lp587
S':'
asbag69
(g90
g71
NtRp588
(dp589
g74
(dp590
sg83
g576
sg76
(lp591
g69
(g70
g71
NtRp592
(dp593
g74
(dp594
g82
I3
ssg83
g588
sg76
(lp595
S''
asbasbasbag69
(g85
g71
NtRp596
(dp597
g74
(dp598
sg83
g512
sg76
(lp599
g69
(g90
g71
NtRp600
(dp601
g74
(dp602
g94
g95
ssg83
g596
sg76
(lp603
g414
asbag69
(g90
g71
NtRp604
(dp605
g74
(dp606
g101
g102
ssg83
g596
sg76
(lp607
S':'
asbag69
(g90
g71
NtRp608
(dp609
g74
(dp610
sg83
g596
sg76
(lp611
g69
(g70
g71
NtRp612
(dp613
g74
(dp614
g82
I3
ssg83
g608
sg76
(lp615
S''
asbasbasbag69
(g85
g71
NtRp616
(dp617
g74
(dp618
sg83
g512
sg76
(lp619
g69
(g90
g71
NtRp620
(dp621
g74
(dp622
g94
g95
ssg83
g616
sg76
(lp623
g435
asbag69
(g90
g71
NtRp624
(dp625
g74
(dp626
g101
g102
ssg83
g616
sg76
(lp627
S':'
asbag69
(g90
g71
NtRp628
(dp629
g74
(dp630
sg83
g616
sg76
(lp631
g69
(g70
g71
NtRp632
(dp633
g74
(dp634
g82
I3
ssg83
g628
sg76
(lp635
S''
asbasbasbag69
(g85
g71
NtRp636
(dp637
g74
(dp638
sg83
g512
sg76
(lp639
g69
(g90
g71
NtRp640
(dp641
g74
(dp642
g94
g95
ssg83
g636
sg76
(lp643
g456
asbag69
(g90
g71
NtRp644
(dp645
g74
(dp646
g101
g102
ssg83
g636
sg76
(lp647
S':'
asbag69
(g90
g71
NtRp648
(dp649
g74
(dp650
sg83
g636
sg76
(lp651
g69
(g70
g71
NtRp652
(dp653
g74
(dp654
g82
I3
ssg83
g648
sg76
(lp655
S''
asbasbasbag69
(g85
g71
NtRp656
(dp657
g74
(dp658
sg83
g512
sg76
(lp659
g69
(g90
g71
NtRp660
(dp661
g74
(dp662
g94
g95
ssg83
g656
sg76
(lp663
g477
asbag69
(g90
g71
NtRp664
(dp665
g74
(dp666
g101
g102
ssg83
g656
sg76
(lp667
S':'
asbag69
(g90
g71
NtRp668
(dp669
g74
(dp670
sg83
g656
sg76
(lp671
g69
(g70
g71
NtRp672
(dp673
g74
(dp674
g82
I3
ssg83
g668
sg76
(lp675
S''
asbasbasbasbasbasbasbag69
(g85
g71
NtRp676
(dp677
g74
(dp678
sg83
g292
sg76
(lp679
g69
(g90
g71
NtRp680
(dp681
g74
(dp682
g94
g95
ssg83
g676
sg76
(lp683
S'session_id_welcome'
p684
asbag69
(g90
g71
NtRp685
(dp686
g74
(dp687
g101
g102
ssg83
g676
sg76
(lp688
S':'
asbag69
(g90
g71
NtRp689
(dp690
g74
(dp691
sg83
g676
sg76
(lp692
g69
(g70
g71
NtRp693
(dp694
g74
(dp695
g82
I4
ssg83
g689
sg76
(lp696
S'127.0.0.1-a2b1b4d6-eba7-4458-9892-ba028024c0c4'
p697
ag69
(g78
g71
NtRp698
(dp699
g74
(dp700
g82
I3
ssg83
Nsg76
(lp701
g69
(g85
g71
NtRp702
(dp703
g74
(dp704
sg83
g698
sg76
(lp705
g69
(g90
g71
NtRp706
(dp707
g74
(dp708
g94
g95
ssg83
g702
sg76
(lp709
g330
asbag69
(g90
g71
NtRp710
(dp711
g74
(dp712
g101
g102
ssg83
g702
sg76
(lp713
S':'
asbag69
(g90
g71
NtRp714
(dp715
g74
(dp716
sg83
g702
sg76
(lp717
g69
(g70
g71
NtRp718
(dp719
g74
(dp720
g82
I3
ssg83
g714
sg76
(lp721
S''
asbasbasbag69
(g85
g71
NtRp722
(dp723
g74
(dp724
sg83
g698
sg76
(lp725
g69
(g90
g71
NtRp726
(dp727
g74
(dp728
g94
g95
ssg83
g722
sg76
(lp729
g351
asbag69
(g90
g71
NtRp730
(dp731
g74
(dp732
g101
g102
ssg83
g722
sg76
(lp733
S':'
asbag69
(g90
g71
NtRp734
(dp735
g74
(dp736
sg83
g722
sg76
(lp737
g69
(g70
g71
NtRp738
(dp739
g74
(dp740
g82
I3
ssg83
g734
sg76
(lp741
S''
asbasbasbag69
(g85
g71
NtRp742
(dp743
g74
(dp744
sg83
g698
sg76
(lp745
g69
(g90
g71
NtRp746
(dp747
g74
(dp748
g94
g95
ssg83
g742
sg76
(lp749
g372
asbag69
(g90
g71
NtRp750
(dp751
g74
(dp752
g101
g102
ssg83
g742
sg76
(lp753
S':'
asbag69
(g90
g71
NtRp754
(dp755
g74
(dp756
sg83
g742
sg76
(lp757
g69
(g70
g71
NtRp758
(dp759
g74
(dp760
g82
I3
ssg83
g754
sg76
(lp761
S''
asbasbasbag69
(g85
g71
NtRp762
(dp763
g74
(dp764
sg83
g698
sg76
(lp765
g69
(g90
g71
NtRp766
(dp767
g74
(dp768
g94
g95
ssg83
g762
sg76
(lp769
g393
asbag69
(g90
g71
NtRp770
(dp771
g74
(dp772
g101
g102
ssg83
g762
sg76
(lp773
S':'
asbag69
(g90
g71
NtRp774
(dp775
g74
(dp776
sg83
g762
sg76
(lp777
g69
(g70
g71
NtRp778
(dp779
g74
(dp780
g82
I3
ssg83
g774
sg76
(lp781
S''
asbasbasbag69
(g85
g71
NtRp782
(dp783
g74
(dp784
sg83
g698
sg76
(lp785
g69
(g90
g71
NtRp786
(dp787
g74
(dp788
g94
g95
ssg83
g782
sg76
(lp789
g414
asbag69
(g90
g71
NtRp790
(dp791
g74
(dp792
g101
g102
ssg83
g782
sg76
(lp793
S':'
asbag69
(g90
g71
NtRp794
(dp795
g74
(dp796
sg83
g782
sg76
(lp797
g69
(g70
g71
NtRp798
(dp799
g74
(dp800
g82
I3
ssg83
g794
sg76
(lp801
S''
asbasbasbag69
(g85
g71
NtRp802
(dp803
g74
(dp804
sg83
g698
sg76
(lp805
g69
(g90
g71
NtRp806
(dp807
g74
(dp808
g94
g95
ssg83
g802
sg76
(lp809
g435
asbag69
(g90
g71
NtRp810
(dp811
g74
(dp812
g101
g102
ssg83
g802
sg76
(lp813
S':'
asbag69
(g90
g71
NtRp814
(dp815
g74
(dp816
sg83
g802
sg76
(lp817
g69
(g70
g71
NtRp818
(dp819
g74
(dp820
g82
I3
ssg83
g814
sg76
(lp821
S''
asbasbasbag69
(g85
g71
NtRp822
(dp823
g74
(dp824
sg83
g698
sg76
(lp825
g69
(g90
g71
NtRp826
(dp827
g74
(dp828
g94
g95
ssg83
g822
sg76
(lp829
g456
asbag69
(g90
g71
NtRp830
(dp831
g74
(dp832
g101
g102
ssg83
g822
sg76
(lp833
S':'
asbag69
(g90
g71
NtRp834
(dp835
g74
(dp836
sg83
g822
sg76
(lp837
g69
(g70
g71
NtRp838
(dp839
g74
(dp840
g82
I3
ssg83
g834
sg76
(lp841
S''
asbasbasbag69
(g85
g71
NtRp842
(dp843
g74
(dp844
sg83
g698
sg76
(lp845
g69
(g90
g71
NtRp846
(dp847
g74
(dp848
g94
g95
ssg83
g842
sg76
(lp849
g477
asbag69
(g90
g71
NtRp850
(dp851
g74
(dp852
g101
g102
ssg83
g842
sg76
(lp853
S':'
asbag69
(g90
g71
NtRp854
(dp855
g74
(dp856
sg83
g842
sg76
(lp857
g69
(g70
g71
NtRp858
(dp859
g74
(dp860
g82
I3
ssg83
g854
sg76
(lp861
S''
asbasbasbasbasbasbasbasbasbasbasbag69
(g85
g71
NtRp862
(dp863
g74
(dp864
sg83
g79
sg76
(lp865
g69
(g90
g71
NtRp866
(dp867
g74
(dp868
g94
g95
ssg83
g862
sg76
(lp869
S'env'
p870
asbag69
(g90
g71
NtRp871
(dp872
g74
(dp873
g101
g102
ssg83
g862
sg76
(lp874
S':'
asbag69
(g90
g71
NtRp875
(dp876
g74
(dp877
sg83
g862
sg76
(lp878
g69
(g70
g71
NtRp879
(dp880
g74
(dp881
g82
I5
ssg83
g875
sg76
(lp882
g69
(g78
g71
NtRp883
(dp884
g74
(dp885
g82
I4
ssg83
Nsg76
(lp886
g69
(g85
g71
NtRp887
(dp888
g74
(dp889
sg83
g883
sg76
(lp890
g69
(g90
g71
NtRp891
(dp892
g74
(dp893
g94
g95
ssg83
g887
sg76
(lp894
S'app_folders'
p895
asbag69
(g90
g71
NtRp896
(dp897
g74
(dp898
g101
g102
ssg83
g887
sg76
(lp899
S':'
asbag69
(g90
g71
NtRp900
(dp901
g74
(dp902
sg83
g887
sg76
(lp903
g69
(g70
g71
NtRp904
(dp905
g74
(dp906
g82
I4
ssg83
g900
sg76
(lp907
S"set(['/home/umang/web2py/applications/admin/', '/home/umang/web2py/applications/assignmen3/', '/home/umang/web2py/applications/welcome/'])"
p908
asbasbasbag69
(g85
g71
NtRp909
(dp910
g74
(dp911
sg83
g883
sg76
(lp912
g69
(g90
g71
NtRp913
(dp914
g74
(dp915
g94
g95
ssg83
g909
sg76
(lp916
S'applications_parent'
p917
asbag69
(g90
g71
NtRp918
(dp919
g74
(dp920
g101
g102
ssg83
g909
sg76
(lp921
S':'
asbag69
(g90
g71
NtRp922
(dp923
g74
(dp924
sg83
g909
sg76
(lp925
g69
(g70
g71
NtRp926
(dp927
g74
(dp928
g82
I4
ssg83
g922
sg76
(lp929
S'/home/umang/web2py'
p930
asbasbasbag69
(g85
g71
NtRp931
(dp932
g74
(dp933
sg83
g883
sg76
(lp934
g69
(g90
g71
NtRp935
(dp936
g74
(dp937
g94
g95
ssg83
g931
sg76
(lp938
S'cmd_args'
p939
asbag69
(g90
g71
NtRp940
(dp941
g74
(dp942
g101
g102
ssg83
g931
sg76
(lp943
S':'
asbag69
(g90
g71
NtRp944
(dp945
g74
(dp946
sg83
g931
sg76
(lp947
g69
(g70
g71
NtRp948
(dp949
g74
(dp950
g82
I4
ssg83
g944
sg76
(lp951
g69
(g78
g71
NtRp952
(dp953
g74
(dp954
g82
I3
ssg83
Nsg76
(lp955
sbasbasbasbag69
(g85
g71
NtRp956
(dp957
g74
(dp958
sg83
g883
sg76
(lp959
g69
(g90
g71
NtRp960
(dp961
g74
(dp962
g94
g95
ssg83
g956
sg76
(lp963
S'cmd_options'
p964
asbag69
(g90
g71
NtRp965
(dp966
g74
(dp967
g101
g102
ssg83
g956
sg76
(lp968
S':'
asbag69
(g90
g71
NtRp969
(dp970
g74
(dp971
sg83
g956
sg76
(lp972
g69
(g70
g71
NtRp973
(dp974
g74
(dp975
g82
I4
ssg83
g969
sg76
(lp976
S"<Values at 0x1698200: {'verbose': False, 'ip': '127.0.0.1', 'with_scheduler': False, 'ips': [], 'shutdown_timeout': 5, 'taskbar': False, 'port': 8000, 'maxthreads': None, 'softcron': False, 'server_name': 'umang-HP-Pavilion-g6-Notebook-PC', 'bpython': False, 'nogui': False, 'pid_filename': 'httpserver.pid', 'extcron': False, 'runcron': False, 'run_system_tests': False, 'test': None, 'folder': '/home/umang/web2py', 'config': '', 'minthreads': None, 'winservice': '', 'shell': None, 'run': '', 'log_filename': 'httpserver.log', 'debuglevel': 30, 'args': [''], 'socket_timeout': 5, 'ssl_ca_certificate': None, 'scheduler': None, 'profiler_filename': None, 'ssl_private_key': '', 'scheduler_groups': None, 'password': '<ask>', 'request_queue_size': 5, 'ssl_certificate': '', 'cronjob': False, 'numthreads': None, 'quiet': False, 'interfaces': None, 'import_models': False, 'timeout': 10, 'plain': False, 'nobanner': False}>"
p977
asbasbasbag69
(g85
g71
NtRp978
(dp979
g74
(dp980
sg83
g883
sg76
(lp981
g69
(g90
g71
NtRp982
(dp983
g74
(dp984
g94
g95
ssg83
g978
sg76
(lp985
S'db_sessions'
p986
asbag69
(g90
g71
NtRp987
(dp988
g74
(dp989
g101
g102
ssg83
g978
sg76
(lp990
S':'
asbag69
(g90
g71
NtRp991
(dp992
g74
(dp993
sg83
g978
sg76
(lp994
g69
(g70
g71
NtRp995
(dp996
g74
(dp997
g82
I4
ssg83
g991
sg76
(lp998
S'set([])'
p999
asbasbasbag69
(g85
g71
NtRp1000
(dp1001
g74
(dp1002
sg83
g883
sg76
(lp1003
g69
(g90
g71
NtRp1004
(dp1005
g74
(dp1006
g94
g95
ssg83
g1000
sg76
(lp1007
S'debugging'
p1008
asbag69
(g90
g71
NtRp1009
(dp1010
g74
(dp1011
g101
g102
ssg83
g1000
sg76
(lp1012
S':'
asbag69
(g90
g71
NtRp1013
(dp1014
g74
(dp1015
sg83
g1000
sg76
(lp1016
g69
(g70
g71
NtRp1017
(dp1018
g74
(dp1019
g82
I4
ssg83
g1013
sg76
(lp1020
g112
asbasbasbag69
(g85
g71
NtRp1021
(dp1022
g74
(dp1023
sg83
g883
sg76
(lp1024
g69
(g90
g71
NtRp1025
(dp1026
g74
(dp1027
g94
g95
ssg83
g1021
sg76
(lp1028
S'gluon_parent'
p1029
asbag69
(g90
g71
NtRp1030
(dp1031
g74
(dp1032
g101
g102
ssg83
g1021
sg76
(lp1033
S':'
asbag69
(g90
g71
NtRp1034
(dp1035
g74
(dp1036
sg83
g1021
sg76
(lp1037
g69
(g70
g71
NtRp1038
(dp1039
g74
(dp1040
g82
I4
ssg83
g1034
sg76
(lp1041
S'/home/umang/web2py'
p1042
asbasbasbag69
(g85
g71
NtRp1043
(dp1044
g74
(dp1045
sg83
g883
sg76
(lp1046
g69
(g90
g71
NtRp1047
(dp1048
g74
(dp1049
g94
g95
ssg83
g1043
sg76
(lp1050
S'http_accept'
p1051
asbag69
(g90
g71
NtRp1052
(dp1053
g74
(dp1054
g101
g102
ssg83
g1043
sg76
(lp1055
S':'
asbag69
(g90
g71
NtRp1056
(dp1057
g74
(dp1058
sg83
g1043
sg76
(lp1059
g69
(g70
g71
NtRp1060
(dp1061
g74
(dp1062
g82
I4
ssg83
g1056
sg76
(lp1063
S'text/html,application/xhtml+xml,application/xml;q=0.9,*/*;q=0.8'
p1064
asbasbasbag69
(g85
g71
NtRp1065
(dp1066
g74
(dp1067
sg83
g883
sg76
(lp1068
g69
(g90
g71
NtRp1069
(dp1070
g74
(dp1071
g94
g95
ssg83
g1065
sg76
(lp1072
S'http_accept_encoding'
p1073
asbag69
(g90
g71
NtRp1074
(dp1075
g74
(dp1076
g101
g102
ssg83
g1065
sg76
(lp1077
S':'
asbag69
(g90
g71
NtRp1078
(dp1079
g74
(dp1080
sg83
g1065
sg76
(lp1081
g69
(g70
g71
NtRp1082
(dp1083
g74
(dp1084
g82
I4
ssg83
g1078
sg76
(lp1085
S'gzip, deflate'
p1086
asbasbasbag69
(g85
g71
NtRp1087
(dp1088
g74
(dp1089
sg83
g883
sg76
(lp1090
g69
(g90
g71
NtRp1091
(dp1092
g74
(dp1093
g94
g95
ssg83
g1087
sg76
(lp1094
S'http_accept_language'
p1095
asbag69
(g90
g71
NtRp1096
(dp1097
g74
(dp1098
g101
g102
ssg83
g1087
sg76
(lp1099
S':'
asbag69
(g90
g71
NtRp1100
(dp1101
g74
(dp1102
sg83
g1087
sg76
(lp1103
g69
(g70
g71
NtRp1104
(dp1105
g74
(dp1106
g82
I4
ssg83
g1100
sg76
(lp1107
S'en-us,en;q=0.5'
p1108
asbasbasbag69
(g85
g71
NtRp1109
(dp1110
g74
(dp1111
sg83
g883
sg76
(lp1112
g69
(g90
g71
NtRp1113
(dp1114
g74
(dp1115
g94
g95
ssg83
g1109
sg76
(lp1116
S'http_connection'
p1117
asbag69
(g90
g71
NtRp1118
(dp1119
g74
(dp1120
g101
g102
ssg83
g1109
sg76
(lp1121
S':'
asbag69
(g90
g71
NtRp1122
(dp1123
g74
(dp1124
sg83
g1109
sg76
(lp1125
g69
(g70
g71
NtRp1126
(dp1127
g74
(dp1128
g82
I4
ssg83
g1122
sg76
(lp1129
S'keep-alive'
p1130
asbasbasbag69
(g85
g71
NtRp1131
(dp1132
g74
(dp1133
sg83
g883
sg76
(lp1134
g69
(g90
g71
NtRp1135
(dp1136
g74
(dp1137
g94
g95
ssg83
g1131
sg76
(lp1138
S'http_cookie'
p1139
asbag69
(g90
g71
NtRp1140
(dp1141
g74
(dp1142
g101
g102
ssg83
g1131
sg76
(lp1143
S':'
asbag69
(g90
g71
NtRp1144
(dp1145
g74
(dp1146
sg83
g1131
sg76
(lp1147
g69
(g70
g71
NtRp1148
(dp1149
g74
(dp1150
g82
I4
ssg83
g1144
sg76
(lp1151
S'session_id_welcome=127.0.0.1-a2b1b4d6-eba7-4458-9892-ba028024c0c4; session_id_admin=127.0.0.1-d509f0cc-4c80-4380-be27-aebf7c06a1e6; session_id_assignmen3=127.0.0.1-f78a0883-b419-4f1b-8802-d13ae89341f4'
p1152
asbasbasbag69
(g85
g71
NtRp1153
(dp1154
g74
(dp1155
sg83
g883
sg76
(lp1156
g69
(g90
g71
NtRp1157
(dp1158
g74
(dp1159
g94
g95
ssg83
g1153
sg76
(lp1160
S'http_host'
p1161
asbag69
(g90
g71
NtRp1162
(dp1163
g74
(dp1164
g101
g102
ssg83
g1153
sg76
(lp1165
S':'
asbag69
(g90
g71
NtRp1166
(dp1167
g74
(dp1168
sg83
g1153
sg76
(lp1169
g69
(g70
g71
NtRp1170
(dp1171
g74
(dp1172
g82
I4
ssg83
g1166
sg76
(lp1173
S'127.0.0.1:8000'
p1174
asbasbasbag69
(g85
g71
NtRp1175
(dp1176
g74
(dp1177
sg83
g883
sg76
(lp1178
g69
(g90
g71
NtRp1179
(dp1180
g74
(dp1181
g94
g95
ssg83
g1175
sg76
(lp1182
S'http_referer'
p1183
asbag69
(g90
g71
NtRp1184
(dp1185
g74
(dp1186
g101
g102
ssg83
g1175
sg76
(lp1187
S':'
asbag69
(g90
g71
NtRp1188
(dp1189
g74
(dp1190
sg83
g1175
sg76
(lp1191
g69
(g70
g71
NtRp1192
(dp1193
g74
(dp1194
g82
I4
ssg83
g1188
sg76
(lp1195
S'http://127.0.0.1:8000/assignmen3/default/first_page/2'
p1196
asbasbasbag69
(g85
g71
NtRp1197
(dp1198
g74
(dp1199
sg83
g883
sg76
(lp1200
g69
(g90
g71
NtRp1201
(dp1202
g74
(dp1203
g94
g95
ssg83
g1197
sg76
(lp1204
S'http_user_agent'
p1205
asbag69
(g90
g71
NtRp1206
(dp1207
g74
(dp1208
g101
g102
ssg83
g1197
sg76
(lp1209
S':'
asbag69
(g90
g71
NtRp1210
(dp1211
g74
(dp1212
sg83
g1197
sg76
(lp1213
g69
(g70
g71
NtRp1214
(dp1215
g74
(dp1216
g82
I4
ssg83
g1210
sg76
(lp1217
S'Mozilla/5.0 (X11; Ubuntu; Linux x86_64; rv:11.0) Gecko/20100101 Firefox/11.0'
p1218
asbasbasbag69
(g85
g71
NtRp1219
(dp1220
g74
(dp1221
sg83
g883
sg76
(lp1222
g69
(g90
g71
NtRp1223
(dp1224
g74
(dp1225
g94
g95
ssg83
g1219
sg76
(lp1226
S'is_jython'
p1227
asbag69
(g90
g71
NtRp1228
(dp1229
g74
(dp1230
g101
g102
ssg83
g1219
sg76
(lp1231
S':'
asbag69
(g90
g71
NtRp1232
(dp1233
g74
(dp1234
sg83
g1219
sg76
(lp1235
g69
(g70
g71
NtRp1236
(dp1237
g74
(dp1238
g82
I4
ssg83
g1232
sg76
(lp1239
g112
asbasbasbag69
(g85
g71
NtRp1240
(dp1241
g74
(dp1242
sg83
g883
sg76
(lp1243
g69
(g90
g71
NtRp1244
(dp1245
g74
(dp1246
g94
g95
ssg83
g1240
sg76
(lp1247
S'is_pypy'
p1248
asbag69
(g90
g71
NtRp1249
(dp1250
g74
(dp1251
g101
g102
ssg83
g1240
sg76
(lp1252
S':'
asbag69
(g90
g71
NtRp1253
(dp1254
g74
(dp1255
sg83
g1240
sg76
(lp1256
g69
(g70
g71
NtRp1257
(dp1258
g74
(dp1259
g82
I4
ssg83
g1253
sg76
(lp1260
g112
asbasbasbag69
(g85
g71
NtRp1261
(dp1262
g74
(dp1263
sg83
g883
sg76
(lp1264
g69
(g90
g71
NtRp1265
(dp1266
g74
(dp1267
g94
g95
ssg83
g1261
sg76
(lp1268
S'local_hosts'
p1269
asbag69
(g90
g71
NtRp1270
(dp1271
g74
(dp1272
g101
g102
ssg83
g1261
sg76
(lp1273
S':'
asbag69
(g90
g71
NtRp1274
(dp1275
g74
(dp1276
sg83
g1261
sg76
(lp1277
g69
(g70
g71
NtRp1278
(dp1279
g74
(dp1280
g82
I4
ssg83
g1274
sg76
(lp1281
g69
(g78
g71
NtRp1282
(dp1283
g74
(dp1284
g82
I3
ssg83
Nsg76
(lp1285
g69
(g85
g71
NtRp1286
(dp1287
g74
(dp1288
sg83
g1282
sg76
(lp1289
g69
(g90
g71
NtRp1290
(dp1291
g74
(dp1292
sg83
g1286
sg76
(lp1293
g69
(g70
g71
NtRp1294
(dp1295
g74
(dp1296
g82
I3
ssg83
g1290
sg76
(lp1297
S'::1'
p1298
asbasbasbag69
(g85
g71
NtRp1299
(dp1300
g74
(dp1301
sg83
g1282
sg76
(lp1302
g69
(g90
g71
NtRp1303
(dp1304
g74
(dp1305
sg83
g1299
sg76
(lp1306
g69
(g70
g71
NtRp1307
(dp1308
g74
(dp1309
g82
I3
ssg83
g1303
sg76
(lp1310
S'127.0.1.1'
p1311
asbasbasbag69
(g85
g71
NtRp1312
(dp1313
g74
(dp1314
sg83
g1282
sg76
(lp1315
g69
(g90
g71
NtRp1316
(dp1317
g74
(dp1318
sg83
g1312
sg76
(lp1319
g69
(g70
g71
NtRp1320
(dp1321
g74
(dp1322
g82
I3
ssg83
g1316
sg76
(lp1323
S'::ffff:127.0.0.1'
p1324
asbasbasbag69
(g85
g71
NtRp1325
(dp1326
g74
(dp1327
sg83
g1282
sg76
(lp1328
g69
(g90
g71
NtRp1329
(dp1330
g74
(dp1331
sg83
g1325
sg76
(lp1332
g69
(g70
g71
NtRp1333
(dp1334
g74
(dp1335
g82
I3
ssg83
g1329
sg76
(lp1336
S'127.0.0.1'
p1337
asbasbasbag69
(g85
g71
NtRp1338
(dp1339
g74
(dp1340
sg83
g1282
sg76
(lp1341
g69
(g90
g71
NtRp1342
(dp1343
g74
(dp1344
sg83
g1338
sg76
(lp1345
g69
(g70
g71
NtRp1346
(dp1347
g74
(dp1348
g82
I3
ssg83
g1342
sg76
(lp1349
S'umang-HP-Pavilion-g6-Notebook-PC'
p1350
asbasbasbasbasbasbasbag69
(g85
g71
NtRp1351
(dp1352
g74
(dp1353
sg83
g883
sg76
(lp1354
g69
(g90
g71
NtRp1355
(dp1356
g74
(dp1357
g94
g95
ssg83
g1351
sg76
(lp1358
S'path_info'
p1359
asbag69
(g90
g71
NtRp1360
(dp1361
g74
(dp1362
g101
g102
ssg83
g1351
sg76
(lp1363
S':'
asbag69
(g90
g71
NtRp1364
(dp1365
g74
(dp1366
sg83
g1351
sg76
(lp1367
g69
(g70
g71
NtRp1368
(dp1369
g74
(dp1370
g82
I4
ssg83
g1364
sg76
(lp1371
S'/assignmen3/default/like/3/2'
p1372
asbasbasbag69
(g85
g71
NtRp1373
(dp1374
g74
(dp1375
sg83
g883
sg76
(lp1376
g69
(g90
g71
NtRp1377
(dp1378
g74
(dp1379
g94
g95
ssg83
g1373
sg76
(lp1380
S'query_string'
p1381
asbag69
(g90
g71
NtRp1382
(dp1383
g74
(dp1384
g101
g102
ssg83
g1373
sg76
(lp1385
S':'
asbag69
(g90
g71
NtRp1386
(dp1387
g74
(dp1388
sg83
g1373
sg76
(lp1389
g69
(g70
g71
NtRp1390
(dp1391
g74
(dp1392
g82
I4
ssg83
g1386
sg76
(lp1393
S''
asbasbasbag69
(g85
g71
NtRp1394
(dp1395
g74
(dp1396
sg83
g883
sg76
(lp1397
g69
(g90
g71
NtRp1398
(dp1399
g74
(dp1400
g94
g95
ssg83
g1394
sg76
(lp1401
S'remote_addr'
p1402
asbag69
(g90
g71
NtRp1403
(dp1404
g74
(dp1405
g101
g102
ssg83
g1394
sg76
(lp1406
S':'
asbag69
(g90
g71
NtRp1407
(dp1408
g74
(dp1409
sg83
g1394
sg76
(lp1410
g69
(g70
g71
NtRp1411
(dp1412
g74
(dp1413
g82
I4
ssg83
g1407
sg76
(lp1414
g248
asbasbasbag69
(g85
g71
NtRp1415
(dp1416
g74
(dp1417
sg83
g883
sg76
(lp1418
g69
(g90
g71
NtRp1419
(dp1420
g74
(dp1421
g94
g95
ssg83
g1415
sg76
(lp1422
S'remote_port'
p1423
asbag69
(g90
g71
NtRp1424
(dp1425
g74
(dp1426
g101
g102
ssg83
g1415
sg76
(lp1427
S':'
asbag69
(g90
g71
NtRp1428
(dp1429
g74
(dp1430
sg83
g1415
sg76
(lp1431
g69
(g70
g71
NtRp1432
(dp1433
g74
(dp1434
g82
I4
ssg83
g1428
sg76
(lp1435
S'32894'
p1436
asbasbasbag69
(g85
g71
NtRp1437
(dp1438
g74
(dp1439
sg83
g883
sg76
(lp1440
g69
(g90
g71
NtRp1441
(dp1442
g74
(dp1443
g94
g95
ssg83
g1437
sg76
(lp1444
S'request_method'
p1445
asbag69
(g90
g71
NtRp1446
(dp1447
g74
(dp1448
g101
g102
ssg83
g1437
sg76
(lp1449
S':'
asbag69
(g90
g71
NtRp1450
(dp1451
g74
(dp1452
sg83
g1437
sg76
(lp1453
g69
(g70
g71
NtRp1454
(dp1455
g74
(dp1456
g82
I4
ssg83
g1450
sg76
(lp1457
S'GET'
p1458
asbasbasbag69
(g85
g71
NtRp1459
(dp1460
g74
(dp1461
sg83
g883
sg76
(lp1462
g69
(g90
g71
NtRp1463
(dp1464
g74
(dp1465
g94
g95
ssg83
g1459
sg76
(lp1466
S'request_uri'
p1467
asbag69
(g90
g71
NtRp1468
(dp1469
g74
(dp1470
g101
g102
ssg83
g1459
sg76
(lp1471
S':'
asbag69
(g90
g71
NtRp1472
(dp1473
g74
(dp1474
sg83
g1459
sg76
(lp1475
g69
(g70
g71
NtRp1476
(dp1477
g74
(dp1478
g82
I4
ssg83
g1472
sg76
(lp1479
g1372
asbasbasbag69
(g85
g71
NtRp1480
(dp1481
g74
(dp1482
sg83
g883
sg76
(lp1483
g69
(g90
g71
NtRp1484
(dp1485
g74
(dp1486
g94
g95
ssg83
g1480
sg76
(lp1487
S'script_name'
p1488
asbag69
(g90
g71
NtRp1489
(dp1490
g74
(dp1491
g101
g102
ssg83
g1480
sg76
(lp1492
S':'
asbag69
(g90
g71
NtRp1493
(dp1494
g74
(dp1495
sg83
g1480
sg76
(lp1496
g69
(g70
g71
NtRp1497
(dp1498
g74
(dp1499
g82
I4
ssg83
g1493
sg76
(lp1500
S''
asbasbasbag69
(g85
g71
NtRp1501
(dp1502
g74
(dp1503
sg83
g883
sg76
(lp1504
g69
(g90
g71
NtRp1505
(dp1506
g74
(dp1507
g94
g95
ssg83
g1501
sg76
(lp1508
S'server_name'
p1509
asbag69
(g90
g71
NtRp1510
(dp1511
g74
(dp1512
g101
g102
ssg83
g1501
sg76
(lp1513
S':'
asbag69
(g90
g71
NtRp1514
(dp1515
g74
(dp1516
sg83
g1501
sg76
(lp1517
g69
(g70
g71
NtRp1518
(dp1519
g74
(dp1520
g82
I4
ssg83
g1514
sg76
(lp1521
S'umang-HP-Pavilion-g6-Notebook-PC'
p1522
asbasbasbag69
(g85
g71
NtRp1523
(dp1524
g74
(dp1525
sg83
g883
sg76
(lp1526
g69
(g90
g71
NtRp1527
(dp1528
g74
(dp1529
g94
g95
ssg83
g1523
sg76
(lp1530
S'server_port'
p1531
asbag69
(g90
g71
NtRp1532
(dp1533
g74
(dp1534
g101
g102
ssg83
g1523
sg76
(lp1535
S':'
asbag69
(g90
g71
NtRp1536
(dp1537
g74
(dp1538
sg83
g1523
sg76
(lp1539
g69
(g70
g71
NtRp1540
(dp1541
g74
(dp1542
g82
I4
ssg83
g1536
sg76
(lp1543
S'8000'
p1544
asbasbasbag69
(g85
g71
NtRp1545
(dp1546
g74
(dp1547
sg83
g883
sg76
(lp1548
g69
(g90
g71
NtRp1549
(dp1550
g74
(dp1551
g94
g95
ssg83
g1545
sg76
(lp1552
S'server_protocol'
p1553
asbag69
(g90
g71
NtRp1554
(dp1555
g74
(dp1556
g101
g102
ssg83
g1545
sg76
(lp1557
S':'
asbag69
(g90
g71
NtRp1558
(dp1559
g74
(dp1560
sg83
g1545
sg76
(lp1561
g69
(g70
g71
NtRp1562
(dp1563
g74
(dp1564
g82
I4
ssg83
g1558
sg76
(lp1565
S'HTTP/1.1'
p1566
asbasbasbag69
(g85
g71
NtRp1567
(dp1568
g74
(dp1569
sg83
g883
sg76
(lp1570
g69
(g90
g71
NtRp1571
(dp1572
g74
(dp1573
g94
g95
ssg83
g1567
sg76
(lp1574
S'server_software'
p1575
asbag69
(g90
g71
NtRp1576
(dp1577
g74
(dp1578
g101
g102
ssg83
g1567
sg76
(lp1579
S':'
asbag69
(g90
g71
NtRp1580
(dp1581
g74
(dp1582
sg83
g1567
sg76
(lp1583
g69
(g70
g71
NtRp1584
(dp1585
g74
(dp1586
g82
I4
ssg83
g1580
sg76
(lp1587
S'Rocket 1.2.6'
p1588
asbasbasbag69
(g85
g71
NtRp1589
(dp1590
g74
(dp1591
sg83
g883
sg76
(lp1592
g69
(g90
g71
NtRp1593
(dp1594
g74
(dp1595
g94
g95
ssg83
g1589
sg76
(lp1596
S'web2py_path'
p1597
asbag69
(g90
g71
NtRp1598
(dp1599
g74
(dp1600
g101
g102
ssg83
g1589
sg76
(lp1601
S':'
asbag69
(g90
g71
NtRp1602
(dp1603
g74
(dp1604
sg83
g1589
sg76
(lp1605
g69
(g70
g71
NtRp1606
(dp1607
g74
(dp1608
g82
I4
ssg83
g1602
sg76
(lp1609
g930
asbasbasbag69
(g85
g71
NtRp1610
(dp1611
g74
(dp1612
sg83
g883
sg76
(lp1613
g69
(g90
g71
NtRp1614
(dp1615
g74
(dp1616
g94
g95
ssg83
g1610
sg76
(lp1617
S'web2py_version'
p1618
asbag69
(g90
g71
NtRp1619
(dp1620
g74
(dp1621
g101
g102
ssg83
g1610
sg76
(lp1622
S':'
asbag69
(g90
g71
NtRp1623
(dp1624
g74
(dp1625
sg83
g1610
sg76
(lp1626
g69
(g70
g71
NtRp1627
(dp1628
g74
(dp1629
g82
I4
ssg83
g1623
sg76
(lp1630
g69
(g78
g71
NtRp1631
(dp1632
g74
(dp1633
g82
I3
ssg83
Nsg76
(lp1634
g69
(g85
g71
NtRp1635
(dp1636
g74
(dp1637
sg83
g1631
sg76
(lp1638
g69
(g90
g71
NtRp1639
(dp1640
g74
(dp1641
sg83
g1635
sg76
(lp1642
g69
(g70
g71
NtRp1643
(dp1644
g74
(dp1645
g82
I3
ssg83
g1639
sg76
(lp1646
S'2'
asbasbasbag69
(g85
g71
NtRp1647
(dp1648
g74
(dp1649
sg83
g1631
sg76
(lp1650
g69
(g90
g71
NtRp1651
(dp1652
g74
(dp1653
sg83
g1647
sg76
(lp1654
g69
(g70
g71
NtRp1655
(dp1656
g74
(dp1657
g82
I3
ssg83
g1651
sg76
(lp1658
S'3'
asbasbasbag69
(g85
g71
NtRp1659
(dp1660
g74
(dp1661
sg83
g1631
sg76
(lp1662
g69
(g90
g71
NtRp1663
(dp1664
g74
(dp1665
sg83
g1659
sg76
(lp1666
g69
(g70
g71
NtRp1667
(dp1668
g74
(dp1669
g82
I3
ssg83
g1663
sg76
(lp1670
S'2'
asbasbasbag69
(g85
g71
NtRp1671
(dp1672
g74
(dp1673
sg83
g1631
sg76
(lp1674
g69
(g90
g71
NtRp1675
(dp1676
g74
(dp1677
sg83
g1671
sg76
(lp1678
g69
(g70
g71
NtRp1679
(dp1680
g74
(dp1681
g82
I3
ssg83
g1675
sg76
(lp1682
S'datetime.datetime(2012, 12, 17, 15, 3, 30)'
p1683
asbasbasbag69
(g85
g71
NtRp1684
(dp1685
g74
(dp1686
sg83
g1631
sg76
(lp1687
g69
(g90
g71
NtRp1688
(dp1689
g74
(dp1690
sg83
g1684
sg76
(lp1691
g69
(g70
g71
NtRp1692
(dp1693
g74
(dp1694
g82
I3
ssg83
g1688
sg76
(lp1695
S'stable'
p1696
asbasbasbasbasbasbasbag69
(g85
g71
NtRp1697
(dp1698
g74
(dp1699
sg83
g883
sg76
(lp1700
g69
(g90
g71
NtRp1701
(dp1702
g74
(dp1703
g94
g95
ssg83
g1697
sg76
(lp1704
S'wsgi_errors'
p1705
asbag69
(g90
g71
NtRp1706
(dp1707
g74
(dp1708
g101
g102
ssg83
g1697
sg76
(lp1709
S':'
asbag69
(g90
g71
NtRp1710
(dp1711
g74
(dp1712
sg83
g1697
sg76
(lp1713
g69
(g70
g71
NtRp1714
(dp1715
g74
(dp1716
g82
I4
ssg83
g1710
sg76
(lp1717
S"<open file '<stderr>', mode 'w' at 0x7f953b4c2270>"
p1718
asbasbasbag69
(g85
g71
NtRp1719
(dp1720
g74
(dp1721
sg83
g883
sg76
(lp1722
g69
(g90
g71
NtRp1723
(dp1724
g74
(dp1725
g94
g95
ssg83
g1719
sg76
(lp1726
S'wsgi_file_wrapper'
p1727
asbag69
(g90
g71
NtRp1728
(dp1729
g74
(dp1730
g101
g102
ssg83
g1719
sg76
(lp1731
S':'
asbag69
(g90
g71
NtRp1732
(dp1733
g74
(dp1734
sg83
g1719
sg76
(lp1735
g69
(g70
g71
NtRp1736
(dp1737
g74
(dp1738
g82
I4
ssg83
g1732
sg76
(lp1739
S'<class wsgiref.util.FileWrapper at 0x1601b48>'
p1740
asbasbasbag69
(g85
g71
NtRp1741
(dp1742
g74
(dp1743
sg83
g883
sg76
(lp1744
g69
(g90
g71
NtRp1745
(dp1746
g74
(dp1747
g94
g95
ssg83
g1741
sg76
(lp1748
S'wsgi_input'
p1749
asbag69
(g90
g71
NtRp1750
(dp1751
g74
(dp1752
g101
g102
ssg83
g1741
sg76
(lp1753
S':'
asbag69
(g90
g71
NtRp1754
(dp1755
g74
(dp1756
sg83
g1741
sg76
(lp1757
g69
(g70
g71
NtRp1758
(dp1759
g74
(dp1760
g82
I4
ssg83
g1754
sg76
(lp1761
S'<socket._fileobject object at 0x7f951c167350>'
p1762
asbasbasbag69
(g85
g71
NtRp1763
(dp1764
g74
(dp1765
sg83
g883
sg76
(lp1766
g69
(g90
g71
NtRp1767
(dp1768
g74
(dp1769
g94
g95
ssg83
g1763
sg76
(lp1770
S'wsgi_multiprocess'
p1771
asbag69
(g90
g71
NtRp1772
(dp1773
g74
(dp1774
g101
g102
ssg83
g1763
sg76
(lp1775
S':'
asbag69
(g90
g71
NtRp1776
(dp1777
g74
(dp1778
sg83
g1763
sg76
(lp1779
g69
(g70
g71
NtRp1780
(dp1781
g74
(dp1782
g82
I4
ssg83
g1776
sg76
(lp1783
g112
asbasbasbag69
(g85
g71
NtRp1784
(dp1785
g74
(dp1786
sg83
g883
sg76
(lp1787
g69
(g90
g71
NtRp1788
(dp1789
g74
(dp1790
g94
g95
ssg83
g1784
sg76
(lp1791
S'wsgi_multithread'
p1792
asbag69
(g90
g71
NtRp1793
(dp1794
g74
(dp1795
g101
g102
ssg83
g1784
sg76
(lp1796
S':'
asbag69
(g90
g71
NtRp1797
(dp1798
g74
(dp1799
sg83
g1784
sg76
(lp1800
g69
(g70
g71
NtRp1801
(dp1802
g74
(dp1803
g82
I4
ssg83
g1797
sg76
(lp1804
S'True'
p1805
asbasbasbag69
(g85
g71
NtRp1806
(dp1807
g74
(dp1808
sg83
g883
sg76
(lp1809
g69
(g90
g71
NtRp1810
(dp1811
g74
(dp1812
g94
g95
ssg83
g1806
sg76
(lp1813
S'wsgi_run_once'
p1814
asbag69
(g90
g71
NtRp1815
(dp1816
g74
(dp1817
g101
g102
ssg83
g1806
sg76
(lp1818
S':'
asbag69
(g90
g71
NtRp1819
(dp1820
g74
(dp1821
sg83
g1806
sg76
(lp1822
g69
(g70
g71
NtRp1823
(dp1824
g74
(dp1825
g82
I4
ssg83
g1819
sg76
(lp1826
g112
asbasbasbag69
(g85
g71
NtRp1827
(dp1828
g74
(dp1829
sg83
g883
sg76
(lp1830
g69
(g90
g71
NtRp1831
(dp1832
g74
(dp1833
g94
g95
ssg83
g1827
sg76
(lp1834
S'wsgi_url_scheme'
p1835
asbag69
(g90
g71
NtRp1836
(dp1837
g74
(dp1838
g101
g102
ssg83
g1827
sg76
(lp1839
S':'
asbag69
(g90
g71
NtRp1840
(dp1841
g74
(dp1842
sg83
g1827
sg76
(lp1843
g69
(g70
g71
NtRp1844
(dp1845
g74
(dp1846
g82
I4
ssg83
g1840
sg76
(lp1847
S'http'
p1848
asbasbasbag69
(g85
g71
NtRp1849
(dp1850
g74
(dp1851
sg83
g883
sg76
(lp1852
g69
(g90
g71
NtRp1853
(dp1854
g74
(dp1855
g94
g95
ssg83
g1849
sg76
(lp1856
S'wsgi_version'
p1857
asbag69
(g90
g71
NtRp1858
(dp1859
g74
(dp1860
g101
g102
ssg83
g1849
sg76
(lp1861
S':'
asbag69
(g90
g71
NtRp1862
(dp1863
g74
(dp1864
sg83
g1849
sg76
(lp1865
g69
(g70
g71
NtRp1866
(dp1867
g74
(dp1868
g82
I4
ssg83
g1862
sg76
(lp1869
g69
(g78
g71
NtRp1870
(dp1871
g74
(dp1872
g82
I3
ssg83
Nsg76
(lp1873
g69
(g85
g71
NtRp1874
(dp1875
g74
(dp1876
sg83
g1870
sg76
(lp1877
g69
(g90
g71
NtRp1878
(dp1879
g74
(dp1880
sg83
g1874
sg76
(lp1881
g69
(g70
g71
NtRp1882
(dp1883
g74
(dp1884
g82
I3
ssg83
g1878
sg76
(lp1885
S'1'
asbasbasbag69
(g85
g71
NtRp1886
(dp1887
g74
(dp1888
sg83
g1870
sg76
(lp1889
g69
(g90
g71
NtRp1890
(dp1891
g74
(dp1892
sg83
g1886
sg76
(lp1893
g69
(g70
g71
NtRp1894
(dp1895
g74
(dp1896
g82
I3
ssg83
g1890
sg76
(lp1897
S'0'
asbasbasbasbasbasbasbasbasbasbasbag69
(g85
g71
NtRp1898
(dp1899
g74
(dp1900
sg83
g79
sg76
(lp1901
g69
(g90
g71
NtRp1902
(dp1903
g74
(dp1904
g94
g95
ssg83
g1898
sg76
(lp1905
S'extension'
p1906
asbag69
(g90
g71
NtRp1907
(dp1908
g74
(dp1909
g101
g102
ssg83
g1898
sg76
(lp1910
S':'
asbag69
(g90
g71
NtRp1911
(dp1912
g74
(dp1913
sg83
g1898
sg76
(lp1914
g69
(g70
g71
NtRp1915
(dp1916
g74
(dp1917
g82
I5
ssg83
g1911
sg76
(lp1918
S'html'
p1919
asbasbasbag69
(g85
g71
NtRp1920
(dp1921
g74
(dp1922
sg83
g79
sg76
(lp1923
g69
(g90
g71
NtRp1924
(dp1925
g74
(dp1926
g94
g95
ssg83
g1920
sg76
(lp1927
S'folder'
p1928
asbag69
(g90
g71
NtRp1929
(dp1930
g74
(dp1931
g101
g102
ssg83
g1920
sg76
(lp1932
S':'
asbag69
(g90
g71
NtRp1933
(dp1934
g74
(dp1935
sg83
g1920
sg76
(lp1936
g69
(g70
g71
NtRp1937
(dp1938
g74
(dp1939
g82
I5
ssg83
g1933
sg76
(lp1940
S'/home/umang/web2py/applications/assignmen3/'
p1941
asbasbasbag69
(g85
g71
NtRp1942
(dp1943
g74
(dp1944
sg83
g79
sg76
(lp1945
g69
(g90
g71
NtRp1946
(dp1947
g74
(dp1948
g94
g95
ssg83
g1942
sg76
(lp1949
S'function'
p1950
asbag69
(g90
g71
NtRp1951
(dp1952
g74
(dp1953
g101
g102
ssg83
g1942
sg76
(lp1954
S':'
asbag69
(g90
g71
NtRp1955
(dp1956
g74
(dp1957
sg83
g1942
sg76
(lp1958
g69
(g70
g71
NtRp1959
(dp1960
g74
(dp1961
g82
I5
ssg83
g1955
sg76
(lp1962
S'like'
p1963
asbasbasbag69
(g85
g71
NtRp1964
(dp1965
g74
(dp1966
sg83
g79
sg76
(lp1967
g69
(g90
g71
NtRp1968
(dp1969
g74
(dp1970
g94
g95
ssg83
g1964
sg76
(lp1971
S'get_vars'
p1972
asbag69
(g90
g71
NtRp1973
(dp1974
g74
(dp1975
g101
g102
ssg83
g1964
sg76
(lp1976
S':'
asbag69
(g90
g71
NtRp1977
(dp1978
g74
(dp1979
sg83
g1964
sg76
(lp1980
g69
(g70
g71
NtRp1981
(dp1982
g74
(dp1983
g82
I5
ssg83
g1977
sg76
(lp1984
g69
(g78
g71
NtRp1985
(dp1986
g74
(dp1987
g82
I4
ssg83
Nsg76
(lp1988
sbasbasbasbag69
(g85
g71
NtRp1989
(dp1990
g74
(dp1991
sg83
g79
sg76
(lp1992
g69
(g90
g71
NtRp1993
(dp1994
g74
(dp1995
g94
g95
ssg83
g1989
sg76
(lp1996
S'global_settings'
p1997
asbag69
(g90
g71
NtRp1998
(dp1999
g74
(dp2000
g101
g102
ssg83
g1989
sg76
(lp2001
S':'
asbag69
(g90
g71
NtRp2002
(dp2003
g74
(dp2004
sg83
g1989
sg76
(lp2005
g69
(g70
g71
NtRp2006
(dp2007
g74
(dp2008
g82
I5
ssg83
g2002
sg76
(lp2009
g69
(g78
g71
NtRp2010
(dp2011
g74
(dp2012
g82
I4
ssg83
Nsg76
(lp2013
g69
(g85
g71
NtRp2014
(dp2015
g74
(dp2016
sg83
g2010
sg76
(lp2017
g69
(g90
g71
NtRp2018
(dp2019
g74
(dp2020
g94
g95
ssg83
g2014
sg76
(lp2021
g895
asbag69
(g90
g71
NtRp2022
(dp2023
g74
(dp2024
g101
g102
ssg83
g2014
sg76
(lp2025
S':'
asbag69
(g90
g71
NtRp2026
(dp2027
g74
(dp2028
sg83
g2014
sg76
(lp2029
g69
(g70
g71
NtRp2030
(dp2031
g74
(dp2032
g82
I4
ssg83
g2026
sg76
(lp2033
S"set(['/home/umang/web2py/applications/admin/', '/home/umang/web2py/applications/assignmen3/', '/home/umang/web2py/applications/welcome/'])"
p2034
asbasbasbag69
(g85
g71
NtRp2035
(dp2036
g74
(dp2037
sg83
g2010
sg76
(lp2038
g69
(g90
g71
NtRp2039
(dp2040
g74
(dp2041
g94
g95
ssg83
g2035
sg76
(lp2042
g917
asbag69
(g90
g71
NtRp2043
(dp2044
g74
(dp2045
g101
g102
ssg83
g2035
sg76
(lp2046
S':'
asbag69
(g90
g71
NtRp2047
(dp2048
g74
(dp2049
sg83
g2035
sg76
(lp2050
g69
(g70
g71
NtRp2051
(dp2052
g74
(dp2053
g82
I4
ssg83
g2047
sg76
(lp2054
g930
asbasbasbag69
(g85
g71
NtRp2055
(dp2056
g74
(dp2057
sg83
g2010
sg76
(lp2058
g69
(g90
g71
NtRp2059
(dp2060
g74
(dp2061
g94
g95
ssg83
g2055
sg76
(lp2062
g939
asbag69
(g90
g71
NtRp2063
(dp2064
g74
(dp2065
g101
g102
ssg83
g2055
sg76
(lp2066
S':'
asbag69
(g90
g71
NtRp2067
(dp2068
g74
(dp2069
sg83
g2055
sg76
(lp2070
g69
(g70
g71
NtRp2071
(dp2072
g74
(dp2073
g82
I4
ssg83
g2067
sg76
(lp2074
g69
(g78
g71
NtRp2075
(dp2076
g74
(dp2077
g82
I3
ssg83
Nsg76
(lp2078
sbasbasbasbag69
(g85
g71
NtRp2079
(dp2080
g74
(dp2081
sg83
g2010
sg76
(lp2082
g69
(g90
g71
NtRp2083
(dp2084
g74
(dp2085
g94
g95
ssg83
g2079
sg76
(lp2086
g964
asbag69
(g90
g71
NtRp2087
(dp2088
g74
(dp2089
g101
g102
ssg83
g2079
sg76
(lp2090
S':'
asbag69
(g90
g71
NtRp2091
(dp2092
g74
(dp2093
sg83
g2079
sg76
(lp2094
g69
(g70
g71
NtRp2095
(dp2096
g74
(dp2097
g82
I4
ssg83
g2091
sg76
(lp2098
S"<Values at 0x1698200: {'verbose': False, 'ip': '127.0.0.1', 'with_scheduler': False, 'ips': [], 'shutdown_timeout': 5, 'taskbar': False, 'port': 8000, 'maxthreads': None, 'softcron': False, 'server_name': 'umang-HP-Pavilion-g6-Notebook-PC', 'bpython': False, 'nogui': False, 'pid_filename': 'httpserver.pid', 'extcron': False, 'runcron': False, 'run_system_tests': False, 'test': None, 'folder': '/home/umang/web2py', 'config': '', 'minthreads': None, 'winservice': '', 'shell': None, 'run': '', 'log_filename': 'httpserver.log', 'debuglevel': 30, 'args': [''], 'socket_timeout': 5, 'ssl_ca_certificate': None, 'scheduler': None, 'profiler_filename': None, 'ssl_private_key': '', 'scheduler_groups': None, 'password': '<ask>', 'request_queue_size': 5, 'ssl_certificate': '', 'cronjob': False, 'numthreads': None, 'quiet': False, 'interfaces': None, 'import_models': False, 'timeout': 10, 'plain': False, 'nobanner': False}>"
p2099
asbasbasbag69
(g85
g71
NtRp2100
(dp2101
g74
(dp2102
sg83
g2010
sg76
(lp2103
g69
(g90
g71
NtRp2104
(dp2105
g74
(dp2106
g94
g95
ssg83
g2100
sg76
(lp2107
g986
asbag69
(g90
g71
NtRp2108
(dp2109
g74
(dp2110
g101
g102
ssg83
g2100
sg76
(lp2111
S':'
asbag69
(g90
g71
NtRp2112
(dp2113
g74
(dp2114
sg83
g2100
sg76
(lp2115
g69
(g70
g71
NtRp2116
(dp2117
g74
(dp2118
g82
I4
ssg83
g2112
sg76
(lp2119
S'set([])'
p2120
asbasbasbag69
(g85
g71
NtRp2121
(dp2122
g74
(dp2123
sg83
g2010
sg76
(lp2124
g69
(g90
g71
NtRp2125
(dp2126
g74
(dp2127
g94
g95
ssg83
g2121
sg76
(lp2128
g1008
asbag69
(g90
g71
NtRp2129
(dp2130
g74
(dp2131
g101
g102
ssg83
g2121
sg76
(lp2132
S':'
asbag69
(g90
g71
NtRp2133
(dp2134
g74
(dp2135
sg83
g2121
sg76
(lp2136
g69
(g70
g71
NtRp2137
(dp2138
g74
(dp2139
g82
I4
ssg83
g2133
sg76
(lp2140
g112
asbasbasbag69
(g85
g71
NtRp2141
(dp2142
g74
(dp2143
sg83
g2010
sg76
(lp2144
g69
(g90
g71
NtRp2145
(dp2146
g74
(dp2147
g94
g95
ssg83
g2141
sg76
(lp2148
g1029
asbag69
(g90
g71
NtRp2149
(dp2150
g74
(dp2151
g101
g102
ssg83
g2141
sg76
(lp2152
S':'
asbag69
(g90
g71
NtRp2153
(dp2154
g74
(dp2155
sg83
g2141
sg76
(lp2156
g69
(g70
g71
NtRp2157
(dp2158
g74
(dp2159
g82
I4
ssg83
g2153
sg76
(lp2160
g1042
asbasbasbag69
(g85
g71
NtRp2161
(dp2162
g74
(dp2163
sg83
g2010
sg76
(lp2164
g69
(g90
g71
NtRp2165
(dp2166
g74
(dp2167
g94
g95
ssg83
g2161
sg76
(lp2168
g1227
asbag69
(g90
g71
NtRp2169
(dp2170
g74
(dp2171
g101
g102
ssg83
g2161
sg76
(lp2172
S':'
asbag69
(g90
g71
NtRp2173
(dp2174
g74
(dp2175
sg83
g2161
sg76
(lp2176
g69
(g70
g71
NtRp2177
(dp2178
g74
(dp2179
g82
I4
ssg83
g2173
sg76
(lp2180
g112
asbasbasbag69
(g85
g71
NtRp2181
(dp2182
g74
(dp2183
sg83
g2010
sg76
(lp2184
g69
(g90
g71
NtRp2185
(dp2186
g74
(dp2187
g94
g95
ssg83
g2181
sg76
(lp2188
g1248
asbag69
(g90
g71
NtRp2189
(dp2190
g74
(dp2191
g101
g102
ssg83
g2181
sg76
(lp2192
S':'
asbag69
(g90
g71
NtRp2193
(dp2194
g74
(dp2195
sg83
g2181
sg76
(lp2196
g69
(g70
g71
NtRp2197
(dp2198
g74
(dp2199
g82
I4
ssg83
g2193
sg76
(lp2200
g112
asbasbasbag69
(g85
g71
NtRp2201
(dp2202
g74
(dp2203
sg83
g2010
sg76
(lp2204
g69
(g90
g71
NtRp2205
(dp2206
g74
(dp2207
g94
g95
ssg83
g2201
sg76
(lp2208
g1269
asbag69
(g90
g71
NtRp2209
(dp2210
g74
(dp2211
g101
g102
ssg83
g2201
sg76
(lp2212
S':'
asbag69
(g90
g71
NtRp2213
(dp2214
g74
(dp2215
sg83
g2201
sg76
(lp2216
g69
(g70
g71
NtRp2217
(dp2218
g74
(dp2219
g82
I4
ssg83
g2213
sg76
(lp2220
g69
(g78
g71
NtRp2221
(dp2222
g74
(dp2223
g82
I3
ssg83
Nsg76
(lp2224
g69
(g85
g71
NtRp2225
(dp2226
g74
(dp2227
sg83
g2221
sg76
(lp2228
g69
(g90
g71
NtRp2229
(dp2230
g74
(dp2231
sg83
g2225
sg76
(lp2232
g69
(g70
g71
NtRp2233
(dp2234
g74
(dp2235
g82
I3
ssg83
g2229
sg76
(lp2236
g1298
asbasbasbag69
(g85
g71
NtRp2237
(dp2238
g74
(dp2239
sg83
g2221
sg76
(lp2240
g69
(g90
g71
NtRp2241
(dp2242
g74
(dp2243
sg83
g2237
sg76
(lp2244
g69
(g70
g71
NtRp2245
(dp2246
g74
(dp2247
g82
I3
ssg83
g2241
sg76
(lp2248
g1311
asbasbasbag69
(g85
g71
NtRp2249
(dp2250
g74
(dp2251
sg83
g2221
sg76
(lp2252
g69
(g90
g71
NtRp2253
(dp2254
g74
(dp2255
sg83
g2249
sg76
(lp2256
g69
(g70
g71
NtRp2257
(dp2258
g74
(dp2259
g82
I3
ssg83
g2253
sg76
(lp2260
g1324
asbasbasbag69
(g85
g71
NtRp2261
(dp2262
g74
(dp2263
sg83
g2221
sg76
(lp2264
g69
(g90
g71
NtRp2265
(dp2266
g74
(dp2267
sg83
g2261
sg76
(lp2268
g69
(g70
g71
NtRp2269
(dp2270
g74
(dp2271
g82
I3
ssg83
g2265
sg76
(lp2272
g1337
asbasbasbag69
(g85
g71
NtRp2273
(dp2274
g74
(dp2275
sg83
g2221
sg76
(lp2276
g69
(g90
g71
NtRp2277
(dp2278
g74
(dp2279
sg83
g2273
sg76
(lp2280
g69
(g70
g71
NtRp2281
(dp2282
g74
(dp2283
g82
I3
ssg83
g2277
sg76
(lp2284
g1350
asbasbasbasbasbasbasbag69
(g85
g71
NtRp2285
(dp2286
g74
(dp2287
sg83
g2010
sg76
(lp2288
g69
(g90
g71
NtRp2289
(dp2290
g74
(dp2291
g94
g95
ssg83
g2285
sg76
(lp2292
g1618
asbag69
(g90
g71
NtRp2293
(dp2294
g74
(dp2295
g101
g102
ssg83
g2285
sg76
(lp2296
S':'
asbag69
(g90
g71
NtRp2297
(dp2298
g74
(dp2299
sg83
g2285
sg76
(lp2300
g69
(g70
g71
NtRp2301
(dp2302
g74
(dp2303
g82
I4
ssg83
g2297
sg76
(lp2304
g69
(g78
g71
NtRp2305
(dp2306
g74
(dp2307
g82
I3
ssg83
Nsg76
(lp2308
g69
(g85
g71
NtRp2309
(dp2310
g74
(dp2311
sg83
g2305
sg76
(lp2312
g69
(g90
g71
NtRp2313
(dp2314
g74
(dp2315
sg83
g2309
sg76
(lp2316
g69
(g70
g71
NtRp2317
(dp2318
g74
(dp2319
g82
I3
ssg83
g2313
sg76
(lp2320
S'2'
asbasbasbag69
(g85
g71
NtRp2321
(dp2322
g74
(dp2323
sg83
g2305
sg76
(lp2324
g69
(g90
g71
NtRp2325
(dp2326
g74
(dp2327
sg83
g2321
sg76
(lp2328
g69
(g70
g71
NtRp2329
(dp2330
g74
(dp2331
g82
I3
ssg83
g2325
sg76
(lp2332
S'3'
asbasbasbag69
(g85
g71
NtRp2333
(dp2334
g74
(dp2335
sg83
g2305
sg76
(lp2336
g69
(g90
g71
NtRp2337
(dp2338
g74
(dp2339
sg83
g2333
sg76
(lp2340
g69
(g70
g71
NtRp2341
(dp2342
g74
(dp2343
g82
I3
ssg83
g2337
sg76
(lp2344
S'2'
asbasbasbag69
(g85
g71
NtRp2345
(dp2346
g74
(dp2347
sg83
g2305
sg76
(lp2348
g69
(g90
g71
NtRp2349
(dp2350
g74
(dp2351
sg83
g2345
sg76
(lp2352
g69
(g70
g71
NtRp2353
(dp2354
g74
(dp2355
g82
I3
ssg83
g2349
sg76
(lp2356
S'datetime.datetime(2012, 12, 17, 15, 3, 30)'
p2357
asbasbasbag69
(g85
g71
NtRp2358
(dp2359
g74
(dp2360
sg83
g2305
sg76
(lp2361
g69
(g90
g71
NtRp2362
(dp2363
g74
(dp2364
sg83
g2358
sg76
(lp2365
g69
(g70
g71
NtRp2366
(dp2367
g74
(dp2368
g82
I3
ssg83
g2362
sg76
(lp2369
g1696
asbasbasbasbasbasbasbasbasbasbasbag69
(g85
g71
NtRp2370
(dp2371
g74
(dp2372
sg83
g79
sg76
(lp2373
g69
(g90
g71
NtRp2374
(dp2375
g74
(dp2376
g94
g95
ssg83
g2370
sg76
(lp2377
S'is_https'
p2378
asbag69
(g90
g71
NtRp2379
(dp2380
g74
(dp2381
g101
g102
ssg83
g2370
sg76
(lp2382
S':'
asbag69
(g90
g71
NtRp2383
(dp2384
g74
(dp2385
sg83
g2370
sg76
(lp2386
g69
(g70
g71
NtRp2387
(dp2388
g74
(dp2389
g82
I5
ssg83
g2383
sg76
(lp2390
g112
asbasbasbag69
(g85
g71
NtRp2391
(dp2392
g74
(dp2393
sg83
g79
sg76
(lp2394
g69
(g90
g71
NtRp2395
(dp2396
g74
(dp2397
g94
g95
ssg83
g2391
sg76
(lp2398
S'is_local'
p2399
asbag69
(g90
g71
NtRp2400
(dp2401
g74
(dp2402
g101
g102
ssg83
g2391
sg76
(lp2403
S':'
asbag69
(g90
g71
NtRp2404
(dp2405
g74
(dp2406
sg83
g2391
sg76
(lp2407
g69
(g70
g71
NtRp2408
(dp2409
g74
(dp2410
g82
I5
ssg83
g2404
sg76
(lp2411
g1805
asbasbasbag69
(g85
g71
NtRp2412
(dp2413
g74
(dp2414
sg83
g79
sg76
(lp2415
g69
(g90
g71
NtRp2416
(dp2417
g74
(dp2418
g94
g95
ssg83
g2412
sg76
(lp2419
S'is_restful'
p2420
asbag69
(g90
g71
NtRp2421
(dp2422
g74
(dp2423
g101
g102
ssg83
g2412
sg76
(lp2424
S':'
asbag69
(g90
g71
NtRp2425
(dp2426
g74
(dp2427
sg83
g2412
sg76
(lp2428
g69
(g70
g71
NtRp2429
(dp2430
g74
(dp2431
g82
I5
ssg83
g2425
sg76
(lp2432
g112
asbasbasbag69
(g85
g71
NtRp2433
(dp2434
g74
(dp2435
sg83
g79
sg76
(lp2436
g69
(g90
g71
NtRp2437
(dp2438
g74
(dp2439
g94
g95
ssg83
g2433
sg76
(lp2440
S'now'
p2441
asbag69
(g90
g71
NtRp2442
(dp2443
g74
(dp2444
g101
g102
ssg83
g2433
sg76
(lp2445
S':'
asbag69
(g90
g71
NtRp2446
(dp2447
g74
(dp2448
sg83
g2433
sg76
(lp2449
g69
(g70
g71
NtRp2450
(dp2451
g74
(dp2452
g82
I5
ssg83
g2446
sg76
(lp2453
S'datetime.datetime(2013, 8, 27, 14, 20, 47, 867927)'
p2454
asbasbasbag69
(g85
g71
NtRp2455
(dp2456
g74
(dp2457
sg83
g79
sg76
(lp2458
g69
(g90
g71
NtRp2459
(dp2460
g74
(dp2461
g94
g95
ssg83
g2455
sg76
(lp2462
S'post_vars'
p2463
asbag69
(g90
g71
NtRp2464
(dp2465
g74
(dp2466
g101
g102
ssg83
g2455
sg76
(lp2467
S':'
asbag69
(g90
g71
NtRp2468
(dp2469
g74
(dp2470
sg83
g2455
sg76
(lp2471
g69
(g70
g71
NtRp2472
(dp2473
g74
(dp2474
g82
I5
ssg83
g2468
sg76
(lp2475
g69
(g78
g71
NtRp2476
(dp2477
g74
(dp2478
g82
I4
ssg83
Nsg76
(lp2479
sbasbasbasbag69
(g85
g71
NtRp2480
(dp2481
g74
(dp2482
sg83
g79
sg76
(lp2483
g69
(g90
g71
NtRp2484
(dp2485
g74
(dp2486
g94
g95
ssg83
g2480
sg76
(lp2487
S'raw_args'
p2488
asbag69
(g90
g71
NtRp2489
(dp2490
g74
(dp2491
g101
g102
ssg83
g2480
sg76
(lp2492
S':'
asbag69
(g90
g71
NtRp2493
(dp2494
g74
(dp2495
sg83
g2480
sg76
(lp2496
g69
(g70
g71
NtRp2497
(dp2498
g74
(dp2499
g82
I5
ssg83
g2493
sg76
(lp2500
S'3/2'
p2501
asbasbasbag69
(g85
g71
NtRp2502
(dp2503
g74
(dp2504
sg83
g79
sg76
(lp2505
g69
(g90
g71
NtRp2506
(dp2507
g74
(dp2508
g94
g95
ssg83
g2502
sg76
(lp2509
S'raw_extension'
p2510
asbag69
(g90
g71
NtRp2511
(dp2512
g74
(dp2513
g101
g102
ssg83
g2502
sg76
(lp2514
S':'
asbag69
(g90
g71
NtRp2515
(dp2516
g74
(dp2517
sg83
g2502
sg76
(lp2518
g69
(g70
g71
NtRp2519
(dp2520
g74
(dp2521
g82
I5
ssg83
g2515
sg76
(lp2522
S'None'
p2523
asbasbasbag69
(g85
g71
NtRp2524
(dp2525
g74
(dp2526
sg83
g79
sg76
(lp2527
g69
(g90
g71
NtRp2528
(dp2529
g74
(dp2530
g94
g95
ssg83
g2524
sg76
(lp2531
S'url'
p2532
asbag69
(g90
g71
NtRp2533
(dp2534
g74
(dp2535
g101
g102
ssg83
g2524
sg76
(lp2536
S':'
asbag69
(g90
g71
NtRp2537
(dp2538
g74
(dp2539
sg83
g2524
sg76
(lp2540
g69
(g70
g71
NtRp2541
(dp2542
g74
(dp2543
g82
I5
ssg83
g2537
sg76
(lp2544
g1372
asbasbasbag69
(g85
g71
NtRp2545
(dp2546
g74
(dp2547
sg83
g79
sg76
(lp2548
g69
(g90
g71
NtRp2549
(dp2550
g74
(dp2551
g94
g95
ssg83
g2545
sg76
(lp2552
S'utcnow'
p2553
asbag69
(g90
g71
NtRp2554
(dp2555
g74
(dp2556
g101
g102
ssg83
g2545
sg76
(lp2557
S':'
asbag69
(g90
g71
NtRp2558
(dp2559
g74
(dp2560
sg83
g2545
sg76
(lp2561
g69
(g70
g71
NtRp2562
(dp2563
g74
(dp2564
g82
I5
ssg83
g2558
sg76
(lp2565
S'datetime.datetime(2013, 8, 27, 8, 50, 47, 867965)'
p2566
asbasbasbag69
(g85
g71
NtRp2567
(dp2568
g74
(dp2569
sg83
g79
sg76
(lp2570
g69
(g90
g71
NtRp2571
(dp2572
g74
(dp2573
g94
g95
ssg83
g2567
sg76
(lp2574
S'uuid'
p2575
asbag69
(g90
g71
NtRp2576
(dp2577
g74
(dp2578
g101
g102
ssg83
g2567
sg76
(lp2579
S':'
asbag69
(g90
g71
NtRp2580
(dp2581
g74
(dp2582
sg83
g2567
sg76
(lp2583
g69
(g70
g71
NtRp2584
(dp2585
g74
(dp2586
g82
I5
ssg83
g2580
sg76
(lp2587
S'assignmen3/127.0.0.1.2013-08-27.14-20-47.0920b143-5a85-4f7f-b54e-57eb4e4c50df'
p2588
asbasbasbag69
(g85
g71
NtRp2589
(dp2590
g74
(dp2591
sg83
g79
sg76
(lp2592
g69
(g90
g71
NtRp2593
(dp2594
g74
(dp2595
g94
g95
ssg83
g2589
sg76
(lp2596
S'vars'
p2597
asbag69
(g90
g71
NtRp2598
(dp2599
g74
(dp2600
g101
g102
ssg83
g2589
sg76
(lp2601
S':'
asbag69
(g90
g71
NtRp2602
(dp2603
g74
(dp2604
sg83
g2589
sg76
(lp2605
g69
(g70
g71
NtRp2606
(dp2607
g74
(dp2608
g82
I5
ssg83
g2602
sg76
(lp2609
g69
(g78
g71
NtRp2610
(dp2611
g74
(dp2612
g82
I4
ssg83
Nsg76
(lp2613
sbasbasbasbag69
(g85
g71
NtRp2614
(dp2615
g74
(dp2616
sg83
g79
sg76
(lp2617
g69
(g90
g71
NtRp2618
(dp2619
g74
(dp2620
g94
g95
ssg83
g2614
sg76
(lp2621
S'wsgi'
p2622
asbag69
(g90
g71
NtRp2623
(dp2624
g74
(dp2625
g101
g102
ssg83
g2614
sg76
(lp2626
S':'
asbag69
(g90
g71
NtRp2627
(dp2628
g74
(dp2629
sg83
g2614
sg76
(lp2630
g69
(g70
g71
NtRp2631
(dp2632
g74
(dp2633
g82
I5
ssg83
g2627
sg76
(lp2634
g69
(g78
g71
NtRp2635
(dp2636
g74
(dp2637
g82
I4
ssg83
Nsg76
(lp2638
g69
(g85
g71
NtRp2639
(dp2640
g74
(dp2641
sg83
g2635
sg76
(lp2642
g69
(g90
g71
NtRp2643
(dp2644
g74
(dp2645
g94
g95
ssg83
g2639
sg76
(lp2646
S'environ'
p2647
asbag69
(g90
g71
NtRp2648
(dp2649
g74
(dp2650
g101
g102
ssg83
g2639
sg76
(lp2651
S':'
asbag69
(g90
g71
NtRp2652
(dp2653
g74
(dp2654
sg83
g2639
sg76
(lp2655
g69
(g70
g71
NtRp2656
(dp2657
g74
(dp2658
g82
I4
ssg83
g2652
sg76
(lp2659
g69
(g78
g71
NtRp2660
(dp2661
g74
(dp2662
g82
I3
ssg83
Nsg76
(lp2663
g69
(g85
g71
NtRp2664
(dp2665
g74
(dp2666
sg83
g2660
sg76
(lp2667
g69
(g90
g71
NtRp2668
(dp2669
g74
(dp2670
g94
g95
ssg83
g2664
sg76
(lp2671
S'HTTP_ACCEPT'
p2672
asbag69
(g90
g71
NtRp2673
(dp2674
g74
(dp2675
g101
g102
ssg83
g2664
sg76
(lp2676
S':'
asbag69
(g90
g71
NtRp2677
(dp2678
g74
(dp2679
sg83
g2664
sg76
(lp2680
g69
(g70
g71
NtRp2681
(dp2682
g74
(dp2683
g82
I3
ssg83
g2677
sg76
(lp2684
g1064
asbasbasbag69
(g85
g71
NtRp2685
(dp2686
g74
(dp2687
sg83
g2660
sg76
(lp2688
g69
(g90
g71
NtRp2689
(dp2690
g74
(dp2691
g94
g95
ssg83
g2685
sg76
(lp2692
S'HTTP_ACCEPT_ENCODING'
p2693
asbag69
(g90
g71
NtRp2694
(dp2695
g74
(dp2696
g101
g102
ssg83
g2685
sg76
(lp2697
S':'
asbag69
(g90
g71
NtRp2698
(dp2699
g74
(dp2700
sg83
g2685
sg76
(lp2701
g69
(g70
g71
NtRp2702
(dp2703
g74
(dp2704
g82
I3
ssg83
g2698
sg76
(lp2705
g1086
asbasbasbag69
(g85
g71
NtRp2706
(dp2707
g74
(dp2708
sg83
g2660
sg76
(lp2709
g69
(g90
g71
NtRp2710
(dp2711
g74
(dp2712
g94
g95
ssg83
g2706
sg76
(lp2713
S'HTTP_ACCEPT_LANGUAGE'
p2714
asbag69
(g90
g71
NtRp2715
(dp2716
g74
(dp2717
g101
g102
ssg83
g2706
sg76
(lp2718
S':'
asbag69
(g90
g71
NtRp2719
(dp2720
g74
(dp2721
sg83
g2706
sg76
(lp2722
g69
(g70
g71
NtRp2723
(dp2724
g74
(dp2725
g82
I3
ssg83
g2719
sg76
(lp2726
g1108
asbasbasbag69
(g85
g71
NtRp2727
(dp2728
g74
(dp2729
sg83
g2660
sg76
(lp2730
g69
(g90
g71
NtRp2731
(dp2732
g74
(dp2733
g94
g95
ssg83
g2727
sg76
(lp2734
S'HTTP_CONNECTION'
p2735
asbag69
(g90
g71
NtRp2736
(dp2737
g74
(dp2738
g101
g102
ssg83
g2727
sg76
(lp2739
S':'
asbag69
(g90
g71
NtRp2740
(dp2741
g74
(dp2742
sg83
g2727
sg76
(lp2743
g69
(g70
g71
NtRp2744
(dp2745
g74
(dp2746
g82
I3
ssg83
g2740
sg76
(lp2747
g1130
asbasbasbag69
(g85
g71
NtRp2748
(dp2749
g74
(dp2750
sg83
g2660
sg76
(lp2751
g69
(g90
g71
NtRp2752
(dp2753
g74
(dp2754
g94
g95
ssg83
g2748
sg76
(lp2755
S'HTTP_COOKIE'
p2756
asbag69
(g90
g71
NtRp2757
(dp2758
g74
(dp2759
g101
g102
ssg83
g2748
sg76
(lp2760
S':'
asbag69
(g90
g71
NtRp2761
(dp2762
g74
(dp2763
sg83
g2748
sg76
(lp2764
g69
(g70
g71
NtRp2765
(dp2766
g74
(dp2767
g82
I3
ssg83
g2761
sg76
(lp2768
g1152
asbasbasbag69
(g85
g71
NtRp2769
(dp2770
g74
(dp2771
sg83
g2660
sg76
(lp2772
g69
(g90
g71
NtRp2773
(dp2774
g74
(dp2775
g94
g95
ssg83
g2769
sg76
(lp2776
S'HTTP_HOST'
p2777
asbag69
(g90
g71
NtRp2778
(dp2779
g74
(dp2780
g101
g102
ssg83
g2769
sg76
(lp2781
S':'
asbag69
(g90
g71
NtRp2782
(dp2783
g74
(dp2784
sg83
g2769
sg76
(lp2785
g69
(g70
g71
NtRp2786
(dp2787
g74
(dp2788
g82
I3
ssg83
g2782
sg76
(lp2789
g1174
asbasbasbag69
(g85
g71
NtRp2790
(dp2791
g74
(dp2792
sg83
g2660
sg76
(lp2793
g69
(g90
g71
NtRp2794
(dp2795
g74
(dp2796
g94
g95
ssg83
g2790
sg76
(lp2797
S'HTTP_REFERER'
p2798
asbag69
(g90
g71
NtRp2799
(dp2800
g74
(dp2801
g101
g102
ssg83
g2790
sg76
(lp2802
S':'
asbag69
(g90
g71
NtRp2803
(dp2804
g74
(dp2805
sg83
g2790
sg76
(lp2806
g69
(g70
g71
NtRp2807
(dp2808
g74
(dp2809
g82
I3
ssg83
g2803
sg76
(lp2810
g1196
asbasbasbag69
(g85
g71
NtRp2811
(dp2812
g74
(dp2813
sg83
g2660
sg76
(lp2814
g69
(g90
g71
NtRp2815
(dp2816
g74
(dp2817
g94
g95
ssg83
g2811
sg76
(lp2818
S'HTTP_USER_AGENT'
p2819
asbag69
(g90
g71
NtRp2820
(dp2821
g74
(dp2822
g101
g102
ssg83
g2811
sg76
(lp2823
S':'
asbag69
(g90
g71
NtRp2824
(dp2825
g74
(dp2826
sg83
g2811
sg76
(lp2827
g69
(g70
g71
NtRp2828
(dp2829
g74
(dp2830
g82
I3
ssg83
g2824
sg76
(lp2831
g1218
asbasbasbag69
(g85
g71
NtRp2832
(dp2833
g74
(dp2834
sg83
g2660
sg76
(lp2835
g69
(g90
g71
NtRp2836
(dp2837
g74
(dp2838
g94
g95
ssg83
g2832
sg76
(lp2839
S'PATH_INFO'
p2840
asbag69
(g90
g71
NtRp2841
(dp2842
g74
(dp2843
g101
g102
ssg83
g2832
sg76
(lp2844
S':'
asbag69
(g90
g71
NtRp2845
(dp2846
g74
(dp2847
sg83
g2832
sg76
(lp2848
g69
(g70
g71
NtRp2849
(dp2850
g74
(dp2851
g82
I3
ssg83
g2845
sg76
(lp2852
g1372
asbasbasbag69
(g85
g71
NtRp2853
(dp2854
g74
(dp2855
sg83
g2660
sg76
(lp2856
g69
(g90
g71
NtRp2857
(dp2858
g74
(dp2859
g94
g95
ssg83
g2853
sg76
(lp2860
S'QUERY_STRING'
p2861
asbag69
(g90
g71
NtRp2862
(dp2863
g74
(dp2864
g101
g102
ssg83
g2853
sg76
(lp2865
S':'
asbag69
(g90
g71
NtRp2866
(dp2867
g74
(dp2868
sg83
g2853
sg76
(lp2869
g69
(g70
g71
NtRp2870
(dp2871
g74
(dp2872
g82
I3
ssg83
g2866
sg76
(lp2873
S''
asbasbasbag69
(g85
g71
NtRp2874
(dp2875
g74
(dp2876
sg83
g2660
sg76
(lp2877
g69
(g90
g71
NtRp2878
(dp2879
g74
(dp2880
g94
g95
ssg83
g2874
sg76
(lp2881
S'REMOTE_ADDR'
p2882
asbag69
(g90
g71
NtRp2883
(dp2884
g74
(dp2885
g101
g102
ssg83
g2874
sg76
(lp2886
S':'
asbag69
(g90
g71
NtRp2887
(dp2888
g74
(dp2889
sg83
g2874
sg76
(lp2890
g69
(g70
g71
NtRp2891
(dp2892
g74
(dp2893
g82
I3
ssg83
g2887
sg76
(lp2894
g248
asbasbasbag69
(g85
g71
NtRp2895
(dp2896
g74
(dp2897
sg83
g2660
sg76
(lp2898
g69
(g90
g71
NtRp2899
(dp2900
g74
(dp2901
g94
g95
ssg83
g2895
sg76
(lp2902
S'REMOTE_PORT'
p2903
asbag69
(g90
g71
NtRp2904
(dp2905
g74
(dp2906
g101
g102
ssg83
g2895
sg76
(lp2907
S':'
asbag69
(g90
g71
NtRp2908
(dp2909
g74
(dp2910
sg83
g2895
sg76
(lp2911
g69
(g70
g71
NtRp2912
(dp2913
g74
(dp2914
g82
I3
ssg83
g2908
sg76
(lp2915
g1436
asbasbasbag69
(g85
g71
NtRp2916
(dp2917
g74
(dp2918
sg83
g2660
sg76
(lp2919
g69
(g90
g71
NtRp2920
(dp2921
g74
(dp2922
g94
g95
ssg83
g2916
sg76
(lp2923
S'REQUEST_METHOD'
p2924
asbag69
(g90
g71
NtRp2925
(dp2926
g74
(dp2927
g101
g102
ssg83
g2916
sg76
(lp2928
S':'
asbag69
(g90
g71
NtRp2929
(dp2930
g74
(dp2931
sg83
g2916
sg76
(lp2932
g69
(g70
g71
NtRp2933
(dp2934
g74
(dp2935
g82
I3
ssg83
g2929
sg76
(lp2936
g1458
asbasbasbag69
(g85
g71
NtRp2937
(dp2938
g74
(dp2939
sg83
g2660
sg76
(lp2940
g69
(g90
g71
NtRp2941
(dp2942
g74
(dp2943
g94
g95
ssg83
g2937
sg76
(lp2944
S'REQUEST_URI'
p2945
asbag69
(g90
g71
NtRp2946
(dp2947
g74
(dp2948
g101
g102
ssg83
g2937
sg76
(lp2949
S':'
asbag69
(g90
g71
NtRp2950
(dp2951
g74
(dp2952
sg83
g2937
sg76
(lp2953
g69
(g70
g71
NtRp2954
(dp2955
g74
(dp2956
g82
I3
ssg83
g2950
sg76
(lp2957
g1372
asbasbasbag69
(g85
g71
NtRp2958
(dp2959
g74
(dp2960
sg83
g2660
sg76
(lp2961
g69
(g90
g71
NtRp2962
(dp2963
g74
(dp2964
g94
g95
ssg83
g2958
sg76
(lp2965
S'SCRIPT_NAME'
p2966
asbag69
(g90
g71
NtRp2967
(dp2968
g74
(dp2969
g101
g102
ssg83
g2958
sg76
(lp2970
S':'
asbag69
(g90
g71
NtRp2971
(dp2972
g74
(dp2973
sg83
g2958
sg76
(lp2974
g69
(g70
g71
NtRp2975
(dp2976
g74
(dp2977
g82
I3
ssg83
g2971
sg76
(lp2978
S''
asbasbasbag69
(g85
g71
NtRp2979
(dp2980
g74
(dp2981
sg83
g2660
sg76
(lp2982
g69
(g90
g71
NtRp2983
(dp2984
g74
(dp2985
g94
g95
ssg83
g2979
sg76
(lp2986
S'SERVER_NAME'
p2987
asbag69
(g90
g71
NtRp2988
(dp2989
g74
(dp2990
g101
g102
ssg83
g2979
sg76
(lp2991
S':'
asbag69
(g90
g71
NtRp2992
(dp2993
g74
(dp2994
sg83
g2979
sg76
(lp2995
g69
(g70
g71
NtRp2996
(dp2997
g74
(dp2998
g82
I3
ssg83
g2992
sg76
(lp2999
g1522
asbasbasbag69
(g85
g71
NtRp3000
(dp3001
g74
(dp3002
sg83
g2660
sg76
(lp3003
g69
(g90
g71
NtRp3004
(dp3005
g74
(dp3006
g94
g95
ssg83
g3000
sg76
(lp3007
S'SERVER_PORT'
p3008
asbag69
(g90
g71
NtRp3009
(dp3010
g74
(dp3011
g101
g102
ssg83
g3000
sg76
(lp3012
S':'
asbag69
(g90
g71
NtRp3013
(dp3014
g74
(dp3015
sg83
g3000
sg76
(lp3016
g69
(g70
g71
NtRp3017
(dp3018
g74
(dp3019
g82
I3
ssg83
g3013
sg76
(lp3020
g1544
asbasbasbag69
(g85
g71
NtRp3021
(dp3022
g74
(dp3023
sg83
g2660
sg76
(lp3024
g69
(g90
g71
NtRp3025
(dp3026
g74
(dp3027
g94
g95
ssg83
g3021
sg76
(lp3028
S'SERVER_PROTOCOL'
p3029
asbag69
(g90
g71
NtRp3030
(dp3031
g74
(dp3032
g101
g102
ssg83
g3021
sg76
(lp3033
S':'
asbag69
(g90
g71
NtRp3034
(dp3035
g74
(dp3036
sg83
g3021
sg76
(lp3037
g69
(g70
g71
NtRp3038
(dp3039
g74
(dp3040
g82
I3
ssg83
g3034
sg76
(lp3041
g1566
asbasbasbag69
(g85
g71
NtRp3042
(dp3043
g74
(dp3044
sg83
g2660
sg76
(lp3045
g69
(g90
g71
NtRp3046
(dp3047
g74
(dp3048
g94
g95
ssg83
g3042
sg76
(lp3049
S'SERVER_SOFTWARE'
p3050
asbag69
(g90
g71
NtRp3051
(dp3052
g74
(dp3053
g101
g102
ssg83
g3042
sg76
(lp3054
S':'
asbag69
(g90
g71
NtRp3055
(dp3056
g74
(dp3057
sg83
g3042
sg76
(lp3058
g69
(g70
g71
NtRp3059
(dp3060
g74
(dp3061
g82
I3
ssg83
g3055
sg76
(lp3062
g1588
asbasbasbag69
(g85
g71
NtRp3063
(dp3064
g74
(dp3065
sg83
g2660
sg76
(lp3066
g69
(g90
g71
NtRp3067
(dp3068
g74
(dp3069
g94
g95
ssg83
g3063
sg76
(lp3070
S'wsgi.errors'
p3071
asbag69
(g90
g71
NtRp3072
(dp3073
g74
(dp3074
g101
g102
ssg83
g3063
sg76
(lp3075
S':'
asbag69
(g90
g71
NtRp3076
(dp3077
g74
(dp3078
sg83
g3063
sg76
(lp3079
g69
(g70
g71
NtRp3080
(dp3081
g74
(dp3082
g82
I3
ssg83
g3076
sg76
(lp3083
S"<open file '<stderr>', mode 'w' at 0x7f953b4c2270>"
p3084
asbasbasbag69
(g85
g71
NtRp3085
(dp3086
g74
(dp3087
sg83
g2660
sg76
(lp3088
g69
(g90
g71
NtRp3089
(dp3090
g74
(dp3091
g94
g95
ssg83
g3085
sg76
(lp3092
S'wsgi.file_wrapper'
p3093
asbag69
(g90
g71
NtRp3094
(dp3095
g74
(dp3096
g101
g102
ssg83
g3085
sg76
(lp3097
S':'
asbag69
(g90
g71
NtRp3098
(dp3099
g74
(dp3100
sg83
g3085
sg76
(lp3101
g69
(g70
g71
NtRp3102
(dp3103
g74
(dp3104
g82
I3
ssg83
g3098
sg76
(lp3105
S'<class wsgiref.util.FileWrapper at 0x1601b48>'
p3106
asbasbasbag69
(g85
g71
NtRp3107
(dp3108
g74
(dp3109
sg83
g2660
sg76
(lp3110
g69
(g90
g71
NtRp3111
(dp3112
g74
(dp3113
g94
g95
ssg83
g3107
sg76
(lp3114
S'wsgi.input'
p3115
asbag69
(g90
g71
NtRp3116
(dp3117
g74
(dp3118
g101
g102
ssg83
g3107
sg76
(lp3119
S':'
asbag69
(g90
g71
NtRp3120
(dp3121
g74
(dp3122
sg83
g3107
sg76
(lp3123
g69
(g70
g71
NtRp3124
(dp3125
g74
(dp3126
g82
I3
ssg83
g3120
sg76
(lp3127
S'<cStringIO.StringO object at 0x1a01618>'
p3128
asbasbasbag69
(g85
g71
NtRp3129
(dp3130
g74
(dp3131
sg83
g2660
sg76
(lp3132
g69
(g90
g71
NtRp3133
(dp3134
g74
(dp3135
g94
g95
ssg83
g3129
sg76
(lp3136
S'wsgi.multiprocess'
p3137
asbag69
(g90
g71
NtRp3138
(dp3139
g74
(dp3140
g101
g102
ssg83
g3129
sg76
(lp3141
S':'
asbag69
(g90
g71
NtRp3142
(dp3143
g74
(dp3144
sg83
g3129
sg76
(lp3145
g69
(g70
g71
NtRp3146
(dp3147
g74
(dp3148
g82
I3
ssg83
g3142
sg76
(lp3149
g112
asbasbasbag69
(g85
g71
NtRp3150
(dp3151
g74
(dp3152
sg83
g2660
sg76
(lp3153
g69
(g90
g71
NtRp3154
(dp3155
g74
(dp3156
g94
g95
ssg83
g3150
sg76
(lp3157
S'wsgi.multithread'
p3158
asbag69
(g90
g71
NtRp3159
(dp3160
g74
(dp3161
g101
g102
ssg83
g3150
sg76
(lp3162
S':'
asbag69
(g90
g71
NtRp3163
(dp3164
g74
(dp3165
sg83
g3150
sg76
(lp3166
g69
(g70
g71
NtRp3167
(dp3168
g74
(dp3169
g82
I3
ssg83
g3163
sg76
(lp3170
g1805
asbasbasbag69
(g85
g71
NtRp3171
(dp3172
g74
(dp3173
sg83
g2660
sg76
(lp3174
g69
(g90
g71
NtRp3175
(dp3176
g74
(dp3177
g94
g95
ssg83
g3171
sg76
(lp3178
S'wsgi.run_once'
p3179
asbag69
(g90
g71
NtRp3180
(dp3181
g74
(dp3182
g101
g102
ssg83
g3171
sg76
(lp3183
S':'
asbag69
(g90
g71
NtRp3184
(dp3185
g74
(dp3186
sg83
g3171
sg76
(lp3187
g69
(g70
g71
NtRp3188
(dp3189
g74
(dp3190
g82
I3
ssg83
g3184
sg76
(lp3191
g112
asbasbasbag69
(g85
g71
NtRp3192
(dp3193
g74
(dp3194
sg83
g2660
sg76
(lp3195
g69
(g90
g71
NtRp3196
(dp3197
g74
(dp3198
g94
g95
ssg83
g3192
sg76
(lp3199
S'wsgi.url_scheme'
p3200
asbag69
(g90
g71
NtRp3201
(dp3202
g74
(dp3203
g101
g102
ssg83
g3192
sg76
(lp3204
S':'
asbag69
(g90
g71
NtRp3205
(dp3206
g74
(dp3207
sg83
g3192
sg76
(lp3208
g69
(g70
g71
NtRp3209
(dp3210
g74
(dp3211
g82
I3
ssg83
g3205
sg76
(lp3212
g1848
asbasbasbag69
(g85
g71
NtRp3213
(dp3214
g74
(dp3215
sg83
g2660
sg76
(lp3216
g69
(g90
g71
NtRp3217
(dp3218
g74
(dp3219
g94
g95
ssg83
g3213
sg76
(lp3220
S'wsgi.version'
p3221
asbag69
(g90
g71
NtRp3222
(dp3223
g74
(dp3224
g101
g102
ssg83
g3213
sg76
(lp3225
S':'
asbag69
(g90
g71
NtRp3226
(dp3227
g74
(dp3228
sg83
g3213
sg76
(lp3229
g69
(g70
g71
NtRp3230
(dp3231
g74
(dp3232
g82
I3
ssg83
g3226
sg76
(lp3233
S'1'
asbasbasbasbasbasbasbasbasbasbasbasbasbsS'frames'
p3234
(lp3235
(dp3236
S'file'
p3237
S'/home/umang/web2py/gluon/restricted.py'
p3238
sS'dump'
p3239
(dp3240
S'code'
p3241
S'\'response.write(\\\'<!DOCTYPE html>\\\\n<!-- paulirish...."></script>\\\\n</body>\\\\n</html>\\\\n\\\\n\\\', escape=False)\''
p3242
sS'layer'
p3243
S"'/home/umang/web2py/applications/assignmen3/views/default/like.html'"
p3244
sS'global compile2'
p3245
S'<function compile2>'
p3246
sS'ccode'
p3247
S'undefined'
p3248
ssS'lnum'
p3249
I211
sS'lines'
p3250
(dp3251
I206
S"    environment['__name__'] = '__restricted__'"
p3252
sI207
S'    try:'
p3253
sI208
S'        if isinstance(code, types.CodeType):'
p3254
sI209
S'            ccode = code'
p3255
sI210
S'        else:'
p3256
sI211
S'            ccode = compile2(code, layer)'
p3257
sI212
S'        exec ccode in environment'
p3258
sI213
S'    except HTTP:'
p3259
sI214
S'        raise'
p3260
sI215
S'    except RestrictedError:'
p3261
ssS'call'
p3262
S'(code=\'response.write(\\\'<!DOCTYPE html>\\\\n<!-- paulirish...."></script>\\\\n</body>\\\\n</html>\\\\n\\\\n\\\', escape=False)\', environment={\'A\': <class \'gluon.html.A\'>, \'Auth\': <class \'gluon.tools.Auth\'>, \'B\': <class \'gluon.html.B\'>, \'BEAUTIFY\': <class \'gluon.html.BEAUTIFY\'>, \'BODY\': <class \'gluon.html.BODY\'>, \'BR\': <class \'gluon.html.BR\'>, \'BUTTON\': <class \'gluon.html.BUTTON\'>, \'CAT\': <class \'gluon.html.CAT\'>, \'CENTER\': <class \'gluon.html.CENTER\'>, \'CLEANUP\': <class \'gluon.validators.CLEANUP\'>, ...}, layer=\'/home/umang/web2py/applications/assignmen3/views/default/like.html\')'
p3263
sS'func'
p3264
S'restricted'
p3265
sa(dp3266
g3237
S'/home/umang/web2py/gluon/restricted.py'
p3267
sg3239
(dp3268
S'builtincompile'
p3269
S'<built-in function compile>'
p3270
sS'code'
p3271
S'\'response.write(\\\'<!DOCTYPE html>\\\\n<!-- paulirish...."></script>\\\\n</body>\\\\n</html>\\\\n\\\\n\\\', escape=False)\''
p3272
sS'code.rstrip'
p3273
S'<built-in method rstrip of str object>'
p3274
sS').replace'
p3275
g3248
sS'layer'
p3276
S"'/home/umang/web2py/applications/assignmen3/views/default/like.html'"
p3277
ssg3249
I194
sg3250
(dp3278
I192
S"    The +'\\n' is necessary else compile fails when code ends in a comment."
p3279
sI193
S'    """'
p3280
sI194
S"    return compile(code.rstrip().replace('\\r\\n', '\\n') + '\\n', layer, 'exec')"
p3281
sI195
S''
sI196
S''
sI197
S"def restricted(code, environment=None, layer='Unknown'):"
p3282
sI198
S'    """'
p3283
sI189
S''
sI190
S'def compile2(code, layer):'
p3284
sI191
S'    """'
p3285
ssg3262
S'(code=\'response.write(\\\'<!DOCTYPE html>\\\\n<!-- paulirish...."></script>\\\\n</body>\\\\n</html>\\\\n\\\\n\\\', escape=False)\', layer=\'/home/umang/web2py/applications/assignmen3/views/default/like.html\')'
p3286
sg3264
S'compile2'
p3287
sasS'pyver'
p3288
S'Python 2.7.3: /usr/bin/python'
p3289
sS'session'
p3290
g69
(g70
g71
NtRp3291
(dp3292
g74
(dp3293
sg76
(lp3294
g69
(g78
g71
NtRp3295
(dp3296
g74
(dp3297
g82
I5
ssg83
Nsg76
(lp3298
g69
(g85
g71
NtRp3299
(dp3300
g74
(dp3301
sg83
g3295
sg76
(lp3302
g69
(g90
g71
NtRp3303
(dp3304
g74
(dp3305
g94
g95
ssg83
g3299
sg76
(lp3306
S'auth'
p3307
asbag69
(g90
g71
NtRp3308
(dp3309
g74
(dp3310
g101
g102
ssg83
g3299
sg76
(lp3311
S':'
asbag69
(g90
g71
NtRp3312
(dp3313
g74
(dp3314
sg83
g3299
sg76
(lp3315
g69
(g70
g71
NtRp3316
(dp3317
g74
(dp3318
g82
I5
ssg83
g3312
sg76
(lp3319
g69
(g78
g71
NtRp3320
(dp3321
g74
(dp3322
g82
I4
ssg83
Nsg76
(lp3323
g69
(g85
g71
NtRp3324
(dp3325
g74
(dp3326
sg83
g3320
sg76
(lp3327
g69
(g90
g71
NtRp3328
(dp3329
g74
(dp3330
g94
g95
ssg83
g3324
sg76
(lp3331
S'expiration'
p3332
asbag69
(g90
g71
NtRp3333
(dp3334
g74
(dp3335
g101
g102
ssg83
g3324
sg76
(lp3336
S':'
asbag69
(g90
g71
NtRp3337
(dp3338
g74
(dp3339
sg83
g3324
sg76
(lp3340
g69
(g70
g71
NtRp3341
(dp3342
g74
(dp3343
g82
I4
ssg83
g3337
sg76
(lp3344
S'3600'
p3345
asbasbasbag69
(g85
g71
NtRp3346
(dp3347
g74
(dp3348
sg83
g3320
sg76
(lp3349
g69
(g90
g71
NtRp3350
(dp3351
g74
(dp3352
g94
g95
ssg83
g3346
sg76
(lp3353
S'hmac_key'
p3354
asbag69
(g90
g71
NtRp3355
(dp3356
g74
(dp3357
g101
g102
ssg83
g3346
sg76
(lp3358
S':'
asbag69
(g90
g71
NtRp3359
(dp3360
g74
(dp3361
sg83
g3346
sg76
(lp3362
g69
(g70
g71
NtRp3363
(dp3364
g74
(dp3365
g82
I4
ssg83
g3359
sg76
(lp3366
S'4107bf60-9c3d-438f-9050-70f5ba162069'
p3367
asbasbasbag69
(g85
g71
NtRp3368
(dp3369
g74
(dp3370
sg83
g3320
sg76
(lp3371
g69
(g90
g71
NtRp3372
(dp3373
g74
(dp3374
g94
g95
ssg83
g3368
sg76
(lp3375
S'last_visit'
p3376
asbag69
(g90
g71
NtRp3377
(dp3378
g74
(dp3379
g101
g102
ssg83
g3368
sg76
(lp3380
S':'
asbag69
(g90
g71
NtRp3381
(dp3382
g74
(dp3383
sg83
g3368
sg76
(lp3384
g69
(g70
g71
NtRp3385
(dp3386
g74
(dp3387
g82
I4
ssg83
g3381
sg76
(lp3388
S'datetime.datetime(2013, 8, 27, 14, 20, 45, 501697)'
p3389
asbasbasbag69
(g85
g71
NtRp3390
(dp3391
g74
(dp3392
sg83
g3320
sg76
(lp3393
g69
(g90
g71
NtRp3394
(dp3395
g74
(dp3396
g94
g95
ssg83
g3390
sg76
(lp3397
S'remember'
p3398
asbag69
(g90
g71
NtRp3399
(dp3400
g74
(dp3401
g101
g102
ssg83
g3390
sg76
(lp3402
S':'
asbag69
(g90
g71
NtRp3403
(dp3404
g74
(dp3405
sg83
g3390
sg76
(lp3406
g69
(g70
g71
NtRp3407
(dp3408
g74
(dp3409
g82
I4
ssg83
g3403
sg76
(lp3410
g112
asbasbasbag69
(g85
g71
NtRp3411
(dp3412
g74
(dp3413
sg83
g3320
sg76
(lp3414
g69
(g90
g71
NtRp3415
(dp3416
g74
(dp3417
g94
g95
ssg83
g3411
sg76
(lp3418
S'user'
p3419
asbag69
(g90
g71
NtRp3420
(dp3421
g74
(dp3422
g101
g102
ssg83
g3411
sg76
(lp3423
S':'
asbag69
(g90
g71
NtRp3424
(dp3425
g74
(dp3426
sg83
g3411
sg76
(lp3427
g69
(g70
g71
NtRp3428
(dp3429
g74
(dp3430
g82
I4
ssg83
g3424
sg76
(lp3431
g69
(g78
g71
NtRp3432
(dp3433
g74
(dp3434
g82
I3
ssg83
Nsg76
(lp3435
g69
(g85
g71
NtRp3436
(dp3437
g74
(dp3438
sg83
g3432
sg76
(lp3439
g69
(g90
g71
NtRp3440
(dp3441
g74
(dp3442
g94
g95
ssg83
g3436
sg76
(lp3443
S'email'
p3444
asbag69
(g90
g71
NtRp3445
(dp3446
g74
(dp3447
g101
g102
ssg83
g3436
sg76
(lp3448
S':'
asbag69
(g90
g71
NtRp3449
(dp3450
g74
(dp3451
sg83
g3436
sg76
(lp3452
g69
(g70
g71
NtRp3453
(dp3454
g74
(dp3455
g82
I3
ssg83
g3449
sg76
(lp3456
S'umang.goel@students.iiit.ac.in'
p3457
asbasbasbag69
(g85
g71
NtRp3458
(dp3459
g74
(dp3460
sg83
g3432
sg76
(lp3461
g69
(g90
g71
NtRp3462
(dp3463
g74
(dp3464
g94
g95
ssg83
g3458
sg76
(lp3465
S'first_name'
p3466
asbag69
(g90
g71
NtRp3467
(dp3468
g74
(dp3469
g101
g102
ssg83
g3458
sg76
(lp3470
S':'
asbag69
(g90
g71
NtRp3471
(dp3472
g74
(dp3473
sg83
g3458
sg76
(lp3474
g69
(g70
g71
NtRp3475
(dp3476
g74
(dp3477
g82
I3
ssg83
g3471
sg76
(lp3478
S'Umang'
p3479
asbasbasbag69
(g85
g71
NtRp3480
(dp3481
g74
(dp3482
sg83
g3432
sg76
(lp3483
g69
(g90
g71
NtRp3484
(dp3485
g74
(dp3486
g94
g95
ssg83
g3480
sg76
(lp3487
S'id'
p3488
asbag69
(g90
g71
NtRp3489
(dp3490
g74
(dp3491
g101
g102
ssg83
g3480
sg76
(lp3492
S':'
asbag69
(g90
g71
NtRp3493
(dp3494
g74
(dp3495
sg83
g3480
sg76
(lp3496
g69
(g70
g71
NtRp3497
(dp3498
g74
(dp3499
g82
I3
ssg83
g3493
sg76
(lp3500
S'1'
asbasbasbag69
(g85
g71
NtRp3501
(dp3502
g74
(dp3503
sg83
g3432
sg76
(lp3504
g69
(g90
g71
NtRp3505
(dp3506
g74
(dp3507
g94
g95
ssg83
g3501
sg76
(lp3508
S'last_name'
p3509
asbag69
(g90
g71
NtRp3510
(dp3511
g74
(dp3512
g101
g102
ssg83
g3501
sg76
(lp3513
S':'
asbag69
(g90
g71
NtRp3514
(dp3515
g74
(dp3516
sg83
g3501
sg76
(lp3517
g69
(g70
g71
NtRp3518
(dp3519
g74
(dp3520
g82
I3
ssg83
g3514
sg76
(lp3521
S'Goel'
p3522
asbasbasbag69
(g85
g71
NtRp3523
(dp3524
g74
(dp3525
sg83
g3432
sg76
(lp3526
g69
(g90
g71
NtRp3527
(dp3528
g74
(dp3529
g94
g95
ssg83
g3523
sg76
(lp3530
S'registration_id'
p3531
asbag69
(g90
g71
NtRp3532
(dp3533
g74
(dp3534
g101
g102
ssg83
g3523
sg76
(lp3535
S':'
asbag69
(g90
g71
NtRp3536
(dp3537
g74
(dp3538
sg83
g3523
sg76
(lp3539
g69
(g70
g71
NtRp3540
(dp3541
g74
(dp3542
g82
I3
ssg83
g3536
sg76
(lp3543
S''
asbasbasbag69
(g85
g71
NtRp3544
(dp3545
g74
(dp3546
sg83
g3432
sg76
(lp3547
g69
(g90
g71
NtRp3548
(dp3549
g74
(dp3550
g94
g95
ssg83
g3544
sg76
(lp3551
S'registration_key'
p3552
asbag69
(g90
g71
NtRp3553
(dp3554
g74
(dp3555
g101
g102
ssg83
g3544
sg76
(lp3556
S':'
asbag69
(g90
g71
NtRp3557
(dp3558
g74
(dp3559
sg83
g3544
sg76
(lp3560
g69
(g70
g71
NtRp3561
(dp3562
g74
(dp3563
g82
I3
ssg83
g3557
sg76
(lp3564
S''
asbasbasbag69
(g85
g71
NtRp3565
(dp3566
g74
(dp3567
sg83
g3432
sg76
(lp3568
g69
(g90
g71
NtRp3569
(dp3570
g74
(dp3571
g94
g95
ssg83
g3565
sg76
(lp3572
S'reset_password_key'
p3573
asbag69
(g90
g71
NtRp3574
(dp3575
g74
(dp3576
g101
g102
ssg83
g3565
sg76
(lp3577
S':'
asbag69
(g90
g71
NtRp3578
(dp3579
g74
(dp3580
sg83
g3565
sg76
(lp3581
g69
(g70
g71
NtRp3582
(dp3583
g74
(dp3584
g82
I3
ssg83
g3578
sg76
(lp3585
S''
asbasbasbasbasbasbasbag69
(g85
g71
NtRp3586
(dp3587
g74
(dp3588
sg83
g3320
sg76
(lp3589
g69
(g90
g71
NtRp3590
(dp3591
g74
(dp3592
g94
g95
ssg83
g3586
sg76
(lp3593
S'user_groups'
p3594
asbag69
(g90
g71
NtRp3595
(dp3596
g74
(dp3597
g101
g102
ssg83
g3586
sg76
(lp3598
S':'
asbag69
(g90
g71
NtRp3599
(dp3600
g74
(dp3601
sg83
g3586
sg76
(lp3602
g69
(g70
g71
NtRp3603
(dp3604
g74
(dp3605
g82
I4
ssg83
g3599
sg76
(lp3606
g69
(g78
g71
NtRp3607
(dp3608
g74
(dp3609
g82
I3
ssg83
Nsg76
(lp3610
g69
(g85
g71
NtRp3611
(dp3612
g74
(dp3613
sg83
g3607
sg76
(lp3614
g69
(g90
g71
NtRp3615
(dp3616
g74
(dp3617
g94
g95
ssg83
g3611
sg76
(lp3618
S'1'
asbag69
(g90
g71
NtRp3619
(dp3620
g74
(dp3621
g101
g102
ssg83
g3611
sg76
(lp3622
S':'
asbag69
(g90
g71
NtRp3623
(dp3624
g74
(dp3625
sg83
g3611
sg76
(lp3626
g69
(g70
g71
NtRp3627
(dp3628
g74
(dp3629
g82
I3
ssg83
g3623
sg76
(lp3630
S'user_1'
p3631
asbasbasbasbasbasbasbasbasbasbasbag69
(g85
g71
NtRp3632
(dp3633
g74
(dp3634
sg83
g3295
sg76
(lp3635
g69
(g90
g71
NtRp3636
(dp3637
g74
(dp3638
g94
g95
ssg83
g3632
sg76
(lp3639
S'flash'
p3640
asbag69
(g90
g71
NtRp3641
(dp3642
g74
(dp3643
g101
g102
ssg83
g3632
sg76
(lp3644
S':'
asbag69
(g90
g71
NtRp3645
(dp3646
g74
(dp3647
sg83
g3632
sg76
(lp3648
g69
(g70
g71
NtRp3649
(dp3650
g74
(dp3651
g82
I5
ssg83
g3645
sg76
(lp3652
S'None'
p3653
asbasbasbag69
(g85
g71
NtRp3654
(dp3655
g74
(dp3656
sg83
g3295
sg76
(lp3657
g69
(g90
g71
NtRp3658
(dp3659
g74
(dp3660
g94
g95
ssg83
g3654
sg76
(lp3661
S'last_orderby'
p3662
asbag69
(g90
g71
NtRp3663
(dp3664
g74
(dp3665
g101
g102
ssg83
g3654
sg76
(lp3666
S':'
asbag69
(g90
g71
NtRp3667
(dp3668
g74
(dp3669
sg83
g3654
sg76
(lp3670
g69
(g70
g71
NtRp3671
(dp3672
g74
(dp3673
g82
I5
ssg83
g3667
sg76
(lp3674
S'None'
p3675
asbasbasbag69
(g85
g71
NtRp3676
(dp3677
g74
(dp3678
sg83
g3295
sg76
(lp3679
g69
(g90
g71
NtRp3680
(dp3681
g74
(dp3682
g94
g95
ssg83
g3676
sg76
(lp3683
S'last_query'
p3684
asbag69
(g90
g71
NtRp3685
(dp3686
g74
(dp3687
g101
g102
ssg83
g3676
sg76
(lp3688
S':'
asbag69
(g90
g71
NtRp3689
(dp3690
g74
(dp3691
sg83
g3676
sg76
(lp3692
g69
(g70
g71
NtRp3693
(dp3694
g74
(dp3695
g82
I5
ssg83
g3689
sg76
(lp3696
S'db.rating.id>0'
p3697
asbasbasbasbasbsS'etype'
p3698
S"<type 'exceptions.SyntaxError'>"
p3699
sS'date'
p3700
S'Tue Aug 27 14:20:47 2013'
p3701
sS'response'
p3702
g69
(g70
g71
NtRp3703
(dp3704
g74
(dp3705
sg76
(lp3706
g69
(g78
g71
NtRp3707
(dp3708
g74
(dp3709
g82
I5
ssg83
Nsg76
(lp3710
g69
(g85
g71
NtRp3711
(dp3712
g74
(dp3713
sg83
g3707
sg76
(lp3714
g69
(g90
g71
NtRp3715
(dp3716
g74
(dp3717
g94
g95
ssg83
g3711
sg76
(lp3718
g191
asbag69
(g90
g71
NtRp3719
(dp3720
g74
(dp3721
g101
g102
ssg83
g3711
sg76
(lp3722
S':'
asbag69
(g90
g71
NtRp3723
(dp3724
g74
(dp3725
sg83
g3711
sg76
(lp3726
g69
(g70
g71
NtRp3727
(dp3728
g74
(dp3729
g82
I5
ssg83
g3723
sg76
(lp3730
S'<cStringIO.StringO object at 0x7f95288eac38>'
p3731
asbasbasbag69
(g85
g71
NtRp3732
(dp3733
g74
(dp3734
sg83
g3707
sg76
(lp3735
g69
(g90
g71
NtRp3736
(dp3737
g74
(dp3738
g94
g95
ssg83
g3732
sg76
(lp3739
g279
asbag69
(g90
g71
NtRp3740
(dp3741
g74
(dp3742
g101
g102
ssg83
g3732
sg76
(lp3743
S':'
asbag69
(g90
g71
NtRp3744
(dp3745
g74
(dp3746
sg83
g3732
sg76
(lp3747
g69
(g70
g71
NtRp3748
(dp3749
g74
(dp3750
g82
I5
ssg83
g3744
sg76
(lp3751
g69
(g78
g71
NtRp3752
(dp3753
g74
(dp3754
g82
I4
ssg83
Nsg76
(lp3755
g69
(g85
g71
NtRp3756
(dp3757
g74
(dp3758
sg83
g3752
sg76
(lp3759
g69
(g90
g71
NtRp3760
(dp3761
g74
(dp3762
g94
g95
ssg83
g3756
sg76
(lp3763
S'session_id_assignmen3'
p3764
asbag69
(g90
g71
NtRp3765
(dp3766
g74
(dp3767
g101
g102
ssg83
g3756
sg76
(lp3768
S':'
asbag69
(g90
g71
NtRp3769
(dp3770
g74
(dp3771
sg83
g3756
sg76
(lp3772
g69
(g70
g71
NtRp3773
(dp3774
g74
(dp3775
g82
I4
ssg83
g3769
sg76
(lp3776
g511
ag69
(g78
g71
NtRp3777
(dp3778
g74
(dp3779
g82
I3
ssg83
Nsg76
(lp3780
g69
(g85
g71
NtRp3781
(dp3782
g74
(dp3783
sg83
g3777
sg76
(lp3784
g69
(g90
g71
NtRp3785
(dp3786
g74
(dp3787
g94
g95
ssg83
g3781
sg76
(lp3788
g330
asbag69
(g90
g71
NtRp3789
(dp3790
g74
(dp3791
g101
g102
ssg83
g3781
sg76
(lp3792
S':'
asbag69
(g90
g71
NtRp3793
(dp3794
g74
(dp3795
sg83
g3781
sg76
(lp3796
g69
(g70
g71
NtRp3797
(dp3798
g74
(dp3799
g82
I3
ssg83
g3793
sg76
(lp3800
S''
asbasbasbag69
(g85
g71
NtRp3801
(dp3802
g74
(dp3803
sg83
g3777
sg76
(lp3804
g69
(g90
g71
NtRp3805
(dp3806
g74
(dp3807
g94
g95
ssg83
g3801
sg76
(lp3808
g351
asbag69
(g90
g71
NtRp3809
(dp3810
g74
(dp3811
g101
g102
ssg83
g3801
sg76
(lp3812
S':'
asbag69
(g90
g71
NtRp3813
(dp3814
g74
(dp3815
sg83
g3801
sg76
(lp3816
g69
(g70
g71
NtRp3817
(dp3818
g74
(dp3819
g82
I3
ssg83
g3813
sg76
(lp3820
S''
asbasbasbag69
(g85
g71
NtRp3821
(dp3822
g74
(dp3823
sg83
g3777
sg76
(lp3824
g69
(g90
g71
NtRp3825
(dp3826
g74
(dp3827
g94
g95
ssg83
g3821
sg76
(lp3828
g372
asbag69
(g90
g71
NtRp3829
(dp3830
g74
(dp3831
g101
g102
ssg83
g3821
sg76
(lp3832
S':'
asbag69
(g90
g71
NtRp3833
(dp3834
g74
(dp3835
sg83
g3821
sg76
(lp3836
g69
(g70
g71
NtRp3837
(dp3838
g74
(dp3839
g82
I3
ssg83
g3833
sg76
(lp3840
S''
asbasbasbag69
(g85
g71
NtRp3841
(dp3842
g74
(dp3843
sg83
g3777
sg76
(lp3844
g69
(g90
g71
NtRp3845
(dp3846
g74
(dp3847
g94
g95
ssg83
g3841
sg76
(lp3848
g393
asbag69
(g90
g71
NtRp3849
(dp3850
g74
(dp3851
g101
g102
ssg83
g3841
sg76
(lp3852
S':'
asbag69
(g90
g71
NtRp3853
(dp3854
g74
(dp3855
sg83
g3841
sg76
(lp3856
g69
(g70
g71
NtRp3857
(dp3858
g74
(dp3859
g82
I3
ssg83
g3853
sg76
(lp3860
S''
asbasbasbag69
(g85
g71
NtRp3861
(dp3862
g74
(dp3863
sg83
g3777
sg76
(lp3864
g69
(g90
g71
NtRp3865
(dp3866
g74
(dp3867
g94
g95
ssg83
g3861
sg76
(lp3868
g414
asbag69
(g90
g71
NtRp3869
(dp3870
g74
(dp3871
g101
g102
ssg83
g3861
sg76
(lp3872
S':'
asbag69
(g90
g71
NtRp3873
(dp3874
g74
(dp3875
sg83
g3861
sg76
(lp3876
g69
(g70
g71
NtRp3877
(dp3878
g74
(dp3879
g82
I3
ssg83
g3873
sg76
(lp3880
S''
asbasbasbag69
(g85
g71
NtRp3881
(dp3882
g74
(dp3883
sg83
g3777
sg76
(lp3884
g69
(g90
g71
NtRp3885
(dp3886
g74
(dp3887
g94
g95
ssg83
g3881
sg76
(lp3888
g435
asbag69
(g90
g71
NtRp3889
(dp3890
g74
(dp3891
g101
g102
ssg83
g3881
sg76
(lp3892
S':'
asbag69
(g90
g71
NtRp3893
(dp3894
g74
(dp3895
sg83
g3881
sg76
(lp3896
g69
(g70
g71
NtRp3897
(dp3898
g74
(dp3899
g82
I3
ssg83
g3893
sg76
(lp3900
S'/'
asbasbasbag69
(g85
g71
NtRp3901
(dp3902
g74
(dp3903
sg83
g3777
sg76
(lp3904
g69
(g90
g71
NtRp3905
(dp3906
g74
(dp3907
g94
g95
ssg83
g3901
sg76
(lp3908
g456
asbag69
(g90
g71
NtRp3909
(dp3910
g74
(dp3911
g101
g102
ssg83
g3901
sg76
(lp3912
S':'
asbag69
(g90
g71
NtRp3913
(dp3914
g74
(dp3915
sg83
g3901
sg76
(lp3916
g69
(g70
g71
NtRp3917
(dp3918
g74
(dp3919
g82
I3
ssg83
g3913
sg76
(lp3920
S''
asbasbasbag69
(g85
g71
NtRp3921
(dp3922
g74
(dp3923
sg83
g3777
sg76
(lp3924
g69
(g90
g71
NtRp3925
(dp3926
g74
(dp3927
g94
g95
ssg83
g3921
sg76
(lp3928
g477
asbag69
(g90
g71
NtRp3929
(dp3930
g74
(dp3931
g101
g102
ssg83
g3921
sg76
(lp3932
S':'
asbag69
(g90
g71
NtRp3933
(dp3934
g74
(dp3935
sg83
g3921
sg76
(lp3936
g69
(g70
g71
NtRp3937
(dp3938
g74
(dp3939
g82
I3
ssg83
g3933
sg76
(lp3940
S''
asbasbasbasbasbasbasbasbasbasbasbag69
(g85
g71
NtRp3941
(dp3942
g74
(dp3943
sg83
g3707
sg76
(lp3944
g69
(g90
g71
NtRp3945
(dp3946
g74
(dp3947
g94
g95
ssg83
g3941
sg76
(lp3948
S'delimiters'
p3949
asbag69
(g90
g71
NtRp3950
(dp3951
g74
(dp3952
g101
g102
ssg83
g3941
sg76
(lp3953
S':'
asbag69
(g90
g71
NtRp3954
(dp3955
g74
(dp3956
sg83
g3941
sg76
(lp3957
g69
(g70
g71
NtRp3958
(dp3959
g74
(dp3960
g82
I5
ssg83
g3954
sg76
(lp3961
g69
(g78
g71
NtRp3962
(dp3963
g74
(dp3964
g82
I4
ssg83
Nsg76
(lp3965
g69
(g85
g71
NtRp3966
(dp3967
g74
(dp3968
sg83
g3962
sg76
(lp3969
g69
(g90
g71
NtRp3970
(dp3971
g74
(dp3972
sg83
g3966
sg76
(lp3973
g69
(g70
g71
NtRp3974
(dp3975
g74
(dp3976
g82
I4
ssg83
g3970
sg76
(lp3977
S'{{'
p3978
asbasbasbag69
(g85
g71
NtRp3979
(dp3980
g74
(dp3981
sg83
g3962
sg76
(lp3982
g69
(g90
g71
NtRp3983
(dp3984
g74
(dp3985
sg83
g3979
sg76
(lp3986
g69
(g70
g71
NtRp3987
(dp3988
g74
(dp3989
g82
I4
ssg83
g3983
sg76
(lp3990
S'}}'
p3991
asbasbasbasbasbasbasbag69
(g85
g71
NtRp3992
(dp3993
g74
(dp3994
sg83
g3707
sg76
(lp3995
g69
(g90
g71
NtRp3996
(dp3997
g74
(dp3998
g94
g95
ssg83
g3992
sg76
(lp3999
S'files'
p4000
asbag69
(g90
g71
NtRp4001
(dp4002
g74
(dp4003
g101
g102
ssg83
g3992
sg76
(lp4004
S':'
asbag69
(g90
g71
NtRp4005
(dp4006
g74
(dp4007
sg83
g3992
sg76
(lp4008
g69
(g70
g71
NtRp4009
(dp4010
g74
(dp4011
g82
I5
ssg83
g4005
sg76
(lp4012
g69
(g78
g71
NtRp4013
(dp4014
g74
(dp4015
g82
I4
ssg83
Nsg76
(lp4016
sbasbasbasbag69
(g85
g71
NtRp4017
(dp4018
g74
(dp4019
sg83
g3707
sg76
(lp4020
g69
(g90
g71
NtRp4021
(dp4022
g74
(dp4023
g94
g95
ssg83
g4017
sg76
(lp4024
S'flash'
p4025
asbag69
(g90
g71
NtRp4026
(dp4027
g74
(dp4028
g101
g102
ssg83
g4017
sg76
(lp4029
S':'
asbag69
(g90
g71
NtRp4030
(dp4031
g74
(dp4032
sg83
g4017
sg76
(lp4033
g69
(g70
g71
NtRp4034
(dp4035
g74
(dp4036
g82
I5
ssg83
g4030
sg76
(lp4037
S''
asbasbasbag69
(g85
g71
NtRp4038
(dp4039
g74
(dp4040
sg83
g3707
sg76
(lp4041
g69
(g90
g71
NtRp4042
(dp4043
g74
(dp4044
g94
g95
ssg83
g4038
sg76
(lp4045
S'generic_patterns'
p4046
asbag69
(g90
g71
NtRp4047
(dp4048
g74
(dp4049
g101
g102
ssg83
g4038
sg76
(lp4050
S':'
asbag69
(g90
g71
NtRp4051
(dp4052
g74
(dp4053
sg83
g4038
sg76
(lp4054
g69
(g70
g71
NtRp4055
(dp4056
g74
(dp4057
g82
I5
ssg83
g4051
sg76
(lp4058
g69
(g78
g71
NtRp4059
(dp4060
g74
(dp4061
g82
I4
ssg83
Nsg76
(lp4062
g69
(g85
g71
NtRp4063
(dp4064
g74
(dp4065
sg83
g4059
sg76
(lp4066
g69
(g90
g71
NtRp4067
(dp4068
g74
(dp4069
sg83
g4063
sg76
(lp4070
g69
(g70
g71
NtRp4071
(dp4072
g74
(dp4073
g82
I4
ssg83
g4067
sg76
(lp4074
S'*'
asbasbasbasbasbasbasbag69
(g85
g71
NtRp4075
(dp4076
g74
(dp4077
sg83
g3707
sg76
(lp4078
g69
(g90
g71
NtRp4079
(dp4080
g74
(dp4081
g94
g95
ssg83
g4075
sg76
(lp4082
S'google_analytics_id'
p4083
asbag69
(g90
g71
NtRp4084
(dp4085
g74
(dp4086
g101
g102
ssg83
g4075
sg76
(lp4087
S':'
asbag69
(g90
g71
NtRp4088
(dp4089
g74
(dp4090
sg83
g4075
sg76
(lp4091
g69
(g70
g71
NtRp4092
(dp4093
g74
(dp4094
g82
I5
ssg83
g4088
sg76
(lp4095
S'None'
p4096
asbasbasbag69
(g85
g71
NtRp4097
(dp4098
g74
(dp4099
sg83
g3707
sg76
(lp4100
g69
(g90
g71
NtRp4101
(dp4102
g74
(dp4103
g94
g95
ssg83
g4097
sg76
(lp4104
S'headers'
p4105
asbag69
(g90
g71
NtRp4106
(dp4107
g74
(dp4108
g101
g102
ssg83
g4097
sg76
(lp4109
S':'
asbag69
(g90
g71
NtRp4110
(dp4111
g74
(dp4112
sg83
g4097
sg76
(lp4113
g69
(g70
g71
NtRp4114
(dp4115
g74
(dp4116
g82
I5
ssg83
g4110
sg76
(lp4117
g69
(g78
g71
NtRp4118
(dp4119
g74
(dp4120
g82
I4
ssg83
Nsg76
(lp4121
g69
(g85
g71
NtRp4122
(dp4123
g74
(dp4124
sg83
g4118
sg76
(lp4125
g69
(g90
g71
NtRp4126
(dp4127
g74
(dp4128
g94
g95
ssg83
g4122
sg76
(lp4129
S'X-Powered-By'
p4130
asbag69
(g90
g71
NtRp4131
(dp4132
g74
(dp4133
g101
g102
ssg83
g4122
sg76
(lp4134
S':'
asbag69
(g90
g71
NtRp4135
(dp4136
g74
(dp4137
sg83
g4122
sg76
(lp4138
g69
(g70
g71
NtRp4139
(dp4140
g74
(dp4141
g82
I4
ssg83
g4135
sg76
(lp4142
S'web2py'
p4143
asbasbasbasbasbasbasbag69
(g85
g71
NtRp4144
(dp4145
g74
(dp4146
sg83
g3707
sg76
(lp4147
g69
(g90
g71
NtRp4148
(dp4149
g74
(dp4150
g94
g95
ssg83
g4144
sg76
(lp4151
S'logo'
p4152
asbag69
(g90
g71
NtRp4153
(dp4154
g74
(dp4155
g101
g102
ssg83
g4144
sg76
(lp4156
S':'
asbag69
(g90
g71
NtRp4157
(dp4158
g74
(dp4159
sg83
g4144
sg76
(lp4160
g69
(g70
g71
NtRp4161
(dp4162
g74
(dp4163
g82
I5
ssg83
g4157
sg76
(lp4164
g69
(cgluon.html
A
p4165
g71
NtRp4166
(dp4167
g74
(dp4168
S'_class'
p4169
S'brand'
p4170
sS'_href'
p4171
S'http://www.web2py.com/'
p4172
ssg83
Nsg76
(lp4173
g69
(cgluon.html
B
p4174
g71
NtRp4175
(dp4176
g74
(dp4177
sg83
g4166
sg76
(lp4178
S'web'
p4179
ag69
(cgluon.html
SPAN
p4180
g71
NtRp4181
(dp4182
g74
(dp4183
sg83
g4175
sg76
(lp4184
I2
asbaS'py'
p4185
asbacgluon.html
XML_unpickle
p4186
(S's\r\x00\x00\x00&trade;&nbsp;'
tRp4187
asbasbasbasbag69
(g85
g71
NtRp4188
(dp4189
g74
(dp4190
sg83
g3707
sg76
(lp4191
g69
(g90
g71
NtRp4192
(dp4193
g74
(dp4194
g94
g95
ssg83
g4188
sg76
(lp4195
S'menu'
p4196
asbag69
(g90
g71
NtRp4197
(dp4198
g74
(dp4199
g101
g102
ssg83
g4188
sg76
(lp4200
S':'
asbag69
(g90
g71
NtRp4201
(dp4202
g74
(dp4203
sg83
g4188
sg76
(lp4204
g69
(g70
g71
NtRp4205
(dp4206
g74
(dp4207
g82
I5
ssg83
g4201
sg76
(lp4208
g69
(g78
g71
NtRp4209
(dp4210
g74
(dp4211
g82
I4
ssg83
Nsg76
(lp4212
g69
(g85
g71
NtRp4213
(dp4214
g74
(dp4215
sg83
g4209
sg76
(lp4216
g69
(g90
g71
NtRp4217
(dp4218
g74
(dp4219
sg83
g4213
sg76
(lp4220
g69
(g70
g71
NtRp4221
(dp4222
g74
(dp4223
g82
I4
ssg83
g4217
sg76
(lp4224
g69
(g78
g71
NtRp4225
(dp4226
g74
(dp4227
g82
I3
ssg83
Nsg76
(lp4228
g69
(g85
g71
NtRp4229
(dp4230
g74
(dp4231
sg83
g4225
sg76
(lp4232
g69
(g90
g71
NtRp4233
(dp4234
g74
(dp4235
sg83
g4229
sg76
(lp4236
g69
(g70
g71
NtRp4237
(dp4238
g74
(dp4239
g82
I3
ssg83
g4233
sg76
(lp4240
cgluon.languages
lazyT_unpickle
p4241
(S's\x04\x00\x00\x00Home'
tRp4242
asbasbasbag69
(g85
g71
NtRp4243
(dp4244
g74
(dp4245
sg83
g4225
sg76
(lp4246
g69
(g90
g71
NtRp4247
(dp4248
g74
(dp4249
sg83
g4243
sg76
(lp4250
g69
(g70
g71
NtRp4251
(dp4252
g74
(dp4253
g82
I3
ssg83
g4247
sg76
(lp4254
g112
asbasbasbag69
(g85
g71
NtRp4255
(dp4256
g74
(dp4257
sg83
g4225
sg76
(lp4258
g69
(g90
g71
NtRp4259
(dp4260
g74
(dp4261
sg83
g4255
sg76
(lp4262
g69
(g70
g71
NtRp4263
(dp4264
g74
(dp4265
g82
I3
ssg83
g4259
sg76
(lp4266
S'/assignmen3/default/index'
p4267
asbasbasbag69
(g85
g71
NtRp4268
(dp4269
g74
(dp4270
sg83
g4225
sg76
(lp4271
g69
(g90
g71
NtRp4272
(dp4273
g74
(dp4274
sg83
g4268
sg76
(lp4275
g69
(g70
g71
NtRp4276
(dp4277
g74
(dp4278
g82
I3
ssg83
g4272
sg76
(lp4279
g69
(g78
g71
NtRp4280
(dp4281
g74
(dp4282
g82
I2
ssg83
Nsg76
(lp4283
sbasbasbasbasbasbasbasbag69
(g85
g71
NtRp4284
(dp4285
g74
(dp4286
sg83
g4209
sg76
(lp4287
g69
(g90
g71
NtRp4288
(dp4289
g74
(dp4290
sg83
g4284
sg76
(lp4291
g69
(g70
g71
NtRp4292
(dp4293
g74
(dp4294
g82
I4
ssg83
g4288
sg76
(lp4295
g69
(g78
g71
NtRp4296
(dp4297
g74
(dp4298
g82
I3
ssg83
Nsg76
(lp4299
g69
(g85
g71
NtRp4300
(dp4301
g74
(dp4302
sg83
g4296
sg76
(lp4303
g69
(g90
g71
NtRp4304
(dp4305
g74
(dp4306
sg83
g4300
sg76
(lp4307
g69
(g70
g71
NtRp4308
(dp4309
g74
(dp4310
g82
I3
ssg83
g4304
sg76
(lp4311
g69
(g4180
g71
NtRp4312
(dp4313
g74
(dp4314
g4169
S'highlighted'
p4315
ssg83
Nsg76
(lp4316
g4143
asbasbasbasbag69
(g85
g71
NtRp4317
(dp4318
g74
(dp4319
sg83
g4296
sg76
(lp4320
g69
(g90
g71
NtRp4321
(dp4322
g74
(dp4323
sg83
g4317
sg76
(lp4324
g69
(g70
g71
NtRp4325
(dp4326
g74
(dp4327
g82
I3
ssg83
g4321
sg76
(lp4328
g112
asbasbasbag69
(g85
g71
NtRp4329
(dp4330
g74
(dp4331
sg83
g4296
sg76
(lp4332
g69
(g90
g71
NtRp4333
(dp4334
g74
(dp4335
sg83
g4329
sg76
(lp4336
g69
(g70
g71
NtRp4337
(dp4338
g74
(dp4339
g82
I3
ssg83
g4333
sg76
(lp4340
S'http://web2py.com'
p4341
asbasbasbag69
(g85
g71
NtRp4342
(dp4343
g74
(dp4344
sg83
g4296
sg76
(lp4345
g69
(g90
g71
NtRp4346
(dp4347
g74
(dp4348
sg83
g4342
sg76
(lp4349
g69
(g70
g71
NtRp4350
(dp4351
g74
(dp4352
g82
I3
ssg83
g4346
sg76
(lp4353
g69
(g78
g71
NtRp4354
(dp4355
g74
(dp4356
g82
I2
ssg83
Nsg76
(lp4357
g69
(g85
g71
NtRp4358
(dp4359
g74
(dp4360
sg83
g4354
sg76
(lp4361
g69
(g90
g71
NtRp4362
(dp4363
g74
(dp4364
sg83
g4358
sg76
(lp4365
g69
(g70
g71
NtRp4366
(dp4367
g74
(dp4368
g82
I2
ssg83
g4362
sg76
(lp4369
g69
(g78
g71
NtRp4370
(dp4371
g74
(dp4372
g82
I1
ssg83
Nsg76
(lp4373
g69
(g85
g71
NtRp4374
(dp4375
g74
(dp4376
sg83
g4370
sg76
(lp4377
g69
(g90
g71
NtRp4378
(dp4379
g74
(dp4380
sg83
g4374
sg76
(lp4381
g69
(g70
g71
NtRp4382
(dp4383
g74
(dp4384
g82
I1
ssg83
g4378
sg76
(lp4385
g4241
(S's\x08\x00\x00\x00My Sites'
tRp4386
asbasbasbag69
(g85
g71
NtRp4387
(dp4388
g74
(dp4389
sg83
g4370
sg76
(lp4390
g69
(g90
g71
NtRp4391
(dp4392
g74
(dp4393
sg83
g4387
sg76
(lp4394
g69
(g70
g71
NtRp4395
(dp4396
g74
(dp4397
g82
I1
ssg83
g4391
sg76
(lp4398
I00
asbasbasbag69
(g85
g71
NtRp4399
(dp4400
g74
(dp4401
sg83
g4370
sg76
(lp4402
g69
(g90
g71
NtRp4403
(dp4404
g74
(dp4405
sg83
g4399
sg76
(lp4406
g69
(g70
g71
NtRp4407
(dp4408
g74
(dp4409
g82
I1
ssg83
g4403
sg76
(lp4410
S'/admin/default/site'
p4411
asbasbasbasbasbasbasbag69
(g85
g71
NtRp4412
(dp4413
g74
(dp4414
sg83
g4354
sg76
(lp4415
g69
(g90
g71
NtRp4416
(dp4417
g74
(dp4418
sg83
g4412
sg76
(lp4419
g69
(g70
g71
NtRp4420
(dp4421
g74
(dp4422
g82
I2
ssg83
g4416
sg76
(lp4423
g69
(g78
g71
NtRp4424
(dp4425
g74
(dp4426
g82
I1
ssg83
Nsg76
(lp4427
g69
(g85
g71
NtRp4428
(dp4429
g74
(dp4430
sg83
g4424
sg76
(lp4431
g69
(g90
g71
NtRp4432
(dp4433
g74
(dp4434
sg83
g4428
sg76
(lp4435
g69
(g70
g71
NtRp4436
(dp4437
g74
(dp4438
g82
I1
ssg83
g4432
sg76
(lp4439
g4241
(S's\x08\x00\x00\x00This App'
tRp4440
asbasbasbag69
(g85
g71
NtRp4441
(dp4442
g74
(dp4443
sg83
g4424
sg76
(lp4444
g69
(g90
g71
NtRp4445
(dp4446
g74
(dp4447
sg83
g4441
sg76
(lp4448
g69
(g70
g71
NtRp4449
(dp4450
g74
(dp4451
g82
I1
ssg83
g4445
sg76
(lp4452
I00
asbasbasbag69
(g85
g71
NtRp4453
(dp4454
g74
(dp4455
sg83
g4424
sg76
(lp4456
g69
(g90
g71
NtRp4457
(dp4458
g74
(dp4459
sg83
g4453
sg76
(lp4460
g69
(g70
g71
NtRp4461
(dp4462
g74
(dp4463
g82
I1
ssg83
g4457
sg76
(lp4464
S'/admin/default/design/assignmen3'
p4465
asbasbasbag69
(g85
g71
NtRp4466
(dp4467
g74
(dp4468
sg83
g4424
sg76
(lp4469
g69
(g90
g71
NtRp4470
(dp4471
g74
(dp4472
sg83
g4466
sg76
(lp4473
g69
(g70
g71
NtRp4474
(dp4475
g74
(dp4476
g82
I1
ssg83
g4470
sg76
(lp4477
(lp4478
(g4241
(S's\n\x00\x00\x00Controller'
tRp4479
I00
S'/admin/default/edit/assignmen3/controllers/default.py'
tp4480
a(g4241
(S's\x04\x00\x00\x00View'
tRp4481
I00
S'/admin/default/edit/assignmen3/views/default/like.html'
tp4482
a(g4241
(S's\x06\x00\x00\x00Layout'
tRp4483
I00
S'/admin/default/edit/assignmen3/views/layout.html'
tp4484
a(g4241
(S's\n\x00\x00\x00Stylesheet'
tRp4485
I00
S'/admin/default/edit/assignmen3/static/css/web2py.css'
tp4486
a(g4241
(S's\x08\x00\x00\x00DB Model'
tRp4487
I00
S'/admin/default/edit/assignmen3/models/db.py'
tp4488
a(g4241
(S's\n\x00\x00\x00Menu Model'
tRp4489
I00
S'/admin/default/edit/assignmen3/models/menu.py'
tp4490
a(g4241
(S's\x08\x00\x00\x00Database'
tRp4491
I00
S'/assignmen3/appadmin/index'
tp4492
a(g4241
(S's\x06\x00\x00\x00Errors'
tRp4493
I00
S'/admin/default/errors/assignmen3'
tp4494
a(g4241
(S's\x05\x00\x00\x00About'
tRp4495
I00
S'/admin/default/about/assignmen3'
tp4496
aasbasbasbasbasbasbasbag69
(g85
g71
NtRp4497
(dp4498
g74
(dp4499
sg83
g4354
sg76
(lp4500
g69
(g90
g71
NtRp4501
(dp4502
g74
(dp4503
sg83
g4497
sg76
(lp4504
g69
(g70
g71
NtRp4505
(dp4506
g74
(dp4507
g82
I2
ssg83
g4501
sg76
(lp4508
g69
(g78
g71
NtRp4509
(dp4510
g74
(dp4511
g82
I1
ssg83
Nsg76
(lp4512
g69
(g85
g71
NtRp4513
(dp4514
g74
(dp4515
sg83
g4509
sg76
(lp4516
g69
(g90
g71
NtRp4517
(dp4518
g74
(dp4519
sg83
g4513
sg76
(lp4520
g69
(g70
g71
NtRp4521
(dp4522
g74
(dp4523
g82
I1
ssg83
g4517
sg76
(lp4524
S'web2py.com'
p4525
asbasbasbag69
(g85
g71
NtRp4526
(dp4527
g74
(dp4528
sg83
g4509
sg76
(lp4529
g69
(g90
g71
NtRp4530
(dp4531
g74
(dp4532
sg83
g4526
sg76
(lp4533
g69
(g70
g71
NtRp4534
(dp4535
g74
(dp4536
g82
I1
ssg83
g4530
sg76
(lp4537
I00
asbasbasbag69
(g85
g71
NtRp4538
(dp4539
g74
(dp4540
sg83
g4509
sg76
(lp4541
g69
(g90
g71
NtRp4542
(dp4543
g74
(dp4544
sg83
g4538
sg76
(lp4545
g69
(g70
g71
NtRp4546
(dp4547
g74
(dp4548
g82
I1
ssg83
g4542
sg76
(lp4549
S'http://www.web2py.com'
p4550
asbasbasbag69
(g85
g71
NtRp4551
(dp4552
g74
(dp4553
sg83
g4509
sg76
(lp4554
g69
(g90
g71
NtRp4555
(dp4556
g74
(dp4557
sg83
g4551
sg76
(lp4558
g69
(g70
g71
NtRp4559
(dp4560
g74
(dp4561
g82
I1
ssg83
g4555
sg76
(lp4562
(lp4563
(g4241
(S's\x08\x00\x00\x00Download'
tRp4564
I00
S'http://www.web2py.com/examples/default/download'
p4565
tp4566
a(g4241
(S's\x07\x00\x00\x00Support'
tRp4567
I00
S'http://www.web2py.com/examples/default/support'
p4568
tp4569
a(g4241
(S's\x04\x00\x00\x00Demo'
tRp4570
I00
S'http://web2py.com/demo_admin'
p4571
tp4572
a(g4241
(S's\x0e\x00\x00\x00Quick Examples'
tRp4573
I00
S'http://web2py.com/examples/default/examples'
p4574
tp4575
a(g4241
(S's\x03\x00\x00\x00FAQ'
tRp4576
I00
S'http://web2py.com/AlterEgo'
p4577
tp4578
a(g4241
(S's\x06\x00\x00\x00Videos'
tRp4579
I00
S'http://www.web2py.com/examples/default/videos/'
p4580
tp4581
a(g4241
(S's\x11\x00\x00\x00Free Applications'
tRp4582
I00
S'http://web2py.com/appliances'
p4583
tp4584
a(g4241
(S's\x07\x00\x00\x00Plugins'
tRp4585
I00
S'http://web2py.com/plugins'
p4586
tp4587
a(g4241
(S's\x07\x00\x00\x00Layouts'
tRp4588
I00
S'http://web2py.com/layouts'
p4589
tp4590
a(g4241
(S's\x07\x00\x00\x00Recipes'
tRp4591
I00
S'http://web2pyslices.com/'
p4592
tp4593
a(g4241
(S's\x08\x00\x00\x00Semantic'
tRp4594
I00
S'http://web2py.com/semantic'
p4595
tp4596
aasbasbasbasbasbasbasbag69
(g85
g71
NtRp4597
(dp4598
g74
(dp4599
sg83
g4354
sg76
(lp4600
g69
(g90
g71
NtRp4601
(dp4602
g74
(dp4603
sg83
g4597
sg76
(lp4604
g69
(g70
g71
NtRp4605
(dp4606
g74
(dp4607
g82
I2
ssg83
g4601
sg76
(lp4608
g69
(g78
g71
NtRp4609
(dp4610
g74
(dp4611
g82
I1
ssg83
Nsg76
(lp4612
g69
(g85
g71
NtRp4613
(dp4614
g74
(dp4615
sg83
g4609
sg76
(lp4616
g69
(g90
g71
NtRp4617
(dp4618
g74
(dp4619
sg83
g4613
sg76
(lp4620
g69
(g70
g71
NtRp4621
(dp4622
g74
(dp4623
g82
I1
ssg83
g4617
sg76
(lp4624
g4241
(S's\r\x00\x00\x00Documentation'
tRp4625
asbasbasbag69
(g85
g71
NtRp4626
(dp4627
g74
(dp4628
sg83
g4609
sg76
(lp4629
g69
(g90
g71
NtRp4630
(dp4631
g74
(dp4632
sg83
g4626
sg76
(lp4633
g69
(g70
g71
NtRp4634
(dp4635
g74
(dp4636
g82
I1
ssg83
g4630
sg76
(lp4637
I00
asbasbasbag69
(g85
g71
NtRp4638
(dp4639
g74
(dp4640
sg83
g4609
sg76
(lp4641
g69
(g90
g71
NtRp4642
(dp4643
g74
(dp4644
sg83
g4638
sg76
(lp4645
g69
(g70
g71
NtRp4646
(dp4647
g74
(dp4648
g82
I1
ssg83
g4642
sg76
(lp4649
S'http://www.web2py.com/book'
p4650
asbasbasbag69
(g85
g71
NtRp4651
(dp4652
g74
(dp4653
sg83
g4609
sg76
(lp4654
g69
(g90
g71
NtRp4655
(dp4656
g74
(dp4657
sg83
g4651
sg76
(lp4658
g69
(g70
g71
NtRp4659
(dp4660
g74
(dp4661
g82
I1
ssg83
g4655
sg76
(lp4662
(lp4663
(g4241
(S's\x07\x00\x00\x00Preface'
tRp4664
I00
S'http://www.web2py.com/book/default/chapter/00'
p4665
tp4666
a(g4241
(S's\x0c\x00\x00\x00Introduction'
tRp4667
I00
S'http://www.web2py.com/book/default/chapter/01'
p4668
tp4669
a(g4241
(S's\x06\x00\x00\x00Python'
tRp4670
I00
S'http://www.web2py.com/book/default/chapter/02'
p4671
tp4672
a(g4241
(S's\x08\x00\x00\x00Overview'
tRp4673
I00
S'http://www.web2py.com/book/default/chapter/03'
p4674
tp4675
a(g4241
(S's\x08\x00\x00\x00The Core'
tRp4676
I00
S'http://www.web2py.com/book/default/chapter/04'
p4677
tp4678
a(g4241
(S's\t\x00\x00\x00The Views'
tRp4679
I00
S'http://www.web2py.com/book/default/chapter/05'
p4680
tp4681
a(g4241
(S's\x08\x00\x00\x00Database'
tRp4682
I00
S'http://www.web2py.com/book/default/chapter/06'
p4683
tp4684
a(g4241
(S's\x14\x00\x00\x00Forms and Validators'
tRp4685
I00
S'http://www.web2py.com/book/default/chapter/07'
p4686
tp4687
a(g4241
(S's\r\x00\x00\x00Email and SMS'
tRp4688
I00
S'http://www.web2py.com/book/default/chapter/08'
p4689
tp4690
a(g4241
(S's\x0e\x00\x00\x00Access Control'
tRp4691
I00
S'http://www.web2py.com/book/default/chapter/09'
p4692
tp4693
a(g4241
(S's\x08\x00\x00\x00Services'
tRp4694
I00
S'http://www.web2py.com/book/default/chapter/10'
p4695
tp4696
a(g4241
(S's\x0c\x00\x00\x00Ajax Recipes'
tRp4697
I00
S'http://www.web2py.com/book/default/chapter/11'
p4698
tp4699
a(g4241
(S's\x16\x00\x00\x00Components and Plugins'
tRp4700
I00
S'http://www.web2py.com/book/default/chapter/12'
p4701
tp4702
a(g4241
(S's\x12\x00\x00\x00Deployment Recipes'
tRp4703
I00
S'http://www.web2py.com/book/default/chapter/13'
p4704
tp4705
a(g4241
(S's\r\x00\x00\x00Other Recipes'
tRp4706
I00
S'http://www.web2py.com/book/default/chapter/14'
p4707
tp4708
a(g4241
(S's\r\x00\x00\x00Buy this book'
tRp4709
I00
S'http://stores.lulu.com/web2py'
p4710
tp4711
aasbasbasbasbasbasbasbag69
(g85
g71
NtRp4712
(dp4713
g74
(dp4714
sg83
g4354
sg76
(lp4715
g69
(g90
g71
NtRp4716
(dp4717
g74
(dp4718
sg83
g4712
sg76
(lp4719
g69
(g70
g71
NtRp4720
(dp4721
g74
(dp4722
g82
I2
ssg83
g4716
sg76
(lp4723
g69
(g78
g71
NtRp4724
(dp4725
g74
(dp4726
g82
I1
ssg83
Nsg76
(lp4727
g69
(g85
g71
NtRp4728
(dp4729
g74
(dp4730
sg83
g4724
sg76
(lp4731
g69
(g90
g71
NtRp4732
(dp4733
g74
(dp4734
sg83
g4728
sg76
(lp4735
g69
(g70
g71
NtRp4736
(dp4737
g74
(dp4738
g82
I1
ssg83
g4732
sg76
(lp4739
g4241
(S's\t\x00\x00\x00Community'
tRp4740
asbasbasbag69
(g85
g71
NtRp4741
(dp4742
g74
(dp4743
sg83
g4724
sg76
(lp4744
g69
(g90
g71
NtRp4745
(dp4746
g74
(dp4747
sg83
g4741
sg76
(lp4748
g69
(g70
g71
NtRp4749
(dp4750
g74
(dp4751
g82
I1
ssg83
g4745
sg76
(lp4752
I00
asbasbasbag69
(g85
g71
NtRp4753
(dp4754
g74
(dp4755
sg83
g4724
sg76
(lp4756
g69
(g90
g71
NtRp4757
(dp4758
g74
(dp4759
sg83
g4753
sg76
(lp4760
g69
(g70
g71
NtRp4761
(dp4762
g74
(dp4763
g82
I1
ssg83
g4757
sg76
(lp4764
Nasbasbasbag69
(g85
g71
NtRp4765
(dp4766
g74
(dp4767
sg83
g4724
sg76
(lp4768
g69
(g90
g71
NtRp4769
(dp4770
g74
(dp4771
sg83
g4765
sg76
(lp4772
g69
(g70
g71
NtRp4773
(dp4774
g74
(dp4775
g82
I1
ssg83
g4769
sg76
(lp4776
(lp4777
(g4241
(S's\x06\x00\x00\x00Groups'
tRp4778
I00
S'http://www.web2py.com/examples/default/usergroups'
p4779
tp4780
a(g4241
(S's\x07\x00\x00\x00Twitter'
tRp4781
I00
S'http://twitter.com/web2py'
p4782
tp4783
a(g4241
(S's\t\x00\x00\x00Live Chat'
tRp4784
I00
S'http://webchat.freenode.net/?channels=web2py'
p4785
tp4786
aasbasbasbasbasbasbasbag69
(g85
g71
NtRp4787
(dp4788
g74
(dp4789
sg83
g4354
sg76
(lp4790
g69
(g90
g71
NtRp4791
(dp4792
g74
(dp4793
sg83
g4787
sg76
(lp4794
g69
(g70
g71
NtRp4795
(dp4796
g74
(dp4797
g82
I2
ssg83
g4791
sg76
(lp4798
g69
(g78
g71
NtRp4799
(dp4800
g74
(dp4801
g82
I1
ssg83
Nsg76
(lp4802
g69
(g85
g71
NtRp4803
(dp4804
g74
(dp4805
sg83
g4799
sg76
(lp4806
g69
(g90
g71
NtRp4807
(dp4808
g74
(dp4809
sg83
g4803
sg76
(lp4810
g69
(g70
g71
NtRp4811
(dp4812
g74
(dp4813
g82
I1
ssg83
g4807
sg76
(lp4814
g4241
(S's\x07\x00\x00\x00Plugins'
tRp4815
asbasbasbag69
(g85
g71
NtRp4816
(dp4817
g74
(dp4818
sg83
g4799
sg76
(lp4819
g69
(g90
g71
NtRp4820
(dp4821
g74
(dp4822
sg83
g4816
sg76
(lp4823
g69
(g70
g71
NtRp4824
(dp4825
g74
(dp4826
g82
I1
ssg83
g4820
sg76
(lp4827
I00
asbasbasbag69
(g85
g71
NtRp4828
(dp4829
g74
(dp4830
sg83
g4799
sg76
(lp4831
g69
(g90
g71
NtRp4832
(dp4833
g74
(dp4834
sg83
g4828
sg76
(lp4835
g69
(g70
g71
NtRp4836
(dp4837
g74
(dp4838
g82
I1
ssg83
g4832
sg76
(lp4839
Nasbasbasbag69
(g85
g71
NtRp4840
(dp4841
g74
(dp4842
sg83
g4799
sg76
(lp4843
g69
(g90
g71
NtRp4844
(dp4845
g74
(dp4846
sg83
g4840
sg76
(lp4847
g69
(g70
g71
NtRp4848
(dp4849
g74
(dp4850
g82
I1
ssg83
g4844
sg76
(lp4851
(lp4852
(S'plugin_wiki'
p4853
I00
S'http://web2py.com/examples/default/download'
p4854
tp4855
a(g4241
(S's\r\x00\x00\x00Other Plugins'
tRp4856
I00
g4586
tp4857
a(g4241
(S's\x0e\x00\x00\x00Layout Plugins'
tRp4858
I00
g4589
tp4859
aasbasbasbasbasbasbasbasbasbasbasbasbasbasbasbasbasbasbasbag69
(g85
g71
NtRp4860
(dp4861
g74
(dp4862
sg83
g3707
sg76
(lp4863
g69
(g90
g71
NtRp4864
(dp4865
g74
(dp4866
g94
g95
ssg83
g4860
sg76
(lp4867
S'meta'
p4868
asbag69
(g90
g71
NtRp4869
(dp4870
g74
(dp4871
g101
g102
ssg83
g4860
sg76
(lp4872
S':'
asbag69
(g90
g71
NtRp4873
(dp4874
g74
(dp4875
sg83
g4860
sg76
(lp4876
g69
(g70
g71
NtRp4877
(dp4878
g74
(dp4879
g82
I5
ssg83
g4873
sg76
(lp4880
g69
(g78
g71
NtRp4881
(dp4882
g74
(dp4883
g82
I4
ssg83
Nsg76
(lp4884
g69
(g85
g71
NtRp4885
(dp4886
g74
(dp4887
sg83
g4881
sg76
(lp4888
g69
(g90
g71
NtRp4889
(dp4890
g74
(dp4891
g94
g95
ssg83
g4885
sg76
(lp4892
S'author'
p4893
asbag69
(g90
g71
NtRp4894
(dp4895
g74
(dp4896
g101
g102
ssg83
g4885
sg76
(lp4897
S':'
asbag69
(g90
g71
NtRp4898
(dp4899
g74
(dp4900
sg83
g4885
sg76
(lp4901
g69
(g70
g71
NtRp4902
(dp4903
g74
(dp4904
g82
I4
ssg83
g4898
sg76
(lp4905
S'Your Name <you@example.com>'
p4906
asbasbasbag69
(g85
g71
NtRp4907
(dp4908
g74
(dp4909
sg83
g4881
sg76
(lp4910
g69
(g90
g71
NtRp4911
(dp4912
g74
(dp4913
g94
g95
ssg83
g4907
sg76
(lp4914
S'description'
p4915
asbag69
(g90
g71
NtRp4916
(dp4917
g74
(dp4918
g101
g102
ssg83
g4907
sg76
(lp4919
S':'
asbag69
(g90
g71
NtRp4920
(dp4921
g74
(dp4922
sg83
g4907
sg76
(lp4923
g69
(g70
g71
NtRp4924
(dp4925
g74
(dp4926
g82
I4
ssg83
g4920
sg76
(lp4927
S'a cool new app'
p4928
asbasbasbag69
(g85
g71
NtRp4929
(dp4930
g74
(dp4931
sg83
g4881
sg76
(lp4932
g69
(g90
g71
NtRp4933
(dp4934
g74
(dp4935
g94
g95
ssg83
g4929
sg76
(lp4936
S'generator'
p4937
asbag69
(g90
g71
NtRp4938
(dp4939
g74
(dp4940
g101
g102
ssg83
g4929
sg76
(lp4941
S':'
asbag69
(g90
g71
NtRp4942
(dp4943
g74
(dp4944
sg83
g4929
sg76
(lp4945
g69
(g70
g71
NtRp4946
(dp4947
g74
(dp4948
g82
I4
ssg83
g4942
sg76
(lp4949
S'Web2py Web Framework'
p4950
asbasbasbag69
(g85
g71
NtRp4951
(dp4952
g74
(dp4953
sg83
g4881
sg76
(lp4954
g69
(g90
g71
NtRp4955
(dp4956
g74
(dp4957
g94
g95
ssg83
g4951
sg76
(lp4958
S'keywords'
p4959
asbag69
(g90
g71
NtRp4960
(dp4961
g74
(dp4962
g101
g102
ssg83
g4951
sg76
(lp4963
S':'
asbag69
(g90
g71
NtRp4964
(dp4965
g74
(dp4966
sg83
g4951
sg76
(lp4967
g69
(g70
g71
NtRp4968
(dp4969
g74
(dp4970
g82
I4
ssg83
g4964
sg76
(lp4971
S'web2py, python, framework'
p4972
asbasbasbasbasbasbasbag69
(g85
g71
NtRp4973
(dp4974
g74
(dp4975
sg83
g3707
sg76
(lp4976
g69
(g90
g71
NtRp4977
(dp4978
g74
(dp4979
g94
g95
ssg83
g4973
sg76
(lp4980
S'models_to_run'
p4981
asbag69
(g90
g71
NtRp4982
(dp4983
g74
(dp4984
g101
g102
ssg83
g4973
sg76
(lp4985
S':'
asbag69
(g90
g71
NtRp4986
(dp4987
g74
(dp4988
sg83
g4973
sg76
(lp4989
g69
(g70
g71
NtRp4990
(dp4991
g74
(dp4992
g82
I5
ssg83
g4986
sg76
(lp4993
g69
(g78
g71
NtRp4994
(dp4995
g74
(dp4996
g82
I4
ssg83
Nsg76
(lp4997
g69
(g85
g71
NtRp4998
(dp4999
g74
(dp5000
sg83
g4994
sg76
(lp5001
g69
(g90
g71
NtRp5002
(dp5003
g74
(dp5004
sg83
g4998
sg76
(lp5005
g69
(g70
g71
NtRp5006
(dp5007
g74
(dp5008
g82
I4
ssg83
g5002
sg76
(lp5009
S'^\\w+\\.py$'
p5010
asbasbasbag69
(g85
g71
NtRp5011
(dp5012
g74
(dp5013
sg83
g4994
sg76
(lp5014
g69
(g90
g71
NtRp5015
(dp5016
g74
(dp5017
sg83
g5011
sg76
(lp5018
g69
(g70
g71
NtRp5019
(dp5020
g74
(dp5021
g82
I4
ssg83
g5015
sg76
(lp5022
S'^default/\\w+\\.py$'
p5023
asbasbasbag69
(g85
g71
NtRp5024
(dp5025
g74
(dp5026
sg83
g4994
sg76
(lp5027
g69
(g90
g71
NtRp5028
(dp5029
g74
(dp5030
sg83
g5024
sg76
(lp5031
g69
(g70
g71
NtRp5032
(dp5033
g74
(dp5034
g82
I4
ssg83
g5028
sg76
(lp5035
S'^default/like/\\w+\\.py$'
p5036
asbasbasbasbasbasbasbag69
(g85
g71
NtRp5037
(dp5038
g74
(dp5039
sg83
g3707
sg76
(lp5040
g69
(g90
g71
NtRp5041
(dp5042
g74
(dp5043
g94
g95
ssg83
g5037
sg76
(lp5044
S'postprocessing'
p5045
asbag69
(g90
g71
NtRp5046
(dp5047
g74
(dp5048
g101
g102
ssg83
g5037
sg76
(lp5049
S':'
asbag69
(g90
g71
NtRp5050
(dp5051
g74
(dp5052
sg83
g5037
sg76
(lp5053
g69
(g70
g71
NtRp5054
(dp5055
g74
(dp5056
g82
I5
ssg83
g5050
sg76
(lp5057
g69
(g78
g71
NtRp5058
(dp5059
g74
(dp5060
g82
I4
ssg83
Nsg76
(lp5061
sbasbasbasbag69
(g85
g71
NtRp5062
(dp5063
g74
(dp5064
sg83
g3707
sg76
(lp5065
g69
(g90
g71
NtRp5066
(dp5067
g74
(dp5068
g94
g95
ssg83
g5062
sg76
(lp5069
S'session_cookie_expires'
p5070
asbag69
(g90
g71
NtRp5071
(dp5072
g74
(dp5073
g101
g102
ssg83
g5062
sg76
(lp5074
S':'
asbag69
(g90
g71
NtRp5075
(dp5076
g74
(dp5077
sg83
g5062
sg76
(lp5078
g69
(g70
g71
NtRp5079
(dp5080
g74
(dp5081
g82
I5
ssg83
g5075
sg76
(lp5082
S'None'
p5083
asbasbasbag69
(g85
g71
NtRp5084
(dp5085
g74
(dp5086
sg83
g3707
sg76
(lp5087
g69
(g90
g71
NtRp5088
(dp5089
g74
(dp5090
g94
g95
ssg83
g5084
sg76
(lp5091
S'session_data_name'
p5092
asbag69
(g90
g71
NtRp5093
(dp5094
g74
(dp5095
g101
g102
ssg83
g5084
sg76
(lp5096
S':'
asbag69
(g90
g71
NtRp5097
(dp5098
g74
(dp5099
sg83
g5084
sg76
(lp5100
g69
(g70
g71
NtRp5101
(dp5102
g74
(dp5103
g82
I5
ssg83
g5097
sg76
(lp5104
S'session_data_assignmen3'
p5105
asbasbasbag69
(g85
g71
NtRp5106
(dp5107
g74
(dp5108
sg83
g3707
sg76
(lp5109
g69
(g90
g71
NtRp5110
(dp5111
g74
(dp5112
g94
g95
ssg83
g5106
sg76
(lp5113
S'session_file'
p5114
asbag69
(g90
g71
NtRp5115
(dp5116
g74
(dp5117
g101
g102
ssg83
g5106
sg76
(lp5118
S':'
asbag69
(g90
g71
NtRp5119
(dp5120
g74
(dp5121
sg83
g5106
sg76
(lp5122
g69
(g70
g71
NtRp5123
(dp5124
g74
(dp5125
g82
I5
ssg83
g5119
sg76
(lp5126
S"<open file '/home/umang/web2py/applications/assignmen3/sessions/127.0.0.1-f78a0883-b419-4f1b-8802-d13ae89341f4', mode 'rb+' at 0x7f9520414a50>"
p5127
asbasbasbag69
(g85
g71
NtRp5128
(dp5129
g74
(dp5130
sg83
g3707
sg76
(lp5131
g69
(g90
g71
NtRp5132
(dp5133
g74
(dp5134
g94
g95
ssg83
g5128
sg76
(lp5135
S'session_filename'
p5136
asbag69
(g90
g71
NtRp5137
(dp5138
g74
(dp5139
g101
g102
ssg83
g5128
sg76
(lp5140
S':'
asbag69
(g90
g71
NtRp5141
(dp5142
g74
(dp5143
sg83
g5128
sg76
(lp5144
g69
(g70
g71
NtRp5145
(dp5146
g74
(dp5147
g82
I5
ssg83
g5141
sg76
(lp5148
S'/home/umang/web2py/applications/assignmen3/sessions/127.0.0.1-f78a0883-b419-4f1b-8802-d13ae89341f4'
p5149
asbasbasbag69
(g85
g71
NtRp5150
(dp5151
g74
(dp5152
sg83
g3707
sg76
(lp5153
g69
(g90
g71
NtRp5154
(dp5155
g74
(dp5156
g94
g95
ssg83
g5150
sg76
(lp5157
S'session_id'
p5158
asbag69
(g90
g71
NtRp5159
(dp5160
g74
(dp5161
g101
g102
ssg83
g5150
sg76
(lp5162
S':'
asbag69
(g90
g71
NtRp5163
(dp5164
g74
(dp5165
sg83
g5150
sg76
(lp5166
g69
(g70
g71
NtRp5167
(dp5168
g74
(dp5169
g82
I5
ssg83
g5163
sg76
(lp5170
g511
asbasbasbag69
(g85
g71
NtRp5171
(dp5172
g74
(dp5173
sg83
g3707
sg76
(lp5174
g69
(g90
g71
NtRp5175
(dp5176
g74
(dp5177
g94
g95
ssg83
g5171
sg76
(lp5178
S'session_id_name'
p5179
asbag69
(g90
g71
NtRp5180
(dp5181
g74
(dp5182
g101
g102
ssg83
g5171
sg76
(lp5183
S':'
asbag69
(g90
g71
NtRp5184
(dp5185
g74
(dp5186
sg83
g5171
sg76
(lp5187
g69
(g70
g71
NtRp5188
(dp5189
g74
(dp5190
g82
I5
ssg83
g5184
sg76
(lp5191
g3764
asbasbasbag69
(g85
g71
NtRp5192
(dp5193
g74
(dp5194
sg83
g3707
sg76
(lp5195
g69
(g90
g71
NtRp5196
(dp5197
g74
(dp5198
g94
g95
ssg83
g5192
sg76
(lp5199
S'session_locked'
p5200
asbag69
(g90
g71
NtRp5201
(dp5202
g74
(dp5203
g101
g102
ssg83
g5192
sg76
(lp5204
S':'
asbag69
(g90
g71
NtRp5205
(dp5206
g74
(dp5207
sg83
g5192
sg76
(lp5208
g69
(g70
g71
NtRp5209
(dp5210
g74
(dp5211
g82
I5
ssg83
g5205
sg76
(lp5212
g1805
asbasbasbag69
(g85
g71
NtRp5213
(dp5214
g74
(dp5215
sg83
g3707
sg76
(lp5216
g69
(g90
g71
NtRp5217
(dp5218
g74
(dp5219
g94
g95
ssg83
g5213
sg76
(lp5220
S'session_new'
p5221
asbag69
(g90
g71
NtRp5222
(dp5223
g74
(dp5224
g101
g102
ssg83
g5213
sg76
(lp5225
S':'
asbag69
(g90
g71
NtRp5226
(dp5227
g74
(dp5228
sg83
g5213
sg76
(lp5229
g69
(g70
g71
NtRp5230
(dp5231
g74
(dp5232
g82
I5
ssg83
g5226
sg76
(lp5233
g112
asbasbasbag69
(g85
g71
NtRp5234
(dp5235
g74
(dp5236
sg83
g3707
sg76
(lp5237
g69
(g90
g71
NtRp5238
(dp5239
g74
(dp5240
g94
g95
ssg83
g5234
sg76
(lp5241
S'session_storage_type'
p5242
asbag69
(g90
g71
NtRp5243
(dp5244
g74
(dp5245
g101
g102
ssg83
g5234
sg76
(lp5246
S':'
asbag69
(g90
g71
NtRp5247
(dp5248
g74
(dp5249
sg83
g5234
sg76
(lp5250
g69
(g70
g71
NtRp5251
(dp5252
g74
(dp5253
g82
I5
ssg83
g5247
sg76
(lp5254
g3237
asbasbasbag69
(g85
g71
NtRp5255
(dp5256
g74
(dp5257
sg83
g3707
sg76
(lp5258
g69
(g90
g71
NtRp5259
(dp5260
g74
(dp5261
g94
g95
ssg83
g5255
sg76
(lp5262
S'status'
p5263
asbag69
(g90
g71
NtRp5264
(dp5265
g74
(dp5266
g101
g102
ssg83
g5255
sg76
(lp5267
S':'
asbag69
(g90
g71
NtRp5268
(dp5269
g74
(dp5270
sg83
g5255
sg76
(lp5271
g69
(g70
g71
NtRp5272
(dp5273
g74
(dp5274
g82
I5
ssg83
g5268
sg76
(lp5275
S'200'
p5276
asbasbasbag69
(g85
g71
NtRp5277
(dp5278
g74
(dp5279
sg83
g3707
sg76
(lp5280
g69
(g90
g71
NtRp5281
(dp5282
g74
(dp5283
g94
g95
ssg83
g5277
sg76
(lp5284
S'subtitle'
p5285
asbag69
(g90
g71
NtRp5286
(dp5287
g74
(dp5288
g101
g102
ssg83
g5277
sg76
(lp5289
S':'
asbag69
(g90
g71
NtRp5290
(dp5291
g74
(dp5292
sg83
g5277
sg76
(lp5293
g69
(g70
g71
NtRp5294
(dp5295
g74
(dp5296
g82
I5
ssg83
g5290
sg76
(lp5297
g4241
(S's\r\x00\x00\x00customize me!'
tRp5298
asbasbasbag69
(g85
g71
NtRp5299
(dp5300
g74
(dp5301
sg83
g3707
sg76
(lp5302
g69
(g90
g71
NtRp5303
(dp5304
g74
(dp5305
g94
g95
ssg83
g5299
sg76
(lp5306
S'title'
p5307
asbag69
(g90
g71
NtRp5308
(dp5309
g74
(dp5310
g101
g102
ssg83
g5299
sg76
(lp5311
S':'
asbag69
(g90
g71
NtRp5312
(dp5313
g74
(dp5314
sg83
g5299
sg76
(lp5315
g69
(g70
g71
NtRp5316
(dp5317
g74
(dp5318
g82
I5
ssg83
g5312
sg76
(lp5319
S'Assignmen3'
p5320
asbasbasbag69
(g85
g71
NtRp5321
(dp5322
g74
(dp5323
sg83
g3707
sg76
(lp5324
g69
(g90
g71
NtRp5325
(dp5326
g74
(dp5327
g94
g95
ssg83
g5321
sg76
(lp5328
S'view'
p5329
asbag69
(g90
g71
NtRp5330
(dp5331
g74
(dp5332
g101
g102
ssg83
g5321
sg76
(lp5333
S':'
asbag69
(g90
g71
NtRp5334
(dp5335
g74
(dp5336
sg83
g5321
sg76
(lp5337
g69
(g70
g71
NtRp5338
(dp5339
g74
(dp5340
g82
I5
ssg83
g5334
sg76
(lp5341
S'default/like.html'
p5342
asbasbasbasbasbsS'locals'
p5343
(dp5344
g4
S"'/home/umang/web2py/applications/assignmen3/views/default/like.html'"
p5345
sg6
S'\'response.write(\\\'<!DOCTYPE html>\\\\n<!-- paulirish...."></script>\\\\n</body>\\\\n</html>\\\\n\\\\n\\\', escape=False)\''
p5346
sssS'traceback'
p5347
S'Traceback (most recent call last):\n  File "/home/umang/web2py/gluon/restricted.py", line 211, in restricted\n    ccode = compile2(code, layer)\n  File "/home/umang/web2py/gluon/restricted.py", line 194, in compile2\n    return compile(code.rstrip().replace(\'\\r\\n\', \'\\n\') + \'\\n\', layer, \'exec\')\n  File "/home/umang/web2py/applications/assignmen3/views/default/like.html", line 85\n    if len(query)>0\n                  ^\nSyntaxError: invalid syntax\n'
p5348
s.