(dp1
S'output'
p2
S"<type 'exceptions.SyntaxError'> non-keyword arg after keyword arg (default.py, line 116)"
p3
sS'layer'
p4
S'/home/umang/web2py/applications/assignmen3/controllers/default.py'
p5
sS'code'
p6
S'# -*- coding: utf-8 -*-\n# this file is released under public domain and you can use without limitations\n\n#########################################################################\n## This is a samples controller\n## - index is the default action of any application\n## - user is required for authentication and authorization\n## - download is for downloading files uploaded in the db (does streaming)\n## - call exposes all registered services (none by default)\n#########################################################################\nimport datetime\n\ndef index():\n    """\n    example action using the internationalization operator T and flash\n    rendered by views/default/index.html or views/generic.html\n\n    if you need a simple wiki simple replace the two lines below with:\n    return auth.wiki()\n    """\n    redirect(URL(r=request,f=\'no_catg\'))\n    #query=db(db.category.name==\'New\').select(db.category.id)\n    #redirect(URL(r=request, f=\'first_page\',args=[int(query[0].id)]))\n\n@auth.requires_login()\ndef login_to_account():\n\tar=db((db.auth_membership.user_id==auth.user_id) & (db.auth_group.id==db.auth_membership.group_id)).select(db.auth_group.role)\n\tif(len(ar)==0):\n\t\tredirect(URL(r=request,f=\'user\'))\n\telif(len(ar)==1):\n\t\tx=db(db.auth_group.role==\'normal\').select(db.auth_group.id)\n\t\tdb.auth_membership.insert(user_id=auth.user_id,group_id=x[0][\'id\'])\n    \t\tquery=db(db.category.name==\'New\').select(db.category.id)\n    \t\tredirect(URL(r=request, f=\'login_normal\',args=[int(query[0].id)]))\n\telif(ar[1][\'role\']==\'normal\'):\n    \t\tquery=db(db.category.name==\'New\').select(db.category.id)\n    \t\tredirect(URL(r=request, f=\'login_normal\',args=[int(query[0].id)]))\n\telif(ar[1][\'role\']==\'admin\'):\n    \t\tquery=db(db.category.name==\'New\').select(db.category.id)\n    \t\tredirect(URL(r=request, f=\'login_admin\',args=[int(query[0].id)]))\n\ndef login_normal():\n\tquery=int(request.args(0))\n\tdisp=db((db.news.user_id==auth.user_id) & (db.news.category_id==query)).select(db.news.id,db.news.heading,db.news.url,db.news.category_id,db.news.ntype,db.news.rating,db.news.pres_time,orderby=~db.news.rating)\n\tq_comment=db((db.news.category_id==query) & (db.comments.news_id==db.news.id)).select(db.comments.ALL)\n\tcatg=db(db.category.id>0).select(db.category.name,db.category.id)\n\tpres_catg=db(db.category.id==query).select(db.category.name)\n\treturn dict(disp=disp,q_comment=q_comment,catg=catg,pres_catg=pres_catg,query=query)\t\n\ndef login_admin():\n\tquery=int(request.args(0))\n\tdisp=db(db.news.category_id==query).select(db.news.id,db.news.user_name,db.news.heading,db.news.url,db.news.category_id,db.news.ntype,db.news.rating,db.news.pres_time,orderby=~db.news.rating)\n\tq_comment=db((db.news.category_id==query) & (db.comments.news_id==db.news.id)).select(db.comments.ALL)\n\tcatg=db(db.category.id>0).select(db.category.name,db.category.id)\n\tpres_catg=db(db.category.id==query).select(db.category.name)\n\treturn dict(disp=disp,q_comment=q_comment,catg=catg,pres_catg=pres_catg,query=query)\t\n\ndef add_category():\n\tform=SQLFORM(db.category,submit_button="Add",labels={\'name\':\'Enter Category\'})\n\tif form.process().accepted:\n\t\tsession.flash=T(\'Category Added\')\n\t\tredirect(URL(r=request, f=\'login_to_account\'))\n    \telif form.errors:\n       \t\t response.flash=\'Some Error Occured Please Refresh\'\n\treturn dict(form=form)\n\n@auth.requires_login()\ndef edit_news_admin():\n\tnews_id=int(request.args(0))\n\tcatg=int(request.args(1))\n\tflag=int(request.args(2))\n\tform=SQLFORM.factory(\n\t db.Field(\'new_heading\',\'string\',label="Enter Heading"),\n\t db.Field(\'new_url\',\'string\',label="Enter URL",requires=IS_URL()),\n\t db.Field(\'new_type\',\'string\',label="Enter Type",requires=IS_IN_SET(["Text","Video"])),\n\t formstyle=\'divs\',\n\t buttons=[],)\n\tform[0].insert(3,DIV(INPUT(_type=\'submit\',_value=\'Edit IT\')))\n   \tif form.accepts(request.vars,session):\n\t\t# tmp_edit(form.vars.new_heading,form.vars.new_url,form.vars.new_type,news_id,catg,flag)\n\t\tdb(db.news.id==news_id).update(heading=form.vars.new_heading,url=form.vars.new_url,rating=100,ntype=form.vars.new_type)\n\t\tdb(db.rating.news_id==news_id).delete()\n\t\tredirect(URL(r=request,f=\'login_admin\',args=[(int)(catg)]))\n    \telif form.errors:\n       \t\t response.flash=\'Error Occured\'\n\treturn dict(form=form)\n\n@auth.requires_login()\ndef delete_news_admin():\n\tnews_id=int(request.args(0))\n\tcatg=int(request.args(1))\n\tflag=int(request.args(2))\n\tdb(db.news.id==news_id).delete()\n\tsession.flash=T(\'Post Deleted Successfully\')\n\tredirect(URL(r=request,f=\'login_admin\',args=[(int)(catg)]))\n\ndef first_page():\n\tquery=int(request.args(0))\n\tdisp=db(db.news.category_id==query).select(db.news.heading,db.news.url,db.news.rating,db.news.ntype,db.news.id,db.news.pres_time,db.news.user_name,orderby=~db.news.rating)\n\thas_liked=db((db.news.category_id==query) & (db.rating.news_id==db.news.id)).select(db.rating.ALL)\n\tq_comment=db((db.news.category_id==query) & (db.comments.news_id==db.news.id)).select(db.comments.ALL)\n\tcatg=db(db.category.id>0).select(db.category.name,db.category.id)\n\tpres_catg=db(db.category.id==query).select(db.category.name)\n\tdisp=sorted(disp,key=lambda a:-a[\'rating\'])\n\t"""\n\tform=SQLFORM.factory(\n\t db.Field(\'comm_body\',\'string\',label=""),\n\t formstyle=\'divs\',\n\t buttons=[],)\n   \tform[0].insert(1,DIV(INPUT(_type=\'submit\',_value=\'Post\')))\n   \tif form.accepts(request.vars,session):\n        \t insert_comment(form.vars.comm_body,auth.user_id,query)\n    \telif form.errors:\n        \t response.flash=\'Some Error Occured Please Refresh\'\n    \t"""\n\treturn dict(query=query,disp=disp,q_comment=q_comment,catg=catg,pres_catg=pres_catg,has_liked)\n\ndef no_catg():\n\tdisp=db(db.news.id>0).select(db.news.ALL,orderby=~db.news.rating)\n\tq_comment=db(db.comments.id>0).select(db.comments.ALL)\n\tcatg=db(db.category.id>0).select(db.category.name,db.category.id)\n\treturn dict(disp=disp,q_comment=q_comment,catg=catg)\n\ndef latest():\n\tdisp=db(db.news.id>0).select(db.news.ALL,orderby=~db.news.pres_time)\n\tq_comment=db(db.comments.id>0).select(db.comments.body,db.comments.commentor)\n\tcatg=db(db.category.id>0).select(db.category.name,db.category.id)\n\treturn dict(disp=disp,q_comment=q_comment,catg=catg)\n\n@auth.requires_login()\ndef add_news():\n\tcatg=int(request.args(0))\n\tflag=int(request.args(1))\n\tname=db(db.auth_user.id==auth.user_id).select(db.auth_user.first_name,db.auth_user.last_name)\n\tdb.news.pres_time.default=datetime.datetime.now().ctime()\n\tdb.news.pres_time.readable=False\n\tdb.news.pres_time.writable=False\n\tdb.news.category_id.default=catg\n\tdb.news.category_id.readable=False\n\tdb.news.category_id.writable=False\n\tdb.news.user_id.default=auth.user_id\n\tdb.news.user_id.writable=False\n\tdb.news.user_id.readable=False\n\tdb.news.rating.default=100\n\tdb.news.rating.writable=False\n\tdb.news.rating.readable=False\n\tdb.news.user_name.default=name[0].first_name+" "+name[0].last_name\n\tdb.news.user_name.readable=False\n\tdb.news.user_name.writable=False\n\tform=SQLFORM(db.news,submit_button="Post",labels={\'ntype\':\'Post Type\'})\n\tif form.process().accepted:\n\t\tif(flag==0):\n\t\t\tsession.flash=T(\'Post Added\')\n\t        \tredirect(URL(r=request, f=\'first_page\',args=[int(catg)]))\n\t\telse :\n\t\t\tsession.flash=T(\'Post Added\')\n\t\t\tredirect(URL(r=request, f=\'login_to_account\'))\n\t\t#redirect(URL(r=request,f=\'first_page?query=%s\' % catg))\n\telif form.errors:\n\t\tresponse.flash="Error posting it"\n\treturn dict(form=form)\n\n@auth.requires_login()\ndef like():\n\tnews_id=int(request.args(0))\n\tcatg=int(request.args(1))\n\tflag=int(request.args(2))\n\tar=db(db.news.id==news_id).select(db.news.rating)\n\tquery=db((db.rating.news_id==news_id) & (db.rating.rater_id==auth.user_id)).select(db.rating.liked,db.rating.disliked)\n\t"""\n\tif((len(query)==0) or (query[0].liked==0)):\n\t\tdb(db.news.id==news_id).update(rating=ar[0].rating+5)\n\t\tflag=2\n\t\tif(len(query)==0):\n\t\t\tdb.rating.insert(news_id=news_id,rater_id=auth.user_id,liked=1,disliked=0)\n\t\telse:\n\t\t\tflag=3\n\t\t\tdb((db.rating.news_id==news_id) & (db.rating.rater_id==auth.user_id)).update(liked=1)\n\t#redirect(URL(r=request, f=\'first_page\',args=[int(catg)]))\n\treturn dict(query=query,flag=flag)\n\t"""\n\tif(len(query)==0):\n\t\tdb(db.news.id==news_id).update(rating=ar[0].rating+5)\n\t\tdb.rating.insert(news_id=news_id,rater_id=auth.user_id,liked=1,disliked=0)\n\t\tsession.flash=T(\'You Voted Up\')\n\tif(len(query)!=0):\n\t\tif(int(query[0].liked)==1):\n\t\t\tdb(db.news.id==news_id).update(rating=ar[0].rating-5)\n\t\t\tdb((db.rating.news_id==news_id) & (db.rating.rater_id==auth.user_id)).update(liked=0)\n\t\t\tsession.flash=T(\'Your Vote Cancelled\')\n\t\tif(int(query[0].liked)==0 and int(query[0].disliked)==0):\n\t\t\tdb(db.news.id==news_id).update(rating=ar[0].rating+5)\n\t\t\tdb((db.rating.news_id==news_id) & (db.rating.rater_id==auth.user_id)).update(liked=1)\n\t\t\tsession.flash=T(\'You Voted Up\')\n\tif(flag==0):\n\t\tredirect(URL(r=request, f=\'first_page\',args=[int(catg)]))\n\telse :\n\t\tredirect(URL(r=request, f=\'login_to_account\'))\n\n\n@auth.requires_login()\ndef dislike():\n\tnews_id=int(request.args(0))\n\tcatg=int(request.args(1))\n\tflag=int(request.args(2))\n\tar=db(db.news.id==news_id).select(db.news.rating)\n\tquery=db((db.rating.news_id==news_id) & (db.rating.rater_id==auth.user_id)).select(db.rating.disliked,db.rating.liked)\n\tif(len(query)==0):\n\t\tdb(db.news.id==news_id).update(rating=ar[0].rating-3)\n\t\tdb.rating.insert(news_id=news_id,rater_id=auth.user_id,liked=0,disliked=1)\n\t\tsession.flash=T(\'You Voted Down\')\n\tif(len(query)!=0):\n\t\tif(int(query[0].disliked)==1):\n\t\t\tdb(db.news.id==news_id).update(rating=ar[0].rating+3)\n\t\t\tdb((db.rating.news_id==news_id) & (db.rating.rater_id==auth.user_id)).update(disliked=0)\n\t\t\tsession.flash=T(\'You Vote Cancelled\')\n\t\tif(int(query[0].disliked)==0 and int(query[0].liked)==0):\n\t\t\tdb(db.news.id==news_id).update(rating=ar[0].rating-3)\n\t\t\tdb((db.rating.news_id==news_id) & (db.rating.rater_id==auth.user_id)).update(disliked=1)\n\t\t\tsession.flash=T(\'You Voted Down\')\n\tif(flag==0):\n\t\tredirect(URL(r=request,f=\'first_page\',args=[(int)(catg)]))\n\telse :\n\t\tredirect(URL(r=request, f=\'login_to_account\'))\n\t#return dict(query=query)\n\n@auth.requires_login()\ndef edit_news():\n\tnews_id=int(request.args(0))\n\tcatg=int(request.args(1))\n\tflag=int(request.args(2))\n\tquery=db((db.news.id==news_id) & (db.news.user_id==auth.user_id)).select(db.news.heading)\n\tif(len(query)==0):\n\t\tredirect(URL(r=request,f=\'first_page\',args=[(int)(catg)]))\n\telse :\n\t\tform=SQLFORM.factory(\n\t\t db.Field(\'new_heading\',\'string\',label="Enter Heading"),\n\t\t db.Field(\'new_url\',\'string\',label="Enter URL",requires=IS_URL()),\n\t\t db.Field(\'new_type\',\'string\',label="Enter Type",requires=IS_IN_SET(["Text","Video"])),\n\t\t formstyle=\'divs\',\n\t\t buttons=[],)\n   \t\tform[0].insert(3,DIV(INPUT(_type=\'submit\',_value=\'Edit IT\')))\n\t   \tif form.accepts(request.vars,session):\n        \t\t tmp_edit(form.vars.new_heading,form.vars.new_url,form.vars.new_type,news_id,catg,flag)\n\t    \telif form.errors:\n        \t\t response.flash=\'Some Error Occured Please Refresh\'\n\t\treturn dict(form=form)\n\n@auth.requires_login()\ndef tmp_edit(new_heading,new_url,new_type,news_id,catg,flag):\n\tdb(db.news.id==news_id).update(heading=new_heading,url=new_url,rating=100,ntype=new_type)\n\tdb(db.rating.news_id==news_id).delete()\n\tif(flag==0):\n\t\tsession.flash=T(\'Post Edited Successfully\')\n\t\tredirect(URL(r=request,f=\'first_page\',args=[(int)(catg)]))\n\telse :\n\t\tsession.flash=T(\'Post Edited Successfully\')\n\t\tredirect(URL(r=request, f=\'login_to_account\'))\n\n@auth.requires_login()\ndef delete_news():\n\tnews_id=int(request.args(0))\n\tcatg=int(request.args(1))\n\tflag=int(request.args(2))\n\tquery=db((db.news.id==news_id) & (db.news.user_id==auth.user_id)).select(db.news.id)\n\tif(len(query)>0):\n\t\tdb((db.news.id==news_id) & (db.news.user_id==auth.user_id)).delete()\n\t\tdb(db.rating.news_id==news_id).delete()\n\t\tdb(db.comments.news_id==news_id).delete()\n\t\tsession.flash=T(\'Post Deleted Successfully\')\n\tif(flag==0):\n\t\tredirect(URL(r=request,f=\'first_page\',args=[(int)(catg)]))\n\telse :\n\t\tsession.flash=T(\'Post Deleted Successfully\')\n\t\tredirect(URL(r=request, f=\'login_to_account\'))\n\ndef delete_catg():\n\tform=SQLFORM.factory(\n\t db.Field(\'catg_id\',\'int\',label="Choose Category",requires=IS_IN_DB(db,\'category.id\',\'category.name\')),\n\t formstyle=\'divs\',\n\t buttons=[],)\n   \tform[0].insert(1,DIV(INPUT(_type=\'submit\',_value=\'Delete It\')))\n\tif form.accepts(request.vars,session):\n\t\tquery=db(db.news.category_id==form.vars.catg_id).select(db.news.id)\n\t\tfor x in query:\n\t\t\tdb(db.rating.news_id==x.id).delete()\n\t\t\tdb(db.news.id==x.id).delete()\n\t\tdb(db.category.id==form.vars.catg_id).delete()\n\t\tsession.flash=T(\'Category Deleted\')\n\t\tredirect(URL(r=request, f=\'no_catg\'))\n\t\t#tmp_edit(form.vars.new_heading,form.vars.new_url,form.vars.new_type,news_id,catg,flag)\n  \telif form.errors:\n       \t\t response.flash=\'Some Error Occured Please Refresh\'\n\treturn dict(form=form)\n\n@auth.requires_login()\ndef insert_comment():\n\tcatg_id=int(request.args(1))\n\tnews_id1=(int)(request.args(0))\n\tflag=int(request.args(2))\n\tdb.comments.comm_time.default=datetime.datetime.now().ctime()\n\tdb.comments.comm_time.readable=False\n\tdb.comments.comm_time.writable=False\n\tdb.comments.commentor.default=auth.user_id\n\tdb.comments.commentor.readable=False\n\tdb.comments.commentor.writable=False\n\tdb.comments.news_id.default=news_id1\n\tdb.comments.news_id.readable=False\n\tdb.comments.news_id.writable=False\n\tform=SQLFORM(db.comments,submit_button="Comment",labels={\'body\':\'Your Comment\'})\n\tif form.process().accepted:\n\t\tif(flag==0):\n\t\t\tsession.flash=T(\'Comment Inserted\')\n\t        \tredirect(URL(r=request, f=\'first_page\',args=[int(catg_id)]))\n\t\telse :\n\t\t\tsession.flash=T(\'Comment Inserted\')\n\t\t\tredirect(URL(r=request, f=\'login_to_account\'))\n\t\t#redirect(URL(r=request,f=\'first_page?query=%s\' % catg))\n\telif form.errors:\n\t\tresponse.flash="Error posting it"\n\treturn dict(form=form)\n\ndef delete_user():\n\tcatg_id=int(request.args(0))\n\tform=SQLFORM.factory(\n\t db.Field(\'user_id\',\'int\',label="Choose User",requires=IS_IN_DB(db,\'auth_user.id\',\'auth_user.first_name\')),\n\t formstyle=\'divs\',\n\t buttons=[],)\n   \tform[0].insert(1,DIV(INPUT(_type=\'submit\',_value=\'Delete\')))\n\tif form.accepts(request.vars,session):\n\t\tquery=db(db.rating.rater_id==form.vars.user_id).select(db.rating.ALL)\n\t\tfor y in query:\n\t\t\tif(y.liked==1):\n\t\t\t\tq2=db(db.news.id==y.news_id).select(db.news.rating)\n\t\t\t\tdb(db.news.id==y.news_id).update(rating=q2[0].rating-5)\n\t\t\tif(y.disliked==1):\n\t\t\t\tq2=db(db.news.id==y.news_id).select(db.news.rating)\n\t\t\t\tdb(db.news.id==y.news_id).update(rating=q2[0].rating+3)\n\t\tquery=db(db.news.user_id==form.vars.user_id).select(db.news.ALL)\n\t\tfor x in query:\n\t\t\tdb(db.comments.news_id==x.id).delete()\n\t\tdb(db.news.user_id==form.vars.user_id).delete()\n\t\tdb(db.auth_membership.user_id==form.vars.user_id).delete()\n\t\tdb(db.auth_user.id==form.vars.user_id).delete()\n\t\tsession.flash=T(\'User Deleted\')\n\t\tredirect(URL(r=request, f=\'login_admin\',args=[int(catg_id)]))\n\telif form.errors:\n\t\tresponse.flash="Error posting it"\n\treturn dict(form=form)\n\ndef user():\n    """\n    exposes:\n    http://..../[app]/default/user/login\n    http://..../[app]/default/user/logout\n    http://..../[app]/default/user/register\n    http://..../[app]/default/user/profile\n    http://..../[app]/default/user/retrieve_password\n    http://..../[app]/default/user/change_password\n    use @auth.requires_login()\n        @auth.requires_membership(\'group name\')\n        @auth.requires_permission(\'read\',\'table name\',record_id)\n    to decorate functions that need access control\n    """\n    return dict(form=auth())\n\n\ndef download():\n    """\n    allows downloading of uploaded files\n    http://..../[app]/default/download/[filename]\n    """\n    return response.download(request, db)\n\n\ndef call():\n    """\n    exposes services. for example:\n    http://..../[app]/default/call/jsonrpc\n    decorate with @services.jsonrpc the functions to expose\n    supports xml, json, xmlrpc, jsonrpc, amfrpc, rss, csv\n    """\n    return service()\n\n\n@auth.requires_signature()\ndef data():\n    """\n    http://..../[app]/default/data/tables\n    http://..../[app]/default/data/create/[table]\n    http://..../[app]/default/data/read/[table]/[id]\n    http://..../[app]/default/data/update/[table]/[id]\n    http://..../[app]/default/data/delete/[table]/[id]\n    http://..../[app]/default/data/select/[table]\n    http://..../[app]/default/data/search/[table]\n    but URLs must be signed, i.e. linked with\n      A(\'table\',_href=URL(\'data/tables\',user_signature=True))\n    or with the signed load operator\n      LOAD(\'default\',\'data.load\',args=\'tables\',ajax=True,user_signature=True)\n    """\n    return dict(form=crud())\n\nresponse._vars=response._caller(index)\n'
p7
sS'snapshot'
p8
(dp9
S'exception'
p10
(dp11
S'__getslice__'
p12
S"<method-wrapper '__getslice__' of exceptions.SyntaxError object>"
p13
sS'text'
p14
S"'return dict(query=query,disp=disp,q_comment=q_comment,catg=catg,pres_catg=pres_catg,has_liked)\\n'"
p15
sS'__str__'
p16
S"<method-wrapper '__str__' of exceptions.SyntaxError object>"
p17
sS'__reduce__'
p18
S'<built-in method __reduce__ of exceptions.SyntaxError object>'
p19
sS'__dict__'
p20
S'{}'
p21
sS'__sizeof__'
p22
S'<built-in method __sizeof__ of exceptions.SyntaxError object>'
p23
sS'__init__'
p24
S"<method-wrapper '__init__' of exceptions.SyntaxError object>"
p25
sS'__setattr__'
p26
S"<method-wrapper '__setattr__' of exceptions.SyntaxError object>"
p27
sS'__reduce_ex__'
p28
S'<built-in method __reduce_ex__ of exceptions.SyntaxError object>'
p29
sS'__new__'
p30
S'<built-in method __new__ of type object>'
p31
sS'__format__'
p32
S'<built-in method __format__ of exceptions.SyntaxError object>'
p33
sS'__class__'
p34
S"<type 'exceptions.SyntaxError'>"
p35
sS'filename'
p36
S"'/home/umang/web2py/applications/assignmen3/controllers/default.py'"
p37
sS'lineno'
p38
S'116'
p39
sS'msg'
p40
S"'non-keyword arg after keyword arg'"
p41
sS'__doc__'
p42
S"'Invalid syntax.'"
p43
sS'__getitem__'
p44
S"<method-wrapper '__getitem__' of exceptions.SyntaxError object>"
p45
sS'__setstate__'
p46
S'<built-in method __setstate__ of exceptions.SyntaxError object>'
p47
sS'__getattribute__'
p48
S"<method-wrapper '__getattribute__' of exceptions.SyntaxError object>"
p49
sS'print_file_and_line'
p50
S'None'
p51
sS'args'
p52
S"('non-keyword arg after keyword arg', ('/home/umang/web2py/applications/assignmen3/controllers/default.py', 116, None, 'return dict(query=query,disp=disp,q_comment=q_comment,catg=catg,pres_catg=pres_catg,has_liked)\\n'))"
p53
sS'__subclasshook__'
p54
S'<built-in method __subclasshook__ of type object>'
p55
sS'offset'
p56
S'None'
p57
sS'__unicode__'
p58
S'<built-in method __unicode__ of exceptions.SyntaxError object>'
p59
sS'__delattr__'
p60
S"<method-wrapper '__delattr__' of exceptions.SyntaxError object>"
p61
sS'__repr__'
p62
S"<method-wrapper '__repr__' of exceptions.SyntaxError object>"
p63
sS'__hash__'
p64
S"<method-wrapper '__hash__' of exceptions.SyntaxError object>"
p65
ssS'evalue'
p66
S'non-keyword arg after keyword arg (default.py, line 116)'
p67
sS'request'
p68
ccopy_reg
_reconstructor
p69
(cgluon.html
BEAUTIFY
p70
c__builtin__
object
p71
NtRp72
(dp73
S'attributes'
p74
(dp75
sS'components'
p76
(lp77
g69
(cgluon.html
TABLE
p78
g71
NtRp79
(dp80
g74
(dp81
S'level'
p82
I5
ssS'parent'
p83
Nsg76
(lp84
g69
(cgluon.html
TR
p85
g71
NtRp86
(dp87
g74
(dp88
sg83
g79
sg76
(lp89
g69
(cgluon.html
TD
p90
g71
NtRp91
(dp92
g74
(dp93
S'_style'
p94
S'font-weight:bold;vertical-align:top'
p95
ssg83
g86
sg76
(lp96
S'ajax'
p97
asbag69
(g90
g71
NtRp98
(dp99
g74
(dp100
S'_valign'
p101
S'top'
p102
ssg83
g86
sg76
(lp103
S':'
asbag69
(g90
g71
NtRp104
(dp105
g74
(dp106
sg83
g86
sg76
(lp107
g69
(g70
g71
NtRp108
(dp109
g74
(dp110
g82
I5
ssg83
g104
sg76
(lp111
S'False'
p112
asbasbasbag69
(g85
g71
NtRp113
(dp114
g74
(dp115
sg83
g79
sg76
(lp116
g69
(g90
g71
NtRp117
(dp118
g74
(dp119
g94
g95
ssg83
g113
sg76
(lp120
S'application'
p121
asbag69
(g90
g71
NtRp122
(dp123
g74
(dp124
g101
g102
ssg83
g113
sg76
(lp125
S':'
asbag69
(g90
g71
NtRp126
(dp127
g74
(dp128
sg83
g113
sg76
(lp129
g69
(g70
g71
NtRp130
(dp131
g74
(dp132
g82
I5
ssg83
g126
sg76
(lp133
S'assignmen3'
p134
asbasbasbag69
(g85
g71
NtRp135
(dp136
g74
(dp137
sg83
g79
sg76
(lp138
g69
(g90
g71
NtRp139
(dp140
g74
(dp141
g94
g95
ssg83
g135
sg76
(lp142
g52
asbag69
(g90
g71
NtRp143
(dp144
g74
(dp145
g101
g102
ssg83
g135
sg76
(lp146
S':'
asbag69
(g90
g71
NtRp147
(dp148
g74
(dp149
sg83
g135
sg76
(lp150
g69
(g70
g71
NtRp151
(dp152
g74
(dp153
g82
I5
ssg83
g147
sg76
(lp154
g69
(g78
g71
NtRp155
(dp156
g74
(dp157
g82
I4
ssg83
Nsg76
(lp158
sbasbasbasbag69
(g85
g71
NtRp159
(dp160
g74
(dp161
sg83
g79
sg76
(lp162
g69
(g90
g71
NtRp163
(dp164
g74
(dp165
g94
g95
ssg83
g159
sg76
(lp166
S'body'
p167
asbag69
(g90
g71
NtRp168
(dp169
g74
(dp170
g101
g102
ssg83
g159
sg76
(lp171
S':'
asbag69
(g90
g71
NtRp172
(dp173
g74
(dp174
sg83
g159
sg76
(lp175
g69
(g70
g71
NtRp176
(dp177
g74
(dp178
g82
I5
ssg83
g172
sg76
(lp179
S'<cStringIO.StringO object at 0x7fb08c124ed8>'
p180
asbasbasbag69
(g85
g71
NtRp181
(dp182
g74
(dp183
sg83
g79
sg76
(lp184
g69
(g90
g71
NtRp185
(dp186
g74
(dp187
g94
g95
ssg83
g181
sg76
(lp188
S'cid'
p189
asbag69
(g90
g71
NtRp190
(dp191
g74
(dp192
g101
g102
ssg83
g181
sg76
(lp193
S':'
asbag69
(g90
g71
NtRp194
(dp195
g74
(dp196
sg83
g181
sg76
(lp197
g69
(g70
g71
NtRp198
(dp199
g74
(dp200
g82
I5
ssg83
g194
sg76
(lp201
S'None'
p202
asbasbasbag69
(g85
g71
NtRp203
(dp204
g74
(dp205
sg83
g79
sg76
(lp206
g69
(g90
g71
NtRp207
(dp208
g74
(dp209
g94
g95
ssg83
g203
sg76
(lp210
S'client'
p211
asbag69
(g90
g71
NtRp212
(dp213
g74
(dp214
g101
g102
ssg83
g203
sg76
(lp215
S':'
asbag69
(g90
g71
NtRp216
(dp217
g74
(dp218
sg83
g203
sg76
(lp219
g69
(g70
g71
NtRp220
(dp221
g74
(dp222
g82
I5
ssg83
g216
sg76
(lp223
S'127.0.0.1'
p224
asbasbasbag69
(g85
g71
NtRp225
(dp226
g74
(dp227
sg83
g79
sg76
(lp228
g69
(g90
g71
NtRp229
(dp230
g74
(dp231
g94
g95
ssg83
g225
sg76
(lp232
S'controller'
p233
asbag69
(g90
g71
NtRp234
(dp235
g74
(dp236
g101
g102
ssg83
g225
sg76
(lp237
S':'
asbag69
(g90
g71
NtRp238
(dp239
g74
(dp240
sg83
g225
sg76
(lp241
g69
(g70
g71
NtRp242
(dp243
g74
(dp244
g82
I5
ssg83
g238
sg76
(lp245
S'default'
p246
asbasbasbag69
(g85
g71
NtRp247
(dp248
g74
(dp249
sg83
g79
sg76
(lp250
g69
(g90
g71
NtRp251
(dp252
g74
(dp253
g94
g95
ssg83
g247
sg76
(lp254
S'cookies'
p255
asbag69
(g90
g71
NtRp256
(dp257
g74
(dp258
g101
g102
ssg83
g247
sg76
(lp259
S':'
asbag69
(g90
g71
NtRp260
(dp261
g74
(dp262
sg83
g247
sg76
(lp263
g69
(g70
g71
NtRp264
(dp265
g74
(dp266
g82
I5
ssg83
g260
sg76
(lp267
g69
(g78
g71
NtRp268
(dp269
g74
(dp270
g82
I4
ssg83
Nsg76
(lp271
g69
(g85
g71
NtRp272
(dp273
g74
(dp274
sg83
g268
sg76
(lp275
g69
(g90
g71
NtRp276
(dp277
g74
(dp278
g94
g95
ssg83
g272
sg76
(lp279
S'session_id_admin'
p280
asbag69
(g90
g71
NtRp281
(dp282
g74
(dp283
g101
g102
ssg83
g272
sg76
(lp284
S':'
asbag69
(g90
g71
NtRp285
(dp286
g74
(dp287
sg83
g272
sg76
(lp288
g69
(g70
g71
NtRp289
(dp290
g74
(dp291
g82
I4
ssg83
g285
sg76
(lp292
S'127.0.0.1-67a35102-2a86-42d7-8ad0-7533e3b8a514'
p293
ag69
(g78
g71
NtRp294
(dp295
g74
(dp296
g82
I3
ssg83
Nsg76
(lp297
g69
(g85
g71
NtRp298
(dp299
g74
(dp300
sg83
g294
sg76
(lp301
g69
(g90
g71
NtRp302
(dp303
g74
(dp304
g94
g95
ssg83
g298
sg76
(lp305
S'comment'
p306
asbag69
(g90
g71
NtRp307
(dp308
g74
(dp309
g101
g102
ssg83
g298
sg76
(lp310
S':'
asbag69
(g90
g71
NtRp311
(dp312
g74
(dp313
sg83
g298
sg76
(lp314
g69
(g70
g71
NtRp315
(dp316
g74
(dp317
g82
I3
ssg83
g311
sg76
(lp318
S''
asbasbasbag69
(g85
g71
NtRp319
(dp320
g74
(dp321
sg83
g294
sg76
(lp322
g69
(g90
g71
NtRp323
(dp324
g74
(dp325
g94
g95
ssg83
g319
sg76
(lp326
S'domain'
p327
asbag69
(g90
g71
NtRp328
(dp329
g74
(dp330
g101
g102
ssg83
g319
sg76
(lp331
S':'
asbag69
(g90
g71
NtRp332
(dp333
g74
(dp334
sg83
g319
sg76
(lp335
g69
(g70
g71
NtRp336
(dp337
g74
(dp338
g82
I3
ssg83
g332
sg76
(lp339
S''
asbasbasbag69
(g85
g71
NtRp340
(dp341
g74
(dp342
sg83
g294
sg76
(lp343
g69
(g90
g71
NtRp344
(dp345
g74
(dp346
g94
g95
ssg83
g340
sg76
(lp347
S'expires'
p348
asbag69
(g90
g71
NtRp349
(dp350
g74
(dp351
g101
g102
ssg83
g340
sg76
(lp352
S':'
asbag69
(g90
g71
NtRp353
(dp354
g74
(dp355
sg83
g340
sg76
(lp356
g69
(g70
g71
NtRp357
(dp358
g74
(dp359
g82
I3
ssg83
g353
sg76
(lp360
S''
asbasbasbag69
(g85
g71
NtRp361
(dp362
g74
(dp363
sg83
g294
sg76
(lp364
g69
(g90
g71
NtRp365
(dp366
g74
(dp367
g94
g95
ssg83
g361
sg76
(lp368
S'httponly'
p369
asbag69
(g90
g71
NtRp370
(dp371
g74
(dp372
g101
g102
ssg83
g361
sg76
(lp373
S':'
asbag69
(g90
g71
NtRp374
(dp375
g74
(dp376
sg83
g361
sg76
(lp377
g69
(g70
g71
NtRp378
(dp379
g74
(dp380
g82
I3
ssg83
g374
sg76
(lp381
S''
asbasbasbag69
(g85
g71
NtRp382
(dp383
g74
(dp384
sg83
g294
sg76
(lp385
g69
(g90
g71
NtRp386
(dp387
g74
(dp388
g94
g95
ssg83
g382
sg76
(lp389
S'max-age'
p390
asbag69
(g90
g71
NtRp391
(dp392
g74
(dp393
g101
g102
ssg83
g382
sg76
(lp394
S':'
asbag69
(g90
g71
NtRp395
(dp396
g74
(dp397
sg83
g382
sg76
(lp398
g69
(g70
g71
NtRp399
(dp400
g74
(dp401
g82
I3
ssg83
g395
sg76
(lp402
S''
asbasbasbag69
(g85
g71
NtRp403
(dp404
g74
(dp405
sg83
g294
sg76
(lp406
g69
(g90
g71
NtRp407
(dp408
g74
(dp409
g94
g95
ssg83
g403
sg76
(lp410
S'path'
p411
asbag69
(g90
g71
NtRp412
(dp413
g74
(dp414
g101
g102
ssg83
g403
sg76
(lp415
S':'
asbag69
(g90
g71
NtRp416
(dp417
g74
(dp418
sg83
g403
sg76
(lp419
g69
(g70
g71
NtRp420
(dp421
g74
(dp422
g82
I3
ssg83
g416
sg76
(lp423
S''
asbasbasbag69
(g85
g71
NtRp424
(dp425
g74
(dp426
sg83
g294
sg76
(lp427
g69
(g90
g71
NtRp428
(dp429
g74
(dp430
g94
g95
ssg83
g424
sg76
(lp431
S'secure'
p432
asbag69
(g90
g71
NtRp433
(dp434
g74
(dp435
g101
g102
ssg83
g424
sg76
(lp436
S':'
asbag69
(g90
g71
NtRp437
(dp438
g74
(dp439
sg83
g424
sg76
(lp440
g69
(g70
g71
NtRp441
(dp442
g74
(dp443
g82
I3
ssg83
g437
sg76
(lp444
S''
asbasbasbag69
(g85
g71
NtRp445
(dp446
g74
(dp447
sg83
g294
sg76
(lp448
g69
(g90
g71
NtRp449
(dp450
g74
(dp451
g94
g95
ssg83
g445
sg76
(lp452
S'version'
p453
asbag69
(g90
g71
NtRp454
(dp455
g74
(dp456
g101
g102
ssg83
g445
sg76
(lp457
S':'
asbag69
(g90
g71
NtRp458
(dp459
g74
(dp460
sg83
g445
sg76
(lp461
g69
(g70
g71
NtRp462
(dp463
g74
(dp464
g82
I3
ssg83
g458
sg76
(lp465
S''
asbasbasbasbasbasbasbag69
(g85
g71
NtRp466
(dp467
g74
(dp468
sg83
g268
sg76
(lp469
g69
(g90
g71
NtRp470
(dp471
g74
(dp472
g94
g95
ssg83
g466
sg76
(lp473
S'session_id_welcome'
p474
asbag69
(g90
g71
NtRp475
(dp476
g74
(dp477
g101
g102
ssg83
g466
sg76
(lp478
S':'
asbag69
(g90
g71
NtRp479
(dp480
g74
(dp481
sg83
g466
sg76
(lp482
g69
(g70
g71
NtRp483
(dp484
g74
(dp485
g82
I4
ssg83
g479
sg76
(lp486
S'127.0.0.1-cf088023-15d7-40a4-b8d2-486ab4939071'
p487
ag69
(g78
g71
NtRp488
(dp489
g74
(dp490
g82
I3
ssg83
Nsg76
(lp491
g69
(g85
g71
NtRp492
(dp493
g74
(dp494
sg83
g488
sg76
(lp495
g69
(g90
g71
NtRp496
(dp497
g74
(dp498
g94
g95
ssg83
g492
sg76
(lp499
g306
asbag69
(g90
g71
NtRp500
(dp501
g74
(dp502
g101
g102
ssg83
g492
sg76
(lp503
S':'
asbag69
(g90
g71
NtRp504
(dp505
g74
(dp506
sg83
g492
sg76
(lp507
g69
(g70
g71
NtRp508
(dp509
g74
(dp510
g82
I3
ssg83
g504
sg76
(lp511
S''
asbasbasbag69
(g85
g71
NtRp512
(dp513
g74
(dp514
sg83
g488
sg76
(lp515
g69
(g90
g71
NtRp516
(dp517
g74
(dp518
g94
g95
ssg83
g512
sg76
(lp519
g327
asbag69
(g90
g71
NtRp520
(dp521
g74
(dp522
g101
g102
ssg83
g512
sg76
(lp523
S':'
asbag69
(g90
g71
NtRp524
(dp525
g74
(dp526
sg83
g512
sg76
(lp527
g69
(g70
g71
NtRp528
(dp529
g74
(dp530
g82
I3
ssg83
g524
sg76
(lp531
S''
asbasbasbag69
(g85
g71
NtRp532
(dp533
g74
(dp534
sg83
g488
sg76
(lp535
g69
(g90
g71
NtRp536
(dp537
g74
(dp538
g94
g95
ssg83
g532
sg76
(lp539
g348
asbag69
(g90
g71
NtRp540
(dp541
g74
(dp542
g101
g102
ssg83
g532
sg76
(lp543
S':'
asbag69
(g90
g71
NtRp544
(dp545
g74
(dp546
sg83
g532
sg76
(lp547
g69
(g70
g71
NtRp548
(dp549
g74
(dp550
g82
I3
ssg83
g544
sg76
(lp551
S''
asbasbasbag69
(g85
g71
NtRp552
(dp553
g74
(dp554
sg83
g488
sg76
(lp555
g69
(g90
g71
NtRp556
(dp557
g74
(dp558
g94
g95
ssg83
g552
sg76
(lp559
g369
asbag69
(g90
g71
NtRp560
(dp561
g74
(dp562
g101
g102
ssg83
g552
sg76
(lp563
S':'
asbag69
(g90
g71
NtRp564
(dp565
g74
(dp566
sg83
g552
sg76
(lp567
g69
(g70
g71
NtRp568
(dp569
g74
(dp570
g82
I3
ssg83
g564
sg76
(lp571
S''
asbasbasbag69
(g85
g71
NtRp572
(dp573
g74
(dp574
sg83
g488
sg76
(lp575
g69
(g90
g71
NtRp576
(dp577
g74
(dp578
g94
g95
ssg83
g572
sg76
(lp579
g390
asbag69
(g90
g71
NtRp580
(dp581
g74
(dp582
g101
g102
ssg83
g572
sg76
(lp583
S':'
asbag69
(g90
g71
NtRp584
(dp585
g74
(dp586
sg83
g572
sg76
(lp587
g69
(g70
g71
NtRp588
(dp589
g74
(dp590
g82
I3
ssg83
g584
sg76
(lp591
S''
asbasbasbag69
(g85
g71
NtRp592
(dp593
g74
(dp594
sg83
g488
sg76
(lp595
g69
(g90
g71
NtRp596
(dp597
g74
(dp598
g94
g95
ssg83
g592
sg76
(lp599
g411
asbag69
(g90
g71
NtRp600
(dp601
g74
(dp602
g101
g102
ssg83
g592
sg76
(lp603
S':'
asbag69
(g90
g71
NtRp604
(dp605
g74
(dp606
sg83
g592
sg76
(lp607
g69
(g70
g71
NtRp608
(dp609
g74
(dp610
g82
I3
ssg83
g604
sg76
(lp611
S''
asbasbasbag69
(g85
g71
NtRp612
(dp613
g74
(dp614
sg83
g488
sg76
(lp615
g69
(g90
g71
NtRp616
(dp617
g74
(dp618
g94
g95
ssg83
g612
sg76
(lp619
g432
asbag69
(g90
g71
NtRp620
(dp621
g74
(dp622
g101
g102
ssg83
g612
sg76
(lp623
S':'
asbag69
(g90
g71
NtRp624
(dp625
g74
(dp626
sg83
g612
sg76
(lp627
g69
(g70
g71
NtRp628
(dp629
g74
(dp630
g82
I3
ssg83
g624
sg76
(lp631
S''
asbasbasbag69
(g85
g71
NtRp632
(dp633
g74
(dp634
sg83
g488
sg76
(lp635
g69
(g90
g71
NtRp636
(dp637
g74
(dp638
g94
g95
ssg83
g632
sg76
(lp639
g453
asbag69
(g90
g71
NtRp640
(dp641
g74
(dp642
g101
g102
ssg83
g632
sg76
(lp643
S':'
asbag69
(g90
g71
NtRp644
(dp645
g74
(dp646
sg83
g632
sg76
(lp647
g69
(g70
g71
NtRp648
(dp649
g74
(dp650
g82
I3
ssg83
g644
sg76
(lp651
S''
asbasbasbasbasbasbasbasbasbasbasbag69
(g85
g71
NtRp652
(dp653
g74
(dp654
sg83
g79
sg76
(lp655
g69
(g90
g71
NtRp656
(dp657
g74
(dp658
g94
g95
ssg83
g652
sg76
(lp659
S'env'
p660
asbag69
(g90
g71
NtRp661
(dp662
g74
(dp663
g101
g102
ssg83
g652
sg76
(lp664
S':'
asbag69
(g90
g71
NtRp665
(dp666
g74
(dp667
sg83
g652
sg76
(lp668
g69
(g70
g71
NtRp669
(dp670
g74
(dp671
g82
I5
ssg83
g665
sg76
(lp672
g69
(g78
g71
NtRp673
(dp674
g74
(dp675
g82
I4
ssg83
Nsg76
(lp676
g69
(g85
g71
NtRp677
(dp678
g74
(dp679
sg83
g673
sg76
(lp680
g69
(g90
g71
NtRp681
(dp682
g74
(dp683
g94
g95
ssg83
g677
sg76
(lp684
S'app_folders'
p685
asbag69
(g90
g71
NtRp686
(dp687
g74
(dp688
g101
g102
ssg83
g677
sg76
(lp689
S':'
asbag69
(g90
g71
NtRp690
(dp691
g74
(dp692
sg83
g677
sg76
(lp693
g69
(g70
g71
NtRp694
(dp695
g74
(dp696
g82
I4
ssg83
g690
sg76
(lp697
S"set(['/home/umang/web2py/applications/admin/', '/home/umang/web2py/applications/assignmen3/', '/home/umang/web2py/applications/welcome/'])"
p698
asbasbasbag69
(g85
g71
NtRp699
(dp700
g74
(dp701
sg83
g673
sg76
(lp702
g69
(g90
g71
NtRp703
(dp704
g74
(dp705
g94
g95
ssg83
g699
sg76
(lp706
S'applications_parent'
p707
asbag69
(g90
g71
NtRp708
(dp709
g74
(dp710
g101
g102
ssg83
g699
sg76
(lp711
S':'
asbag69
(g90
g71
NtRp712
(dp713
g74
(dp714
sg83
g699
sg76
(lp715
g69
(g70
g71
NtRp716
(dp717
g74
(dp718
g82
I4
ssg83
g712
sg76
(lp719
S'/home/umang/web2py'
p720
asbasbasbag69
(g85
g71
NtRp721
(dp722
g74
(dp723
sg83
g673
sg76
(lp724
g69
(g90
g71
NtRp725
(dp726
g74
(dp727
g94
g95
ssg83
g721
sg76
(lp728
S'cmd_args'
p729
asbag69
(g90
g71
NtRp730
(dp731
g74
(dp732
g101
g102
ssg83
g721
sg76
(lp733
S':'
asbag69
(g90
g71
NtRp734
(dp735
g74
(dp736
sg83
g721
sg76
(lp737
g69
(g70
g71
NtRp738
(dp739
g74
(dp740
g82
I4
ssg83
g734
sg76
(lp741
g69
(g78
g71
NtRp742
(dp743
g74
(dp744
g82
I3
ssg83
Nsg76
(lp745
sbasbasbasbag69
(g85
g71
NtRp746
(dp747
g74
(dp748
sg83
g673
sg76
(lp749
g69
(g90
g71
NtRp750
(dp751
g74
(dp752
g94
g95
ssg83
g746
sg76
(lp753
S'cmd_options'
p754
asbag69
(g90
g71
NtRp755
(dp756
g74
(dp757
g101
g102
ssg83
g746
sg76
(lp758
S':'
asbag69
(g90
g71
NtRp759
(dp760
g74
(dp761
sg83
g746
sg76
(lp762
g69
(g70
g71
NtRp763
(dp764
g74
(dp765
g82
I4
ssg83
g759
sg76
(lp766
S"<Values at 0x220c200: {'verbose': False, 'ip': '127.0.0.1', 'with_scheduler': False, 'ips': [], 'shutdown_timeout': 5, 'taskbar': False, 'port': 8000, 'maxthreads': None, 'softcron': False, 'server_name': 'umang-HP-Pavilion-g6-Notebook-PC', 'bpython': False, 'nogui': False, 'pid_filename': 'httpserver.pid', 'extcron': False, 'runcron': False, 'run_system_tests': False, 'test': None, 'folder': '/home/umang/web2py', 'config': '', 'minthreads': None, 'winservice': '', 'shell': None, 'run': '', 'log_filename': 'httpserver.log', 'debuglevel': 30, 'args': [''], 'socket_timeout': 5, 'ssl_ca_certificate': None, 'scheduler': None, 'profiler_filename': None, 'ssl_private_key': '', 'scheduler_groups': None, 'password': '<ask>', 'request_queue_size': 5, 'ssl_certificate': '', 'cronjob': False, 'numthreads': None, 'quiet': False, 'interfaces': None, 'import_models': False, 'timeout': 10, 'plain': False, 'nobanner': False}>"
p767
asbasbasbag69
(g85
g71
NtRp768
(dp769
g74
(dp770
sg83
g673
sg76
(lp771
g69
(g90
g71
NtRp772
(dp773
g74
(dp774
g94
g95
ssg83
g768
sg76
(lp775
S'db_sessions'
p776
asbag69
(g90
g71
NtRp777
(dp778
g74
(dp779
g101
g102
ssg83
g768
sg76
(lp780
S':'
asbag69
(g90
g71
NtRp781
(dp782
g74
(dp783
sg83
g768
sg76
(lp784
g69
(g70
g71
NtRp785
(dp786
g74
(dp787
g82
I4
ssg83
g781
sg76
(lp788
S'set([])'
p789
asbasbasbag69
(g85
g71
NtRp790
(dp791
g74
(dp792
sg83
g673
sg76
(lp793
g69
(g90
g71
NtRp794
(dp795
g74
(dp796
g94
g95
ssg83
g790
sg76
(lp797
S'debugging'
p798
asbag69
(g90
g71
NtRp799
(dp800
g74
(dp801
g101
g102
ssg83
g790
sg76
(lp802
S':'
asbag69
(g90
g71
NtRp803
(dp804
g74
(dp805
sg83
g790
sg76
(lp806
g69
(g70
g71
NtRp807
(dp808
g74
(dp809
g82
I4
ssg83
g803
sg76
(lp810
g112
asbasbasbag69
(g85
g71
NtRp811
(dp812
g74
(dp813
sg83
g673
sg76
(lp814
g69
(g90
g71
NtRp815
(dp816
g74
(dp817
g94
g95
ssg83
g811
sg76
(lp818
S'gluon_parent'
p819
asbag69
(g90
g71
NtRp820
(dp821
g74
(dp822
g101
g102
ssg83
g811
sg76
(lp823
S':'
asbag69
(g90
g71
NtRp824
(dp825
g74
(dp826
sg83
g811
sg76
(lp827
g69
(g70
g71
NtRp828
(dp829
g74
(dp830
g82
I4
ssg83
g824
sg76
(lp831
S'/home/umang/web2py'
p832
asbasbasbag69
(g85
g71
NtRp833
(dp834
g74
(dp835
sg83
g673
sg76
(lp836
g69
(g90
g71
NtRp837
(dp838
g74
(dp839
g94
g95
ssg83
g833
sg76
(lp840
S'http_accept'
p841
asbag69
(g90
g71
NtRp842
(dp843
g74
(dp844
g101
g102
ssg83
g833
sg76
(lp845
S':'
asbag69
(g90
g71
NtRp846
(dp847
g74
(dp848
sg83
g833
sg76
(lp849
g69
(g70
g71
NtRp850
(dp851
g74
(dp852
g82
I4
ssg83
g846
sg76
(lp853
S'text/html,application/xhtml+xml,application/xml;q=0.9,*/*;q=0.8'
p854
asbasbasbag69
(g85
g71
NtRp855
(dp856
g74
(dp857
sg83
g673
sg76
(lp858
g69
(g90
g71
NtRp859
(dp860
g74
(dp861
g94
g95
ssg83
g855
sg76
(lp862
S'http_accept_encoding'
p863
asbag69
(g90
g71
NtRp864
(dp865
g74
(dp866
g101
g102
ssg83
g855
sg76
(lp867
S':'
asbag69
(g90
g71
NtRp868
(dp869
g74
(dp870
sg83
g855
sg76
(lp871
g69
(g70
g71
NtRp872
(dp873
g74
(dp874
g82
I4
ssg83
g868
sg76
(lp875
S'gzip, deflate'
p876
asbasbasbag69
(g85
g71
NtRp877
(dp878
g74
(dp879
sg83
g673
sg76
(lp880
g69
(g90
g71
NtRp881
(dp882
g74
(dp883
g94
g95
ssg83
g877
sg76
(lp884
S'http_accept_language'
p885
asbag69
(g90
g71
NtRp886
(dp887
g74
(dp888
g101
g102
ssg83
g877
sg76
(lp889
S':'
asbag69
(g90
g71
NtRp890
(dp891
g74
(dp892
sg83
g877
sg76
(lp893
g69
(g70
g71
NtRp894
(dp895
g74
(dp896
g82
I4
ssg83
g890
sg76
(lp897
S'en-us,en;q=0.5'
p898
asbasbasbag69
(g85
g71
NtRp899
(dp900
g74
(dp901
sg83
g673
sg76
(lp902
g69
(g90
g71
NtRp903
(dp904
g74
(dp905
g94
g95
ssg83
g899
sg76
(lp906
S'http_connection'
p907
asbag69
(g90
g71
NtRp908
(dp909
g74
(dp910
g101
g102
ssg83
g899
sg76
(lp911
S':'
asbag69
(g90
g71
NtRp912
(dp913
g74
(dp914
sg83
g899
sg76
(lp915
g69
(g70
g71
NtRp916
(dp917
g74
(dp918
g82
I4
ssg83
g912
sg76
(lp919
S'keep-alive'
p920
asbasbasbag69
(g85
g71
NtRp921
(dp922
g74
(dp923
sg83
g673
sg76
(lp924
g69
(g90
g71
NtRp925
(dp926
g74
(dp927
g94
g95
ssg83
g921
sg76
(lp928
S'http_cookie'
p929
asbag69
(g90
g71
NtRp930
(dp931
g74
(dp932
g101
g102
ssg83
g921
sg76
(lp933
S':'
asbag69
(g90
g71
NtRp934
(dp935
g74
(dp936
sg83
g921
sg76
(lp937
g69
(g70
g71
NtRp938
(dp939
g74
(dp940
g82
I4
ssg83
g934
sg76
(lp941
S'session_id_welcome=127.0.0.1-cf088023-15d7-40a4-b8d2-486ab4939071; session_id_admin=127.0.0.1-67a35102-2a86-42d7-8ad0-7533e3b8a514'
p942
asbasbasbag69
(g85
g71
NtRp943
(dp944
g74
(dp945
sg83
g673
sg76
(lp946
g69
(g90
g71
NtRp947
(dp948
g74
(dp949
g94
g95
ssg83
g943
sg76
(lp950
S'http_host'
p951
asbag69
(g90
g71
NtRp952
(dp953
g74
(dp954
g101
g102
ssg83
g943
sg76
(lp955
S':'
asbag69
(g90
g71
NtRp956
(dp957
g74
(dp958
sg83
g943
sg76
(lp959
g69
(g70
g71
NtRp960
(dp961
g74
(dp962
g82
I4
ssg83
g956
sg76
(lp963
S'127.0.0.1:8000'
p964
asbasbasbag69
(g85
g71
NtRp965
(dp966
g74
(dp967
sg83
g673
sg76
(lp968
g69
(g90
g71
NtRp969
(dp970
g74
(dp971
g94
g95
ssg83
g965
sg76
(lp972
S'http_referer'
p973
asbag69
(g90
g71
NtRp974
(dp975
g74
(dp976
g101
g102
ssg83
g965
sg76
(lp977
S':'
asbag69
(g90
g71
NtRp978
(dp979
g74
(dp980
sg83
g965
sg76
(lp981
g69
(g70
g71
NtRp982
(dp983
g74
(dp984
g82
I4
ssg83
g978
sg76
(lp985
S'http://127.0.0.1:8000/admin/default/site'
p986
asbasbasbag69
(g85
g71
NtRp987
(dp988
g74
(dp989
sg83
g673
sg76
(lp990
g69
(g90
g71
NtRp991
(dp992
g74
(dp993
g94
g95
ssg83
g987
sg76
(lp994
S'http_user_agent'
p995
asbag69
(g90
g71
NtRp996
(dp997
g74
(dp998
g101
g102
ssg83
g987
sg76
(lp999
S':'
asbag69
(g90
g71
NtRp1000
(dp1001
g74
(dp1002
sg83
g987
sg76
(lp1003
g69
(g70
g71
NtRp1004
(dp1005
g74
(dp1006
g82
I4
ssg83
g1000
sg76
(lp1007
S'Mozilla/5.0 (X11; Ubuntu; Linux x86_64; rv:11.0) Gecko/20100101 Firefox/11.0'
p1008
asbasbasbag69
(g85
g71
NtRp1009
(dp1010
g74
(dp1011
sg83
g673
sg76
(lp1012
g69
(g90
g71
NtRp1013
(dp1014
g74
(dp1015
g94
g95
ssg83
g1009
sg76
(lp1016
S'is_jython'
p1017
asbag69
(g90
g71
NtRp1018
(dp1019
g74
(dp1020
g101
g102
ssg83
g1009
sg76
(lp1021
S':'
asbag69
(g90
g71
NtRp1022
(dp1023
g74
(dp1024
sg83
g1009
sg76
(lp1025
g69
(g70
g71
NtRp1026
(dp1027
g74
(dp1028
g82
I4
ssg83
g1022
sg76
(lp1029
g112
asbasbasbag69
(g85
g71
NtRp1030
(dp1031
g74
(dp1032
sg83
g673
sg76
(lp1033
g69
(g90
g71
NtRp1034
(dp1035
g74
(dp1036
g94
g95
ssg83
g1030
sg76
(lp1037
S'is_pypy'
p1038
asbag69
(g90
g71
NtRp1039
(dp1040
g74
(dp1041
g101
g102
ssg83
g1030
sg76
(lp1042
S':'
asbag69
(g90
g71
NtRp1043
(dp1044
g74
(dp1045
sg83
g1030
sg76
(lp1046
g69
(g70
g71
NtRp1047
(dp1048
g74
(dp1049
g82
I4
ssg83
g1043
sg76
(lp1050
g112
asbasbasbag69
(g85
g71
NtRp1051
(dp1052
g74
(dp1053
sg83
g673
sg76
(lp1054
g69
(g90
g71
NtRp1055
(dp1056
g74
(dp1057
g94
g95
ssg83
g1051
sg76
(lp1058
S'local_hosts'
p1059
asbag69
(g90
g71
NtRp1060
(dp1061
g74
(dp1062
g101
g102
ssg83
g1051
sg76
(lp1063
S':'
asbag69
(g90
g71
NtRp1064
(dp1065
g74
(dp1066
sg83
g1051
sg76
(lp1067
g69
(g70
g71
NtRp1068
(dp1069
g74
(dp1070
g82
I4
ssg83
g1064
sg76
(lp1071
g69
(g78
g71
NtRp1072
(dp1073
g74
(dp1074
g82
I3
ssg83
Nsg76
(lp1075
g69
(g85
g71
NtRp1076
(dp1077
g74
(dp1078
sg83
g1072
sg76
(lp1079
g69
(g90
g71
NtRp1080
(dp1081
g74
(dp1082
sg83
g1076
sg76
(lp1083
g69
(g70
g71
NtRp1084
(dp1085
g74
(dp1086
g82
I3
ssg83
g1080
sg76
(lp1087
S'::1'
p1088
asbasbasbag69
(g85
g71
NtRp1089
(dp1090
g74
(dp1091
sg83
g1072
sg76
(lp1092
g69
(g90
g71
NtRp1093
(dp1094
g74
(dp1095
sg83
g1089
sg76
(lp1096
g69
(g70
g71
NtRp1097
(dp1098
g74
(dp1099
g82
I3
ssg83
g1093
sg76
(lp1100
S'127.0.1.1'
p1101
asbasbasbag69
(g85
g71
NtRp1102
(dp1103
g74
(dp1104
sg83
g1072
sg76
(lp1105
g69
(g90
g71
NtRp1106
(dp1107
g74
(dp1108
sg83
g1102
sg76
(lp1109
g69
(g70
g71
NtRp1110
(dp1111
g74
(dp1112
g82
I3
ssg83
g1106
sg76
(lp1113
S'::ffff:127.0.0.1'
p1114
asbasbasbag69
(g85
g71
NtRp1115
(dp1116
g74
(dp1117
sg83
g1072
sg76
(lp1118
g69
(g90
g71
NtRp1119
(dp1120
g74
(dp1121
sg83
g1115
sg76
(lp1122
g69
(g70
g71
NtRp1123
(dp1124
g74
(dp1125
g82
I3
ssg83
g1119
sg76
(lp1126
S'127.0.0.1'
p1127
asbasbasbag69
(g85
g71
NtRp1128
(dp1129
g74
(dp1130
sg83
g1072
sg76
(lp1131
g69
(g90
g71
NtRp1132
(dp1133
g74
(dp1134
sg83
g1128
sg76
(lp1135
g69
(g70
g71
NtRp1136
(dp1137
g74
(dp1138
g82
I3
ssg83
g1132
sg76
(lp1139
S'umang-HP-Pavilion-g6-Notebook-PC'
p1140
asbasbasbasbasbasbasbag69
(g85
g71
NtRp1141
(dp1142
g74
(dp1143
sg83
g673
sg76
(lp1144
g69
(g90
g71
NtRp1145
(dp1146
g74
(dp1147
g94
g95
ssg83
g1141
sg76
(lp1148
S'path_info'
p1149
asbag69
(g90
g71
NtRp1150
(dp1151
g74
(dp1152
g101
g102
ssg83
g1141
sg76
(lp1153
S':'
asbag69
(g90
g71
NtRp1154
(dp1155
g74
(dp1156
sg83
g1141
sg76
(lp1157
g69
(g70
g71
NtRp1158
(dp1159
g74
(dp1160
g82
I4
ssg83
g1154
sg76
(lp1161
S'/assignmen3/default/index'
p1162
asbasbasbag69
(g85
g71
NtRp1163
(dp1164
g74
(dp1165
sg83
g673
sg76
(lp1166
g69
(g90
g71
NtRp1167
(dp1168
g74
(dp1169
g94
g95
ssg83
g1163
sg76
(lp1170
S'query_string'
p1171
asbag69
(g90
g71
NtRp1172
(dp1173
g74
(dp1174
g101
g102
ssg83
g1163
sg76
(lp1175
S':'
asbag69
(g90
g71
NtRp1176
(dp1177
g74
(dp1178
sg83
g1163
sg76
(lp1179
g69
(g70
g71
NtRp1180
(dp1181
g74
(dp1182
g82
I4
ssg83
g1176
sg76
(lp1183
S''
asbasbasbag69
(g85
g71
NtRp1184
(dp1185
g74
(dp1186
sg83
g673
sg76
(lp1187
g69
(g90
g71
NtRp1188
(dp1189
g74
(dp1190
g94
g95
ssg83
g1184
sg76
(lp1191
S'remote_addr'
p1192
asbag69
(g90
g71
NtRp1193
(dp1194
g74
(dp1195
g101
g102
ssg83
g1184
sg76
(lp1196
S':'
asbag69
(g90
g71
NtRp1197
(dp1198
g74
(dp1199
sg83
g1184
sg76
(lp1200
g69
(g70
g71
NtRp1201
(dp1202
g74
(dp1203
g82
I4
ssg83
g1197
sg76
(lp1204
g224
asbasbasbag69
(g85
g71
NtRp1205
(dp1206
g74
(dp1207
sg83
g673
sg76
(lp1208
g69
(g90
g71
NtRp1209
(dp1210
g74
(dp1211
g94
g95
ssg83
g1205
sg76
(lp1212
S'remote_port'
p1213
asbag69
(g90
g71
NtRp1214
(dp1215
g74
(dp1216
g101
g102
ssg83
g1205
sg76
(lp1217
S':'
asbag69
(g90
g71
NtRp1218
(dp1219
g74
(dp1220
sg83
g1205
sg76
(lp1221
g69
(g70
g71
NtRp1222
(dp1223
g74
(dp1224
g82
I4
ssg83
g1218
sg76
(lp1225
S'50392'
p1226
asbasbasbag69
(g85
g71
NtRp1227
(dp1228
g74
(dp1229
sg83
g673
sg76
(lp1230
g69
(g90
g71
NtRp1231
(dp1232
g74
(dp1233
g94
g95
ssg83
g1227
sg76
(lp1234
S'request_method'
p1235
asbag69
(g90
g71
NtRp1236
(dp1237
g74
(dp1238
g101
g102
ssg83
g1227
sg76
(lp1239
S':'
asbag69
(g90
g71
NtRp1240
(dp1241
g74
(dp1242
sg83
g1227
sg76
(lp1243
g69
(g70
g71
NtRp1244
(dp1245
g74
(dp1246
g82
I4
ssg83
g1240
sg76
(lp1247
S'GET'
p1248
asbasbasbag69
(g85
g71
NtRp1249
(dp1250
g74
(dp1251
sg83
g673
sg76
(lp1252
g69
(g90
g71
NtRp1253
(dp1254
g74
(dp1255
g94
g95
ssg83
g1249
sg76
(lp1256
S'request_uri'
p1257
asbag69
(g90
g71
NtRp1258
(dp1259
g74
(dp1260
g101
g102
ssg83
g1249
sg76
(lp1261
S':'
asbag69
(g90
g71
NtRp1262
(dp1263
g74
(dp1264
sg83
g1249
sg76
(lp1265
g69
(g70
g71
NtRp1266
(dp1267
g74
(dp1268
g82
I4
ssg83
g1262
sg76
(lp1269
g1162
asbasbasbag69
(g85
g71
NtRp1270
(dp1271
g74
(dp1272
sg83
g673
sg76
(lp1273
g69
(g90
g71
NtRp1274
(dp1275
g74
(dp1276
g94
g95
ssg83
g1270
sg76
(lp1277
S'script_name'
p1278
asbag69
(g90
g71
NtRp1279
(dp1280
g74
(dp1281
g101
g102
ssg83
g1270
sg76
(lp1282
S':'
asbag69
(g90
g71
NtRp1283
(dp1284
g74
(dp1285
sg83
g1270
sg76
(lp1286
g69
(g70
g71
NtRp1287
(dp1288
g74
(dp1289
g82
I4
ssg83
g1283
sg76
(lp1290
S''
asbasbasbag69
(g85
g71
NtRp1291
(dp1292
g74
(dp1293
sg83
g673
sg76
(lp1294
g69
(g90
g71
NtRp1295
(dp1296
g74
(dp1297
g94
g95
ssg83
g1291
sg76
(lp1298
S'server_name'
p1299
asbag69
(g90
g71
NtRp1300
(dp1301
g74
(dp1302
g101
g102
ssg83
g1291
sg76
(lp1303
S':'
asbag69
(g90
g71
NtRp1304
(dp1305
g74
(dp1306
sg83
g1291
sg76
(lp1307
g69
(g70
g71
NtRp1308
(dp1309
g74
(dp1310
g82
I4
ssg83
g1304
sg76
(lp1311
S'umang-HP-Pavilion-g6-Notebook-PC'
p1312
asbasbasbag69
(g85
g71
NtRp1313
(dp1314
g74
(dp1315
sg83
g673
sg76
(lp1316
g69
(g90
g71
NtRp1317
(dp1318
g74
(dp1319
g94
g95
ssg83
g1313
sg76
(lp1320
S'server_port'
p1321
asbag69
(g90
g71
NtRp1322
(dp1323
g74
(dp1324
g101
g102
ssg83
g1313
sg76
(lp1325
S':'
asbag69
(g90
g71
NtRp1326
(dp1327
g74
(dp1328
sg83
g1313
sg76
(lp1329
g69
(g70
g71
NtRp1330
(dp1331
g74
(dp1332
g82
I4
ssg83
g1326
sg76
(lp1333
S'8000'
p1334
asbasbasbag69
(g85
g71
NtRp1335
(dp1336
g74
(dp1337
sg83
g673
sg76
(lp1338
g69
(g90
g71
NtRp1339
(dp1340
g74
(dp1341
g94
g95
ssg83
g1335
sg76
(lp1342
S'server_protocol'
p1343
asbag69
(g90
g71
NtRp1344
(dp1345
g74
(dp1346
g101
g102
ssg83
g1335
sg76
(lp1347
S':'
asbag69
(g90
g71
NtRp1348
(dp1349
g74
(dp1350
sg83
g1335
sg76
(lp1351
g69
(g70
g71
NtRp1352
(dp1353
g74
(dp1354
g82
I4
ssg83
g1348
sg76
(lp1355
S'HTTP/1.1'
p1356
asbasbasbag69
(g85
g71
NtRp1357
(dp1358
g74
(dp1359
sg83
g673
sg76
(lp1360
g69
(g90
g71
NtRp1361
(dp1362
g74
(dp1363
g94
g95
ssg83
g1357
sg76
(lp1364
S'server_software'
p1365
asbag69
(g90
g71
NtRp1366
(dp1367
g74
(dp1368
g101
g102
ssg83
g1357
sg76
(lp1369
S':'
asbag69
(g90
g71
NtRp1370
(dp1371
g74
(dp1372
sg83
g1357
sg76
(lp1373
g69
(g70
g71
NtRp1374
(dp1375
g74
(dp1376
g82
I4
ssg83
g1370
sg76
(lp1377
S'Rocket 1.2.6'
p1378
asbasbasbag69
(g85
g71
NtRp1379
(dp1380
g74
(dp1381
sg83
g673
sg76
(lp1382
g69
(g90
g71
NtRp1383
(dp1384
g74
(dp1385
g94
g95
ssg83
g1379
sg76
(lp1386
S'web2py_path'
p1387
asbag69
(g90
g71
NtRp1388
(dp1389
g74
(dp1390
g101
g102
ssg83
g1379
sg76
(lp1391
S':'
asbag69
(g90
g71
NtRp1392
(dp1393
g74
(dp1394
sg83
g1379
sg76
(lp1395
g69
(g70
g71
NtRp1396
(dp1397
g74
(dp1398
g82
I4
ssg83
g1392
sg76
(lp1399
g720
asbasbasbag69
(g85
g71
NtRp1400
(dp1401
g74
(dp1402
sg83
g673
sg76
(lp1403
g69
(g90
g71
NtRp1404
(dp1405
g74
(dp1406
g94
g95
ssg83
g1400
sg76
(lp1407
S'web2py_version'
p1408
asbag69
(g90
g71
NtRp1409
(dp1410
g74
(dp1411
g101
g102
ssg83
g1400
sg76
(lp1412
S':'
asbag69
(g90
g71
NtRp1413
(dp1414
g74
(dp1415
sg83
g1400
sg76
(lp1416
g69
(g70
g71
NtRp1417
(dp1418
g74
(dp1419
g82
I4
ssg83
g1413
sg76
(lp1420
g69
(g78
g71
NtRp1421
(dp1422
g74
(dp1423
g82
I3
ssg83
Nsg76
(lp1424
g69
(g85
g71
NtRp1425
(dp1426
g74
(dp1427
sg83
g1421
sg76
(lp1428
g69
(g90
g71
NtRp1429
(dp1430
g74
(dp1431
sg83
g1425
sg76
(lp1432
g69
(g70
g71
NtRp1433
(dp1434
g74
(dp1435
g82
I3
ssg83
g1429
sg76
(lp1436
S'2'
asbasbasbag69
(g85
g71
NtRp1437
(dp1438
g74
(dp1439
sg83
g1421
sg76
(lp1440
g69
(g90
g71
NtRp1441
(dp1442
g74
(dp1443
sg83
g1437
sg76
(lp1444
g69
(g70
g71
NtRp1445
(dp1446
g74
(dp1447
g82
I3
ssg83
g1441
sg76
(lp1448
S'3'
asbasbasbag69
(g85
g71
NtRp1449
(dp1450
g74
(dp1451
sg83
g1421
sg76
(lp1452
g69
(g90
g71
NtRp1453
(dp1454
g74
(dp1455
sg83
g1449
sg76
(lp1456
g69
(g70
g71
NtRp1457
(dp1458
g74
(dp1459
g82
I3
ssg83
g1453
sg76
(lp1460
S'2'
asbasbasbag69
(g85
g71
NtRp1461
(dp1462
g74
(dp1463
sg83
g1421
sg76
(lp1464
g69
(g90
g71
NtRp1465
(dp1466
g74
(dp1467
sg83
g1461
sg76
(lp1468
g69
(g70
g71
NtRp1469
(dp1470
g74
(dp1471
g82
I3
ssg83
g1465
sg76
(lp1472
S'datetime.datetime(2012, 12, 17, 15, 3, 30)'
p1473
asbasbasbag69
(g85
g71
NtRp1474
(dp1475
g74
(dp1476
sg83
g1421
sg76
(lp1477
g69
(g90
g71
NtRp1478
(dp1479
g74
(dp1480
sg83
g1474
sg76
(lp1481
g69
(g70
g71
NtRp1482
(dp1483
g74
(dp1484
g82
I3
ssg83
g1478
sg76
(lp1485
S'stable'
p1486
asbasbasbasbasbasbasbag69
(g85
g71
NtRp1487
(dp1488
g74
(dp1489
sg83
g673
sg76
(lp1490
g69
(g90
g71
NtRp1491
(dp1492
g74
(dp1493
g94
g95
ssg83
g1487
sg76
(lp1494
S'wsgi_errors'
p1495
asbag69
(g90
g71
NtRp1496
(dp1497
g74
(dp1498
g101
g102
ssg83
g1487
sg76
(lp1499
S':'
asbag69
(g90
g71
NtRp1500
(dp1501
g74
(dp1502
sg83
g1487
sg76
(lp1503
g69
(g70
g71
NtRp1504
(dp1505
g74
(dp1506
g82
I4
ssg83
g1500
sg76
(lp1507
S"<open file '<stderr>', mode 'w' at 0x7fb0aa6a3270>"
p1508
asbasbasbag69
(g85
g71
NtRp1509
(dp1510
g74
(dp1511
sg83
g673
sg76
(lp1512
g69
(g90
g71
NtRp1513
(dp1514
g74
(dp1515
g94
g95
ssg83
g1509
sg76
(lp1516
S'wsgi_file_wrapper'
p1517
asbag69
(g90
g71
NtRp1518
(dp1519
g74
(dp1520
g101
g102
ssg83
g1509
sg76
(lp1521
S':'
asbag69
(g90
g71
NtRp1522
(dp1523
g74
(dp1524
sg83
g1509
sg76
(lp1525
g69
(g70
g71
NtRp1526
(dp1527
g74
(dp1528
g82
I4
ssg83
g1522
sg76
(lp1529
S'<class wsgiref.util.FileWrapper at 0x2175b48>'
p1530
asbasbasbag69
(g85
g71
NtRp1531
(dp1532
g74
(dp1533
sg83
g673
sg76
(lp1534
g69
(g90
g71
NtRp1535
(dp1536
g74
(dp1537
g94
g95
ssg83
g1531
sg76
(lp1538
S'wsgi_input'
p1539
asbag69
(g90
g71
NtRp1540
(dp1541
g74
(dp1542
g101
g102
ssg83
g1531
sg76
(lp1543
S':'
asbag69
(g90
g71
NtRp1544
(dp1545
g74
(dp1546
sg83
g1531
sg76
(lp1547
g69
(g70
g71
NtRp1548
(dp1549
g74
(dp1550
g82
I4
ssg83
g1544
sg76
(lp1551
S'<socket._fileobject object at 0x7fb08c19bb50>'
p1552
asbasbasbag69
(g85
g71
NtRp1553
(dp1554
g74
(dp1555
sg83
g673
sg76
(lp1556
g69
(g90
g71
NtRp1557
(dp1558
g74
(dp1559
g94
g95
ssg83
g1553
sg76
(lp1560
S'wsgi_multiprocess'
p1561
asbag69
(g90
g71
NtRp1562
(dp1563
g74
(dp1564
g101
g102
ssg83
g1553
sg76
(lp1565
S':'
asbag69
(g90
g71
NtRp1566
(dp1567
g74
(dp1568
sg83
g1553
sg76
(lp1569
g69
(g70
g71
NtRp1570
(dp1571
g74
(dp1572
g82
I4
ssg83
g1566
sg76
(lp1573
g112
asbasbasbag69
(g85
g71
NtRp1574
(dp1575
g74
(dp1576
sg83
g673
sg76
(lp1577
g69
(g90
g71
NtRp1578
(dp1579
g74
(dp1580
g94
g95
ssg83
g1574
sg76
(lp1581
S'wsgi_multithread'
p1582
asbag69
(g90
g71
NtRp1583
(dp1584
g74
(dp1585
g101
g102
ssg83
g1574
sg76
(lp1586
S':'
asbag69
(g90
g71
NtRp1587
(dp1588
g74
(dp1589
sg83
g1574
sg76
(lp1590
g69
(g70
g71
NtRp1591
(dp1592
g74
(dp1593
g82
I4
ssg83
g1587
sg76
(lp1594
S'True'
p1595
asbasbasbag69
(g85
g71
NtRp1596
(dp1597
g74
(dp1598
sg83
g673
sg76
(lp1599
g69
(g90
g71
NtRp1600
(dp1601
g74
(dp1602
g94
g95
ssg83
g1596
sg76
(lp1603
S'wsgi_run_once'
p1604
asbag69
(g90
g71
NtRp1605
(dp1606
g74
(dp1607
g101
g102
ssg83
g1596
sg76
(lp1608
S':'
asbag69
(g90
g71
NtRp1609
(dp1610
g74
(dp1611
sg83
g1596
sg76
(lp1612
g69
(g70
g71
NtRp1613
(dp1614
g74
(dp1615
g82
I4
ssg83
g1609
sg76
(lp1616
g112
asbasbasbag69
(g85
g71
NtRp1617
(dp1618
g74
(dp1619
sg83
g673
sg76
(lp1620
g69
(g90
g71
NtRp1621
(dp1622
g74
(dp1623
g94
g95
ssg83
g1617
sg76
(lp1624
S'wsgi_url_scheme'
p1625
asbag69
(g90
g71
NtRp1626
(dp1627
g74
(dp1628
g101
g102
ssg83
g1617
sg76
(lp1629
S':'
asbag69
(g90
g71
NtRp1630
(dp1631
g74
(dp1632
sg83
g1617
sg76
(lp1633
g69
(g70
g71
NtRp1634
(dp1635
g74
(dp1636
g82
I4
ssg83
g1630
sg76
(lp1637
S'http'
p1638
asbasbasbag69
(g85
g71
NtRp1639
(dp1640
g74
(dp1641
sg83
g673
sg76
(lp1642
g69
(g90
g71
NtRp1643
(dp1644
g74
(dp1645
g94
g95
ssg83
g1639
sg76
(lp1646
S'wsgi_version'
p1647
asbag69
(g90
g71
NtRp1648
(dp1649
g74
(dp1650
g101
g102
ssg83
g1639
sg76
(lp1651
S':'
asbag69
(g90
g71
NtRp1652
(dp1653
g74
(dp1654
sg83
g1639
sg76
(lp1655
g69
(g70
g71
NtRp1656
(dp1657
g74
(dp1658
g82
I4
ssg83
g1652
sg76
(lp1659
g69
(g78
g71
NtRp1660
(dp1661
g74
(dp1662
g82
I3
ssg83
Nsg76
(lp1663
g69
(g85
g71
NtRp1664
(dp1665
g74
(dp1666
sg83
g1660
sg76
(lp1667
g69
(g90
g71
NtRp1668
(dp1669
g74
(dp1670
sg83
g1664
sg76
(lp1671
g69
(g70
g71
NtRp1672
(dp1673
g74
(dp1674
g82
I3
ssg83
g1668
sg76
(lp1675
S'1'
asbasbasbag69
(g85
g71
NtRp1676
(dp1677
g74
(dp1678
sg83
g1660
sg76
(lp1679
g69
(g90
g71
NtRp1680
(dp1681
g74
(dp1682
sg83
g1676
sg76
(lp1683
g69
(g70
g71
NtRp1684
(dp1685
g74
(dp1686
g82
I3
ssg83
g1680
sg76
(lp1687
S'0'
asbasbasbasbasbasbasbasbasbasbasbag69
(g85
g71
NtRp1688
(dp1689
g74
(dp1690
sg83
g79
sg76
(lp1691
g69
(g90
g71
NtRp1692
(dp1693
g74
(dp1694
g94
g95
ssg83
g1688
sg76
(lp1695
S'extension'
p1696
asbag69
(g90
g71
NtRp1697
(dp1698
g74
(dp1699
g101
g102
ssg83
g1688
sg76
(lp1700
S':'
asbag69
(g90
g71
NtRp1701
(dp1702
g74
(dp1703
sg83
g1688
sg76
(lp1704
g69
(g70
g71
NtRp1705
(dp1706
g74
(dp1707
g82
I5
ssg83
g1701
sg76
(lp1708
S'html'
p1709
asbasbasbag69
(g85
g71
NtRp1710
(dp1711
g74
(dp1712
sg83
g79
sg76
(lp1713
g69
(g90
g71
NtRp1714
(dp1715
g74
(dp1716
g94
g95
ssg83
g1710
sg76
(lp1717
S'folder'
p1718
asbag69
(g90
g71
NtRp1719
(dp1720
g74
(dp1721
g101
g102
ssg83
g1710
sg76
(lp1722
S':'
asbag69
(g90
g71
NtRp1723
(dp1724
g74
(dp1725
sg83
g1710
sg76
(lp1726
g69
(g70
g71
NtRp1727
(dp1728
g74
(dp1729
g82
I5
ssg83
g1723
sg76
(lp1730
S'/home/umang/web2py/applications/assignmen3/'
p1731
asbasbasbag69
(g85
g71
NtRp1732
(dp1733
g74
(dp1734
sg83
g79
sg76
(lp1735
g69
(g90
g71
NtRp1736
(dp1737
g74
(dp1738
g94
g95
ssg83
g1732
sg76
(lp1739
S'function'
p1740
asbag69
(g90
g71
NtRp1741
(dp1742
g74
(dp1743
g101
g102
ssg83
g1732
sg76
(lp1744
S':'
asbag69
(g90
g71
NtRp1745
(dp1746
g74
(dp1747
sg83
g1732
sg76
(lp1748
g69
(g70
g71
NtRp1749
(dp1750
g74
(dp1751
g82
I5
ssg83
g1745
sg76
(lp1752
S'index'
p1753
asbasbasbag69
(g85
g71
NtRp1754
(dp1755
g74
(dp1756
sg83
g79
sg76
(lp1757
g69
(g90
g71
NtRp1758
(dp1759
g74
(dp1760
g94
g95
ssg83
g1754
sg76
(lp1761
S'get_vars'
p1762
asbag69
(g90
g71
NtRp1763
(dp1764
g74
(dp1765
g101
g102
ssg83
g1754
sg76
(lp1766
S':'
asbag69
(g90
g71
NtRp1767
(dp1768
g74
(dp1769
sg83
g1754
sg76
(lp1770
g69
(g70
g71
NtRp1771
(dp1772
g74
(dp1773
g82
I5
ssg83
g1767
sg76
(lp1774
g69
(g78
g71
NtRp1775
(dp1776
g74
(dp1777
g82
I4
ssg83
Nsg76
(lp1778
sbasbasbasbag69
(g85
g71
NtRp1779
(dp1780
g74
(dp1781
sg83
g79
sg76
(lp1782
g69
(g90
g71
NtRp1783
(dp1784
g74
(dp1785
g94
g95
ssg83
g1779
sg76
(lp1786
S'global_settings'
p1787
asbag69
(g90
g71
NtRp1788
(dp1789
g74
(dp1790
g101
g102
ssg83
g1779
sg76
(lp1791
S':'
asbag69
(g90
g71
NtRp1792
(dp1793
g74
(dp1794
sg83
g1779
sg76
(lp1795
g69
(g70
g71
NtRp1796
(dp1797
g74
(dp1798
g82
I5
ssg83
g1792
sg76
(lp1799
g69
(g78
g71
NtRp1800
(dp1801
g74
(dp1802
g82
I4
ssg83
Nsg76
(lp1803
g69
(g85
g71
NtRp1804
(dp1805
g74
(dp1806
sg83
g1800
sg76
(lp1807
g69
(g90
g71
NtRp1808
(dp1809
g74
(dp1810
g94
g95
ssg83
g1804
sg76
(lp1811
g685
asbag69
(g90
g71
NtRp1812
(dp1813
g74
(dp1814
g101
g102
ssg83
g1804
sg76
(lp1815
S':'
asbag69
(g90
g71
NtRp1816
(dp1817
g74
(dp1818
sg83
g1804
sg76
(lp1819
g69
(g70
g71
NtRp1820
(dp1821
g74
(dp1822
g82
I4
ssg83
g1816
sg76
(lp1823
S"set(['/home/umang/web2py/applications/admin/', '/home/umang/web2py/applications/assignmen3/', '/home/umang/web2py/applications/welcome/'])"
p1824
asbasbasbag69
(g85
g71
NtRp1825
(dp1826
g74
(dp1827
sg83
g1800
sg76
(lp1828
g69
(g90
g71
NtRp1829
(dp1830
g74
(dp1831
g94
g95
ssg83
g1825
sg76
(lp1832
g707
asbag69
(g90
g71
NtRp1833
(dp1834
g74
(dp1835
g101
g102
ssg83
g1825
sg76
(lp1836
S':'
asbag69
(g90
g71
NtRp1837
(dp1838
g74
(dp1839
sg83
g1825
sg76
(lp1840
g69
(g70
g71
NtRp1841
(dp1842
g74
(dp1843
g82
I4
ssg83
g1837
sg76
(lp1844
g720
asbasbasbag69
(g85
g71
NtRp1845
(dp1846
g74
(dp1847
sg83
g1800
sg76
(lp1848
g69
(g90
g71
NtRp1849
(dp1850
g74
(dp1851
g94
g95
ssg83
g1845
sg76
(lp1852
g729
asbag69
(g90
g71
NtRp1853
(dp1854
g74
(dp1855
g101
g102
ssg83
g1845
sg76
(lp1856
S':'
asbag69
(g90
g71
NtRp1857
(dp1858
g74
(dp1859
sg83
g1845
sg76
(lp1860
g69
(g70
g71
NtRp1861
(dp1862
g74
(dp1863
g82
I4
ssg83
g1857
sg76
(lp1864
g69
(g78
g71
NtRp1865
(dp1866
g74
(dp1867
g82
I3
ssg83
Nsg76
(lp1868
sbasbasbasbag69
(g85
g71
NtRp1869
(dp1870
g74
(dp1871
sg83
g1800
sg76
(lp1872
g69
(g90
g71
NtRp1873
(dp1874
g74
(dp1875
g94
g95
ssg83
g1869
sg76
(lp1876
g754
asbag69
(g90
g71
NtRp1877
(dp1878
g74
(dp1879
g101
g102
ssg83
g1869
sg76
(lp1880
S':'
asbag69
(g90
g71
NtRp1881
(dp1882
g74
(dp1883
sg83
g1869
sg76
(lp1884
g69
(g70
g71
NtRp1885
(dp1886
g74
(dp1887
g82
I4
ssg83
g1881
sg76
(lp1888
S"<Values at 0x220c200: {'verbose': False, 'ip': '127.0.0.1', 'with_scheduler': False, 'ips': [], 'shutdown_timeout': 5, 'taskbar': False, 'port': 8000, 'maxthreads': None, 'softcron': False, 'server_name': 'umang-HP-Pavilion-g6-Notebook-PC', 'bpython': False, 'nogui': False, 'pid_filename': 'httpserver.pid', 'extcron': False, 'runcron': False, 'run_system_tests': False, 'test': None, 'folder': '/home/umang/web2py', 'config': '', 'minthreads': None, 'winservice': '', 'shell': None, 'run': '', 'log_filename': 'httpserver.log', 'debuglevel': 30, 'args': [''], 'socket_timeout': 5, 'ssl_ca_certificate': None, 'scheduler': None, 'profiler_filename': None, 'ssl_private_key': '', 'scheduler_groups': None, 'password': '<ask>', 'request_queue_size': 5, 'ssl_certificate': '', 'cronjob': False, 'numthreads': None, 'quiet': False, 'interfaces': None, 'import_models': False, 'timeout': 10, 'plain': False, 'nobanner': False}>"
p1889
asbasbasbag69
(g85
g71
NtRp1890
(dp1891
g74
(dp1892
sg83
g1800
sg76
(lp1893
g69
(g90
g71
NtRp1894
(dp1895
g74
(dp1896
g94
g95
ssg83
g1890
sg76
(lp1897
g776
asbag69
(g90
g71
NtRp1898
(dp1899
g74
(dp1900
g101
g102
ssg83
g1890
sg76
(lp1901
S':'
asbag69
(g90
g71
NtRp1902
(dp1903
g74
(dp1904
sg83
g1890
sg76
(lp1905
g69
(g70
g71
NtRp1906
(dp1907
g74
(dp1908
g82
I4
ssg83
g1902
sg76
(lp1909
S'set([])'
p1910
asbasbasbag69
(g85
g71
NtRp1911
(dp1912
g74
(dp1913
sg83
g1800
sg76
(lp1914
g69
(g90
g71
NtRp1915
(dp1916
g74
(dp1917
g94
g95
ssg83
g1911
sg76
(lp1918
g798
asbag69
(g90
g71
NtRp1919
(dp1920
g74
(dp1921
g101
g102
ssg83
g1911
sg76
(lp1922
S':'
asbag69
(g90
g71
NtRp1923
(dp1924
g74
(dp1925
sg83
g1911
sg76
(lp1926
g69
(g70
g71
NtRp1927
(dp1928
g74
(dp1929
g82
I4
ssg83
g1923
sg76
(lp1930
g112
asbasbasbag69
(g85
g71
NtRp1931
(dp1932
g74
(dp1933
sg83
g1800
sg76
(lp1934
g69
(g90
g71
NtRp1935
(dp1936
g74
(dp1937
g94
g95
ssg83
g1931
sg76
(lp1938
g819
asbag69
(g90
g71
NtRp1939
(dp1940
g74
(dp1941
g101
g102
ssg83
g1931
sg76
(lp1942
S':'
asbag69
(g90
g71
NtRp1943
(dp1944
g74
(dp1945
sg83
g1931
sg76
(lp1946
g69
(g70
g71
NtRp1947
(dp1948
g74
(dp1949
g82
I4
ssg83
g1943
sg76
(lp1950
g832
asbasbasbag69
(g85
g71
NtRp1951
(dp1952
g74
(dp1953
sg83
g1800
sg76
(lp1954
g69
(g90
g71
NtRp1955
(dp1956
g74
(dp1957
g94
g95
ssg83
g1951
sg76
(lp1958
g1017
asbag69
(g90
g71
NtRp1959
(dp1960
g74
(dp1961
g101
g102
ssg83
g1951
sg76
(lp1962
S':'
asbag69
(g90
g71
NtRp1963
(dp1964
g74
(dp1965
sg83
g1951
sg76
(lp1966
g69
(g70
g71
NtRp1967
(dp1968
g74
(dp1969
g82
I4
ssg83
g1963
sg76
(lp1970
g112
asbasbasbag69
(g85
g71
NtRp1971
(dp1972
g74
(dp1973
sg83
g1800
sg76
(lp1974
g69
(g90
g71
NtRp1975
(dp1976
g74
(dp1977
g94
g95
ssg83
g1971
sg76
(lp1978
g1038
asbag69
(g90
g71
NtRp1979
(dp1980
g74
(dp1981
g101
g102
ssg83
g1971
sg76
(lp1982
S':'
asbag69
(g90
g71
NtRp1983
(dp1984
g74
(dp1985
sg83
g1971
sg76
(lp1986
g69
(g70
g71
NtRp1987
(dp1988
g74
(dp1989
g82
I4
ssg83
g1983
sg76
(lp1990
g112
asbasbasbag69
(g85
g71
NtRp1991
(dp1992
g74
(dp1993
sg83
g1800
sg76
(lp1994
g69
(g90
g71
NtRp1995
(dp1996
g74
(dp1997
g94
g95
ssg83
g1991
sg76
(lp1998
g1059
asbag69
(g90
g71
NtRp1999
(dp2000
g74
(dp2001
g101
g102
ssg83
g1991
sg76
(lp2002
S':'
asbag69
(g90
g71
NtRp2003
(dp2004
g74
(dp2005
sg83
g1991
sg76
(lp2006
g69
(g70
g71
NtRp2007
(dp2008
g74
(dp2009
g82
I4
ssg83
g2003
sg76
(lp2010
g69
(g78
g71
NtRp2011
(dp2012
g74
(dp2013
g82
I3
ssg83
Nsg76
(lp2014
g69
(g85
g71
NtRp2015
(dp2016
g74
(dp2017
sg83
g2011
sg76
(lp2018
g69
(g90
g71
NtRp2019
(dp2020
g74
(dp2021
sg83
g2015
sg76
(lp2022
g69
(g70
g71
NtRp2023
(dp2024
g74
(dp2025
g82
I3
ssg83
g2019
sg76
(lp2026
g1088
asbasbasbag69
(g85
g71
NtRp2027
(dp2028
g74
(dp2029
sg83
g2011
sg76
(lp2030
g69
(g90
g71
NtRp2031
(dp2032
g74
(dp2033
sg83
g2027
sg76
(lp2034
g69
(g70
g71
NtRp2035
(dp2036
g74
(dp2037
g82
I3
ssg83
g2031
sg76
(lp2038
g1101
asbasbasbag69
(g85
g71
NtRp2039
(dp2040
g74
(dp2041
sg83
g2011
sg76
(lp2042
g69
(g90
g71
NtRp2043
(dp2044
g74
(dp2045
sg83
g2039
sg76
(lp2046
g69
(g70
g71
NtRp2047
(dp2048
g74
(dp2049
g82
I3
ssg83
g2043
sg76
(lp2050
g1114
asbasbasbag69
(g85
g71
NtRp2051
(dp2052
g74
(dp2053
sg83
g2011
sg76
(lp2054
g69
(g90
g71
NtRp2055
(dp2056
g74
(dp2057
sg83
g2051
sg76
(lp2058
g69
(g70
g71
NtRp2059
(dp2060
g74
(dp2061
g82
I3
ssg83
g2055
sg76
(lp2062
g1127
asbasbasbag69
(g85
g71
NtRp2063
(dp2064
g74
(dp2065
sg83
g2011
sg76
(lp2066
g69
(g90
g71
NtRp2067
(dp2068
g74
(dp2069
sg83
g2063
sg76
(lp2070
g69
(g70
g71
NtRp2071
(dp2072
g74
(dp2073
g82
I3
ssg83
g2067
sg76
(lp2074
g1140
asbasbasbasbasbasbasbag69
(g85
g71
NtRp2075
(dp2076
g74
(dp2077
sg83
g1800
sg76
(lp2078
g69
(g90
g71
NtRp2079
(dp2080
g74
(dp2081
g94
g95
ssg83
g2075
sg76
(lp2082
g1408
asbag69
(g90
g71
NtRp2083
(dp2084
g74
(dp2085
g101
g102
ssg83
g2075
sg76
(lp2086
S':'
asbag69
(g90
g71
NtRp2087
(dp2088
g74
(dp2089
sg83
g2075
sg76
(lp2090
g69
(g70
g71
NtRp2091
(dp2092
g74
(dp2093
g82
I4
ssg83
g2087
sg76
(lp2094
g69
(g78
g71
NtRp2095
(dp2096
g74
(dp2097
g82
I3
ssg83
Nsg76
(lp2098
g69
(g85
g71
NtRp2099
(dp2100
g74
(dp2101
sg83
g2095
sg76
(lp2102
g69
(g90
g71
NtRp2103
(dp2104
g74
(dp2105
sg83
g2099
sg76
(lp2106
g69
(g70
g71
NtRp2107
(dp2108
g74
(dp2109
g82
I3
ssg83
g2103
sg76
(lp2110
S'2'
asbasbasbag69
(g85
g71
NtRp2111
(dp2112
g74
(dp2113
sg83
g2095
sg76
(lp2114
g69
(g90
g71
NtRp2115
(dp2116
g74
(dp2117
sg83
g2111
sg76
(lp2118
g69
(g70
g71
NtRp2119
(dp2120
g74
(dp2121
g82
I3
ssg83
g2115
sg76
(lp2122
S'3'
asbasbasbag69
(g85
g71
NtRp2123
(dp2124
g74
(dp2125
sg83
g2095
sg76
(lp2126
g69
(g90
g71
NtRp2127
(dp2128
g74
(dp2129
sg83
g2123
sg76
(lp2130
g69
(g70
g71
NtRp2131
(dp2132
g74
(dp2133
g82
I3
ssg83
g2127
sg76
(lp2134
S'2'
asbasbasbag69
(g85
g71
NtRp2135
(dp2136
g74
(dp2137
sg83
g2095
sg76
(lp2138
g69
(g90
g71
NtRp2139
(dp2140
g74
(dp2141
sg83
g2135
sg76
(lp2142
g69
(g70
g71
NtRp2143
(dp2144
g74
(dp2145
g82
I3
ssg83
g2139
sg76
(lp2146
S'datetime.datetime(2012, 12, 17, 15, 3, 30)'
p2147
asbasbasbag69
(g85
g71
NtRp2148
(dp2149
g74
(dp2150
sg83
g2095
sg76
(lp2151
g69
(g90
g71
NtRp2152
(dp2153
g74
(dp2154
sg83
g2148
sg76
(lp2155
g69
(g70
g71
NtRp2156
(dp2157
g74
(dp2158
g82
I3
ssg83
g2152
sg76
(lp2159
g1486
asbasbasbasbasbasbasbasbasbasbasbag69
(g85
g71
NtRp2160
(dp2161
g74
(dp2162
sg83
g79
sg76
(lp2163
g69
(g90
g71
NtRp2164
(dp2165
g74
(dp2166
g94
g95
ssg83
g2160
sg76
(lp2167
S'is_https'
p2168
asbag69
(g90
g71
NtRp2169
(dp2170
g74
(dp2171
g101
g102
ssg83
g2160
sg76
(lp2172
S':'
asbag69
(g90
g71
NtRp2173
(dp2174
g74
(dp2175
sg83
g2160
sg76
(lp2176
g69
(g70
g71
NtRp2177
(dp2178
g74
(dp2179
g82
I5
ssg83
g2173
sg76
(lp2180
g112
asbasbasbag69
(g85
g71
NtRp2181
(dp2182
g74
(dp2183
sg83
g79
sg76
(lp2184
g69
(g90
g71
NtRp2185
(dp2186
g74
(dp2187
g94
g95
ssg83
g2181
sg76
(lp2188
S'is_local'
p2189
asbag69
(g90
g71
NtRp2190
(dp2191
g74
(dp2192
g101
g102
ssg83
g2181
sg76
(lp2193
S':'
asbag69
(g90
g71
NtRp2194
(dp2195
g74
(dp2196
sg83
g2181
sg76
(lp2197
g69
(g70
g71
NtRp2198
(dp2199
g74
(dp2200
g82
I5
ssg83
g2194
sg76
(lp2201
g1595
asbasbasbag69
(g85
g71
NtRp2202
(dp2203
g74
(dp2204
sg83
g79
sg76
(lp2205
g69
(g90
g71
NtRp2206
(dp2207
g74
(dp2208
g94
g95
ssg83
g2202
sg76
(lp2209
S'is_restful'
p2210
asbag69
(g90
g71
NtRp2211
(dp2212
g74
(dp2213
g101
g102
ssg83
g2202
sg76
(lp2214
S':'
asbag69
(g90
g71
NtRp2215
(dp2216
g74
(dp2217
sg83
g2202
sg76
(lp2218
g69
(g70
g71
NtRp2219
(dp2220
g74
(dp2221
g82
I5
ssg83
g2215
sg76
(lp2222
g112
asbasbasbag69
(g85
g71
NtRp2223
(dp2224
g74
(dp2225
sg83
g79
sg76
(lp2226
g69
(g90
g71
NtRp2227
(dp2228
g74
(dp2229
g94
g95
ssg83
g2223
sg76
(lp2230
S'now'
p2231
asbag69
(g90
g71
NtRp2232
(dp2233
g74
(dp2234
g101
g102
ssg83
g2223
sg76
(lp2235
S':'
asbag69
(g90
g71
NtRp2236
(dp2237
g74
(dp2238
sg83
g2223
sg76
(lp2239
g69
(g70
g71
NtRp2240
(dp2241
g74
(dp2242
g82
I5
ssg83
g2236
sg76
(lp2243
S'datetime.datetime(2013, 8, 29, 22, 36, 14, 379367)'
p2244
asbasbasbag69
(g85
g71
NtRp2245
(dp2246
g74
(dp2247
sg83
g79
sg76
(lp2248
g69
(g90
g71
NtRp2249
(dp2250
g74
(dp2251
g94
g95
ssg83
g2245
sg76
(lp2252
S'post_vars'
p2253
asbag69
(g90
g71
NtRp2254
(dp2255
g74
(dp2256
g101
g102
ssg83
g2245
sg76
(lp2257
S':'
asbag69
(g90
g71
NtRp2258
(dp2259
g74
(dp2260
sg83
g2245
sg76
(lp2261
g69
(g70
g71
NtRp2262
(dp2263
g74
(dp2264
g82
I5
ssg83
g2258
sg76
(lp2265
g69
(g78
g71
NtRp2266
(dp2267
g74
(dp2268
g82
I4
ssg83
Nsg76
(lp2269
sbasbasbasbag69
(g85
g71
NtRp2270
(dp2271
g74
(dp2272
sg83
g79
sg76
(lp2273
g69
(g90
g71
NtRp2274
(dp2275
g74
(dp2276
g94
g95
ssg83
g2270
sg76
(lp2277
S'raw_args'
p2278
asbag69
(g90
g71
NtRp2279
(dp2280
g74
(dp2281
g101
g102
ssg83
g2270
sg76
(lp2282
S':'
asbag69
(g90
g71
NtRp2283
(dp2284
g74
(dp2285
sg83
g2270
sg76
(lp2286
g69
(g70
g71
NtRp2287
(dp2288
g74
(dp2289
g82
I5
ssg83
g2283
sg76
(lp2290
S''
asbasbasbag69
(g85
g71
NtRp2291
(dp2292
g74
(dp2293
sg83
g79
sg76
(lp2294
g69
(g90
g71
NtRp2295
(dp2296
g74
(dp2297
g94
g95
ssg83
g2291
sg76
(lp2298
S'raw_extension'
p2299
asbag69
(g90
g71
NtRp2300
(dp2301
g74
(dp2302
g101
g102
ssg83
g2291
sg76
(lp2303
S':'
asbag69
(g90
g71
NtRp2304
(dp2305
g74
(dp2306
sg83
g2291
sg76
(lp2307
g69
(g70
g71
NtRp2308
(dp2309
g74
(dp2310
g82
I5
ssg83
g2304
sg76
(lp2311
S'None'
p2312
asbasbasbag69
(g85
g71
NtRp2313
(dp2314
g74
(dp2315
sg83
g79
sg76
(lp2316
g69
(g90
g71
NtRp2317
(dp2318
g74
(dp2319
g94
g95
ssg83
g2313
sg76
(lp2320
S'url'
p2321
asbag69
(g90
g71
NtRp2322
(dp2323
g74
(dp2324
g101
g102
ssg83
g2313
sg76
(lp2325
S':'
asbag69
(g90
g71
NtRp2326
(dp2327
g74
(dp2328
sg83
g2313
sg76
(lp2329
g69
(g70
g71
NtRp2330
(dp2331
g74
(dp2332
g82
I5
ssg83
g2326
sg76
(lp2333
g1162
asbasbasbag69
(g85
g71
NtRp2334
(dp2335
g74
(dp2336
sg83
g79
sg76
(lp2337
g69
(g90
g71
NtRp2338
(dp2339
g74
(dp2340
g94
g95
ssg83
g2334
sg76
(lp2341
S'utcnow'
p2342
asbag69
(g90
g71
NtRp2343
(dp2344
g74
(dp2345
g101
g102
ssg83
g2334
sg76
(lp2346
S':'
asbag69
(g90
g71
NtRp2347
(dp2348
g74
(dp2349
sg83
g2334
sg76
(lp2350
g69
(g70
g71
NtRp2351
(dp2352
g74
(dp2353
g82
I5
ssg83
g2347
sg76
(lp2354
S'datetime.datetime(2013, 8, 29, 17, 6, 14, 379392)'
p2355
asbasbasbag69
(g85
g71
NtRp2356
(dp2357
g74
(dp2358
sg83
g79
sg76
(lp2359
g69
(g90
g71
NtRp2360
(dp2361
g74
(dp2362
g94
g95
ssg83
g2356
sg76
(lp2363
S'uuid'
p2364
asbag69
(g90
g71
NtRp2365
(dp2366
g74
(dp2367
g101
g102
ssg83
g2356
sg76
(lp2368
S':'
asbag69
(g90
g71
NtRp2369
(dp2370
g74
(dp2371
sg83
g2356
sg76
(lp2372
g69
(g70
g71
NtRp2373
(dp2374
g74
(dp2375
g82
I5
ssg83
g2369
sg76
(lp2376
S'assignmen3/127.0.0.1.2013-08-29.22-36-14.54aeca62-e0ad-4b90-9686-d1a03c295fb2'
p2377
asbasbasbag69
(g85
g71
NtRp2378
(dp2379
g74
(dp2380
sg83
g79
sg76
(lp2381
g69
(g90
g71
NtRp2382
(dp2383
g74
(dp2384
g94
g95
ssg83
g2378
sg76
(lp2385
S'vars'
p2386
asbag69
(g90
g71
NtRp2387
(dp2388
g74
(dp2389
g101
g102
ssg83
g2378
sg76
(lp2390
S':'
asbag69
(g90
g71
NtRp2391
(dp2392
g74
(dp2393
sg83
g2378
sg76
(lp2394
g69
(g70
g71
NtRp2395
(dp2396
g74
(dp2397
g82
I5
ssg83
g2391
sg76
(lp2398
g69
(g78
g71
NtRp2399
(dp2400
g74
(dp2401
g82
I4
ssg83
Nsg76
(lp2402
sbasbasbasbag69
(g85
g71
NtRp2403
(dp2404
g74
(dp2405
sg83
g79
sg76
(lp2406
g69
(g90
g71
NtRp2407
(dp2408
g74
(dp2409
g94
g95
ssg83
g2403
sg76
(lp2410
S'wsgi'
p2411
asbag69
(g90
g71
NtRp2412
(dp2413
g74
(dp2414
g101
g102
ssg83
g2403
sg76
(lp2415
S':'
asbag69
(g90
g71
NtRp2416
(dp2417
g74
(dp2418
sg83
g2403
sg76
(lp2419
g69
(g70
g71
NtRp2420
(dp2421
g74
(dp2422
g82
I5
ssg83
g2416
sg76
(lp2423
g69
(g78
g71
NtRp2424
(dp2425
g74
(dp2426
g82
I4
ssg83
Nsg76
(lp2427
g69
(g85
g71
NtRp2428
(dp2429
g74
(dp2430
sg83
g2424
sg76
(lp2431
g69
(g90
g71
NtRp2432
(dp2433
g74
(dp2434
g94
g95
ssg83
g2428
sg76
(lp2435
S'environ'
p2436
asbag69
(g90
g71
NtRp2437
(dp2438
g74
(dp2439
g101
g102
ssg83
g2428
sg76
(lp2440
S':'
asbag69
(g90
g71
NtRp2441
(dp2442
g74
(dp2443
sg83
g2428
sg76
(lp2444
g69
(g70
g71
NtRp2445
(dp2446
g74
(dp2447
g82
I4
ssg83
g2441
sg76
(lp2448
g69
(g78
g71
NtRp2449
(dp2450
g74
(dp2451
g82
I3
ssg83
Nsg76
(lp2452
g69
(g85
g71
NtRp2453
(dp2454
g74
(dp2455
sg83
g2449
sg76
(lp2456
g69
(g90
g71
NtRp2457
(dp2458
g74
(dp2459
g94
g95
ssg83
g2453
sg76
(lp2460
S'HTTP_ACCEPT'
p2461
asbag69
(g90
g71
NtRp2462
(dp2463
g74
(dp2464
g101
g102
ssg83
g2453
sg76
(lp2465
S':'
asbag69
(g90
g71
NtRp2466
(dp2467
g74
(dp2468
sg83
g2453
sg76
(lp2469
g69
(g70
g71
NtRp2470
(dp2471
g74
(dp2472
g82
I3
ssg83
g2466
sg76
(lp2473
g854
asbasbasbag69
(g85
g71
NtRp2474
(dp2475
g74
(dp2476
sg83
g2449
sg76
(lp2477
g69
(g90
g71
NtRp2478
(dp2479
g74
(dp2480
g94
g95
ssg83
g2474
sg76
(lp2481
S'HTTP_ACCEPT_ENCODING'
p2482
asbag69
(g90
g71
NtRp2483
(dp2484
g74
(dp2485
g101
g102
ssg83
g2474
sg76
(lp2486
S':'
asbag69
(g90
g71
NtRp2487
(dp2488
g74
(dp2489
sg83
g2474
sg76
(lp2490
g69
(g70
g71
NtRp2491
(dp2492
g74
(dp2493
g82
I3
ssg83
g2487
sg76
(lp2494
g876
asbasbasbag69
(g85
g71
NtRp2495
(dp2496
g74
(dp2497
sg83
g2449
sg76
(lp2498
g69
(g90
g71
NtRp2499
(dp2500
g74
(dp2501
g94
g95
ssg83
g2495
sg76
(lp2502
S'HTTP_ACCEPT_LANGUAGE'
p2503
asbag69
(g90
g71
NtRp2504
(dp2505
g74
(dp2506
g101
g102
ssg83
g2495
sg76
(lp2507
S':'
asbag69
(g90
g71
NtRp2508
(dp2509
g74
(dp2510
sg83
g2495
sg76
(lp2511
g69
(g70
g71
NtRp2512
(dp2513
g74
(dp2514
g82
I3
ssg83
g2508
sg76
(lp2515
g898
asbasbasbag69
(g85
g71
NtRp2516
(dp2517
g74
(dp2518
sg83
g2449
sg76
(lp2519
g69
(g90
g71
NtRp2520
(dp2521
g74
(dp2522
g94
g95
ssg83
g2516
sg76
(lp2523
S'HTTP_CONNECTION'
p2524
asbag69
(g90
g71
NtRp2525
(dp2526
g74
(dp2527
g101
g102
ssg83
g2516
sg76
(lp2528
S':'
asbag69
(g90
g71
NtRp2529
(dp2530
g74
(dp2531
sg83
g2516
sg76
(lp2532
g69
(g70
g71
NtRp2533
(dp2534
g74
(dp2535
g82
I3
ssg83
g2529
sg76
(lp2536
g920
asbasbasbag69
(g85
g71
NtRp2537
(dp2538
g74
(dp2539
sg83
g2449
sg76
(lp2540
g69
(g90
g71
NtRp2541
(dp2542
g74
(dp2543
g94
g95
ssg83
g2537
sg76
(lp2544
S'HTTP_COOKIE'
p2545
asbag69
(g90
g71
NtRp2546
(dp2547
g74
(dp2548
g101
g102
ssg83
g2537
sg76
(lp2549
S':'
asbag69
(g90
g71
NtRp2550
(dp2551
g74
(dp2552
sg83
g2537
sg76
(lp2553
g69
(g70
g71
NtRp2554
(dp2555
g74
(dp2556
g82
I3
ssg83
g2550
sg76
(lp2557
g942
asbasbasbag69
(g85
g71
NtRp2558
(dp2559
g74
(dp2560
sg83
g2449
sg76
(lp2561
g69
(g90
g71
NtRp2562
(dp2563
g74
(dp2564
g94
g95
ssg83
g2558
sg76
(lp2565
S'HTTP_HOST'
p2566
asbag69
(g90
g71
NtRp2567
(dp2568
g74
(dp2569
g101
g102
ssg83
g2558
sg76
(lp2570
S':'
asbag69
(g90
g71
NtRp2571
(dp2572
g74
(dp2573
sg83
g2558
sg76
(lp2574
g69
(g70
g71
NtRp2575
(dp2576
g74
(dp2577
g82
I3
ssg83
g2571
sg76
(lp2578
g964
asbasbasbag69
(g85
g71
NtRp2579
(dp2580
g74
(dp2581
sg83
g2449
sg76
(lp2582
g69
(g90
g71
NtRp2583
(dp2584
g74
(dp2585
g94
g95
ssg83
g2579
sg76
(lp2586
S'HTTP_REFERER'
p2587
asbag69
(g90
g71
NtRp2588
(dp2589
g74
(dp2590
g101
g102
ssg83
g2579
sg76
(lp2591
S':'
asbag69
(g90
g71
NtRp2592
(dp2593
g74
(dp2594
sg83
g2579
sg76
(lp2595
g69
(g70
g71
NtRp2596
(dp2597
g74
(dp2598
g82
I3
ssg83
g2592
sg76
(lp2599
g986
asbasbasbag69
(g85
g71
NtRp2600
(dp2601
g74
(dp2602
sg83
g2449
sg76
(lp2603
g69
(g90
g71
NtRp2604
(dp2605
g74
(dp2606
g94
g95
ssg83
g2600
sg76
(lp2607
S'HTTP_USER_AGENT'
p2608
asbag69
(g90
g71
NtRp2609
(dp2610
g74
(dp2611
g101
g102
ssg83
g2600
sg76
(lp2612
S':'
asbag69
(g90
g71
NtRp2613
(dp2614
g74
(dp2615
sg83
g2600
sg76
(lp2616
g69
(g70
g71
NtRp2617
(dp2618
g74
(dp2619
g82
I3
ssg83
g2613
sg76
(lp2620
g1008
asbasbasbag69
(g85
g71
NtRp2621
(dp2622
g74
(dp2623
sg83
g2449
sg76
(lp2624
g69
(g90
g71
NtRp2625
(dp2626
g74
(dp2627
g94
g95
ssg83
g2621
sg76
(lp2628
S'PATH_INFO'
p2629
asbag69
(g90
g71
NtRp2630
(dp2631
g74
(dp2632
g101
g102
ssg83
g2621
sg76
(lp2633
S':'
asbag69
(g90
g71
NtRp2634
(dp2635
g74
(dp2636
sg83
g2621
sg76
(lp2637
g69
(g70
g71
NtRp2638
(dp2639
g74
(dp2640
g82
I3
ssg83
g2634
sg76
(lp2641
g1162
asbasbasbag69
(g85
g71
NtRp2642
(dp2643
g74
(dp2644
sg83
g2449
sg76
(lp2645
g69
(g90
g71
NtRp2646
(dp2647
g74
(dp2648
g94
g95
ssg83
g2642
sg76
(lp2649
S'QUERY_STRING'
p2650
asbag69
(g90
g71
NtRp2651
(dp2652
g74
(dp2653
g101
g102
ssg83
g2642
sg76
(lp2654
S':'
asbag69
(g90
g71
NtRp2655
(dp2656
g74
(dp2657
sg83
g2642
sg76
(lp2658
g69
(g70
g71
NtRp2659
(dp2660
g74
(dp2661
g82
I3
ssg83
g2655
sg76
(lp2662
S''
asbasbasbag69
(g85
g71
NtRp2663
(dp2664
g74
(dp2665
sg83
g2449
sg76
(lp2666
g69
(g90
g71
NtRp2667
(dp2668
g74
(dp2669
g94
g95
ssg83
g2663
sg76
(lp2670
S'REMOTE_ADDR'
p2671
asbag69
(g90
g71
NtRp2672
(dp2673
g74
(dp2674
g101
g102
ssg83
g2663
sg76
(lp2675
S':'
asbag69
(g90
g71
NtRp2676
(dp2677
g74
(dp2678
sg83
g2663
sg76
(lp2679
g69
(g70
g71
NtRp2680
(dp2681
g74
(dp2682
g82
I3
ssg83
g2676
sg76
(lp2683
g224
asbasbasbag69
(g85
g71
NtRp2684
(dp2685
g74
(dp2686
sg83
g2449
sg76
(lp2687
g69
(g90
g71
NtRp2688
(dp2689
g74
(dp2690
g94
g95
ssg83
g2684
sg76
(lp2691
S'REMOTE_PORT'
p2692
asbag69
(g90
g71
NtRp2693
(dp2694
g74
(dp2695
g101
g102
ssg83
g2684
sg76
(lp2696
S':'
asbag69
(g90
g71
NtRp2697
(dp2698
g74
(dp2699
sg83
g2684
sg76
(lp2700
g69
(g70
g71
NtRp2701
(dp2702
g74
(dp2703
g82
I3
ssg83
g2697
sg76
(lp2704
g1226
asbasbasbag69
(g85
g71
NtRp2705
(dp2706
g74
(dp2707
sg83
g2449
sg76
(lp2708
g69
(g90
g71
NtRp2709
(dp2710
g74
(dp2711
g94
g95
ssg83
g2705
sg76
(lp2712
S'REQUEST_METHOD'
p2713
asbag69
(g90
g71
NtRp2714
(dp2715
g74
(dp2716
g101
g102
ssg83
g2705
sg76
(lp2717
S':'
asbag69
(g90
g71
NtRp2718
(dp2719
g74
(dp2720
sg83
g2705
sg76
(lp2721
g69
(g70
g71
NtRp2722
(dp2723
g74
(dp2724
g82
I3
ssg83
g2718
sg76
(lp2725
g1248
asbasbasbag69
(g85
g71
NtRp2726
(dp2727
g74
(dp2728
sg83
g2449
sg76
(lp2729
g69
(g90
g71
NtRp2730
(dp2731
g74
(dp2732
g94
g95
ssg83
g2726
sg76
(lp2733
S'REQUEST_URI'
p2734
asbag69
(g90
g71
NtRp2735
(dp2736
g74
(dp2737
g101
g102
ssg83
g2726
sg76
(lp2738
S':'
asbag69
(g90
g71
NtRp2739
(dp2740
g74
(dp2741
sg83
g2726
sg76
(lp2742
g69
(g70
g71
NtRp2743
(dp2744
g74
(dp2745
g82
I3
ssg83
g2739
sg76
(lp2746
g1162
asbasbasbag69
(g85
g71
NtRp2747
(dp2748
g74
(dp2749
sg83
g2449
sg76
(lp2750
g69
(g90
g71
NtRp2751
(dp2752
g74
(dp2753
g94
g95
ssg83
g2747
sg76
(lp2754
S'SCRIPT_NAME'
p2755
asbag69
(g90
g71
NtRp2756
(dp2757
g74
(dp2758
g101
g102
ssg83
g2747
sg76
(lp2759
S':'
asbag69
(g90
g71
NtRp2760
(dp2761
g74
(dp2762
sg83
g2747
sg76
(lp2763
g69
(g70
g71
NtRp2764
(dp2765
g74
(dp2766
g82
I3
ssg83
g2760
sg76
(lp2767
S''
asbasbasbag69
(g85
g71
NtRp2768
(dp2769
g74
(dp2770
sg83
g2449
sg76
(lp2771
g69
(g90
g71
NtRp2772
(dp2773
g74
(dp2774
g94
g95
ssg83
g2768
sg76
(lp2775
S'SERVER_NAME'
p2776
asbag69
(g90
g71
NtRp2777
(dp2778
g74
(dp2779
g101
g102
ssg83
g2768
sg76
(lp2780
S':'
asbag69
(g90
g71
NtRp2781
(dp2782
g74
(dp2783
sg83
g2768
sg76
(lp2784
g69
(g70
g71
NtRp2785
(dp2786
g74
(dp2787
g82
I3
ssg83
g2781
sg76
(lp2788
g1312
asbasbasbag69
(g85
g71
NtRp2789
(dp2790
g74
(dp2791
sg83
g2449
sg76
(lp2792
g69
(g90
g71
NtRp2793
(dp2794
g74
(dp2795
g94
g95
ssg83
g2789
sg76
(lp2796
S'SERVER_PORT'
p2797
asbag69
(g90
g71
NtRp2798
(dp2799
g74
(dp2800
g101
g102
ssg83
g2789
sg76
(lp2801
S':'
asbag69
(g90
g71
NtRp2802
(dp2803
g74
(dp2804
sg83
g2789
sg76
(lp2805
g69
(g70
g71
NtRp2806
(dp2807
g74
(dp2808
g82
I3
ssg83
g2802
sg76
(lp2809
g1334
asbasbasbag69
(g85
g71
NtRp2810
(dp2811
g74
(dp2812
sg83
g2449
sg76
(lp2813
g69
(g90
g71
NtRp2814
(dp2815
g74
(dp2816
g94
g95
ssg83
g2810
sg76
(lp2817
S'SERVER_PROTOCOL'
p2818
asbag69
(g90
g71
NtRp2819
(dp2820
g74
(dp2821
g101
g102
ssg83
g2810
sg76
(lp2822
S':'
asbag69
(g90
g71
NtRp2823
(dp2824
g74
(dp2825
sg83
g2810
sg76
(lp2826
g69
(g70
g71
NtRp2827
(dp2828
g74
(dp2829
g82
I3
ssg83
g2823
sg76
(lp2830
g1356
asbasbasbag69
(g85
g71
NtRp2831
(dp2832
g74
(dp2833
sg83
g2449
sg76
(lp2834
g69
(g90
g71
NtRp2835
(dp2836
g74
(dp2837
g94
g95
ssg83
g2831
sg76
(lp2838
S'SERVER_SOFTWARE'
p2839
asbag69
(g90
g71
NtRp2840
(dp2841
g74
(dp2842
g101
g102
ssg83
g2831
sg76
(lp2843
S':'
asbag69
(g90
g71
NtRp2844
(dp2845
g74
(dp2846
sg83
g2831
sg76
(lp2847
g69
(g70
g71
NtRp2848
(dp2849
g74
(dp2850
g82
I3
ssg83
g2844
sg76
(lp2851
g1378
asbasbasbag69
(g85
g71
NtRp2852
(dp2853
g74
(dp2854
sg83
g2449
sg76
(lp2855
g69
(g90
g71
NtRp2856
(dp2857
g74
(dp2858
g94
g95
ssg83
g2852
sg76
(lp2859
S'wsgi.errors'
p2860
asbag69
(g90
g71
NtRp2861
(dp2862
g74
(dp2863
g101
g102
ssg83
g2852
sg76
(lp2864
S':'
asbag69
(g90
g71
NtRp2865
(dp2866
g74
(dp2867
sg83
g2852
sg76
(lp2868
g69
(g70
g71
NtRp2869
(dp2870
g74
(dp2871
g82
I3
ssg83
g2865
sg76
(lp2872
S"<open file '<stderr>', mode 'w' at 0x7fb0aa6a3270>"
p2873
asbasbasbag69
(g85
g71
NtRp2874
(dp2875
g74
(dp2876
sg83
g2449
sg76
(lp2877
g69
(g90
g71
NtRp2878
(dp2879
g74
(dp2880
g94
g95
ssg83
g2874
sg76
(lp2881
S'wsgi.file_wrapper'
p2882
asbag69
(g90
g71
NtRp2883
(dp2884
g74
(dp2885
g101
g102
ssg83
g2874
sg76
(lp2886
S':'
asbag69
(g90
g71
NtRp2887
(dp2888
g74
(dp2889
sg83
g2874
sg76
(lp2890
g69
(g70
g71
NtRp2891
(dp2892
g74
(dp2893
g82
I3
ssg83
g2887
sg76
(lp2894
S'<class wsgiref.util.FileWrapper at 0x2175b48>'
p2895
asbasbasbag69
(g85
g71
NtRp2896
(dp2897
g74
(dp2898
sg83
g2449
sg76
(lp2899
g69
(g90
g71
NtRp2900
(dp2901
g74
(dp2902
g94
g95
ssg83
g2896
sg76
(lp2903
S'wsgi.input'
p2904
asbag69
(g90
g71
NtRp2905
(dp2906
g74
(dp2907
g101
g102
ssg83
g2896
sg76
(lp2908
S':'
asbag69
(g90
g71
NtRp2909
(dp2910
g74
(dp2911
sg83
g2896
sg76
(lp2912
g69
(g70
g71
NtRp2913
(dp2914
g74
(dp2915
g82
I3
ssg83
g2909
sg76
(lp2916
S'<cStringIO.StringO object at 0x7fb08c124ed8>'
p2917
asbasbasbag69
(g85
g71
NtRp2918
(dp2919
g74
(dp2920
sg83
g2449
sg76
(lp2921
g69
(g90
g71
NtRp2922
(dp2923
g74
(dp2924
g94
g95
ssg83
g2918
sg76
(lp2925
S'wsgi.multiprocess'
p2926
asbag69
(g90
g71
NtRp2927
(dp2928
g74
(dp2929
g101
g102
ssg83
g2918
sg76
(lp2930
S':'
asbag69
(g90
g71
NtRp2931
(dp2932
g74
(dp2933
sg83
g2918
sg76
(lp2934
g69
(g70
g71
NtRp2935
(dp2936
g74
(dp2937
g82
I3
ssg83
g2931
sg76
(lp2938
g112
asbasbasbag69
(g85
g71
NtRp2939
(dp2940
g74
(dp2941
sg83
g2449
sg76
(lp2942
g69
(g90
g71
NtRp2943
(dp2944
g74
(dp2945
g94
g95
ssg83
g2939
sg76
(lp2946
S'wsgi.multithread'
p2947
asbag69
(g90
g71
NtRp2948
(dp2949
g74
(dp2950
g101
g102
ssg83
g2939
sg76
(lp2951
S':'
asbag69
(g90
g71
NtRp2952
(dp2953
g74
(dp2954
sg83
g2939
sg76
(lp2955
g69
(g70
g71
NtRp2956
(dp2957
g74
(dp2958
g82
I3
ssg83
g2952
sg76
(lp2959
g1595
asbasbasbag69
(g85
g71
NtRp2960
(dp2961
g74
(dp2962
sg83
g2449
sg76
(lp2963
g69
(g90
g71
NtRp2964
(dp2965
g74
(dp2966
g94
g95
ssg83
g2960
sg76
(lp2967
S'wsgi.run_once'
p2968
asbag69
(g90
g71
NtRp2969
(dp2970
g74
(dp2971
g101
g102
ssg83
g2960
sg76
(lp2972
S':'
asbag69
(g90
g71
NtRp2973
(dp2974
g74
(dp2975
sg83
g2960
sg76
(lp2976
g69
(g70
g71
NtRp2977
(dp2978
g74
(dp2979
g82
I3
ssg83
g2973
sg76
(lp2980
g112
asbasbasbag69
(g85
g71
NtRp2981
(dp2982
g74
(dp2983
sg83
g2449
sg76
(lp2984
g69
(g90
g71
NtRp2985
(dp2986
g74
(dp2987
g94
g95
ssg83
g2981
sg76
(lp2988
S'wsgi.url_scheme'
p2989
asbag69
(g90
g71
NtRp2990
(dp2991
g74
(dp2992
g101
g102
ssg83
g2981
sg76
(lp2993
S':'
asbag69
(g90
g71
NtRp2994
(dp2995
g74
(dp2996
sg83
g2981
sg76
(lp2997
g69
(g70
g71
NtRp2998
(dp2999
g74
(dp3000
g82
I3
ssg83
g2994
sg76
(lp3001
g1638
asbasbasbag69
(g85
g71
NtRp3002
(dp3003
g74
(dp3004
sg83
g2449
sg76
(lp3005
g69
(g90
g71
NtRp3006
(dp3007
g74
(dp3008
g94
g95
ssg83
g3002
sg76
(lp3009
S'wsgi.version'
p3010
asbag69
(g90
g71
NtRp3011
(dp3012
g74
(dp3013
g101
g102
ssg83
g3002
sg76
(lp3014
S':'
asbag69
(g90
g71
NtRp3015
(dp3016
g74
(dp3017
sg83
g3002
sg76
(lp3018
g69
(g70
g71
NtRp3019
(dp3020
g74
(dp3021
g82
I3
ssg83
g3015
sg76
(lp3022
S'1'
asbasbasbasbasbasbasbasbasbasbasbasbasbsS'frames'
p3023
(lp3024
(dp3025
S'file'
p3026
S'/home/umang/web2py/gluon/restricted.py'
p3027
sS'dump'
p3028
(dp3029
S'code'
p3030
S"'# -*- coding: utf-8 -*-\\n# this file is released ...=crud())\\n\\nresponse._vars=response._caller(index)\\n'"
p3031
sS'layer'
p3032
S"'/home/umang/web2py/applications/assignmen3/controllers/default.py'"
p3033
sS'global compile2'
p3034
S'<function compile2>'
p3035
sS'ccode'
p3036
S'undefined'
p3037
ssS'lnum'
p3038
I211
sS'lines'
p3039
(dp3040
I206
S"    environment['__name__'] = '__restricted__'"
p3041
sI207
S'    try:'
p3042
sI208
S'        if isinstance(code, types.CodeType):'
p3043
sI209
S'            ccode = code'
p3044
sI210
S'        else:'
p3045
sI211
S'            ccode = compile2(code, layer)'
p3046
sI212
S'        exec ccode in environment'
p3047
sI213
S'    except HTTP:'
p3048
sI214
S'        raise'
p3049
sI215
S'    except RestrictedError:'
p3050
ssS'call'
p3051
S"(code='# -*- coding: utf-8 -*-\\n# this file is released ...=crud())\\n\\nresponse._vars=response._caller(index)\\n', environment={'A': <class 'gluon.html.A'>, 'Auth': <class 'gluon.tools.Auth'>, 'B': <class 'gluon.html.B'>, 'BEAUTIFY': <class 'gluon.html.BEAUTIFY'>, 'BODY': <class 'gluon.html.BODY'>, 'BR': <class 'gluon.html.BR'>, 'BUTTON': <class 'gluon.html.BUTTON'>, 'CAT': <class 'gluon.html.CAT'>, 'CENTER': <class 'gluon.html.CENTER'>, 'CLEANUP': <class 'gluon.validators.CLEANUP'>, ...}, layer='/home/umang/web2py/applications/assignmen3/controllers/default.py')"
p3052
sS'func'
p3053
S'restricted'
p3054
sa(dp3055
g3026
S'/home/umang/web2py/gluon/restricted.py'
p3056
sg3028
(dp3057
S'builtincompile'
p3058
S'<built-in function compile>'
p3059
sS'code'
p3060
S"'# -*- coding: utf-8 -*-\\n# this file is released ...=crud())\\n\\nresponse._vars=response._caller(index)\\n'"
p3061
sS'code.rstrip'
p3062
S'<built-in method rstrip of str object>'
p3063
sS').replace'
p3064
g3037
sS'layer'
p3065
S"'/home/umang/web2py/applications/assignmen3/controllers/default.py'"
p3066
ssg3038
I194
sg3039
(dp3067
I192
S"    The +'\\n' is necessary else compile fails when code ends in a comment."
p3068
sI193
S'    """'
p3069
sI194
S"    return compile(code.rstrip().replace('\\r\\n', '\\n') + '\\n', layer, 'exec')"
p3070
sI195
S''
sI196
S''
sI197
S"def restricted(code, environment=None, layer='Unknown'):"
p3071
sI198
S'    """'
p3072
sI189
S''
sI190
S'def compile2(code, layer):'
p3073
sI191
S'    """'
p3074
ssg3051
S"(code='# -*- coding: utf-8 -*-\\n# this file is released ...=crud())\\n\\nresponse._vars=response._caller(index)\\n', layer='/home/umang/web2py/applications/assignmen3/controllers/default.py')"
p3075
sg3053
S'compile2'
p3076
sasS'pyver'
p3077
S'Python 2.7.3: /usr/bin/python'
p3078
sS'session'
p3079
g69
(g70
g71
NtRp3080
(dp3081
g74
(dp3082
sg76
(lp3083
g69
(g78
g71
NtRp3084
(dp3085
g74
(dp3086
g82
I5
ssg83
Nsg76
(lp3087
sbasbsS'etype'
p3088
S"<type 'exceptions.SyntaxError'>"
p3089
sS'date'
p3090
S'Thu Aug 29 22:36:16 2013'
p3091
sS'response'
p3092
g69
(g70
g71
NtRp3093
(dp3094
g74
(dp3095
sg76
(lp3096
g69
(g78
g71
NtRp3097
(dp3098
g74
(dp3099
g82
I5
ssg83
Nsg76
(lp3100
g69
(g85
g71
NtRp3101
(dp3102
g74
(dp3103
sg83
g3097
sg76
(lp3104
g69
(g90
g71
NtRp3105
(dp3106
g74
(dp3107
g94
g95
ssg83
g3101
sg76
(lp3108
g167
asbag69
(g90
g71
NtRp3109
(dp3110
g74
(dp3111
g101
g102
ssg83
g3101
sg76
(lp3112
S':'
asbag69
(g90
g71
NtRp3113
(dp3114
g74
(dp3115
sg83
g3101
sg76
(lp3116
g69
(g70
g71
NtRp3117
(dp3118
g74
(dp3119
g82
I5
ssg83
g3113
sg76
(lp3120
S'<cStringIO.StringO object at 0x7fb08c124490>'
p3121
asbasbasbag69
(g85
g71
NtRp3122
(dp3123
g74
(dp3124
sg83
g3097
sg76
(lp3125
g69
(g90
g71
NtRp3126
(dp3127
g74
(dp3128
g94
g95
ssg83
g3122
sg76
(lp3129
g255
asbag69
(g90
g71
NtRp3130
(dp3131
g74
(dp3132
g101
g102
ssg83
g3122
sg76
(lp3133
S':'
asbag69
(g90
g71
NtRp3134
(dp3135
g74
(dp3136
sg83
g3122
sg76
(lp3137
g69
(g70
g71
NtRp3138
(dp3139
g74
(dp3140
g82
I5
ssg83
g3134
sg76
(lp3141
g69
(g78
g71
NtRp3142
(dp3143
g74
(dp3144
g82
I4
ssg83
Nsg76
(lp3145
g69
(g85
g71
NtRp3146
(dp3147
g74
(dp3148
sg83
g3142
sg76
(lp3149
g69
(g90
g71
NtRp3150
(dp3151
g74
(dp3152
g94
g95
ssg83
g3146
sg76
(lp3153
S'session_id_assignmen3'
p3154
asbag69
(g90
g71
NtRp3155
(dp3156
g74
(dp3157
g101
g102
ssg83
g3146
sg76
(lp3158
S':'
asbag69
(g90
g71
NtRp3159
(dp3160
g74
(dp3161
sg83
g3146
sg76
(lp3162
g69
(g70
g71
NtRp3163
(dp3164
g74
(dp3165
g82
I4
ssg83
g3159
sg76
(lp3166
S'127.0.0.1-302b1188-8bf8-46c5-b3ff-ec1abdd584b8'
p3167
ag69
(g78
g71
NtRp3168
(dp3169
g74
(dp3170
g82
I3
ssg83
Nsg76
(lp3171
g69
(g85
g71
NtRp3172
(dp3173
g74
(dp3174
sg83
g3168
sg76
(lp3175
g69
(g90
g71
NtRp3176
(dp3177
g74
(dp3178
g94
g95
ssg83
g3172
sg76
(lp3179
g306
asbag69
(g90
g71
NtRp3180
(dp3181
g74
(dp3182
g101
g102
ssg83
g3172
sg76
(lp3183
S':'
asbag69
(g90
g71
NtRp3184
(dp3185
g74
(dp3186
sg83
g3172
sg76
(lp3187
g69
(g70
g71
NtRp3188
(dp3189
g74
(dp3190
g82
I3
ssg83
g3184
sg76
(lp3191
S''
asbasbasbag69
(g85
g71
NtRp3192
(dp3193
g74
(dp3194
sg83
g3168
sg76
(lp3195
g69
(g90
g71
NtRp3196
(dp3197
g74
(dp3198
g94
g95
ssg83
g3192
sg76
(lp3199
g327
asbag69
(g90
g71
NtRp3200
(dp3201
g74
(dp3202
g101
g102
ssg83
g3192
sg76
(lp3203
S':'
asbag69
(g90
g71
NtRp3204
(dp3205
g74
(dp3206
sg83
g3192
sg76
(lp3207
g69
(g70
g71
NtRp3208
(dp3209
g74
(dp3210
g82
I3
ssg83
g3204
sg76
(lp3211
S''
asbasbasbag69
(g85
g71
NtRp3212
(dp3213
g74
(dp3214
sg83
g3168
sg76
(lp3215
g69
(g90
g71
NtRp3216
(dp3217
g74
(dp3218
g94
g95
ssg83
g3212
sg76
(lp3219
g348
asbag69
(g90
g71
NtRp3220
(dp3221
g74
(dp3222
g101
g102
ssg83
g3212
sg76
(lp3223
S':'
asbag69
(g90
g71
NtRp3224
(dp3225
g74
(dp3226
sg83
g3212
sg76
(lp3227
g69
(g70
g71
NtRp3228
(dp3229
g74
(dp3230
g82
I3
ssg83
g3224
sg76
(lp3231
S''
asbasbasbag69
(g85
g71
NtRp3232
(dp3233
g74
(dp3234
sg83
g3168
sg76
(lp3235
g69
(g90
g71
NtRp3236
(dp3237
g74
(dp3238
g94
g95
ssg83
g3232
sg76
(lp3239
g369
asbag69
(g90
g71
NtRp3240
(dp3241
g74
(dp3242
g101
g102
ssg83
g3232
sg76
(lp3243
S':'
asbag69
(g90
g71
NtRp3244
(dp3245
g74
(dp3246
sg83
g3232
sg76
(lp3247
g69
(g70
g71
NtRp3248
(dp3249
g74
(dp3250
g82
I3
ssg83
g3244
sg76
(lp3251
S''
asbasbasbag69
(g85
g71
NtRp3252
(dp3253
g74
(dp3254
sg83
g3168
sg76
(lp3255
g69
(g90
g71
NtRp3256
(dp3257
g74
(dp3258
g94
g95
ssg83
g3252
sg76
(lp3259
g390
asbag69
(g90
g71
NtRp3260
(dp3261
g74
(dp3262
g101
g102
ssg83
g3252
sg76
(lp3263
S':'
asbag69
(g90
g71
NtRp3264
(dp3265
g74
(dp3266
sg83
g3252
sg76
(lp3267
g69
(g70
g71
NtRp3268
(dp3269
g74
(dp3270
g82
I3
ssg83
g3264
sg76
(lp3271
S''
asbasbasbag69
(g85
g71
NtRp3272
(dp3273
g74
(dp3274
sg83
g3168
sg76
(lp3275
g69
(g90
g71
NtRp3276
(dp3277
g74
(dp3278
g94
g95
ssg83
g3272
sg76
(lp3279
g411
asbag69
(g90
g71
NtRp3280
(dp3281
g74
(dp3282
g101
g102
ssg83
g3272
sg76
(lp3283
S':'
asbag69
(g90
g71
NtRp3284
(dp3285
g74
(dp3286
sg83
g3272
sg76
(lp3287
g69
(g70
g71
NtRp3288
(dp3289
g74
(dp3290
g82
I3
ssg83
g3284
sg76
(lp3291
S'/'
asbasbasbag69
(g85
g71
NtRp3292
(dp3293
g74
(dp3294
sg83
g3168
sg76
(lp3295
g69
(g90
g71
NtRp3296
(dp3297
g74
(dp3298
g94
g95
ssg83
g3292
sg76
(lp3299
g432
asbag69
(g90
g71
NtRp3300
(dp3301
g74
(dp3302
g101
g102
ssg83
g3292
sg76
(lp3303
S':'
asbag69
(g90
g71
NtRp3304
(dp3305
g74
(dp3306
sg83
g3292
sg76
(lp3307
g69
(g70
g71
NtRp3308
(dp3309
g74
(dp3310
g82
I3
ssg83
g3304
sg76
(lp3311
S''
asbasbasbag69
(g85
g71
NtRp3312
(dp3313
g74
(dp3314
sg83
g3168
sg76
(lp3315
g69
(g90
g71
NtRp3316
(dp3317
g74
(dp3318
g94
g95
ssg83
g3312
sg76
(lp3319
g453
asbag69
(g90
g71
NtRp3320
(dp3321
g74
(dp3322
g101
g102
ssg83
g3312
sg76
(lp3323
S':'
asbag69
(g90
g71
NtRp3324
(dp3325
g74
(dp3326
sg83
g3312
sg76
(lp3327
g69
(g70
g71
NtRp3328
(dp3329
g74
(dp3330
g82
I3
ssg83
g3324
sg76
(lp3331
S''
asbasbasbasbasbasbasbasbasbasbasbag69
(g85
g71
NtRp3332
(dp3333
g74
(dp3334
sg83
g3097
sg76
(lp3335
g69
(g90
g71
NtRp3336
(dp3337
g74
(dp3338
g94
g95
ssg83
g3332
sg76
(lp3339
S'delimiters'
p3340
asbag69
(g90
g71
NtRp3341
(dp3342
g74
(dp3343
g101
g102
ssg83
g3332
sg76
(lp3344
S':'
asbag69
(g90
g71
NtRp3345
(dp3346
g74
(dp3347
sg83
g3332
sg76
(lp3348
g69
(g70
g71
NtRp3349
(dp3350
g74
(dp3351
g82
I5
ssg83
g3345
sg76
(lp3352
g69
(g78
g71
NtRp3353
(dp3354
g74
(dp3355
g82
I4
ssg83
Nsg76
(lp3356
g69
(g85
g71
NtRp3357
(dp3358
g74
(dp3359
sg83
g3353
sg76
(lp3360
g69
(g90
g71
NtRp3361
(dp3362
g74
(dp3363
sg83
g3357
sg76
(lp3364
g69
(g70
g71
NtRp3365
(dp3366
g74
(dp3367
g82
I4
ssg83
g3361
sg76
(lp3368
S'{{'
p3369
asbasbasbag69
(g85
g71
NtRp3370
(dp3371
g74
(dp3372
sg83
g3353
sg76
(lp3373
g69
(g90
g71
NtRp3374
(dp3375
g74
(dp3376
sg83
g3370
sg76
(lp3377
g69
(g70
g71
NtRp3378
(dp3379
g74
(dp3380
g82
I4
ssg83
g3374
sg76
(lp3381
S'}}'
p3382
asbasbasbasbasbasbasbag69
(g85
g71
NtRp3383
(dp3384
g74
(dp3385
sg83
g3097
sg76
(lp3386
g69
(g90
g71
NtRp3387
(dp3388
g74
(dp3389
g94
g95
ssg83
g3383
sg76
(lp3390
S'files'
p3391
asbag69
(g90
g71
NtRp3392
(dp3393
g74
(dp3394
g101
g102
ssg83
g3383
sg76
(lp3395
S':'
asbag69
(g90
g71
NtRp3396
(dp3397
g74
(dp3398
sg83
g3383
sg76
(lp3399
g69
(g70
g71
NtRp3400
(dp3401
g74
(dp3402
g82
I5
ssg83
g3396
sg76
(lp3403
g69
(g78
g71
NtRp3404
(dp3405
g74
(dp3406
g82
I4
ssg83
Nsg76
(lp3407
sbasbasbasbag69
(g85
g71
NtRp3408
(dp3409
g74
(dp3410
sg83
g3097
sg76
(lp3411
g69
(g90
g71
NtRp3412
(dp3413
g74
(dp3414
g94
g95
ssg83
g3408
sg76
(lp3415
S'flash'
p3416
asbag69
(g90
g71
NtRp3417
(dp3418
g74
(dp3419
g101
g102
ssg83
g3408
sg76
(lp3420
S':'
asbag69
(g90
g71
NtRp3421
(dp3422
g74
(dp3423
sg83
g3408
sg76
(lp3424
g69
(g70
g71
NtRp3425
(dp3426
g74
(dp3427
g82
I5
ssg83
g3421
sg76
(lp3428
S''
asbasbasbag69
(g85
g71
NtRp3429
(dp3430
g74
(dp3431
sg83
g3097
sg76
(lp3432
g69
(g90
g71
NtRp3433
(dp3434
g74
(dp3435
g94
g95
ssg83
g3429
sg76
(lp3436
S'generic_patterns'
p3437
asbag69
(g90
g71
NtRp3438
(dp3439
g74
(dp3440
g101
g102
ssg83
g3429
sg76
(lp3441
S':'
asbag69
(g90
g71
NtRp3442
(dp3443
g74
(dp3444
sg83
g3429
sg76
(lp3445
g69
(g70
g71
NtRp3446
(dp3447
g74
(dp3448
g82
I5
ssg83
g3442
sg76
(lp3449
g69
(g78
g71
NtRp3450
(dp3451
g74
(dp3452
g82
I4
ssg83
Nsg76
(lp3453
g69
(g85
g71
NtRp3454
(dp3455
g74
(dp3456
sg83
g3450
sg76
(lp3457
g69
(g90
g71
NtRp3458
(dp3459
g74
(dp3460
sg83
g3454
sg76
(lp3461
g69
(g70
g71
NtRp3462
(dp3463
g74
(dp3464
g82
I4
ssg83
g3458
sg76
(lp3465
S'*'
asbasbasbasbasbasbasbag69
(g85
g71
NtRp3466
(dp3467
g74
(dp3468
sg83
g3097
sg76
(lp3469
g69
(g90
g71
NtRp3470
(dp3471
g74
(dp3472
g94
g95
ssg83
g3466
sg76
(lp3473
S'google_analytics_id'
p3474
asbag69
(g90
g71
NtRp3475
(dp3476
g74
(dp3477
g101
g102
ssg83
g3466
sg76
(lp3478
S':'
asbag69
(g90
g71
NtRp3479
(dp3480
g74
(dp3481
sg83
g3466
sg76
(lp3482
g69
(g70
g71
NtRp3483
(dp3484
g74
(dp3485
g82
I5
ssg83
g3479
sg76
(lp3486
S'None'
p3487
asbasbasbag69
(g85
g71
NtRp3488
(dp3489
g74
(dp3490
sg83
g3097
sg76
(lp3491
g69
(g90
g71
NtRp3492
(dp3493
g74
(dp3494
g94
g95
ssg83
g3488
sg76
(lp3495
S'headers'
p3496
asbag69
(g90
g71
NtRp3497
(dp3498
g74
(dp3499
g101
g102
ssg83
g3488
sg76
(lp3500
S':'
asbag69
(g90
g71
NtRp3501
(dp3502
g74
(dp3503
sg83
g3488
sg76
(lp3504
g69
(g70
g71
NtRp3505
(dp3506
g74
(dp3507
g82
I5
ssg83
g3501
sg76
(lp3508
g69
(g78
g71
NtRp3509
(dp3510
g74
(dp3511
g82
I4
ssg83
Nsg76
(lp3512
g69
(g85
g71
NtRp3513
(dp3514
g74
(dp3515
sg83
g3509
sg76
(lp3516
g69
(g90
g71
NtRp3517
(dp3518
g74
(dp3519
g94
g95
ssg83
g3513
sg76
(lp3520
S'X-Powered-By'
p3521
asbag69
(g90
g71
NtRp3522
(dp3523
g74
(dp3524
g101
g102
ssg83
g3513
sg76
(lp3525
S':'
asbag69
(g90
g71
NtRp3526
(dp3527
g74
(dp3528
sg83
g3513
sg76
(lp3529
g69
(g70
g71
NtRp3530
(dp3531
g74
(dp3532
g82
I4
ssg83
g3526
sg76
(lp3533
S'web2py'
p3534
asbasbasbasbasbasbasbag69
(g85
g71
NtRp3535
(dp3536
g74
(dp3537
sg83
g3097
sg76
(lp3538
g69
(g90
g71
NtRp3539
(dp3540
g74
(dp3541
g94
g95
ssg83
g3535
sg76
(lp3542
S'logo'
p3543
asbag69
(g90
g71
NtRp3544
(dp3545
g74
(dp3546
g101
g102
ssg83
g3535
sg76
(lp3547
S':'
asbag69
(g90
g71
NtRp3548
(dp3549
g74
(dp3550
sg83
g3535
sg76
(lp3551
g69
(g70
g71
NtRp3552
(dp3553
g74
(dp3554
g82
I5
ssg83
g3548
sg76
(lp3555
g69
(cgluon.html
A
p3556
g71
NtRp3557
(dp3558
g74
(dp3559
S'_class'
p3560
S'brand'
p3561
sS'_href'
p3562
S'http://www.web2py.com/'
p3563
ssg83
Nsg76
(lp3564
g69
(cgluon.html
B
p3565
g71
NtRp3566
(dp3567
g74
(dp3568
sg83
g3557
sg76
(lp3569
S'web'
p3570
ag69
(cgluon.html
SPAN
p3571
g71
NtRp3572
(dp3573
g74
(dp3574
sg83
g3566
sg76
(lp3575
I2
asbaS'py'
p3576
asbacgluon.html
XML_unpickle
p3577
(S's\r\x00\x00\x00&trade;&nbsp;'
tRp3578
asbasbasbasbag69
(g85
g71
NtRp3579
(dp3580
g74
(dp3581
sg83
g3097
sg76
(lp3582
g69
(g90
g71
NtRp3583
(dp3584
g74
(dp3585
g94
g95
ssg83
g3579
sg76
(lp3586
S'menu'
p3587
asbag69
(g90
g71
NtRp3588
(dp3589
g74
(dp3590
g101
g102
ssg83
g3579
sg76
(lp3591
S':'
asbag69
(g90
g71
NtRp3592
(dp3593
g74
(dp3594
sg83
g3579
sg76
(lp3595
g69
(g70
g71
NtRp3596
(dp3597
g74
(dp3598
g82
I5
ssg83
g3592
sg76
(lp3599
g69
(g78
g71
NtRp3600
(dp3601
g74
(dp3602
g82
I4
ssg83
Nsg76
(lp3603
g69
(g85
g71
NtRp3604
(dp3605
g74
(dp3606
sg83
g3600
sg76
(lp3607
g69
(g90
g71
NtRp3608
(dp3609
g74
(dp3610
sg83
g3604
sg76
(lp3611
g69
(g70
g71
NtRp3612
(dp3613
g74
(dp3614
g82
I4
ssg83
g3608
sg76
(lp3615
g69
(g78
g71
NtRp3616
(dp3617
g74
(dp3618
g82
I3
ssg83
Nsg76
(lp3619
g69
(g85
g71
NtRp3620
(dp3621
g74
(dp3622
sg83
g3616
sg76
(lp3623
g69
(g90
g71
NtRp3624
(dp3625
g74
(dp3626
sg83
g3620
sg76
(lp3627
g69
(g70
g71
NtRp3628
(dp3629
g74
(dp3630
g82
I3
ssg83
g3624
sg76
(lp3631
cgluon.languages
lazyT_unpickle
p3632
(S's\x04\x00\x00\x00Home'
tRp3633
asbasbasbag69
(g85
g71
NtRp3634
(dp3635
g74
(dp3636
sg83
g3616
sg76
(lp3637
g69
(g90
g71
NtRp3638
(dp3639
g74
(dp3640
sg83
g3634
sg76
(lp3641
g69
(g70
g71
NtRp3642
(dp3643
g74
(dp3644
g82
I3
ssg83
g3638
sg76
(lp3645
g112
asbasbasbag69
(g85
g71
NtRp3646
(dp3647
g74
(dp3648
sg83
g3616
sg76
(lp3649
g69
(g90
g71
NtRp3650
(dp3651
g74
(dp3652
sg83
g3646
sg76
(lp3653
g69
(g70
g71
NtRp3654
(dp3655
g74
(dp3656
g82
I3
ssg83
g3650
sg76
(lp3657
S'/assignmen3/default/index'
p3658
asbasbasbag69
(g85
g71
NtRp3659
(dp3660
g74
(dp3661
sg83
g3616
sg76
(lp3662
g69
(g90
g71
NtRp3663
(dp3664
g74
(dp3665
sg83
g3659
sg76
(lp3666
g69
(g70
g71
NtRp3667
(dp3668
g74
(dp3669
g82
I3
ssg83
g3663
sg76
(lp3670
g69
(g78
g71
NtRp3671
(dp3672
g74
(dp3673
g82
I2
ssg83
Nsg76
(lp3674
sbasbasbasbasbasbasbasbag69
(g85
g71
NtRp3675
(dp3676
g74
(dp3677
sg83
g3600
sg76
(lp3678
g69
(g90
g71
NtRp3679
(dp3680
g74
(dp3681
sg83
g3675
sg76
(lp3682
g69
(g70
g71
NtRp3683
(dp3684
g74
(dp3685
g82
I4
ssg83
g3679
sg76
(lp3686
g69
(g78
g71
NtRp3687
(dp3688
g74
(dp3689
g82
I3
ssg83
Nsg76
(lp3690
g69
(g85
g71
NtRp3691
(dp3692
g74
(dp3693
sg83
g3687
sg76
(lp3694
g69
(g90
g71
NtRp3695
(dp3696
g74
(dp3697
sg83
g3691
sg76
(lp3698
g69
(g70
g71
NtRp3699
(dp3700
g74
(dp3701
g82
I3
ssg83
g3695
sg76
(lp3702
g3632
(S't\x07\x00\x00\x00Account'
tRp3703
asbasbasbag69
(g85
g71
NtRp3704
(dp3705
g74
(dp3706
sg83
g3687
sg76
(lp3707
g69
(g90
g71
NtRp3708
(dp3709
g74
(dp3710
sg83
g3704
sg76
(lp3711
g69
(g70
g71
NtRp3712
(dp3713
g74
(dp3714
g82
I3
ssg83
g3708
sg76
(lp3715
g112
asbasbasbag69
(g85
g71
NtRp3716
(dp3717
g74
(dp3718
sg83
g3687
sg76
(lp3719
g69
(g90
g71
NtRp3720
(dp3721
g74
(dp3722
sg83
g3716
sg76
(lp3723
g69
(g70
g71
NtRp3724
(dp3725
g74
(dp3726
g82
I3
ssg83
g3720
sg76
(lp3727
S'/assignmen3/default/login_to_account'
p3728
asbasbasbag69
(g85
g71
NtRp3729
(dp3730
g74
(dp3731
sg83
g3687
sg76
(lp3732
g69
(g90
g71
NtRp3733
(dp3734
g74
(dp3735
sg83
g3729
sg76
(lp3736
g69
(g70
g71
NtRp3737
(dp3738
g74
(dp3739
g82
I3
ssg83
g3733
sg76
(lp3740
g69
(g78
g71
NtRp3741
(dp3742
g74
(dp3743
g82
I2
ssg83
Nsg76
(lp3744
sbasbasbasbasbasbasbasbag69
(g85
g71
NtRp3745
(dp3746
g74
(dp3747
sg83
g3600
sg76
(lp3748
g69
(g90
g71
NtRp3749
(dp3750
g74
(dp3751
sg83
g3745
sg76
(lp3752
g69
(g70
g71
NtRp3753
(dp3754
g74
(dp3755
g82
I4
ssg83
g3749
sg76
(lp3756
g69
(g78
g71
NtRp3757
(dp3758
g74
(dp3759
g82
I3
ssg83
Nsg76
(lp3760
g69
(g85
g71
NtRp3761
(dp3762
g74
(dp3763
sg83
g3757
sg76
(lp3764
g69
(g90
g71
NtRp3765
(dp3766
g74
(dp3767
sg83
g3761
sg76
(lp3768
g69
(g70
g71
NtRp3769
(dp3770
g74
(dp3771
g82
I3
ssg83
g3765
sg76
(lp3772
g69
(g3571
g71
NtRp3773
(dp3774
g74
(dp3775
g3560
S'highlighted'
p3776
ssg83
Nsg76
(lp3777
g3534
asbasbasbasbag69
(g85
g71
NtRp3778
(dp3779
g74
(dp3780
sg83
g3757
sg76
(lp3781
g69
(g90
g71
NtRp3782
(dp3783
g74
(dp3784
sg83
g3778
sg76
(lp3785
g69
(g70
g71
NtRp3786
(dp3787
g74
(dp3788
g82
I3
ssg83
g3782
sg76
(lp3789
g112
asbasbasbag69
(g85
g71
NtRp3790
(dp3791
g74
(dp3792
sg83
g3757
sg76
(lp3793
g69
(g90
g71
NtRp3794
(dp3795
g74
(dp3796
sg83
g3790
sg76
(lp3797
g69
(g70
g71
NtRp3798
(dp3799
g74
(dp3800
g82
I3
ssg83
g3794
sg76
(lp3801
S'http://web2py.com'
p3802
asbasbasbag69
(g85
g71
NtRp3803
(dp3804
g74
(dp3805
sg83
g3757
sg76
(lp3806
g69
(g90
g71
NtRp3807
(dp3808
g74
(dp3809
sg83
g3803
sg76
(lp3810
g69
(g70
g71
NtRp3811
(dp3812
g74
(dp3813
g82
I3
ssg83
g3807
sg76
(lp3814
g69
(g78
g71
NtRp3815
(dp3816
g74
(dp3817
g82
I2
ssg83
Nsg76
(lp3818
g69
(g85
g71
NtRp3819
(dp3820
g74
(dp3821
sg83
g3815
sg76
(lp3822
g69
(g90
g71
NtRp3823
(dp3824
g74
(dp3825
sg83
g3819
sg76
(lp3826
g69
(g70
g71
NtRp3827
(dp3828
g74
(dp3829
g82
I2
ssg83
g3823
sg76
(lp3830
g69
(g78
g71
NtRp3831
(dp3832
g74
(dp3833
g82
I1
ssg83
Nsg76
(lp3834
g69
(g85
g71
NtRp3835
(dp3836
g74
(dp3837
sg83
g3831
sg76
(lp3838
g69
(g90
g71
NtRp3839
(dp3840
g74
(dp3841
sg83
g3835
sg76
(lp3842
g69
(g70
g71
NtRp3843
(dp3844
g74
(dp3845
g82
I1
ssg83
g3839
sg76
(lp3846
g3632
(S's\x08\x00\x00\x00My Sites'
tRp3847
asbasbasbag69
(g85
g71
NtRp3848
(dp3849
g74
(dp3850
sg83
g3831
sg76
(lp3851
g69
(g90
g71
NtRp3852
(dp3853
g74
(dp3854
sg83
g3848
sg76
(lp3855
g69
(g70
g71
NtRp3856
(dp3857
g74
(dp3858
g82
I1
ssg83
g3852
sg76
(lp3859
I00
asbasbasbag69
(g85
g71
NtRp3860
(dp3861
g74
(dp3862
sg83
g3831
sg76
(lp3863
g69
(g90
g71
NtRp3864
(dp3865
g74
(dp3866
sg83
g3860
sg76
(lp3867
g69
(g70
g71
NtRp3868
(dp3869
g74
(dp3870
g82
I1
ssg83
g3864
sg76
(lp3871
S'/admin/default/site'
p3872
asbasbasbasbasbasbasbag69
(g85
g71
NtRp3873
(dp3874
g74
(dp3875
sg83
g3815
sg76
(lp3876
g69
(g90
g71
NtRp3877
(dp3878
g74
(dp3879
sg83
g3873
sg76
(lp3880
g69
(g70
g71
NtRp3881
(dp3882
g74
(dp3883
g82
I2
ssg83
g3877
sg76
(lp3884
g69
(g78
g71
NtRp3885
(dp3886
g74
(dp3887
g82
I1
ssg83
Nsg76
(lp3888
g69
(g85
g71
NtRp3889
(dp3890
g74
(dp3891
sg83
g3885
sg76
(lp3892
g69
(g90
g71
NtRp3893
(dp3894
g74
(dp3895
sg83
g3889
sg76
(lp3896
g69
(g70
g71
NtRp3897
(dp3898
g74
(dp3899
g82
I1
ssg83
g3893
sg76
(lp3900
g3632
(S's\x08\x00\x00\x00This App'
tRp3901
asbasbasbag69
(g85
g71
NtRp3902
(dp3903
g74
(dp3904
sg83
g3885
sg76
(lp3905
g69
(g90
g71
NtRp3906
(dp3907
g74
(dp3908
sg83
g3902
sg76
(lp3909
g69
(g70
g71
NtRp3910
(dp3911
g74
(dp3912
g82
I1
ssg83
g3906
sg76
(lp3913
I00
asbasbasbag69
(g85
g71
NtRp3914
(dp3915
g74
(dp3916
sg83
g3885
sg76
(lp3917
g69
(g90
g71
NtRp3918
(dp3919
g74
(dp3920
sg83
g3914
sg76
(lp3921
g69
(g70
g71
NtRp3922
(dp3923
g74
(dp3924
g82
I1
ssg83
g3918
sg76
(lp3925
S'/admin/default/design/assignmen3'
p3926
asbasbasbag69
(g85
g71
NtRp3927
(dp3928
g74
(dp3929
sg83
g3885
sg76
(lp3930
g69
(g90
g71
NtRp3931
(dp3932
g74
(dp3933
sg83
g3927
sg76
(lp3934
g69
(g70
g71
NtRp3935
(dp3936
g74
(dp3937
g82
I1
ssg83
g3931
sg76
(lp3938
(lp3939
(g3632
(S's\n\x00\x00\x00Controller'
tRp3940
I00
S'/admin/default/edit/assignmen3/controllers/default.py'
tp3941
a(g3632
(S's\x04\x00\x00\x00View'
tRp3942
I00
S'/admin/default/edit/assignmen3/views/default/index.html'
tp3943
a(g3632
(S's\x06\x00\x00\x00Layout'
tRp3944
I00
S'/admin/default/edit/assignmen3/views/layout.html'
tp3945
a(g3632
(S's\n\x00\x00\x00Stylesheet'
tRp3946
I00
S'/admin/default/edit/assignmen3/static/css/web2py.css'
tp3947
a(g3632
(S's\x08\x00\x00\x00DB Model'
tRp3948
I00
S'/admin/default/edit/assignmen3/models/db.py'
tp3949
a(g3632
(S's\n\x00\x00\x00Menu Model'
tRp3950
I00
S'/admin/default/edit/assignmen3/models/menu.py'
tp3951
a(g3632
(S's\x08\x00\x00\x00Database'
tRp3952
I00
S'/assignmen3/appadmin/index'
tp3953
a(g3632
(S's\x06\x00\x00\x00Errors'
tRp3954
I00
S'/admin/default/errors/assignmen3'
tp3955
a(g3632
(S's\x05\x00\x00\x00About'
tRp3956
I00
S'/admin/default/about/assignmen3'
tp3957
aasbasbasbasbasbasbasbag69
(g85
g71
NtRp3958
(dp3959
g74
(dp3960
sg83
g3815
sg76
(lp3961
g69
(g90
g71
NtRp3962
(dp3963
g74
(dp3964
sg83
g3958
sg76
(lp3965
g69
(g70
g71
NtRp3966
(dp3967
g74
(dp3968
g82
I2
ssg83
g3962
sg76
(lp3969
g69
(g78
g71
NtRp3970
(dp3971
g74
(dp3972
g82
I1
ssg83
Nsg76
(lp3973
g69
(g85
g71
NtRp3974
(dp3975
g74
(dp3976
sg83
g3970
sg76
(lp3977
g69
(g90
g71
NtRp3978
(dp3979
g74
(dp3980
sg83
g3974
sg76
(lp3981
g69
(g70
g71
NtRp3982
(dp3983
g74
(dp3984
g82
I1
ssg83
g3978
sg76
(lp3985
S'web2py.com'
p3986
asbasbasbag69
(g85
g71
NtRp3987
(dp3988
g74
(dp3989
sg83
g3970
sg76
(lp3990
g69
(g90
g71
NtRp3991
(dp3992
g74
(dp3993
sg83
g3987
sg76
(lp3994
g69
(g70
g71
NtRp3995
(dp3996
g74
(dp3997
g82
I1
ssg83
g3991
sg76
(lp3998
I00
asbasbasbag69
(g85
g71
NtRp3999
(dp4000
g74
(dp4001
sg83
g3970
sg76
(lp4002
g69
(g90
g71
NtRp4003
(dp4004
g74
(dp4005
sg83
g3999
sg76
(lp4006
g69
(g70
g71
NtRp4007
(dp4008
g74
(dp4009
g82
I1
ssg83
g4003
sg76
(lp4010
S'http://www.web2py.com'
p4011
asbasbasbag69
(g85
g71
NtRp4012
(dp4013
g74
(dp4014
sg83
g3970
sg76
(lp4015
g69
(g90
g71
NtRp4016
(dp4017
g74
(dp4018
sg83
g4012
sg76
(lp4019
g69
(g70
g71
NtRp4020
(dp4021
g74
(dp4022
g82
I1
ssg83
g4016
sg76
(lp4023
(lp4024
(g3632
(S's\x08\x00\x00\x00Download'
tRp4025
I00
S'http://www.web2py.com/examples/default/download'
p4026
tp4027
a(g3632
(S's\x07\x00\x00\x00Support'
tRp4028
I00
S'http://www.web2py.com/examples/default/support'
p4029
tp4030
a(g3632
(S's\x04\x00\x00\x00Demo'
tRp4031
I00
S'http://web2py.com/demo_admin'
p4032
tp4033
a(g3632
(S's\x0e\x00\x00\x00Quick Examples'
tRp4034
I00
S'http://web2py.com/examples/default/examples'
p4035
tp4036
a(g3632
(S's\x03\x00\x00\x00FAQ'
tRp4037
I00
S'http://web2py.com/AlterEgo'
p4038
tp4039
a(g3632
(S's\x06\x00\x00\x00Videos'
tRp4040
I00
S'http://www.web2py.com/examples/default/videos/'
p4041
tp4042
a(g3632
(S's\x11\x00\x00\x00Free Applications'
tRp4043
I00
S'http://web2py.com/appliances'
p4044
tp4045
a(g3632
(S's\x07\x00\x00\x00Plugins'
tRp4046
I00
S'http://web2py.com/plugins'
p4047
tp4048
a(g3632
(S's\x07\x00\x00\x00Layouts'
tRp4049
I00
S'http://web2py.com/layouts'
p4050
tp4051
a(g3632
(S's\x07\x00\x00\x00Recipes'
tRp4052
I00
S'http://web2pyslices.com/'
p4053
tp4054
a(g3632
(S's\x08\x00\x00\x00Semantic'
tRp4055
I00
S'http://web2py.com/semantic'
p4056
tp4057
aasbasbasbasbasbasbasbag69
(g85
g71
NtRp4058
(dp4059
g74
(dp4060
sg83
g3815
sg76
(lp4061
g69
(g90
g71
NtRp4062
(dp4063
g74
(dp4064
sg83
g4058
sg76
(lp4065
g69
(g70
g71
NtRp4066
(dp4067
g74
(dp4068
g82
I2
ssg83
g4062
sg76
(lp4069
g69
(g78
g71
NtRp4070
(dp4071
g74
(dp4072
g82
I1
ssg83
Nsg76
(lp4073
g69
(g85
g71
NtRp4074
(dp4075
g74
(dp4076
sg83
g4070
sg76
(lp4077
g69
(g90
g71
NtRp4078
(dp4079
g74
(dp4080
sg83
g4074
sg76
(lp4081
g69
(g70
g71
NtRp4082
(dp4083
g74
(dp4084
g82
I1
ssg83
g4078
sg76
(lp4085
g3632
(S's\r\x00\x00\x00Documentation'
tRp4086
asbasbasbag69
(g85
g71
NtRp4087
(dp4088
g74
(dp4089
sg83
g4070
sg76
(lp4090
g69
(g90
g71
NtRp4091
(dp4092
g74
(dp4093
sg83
g4087
sg76
(lp4094
g69
(g70
g71
NtRp4095
(dp4096
g74
(dp4097
g82
I1
ssg83
g4091
sg76
(lp4098
I00
asbasbasbag69
(g85
g71
NtRp4099
(dp4100
g74
(dp4101
sg83
g4070
sg76
(lp4102
g69
(g90
g71
NtRp4103
(dp4104
g74
(dp4105
sg83
g4099
sg76
(lp4106
g69
(g70
g71
NtRp4107
(dp4108
g74
(dp4109
g82
I1
ssg83
g4103
sg76
(lp4110
S'http://www.web2py.com/book'
p4111
asbasbasbag69
(g85
g71
NtRp4112
(dp4113
g74
(dp4114
sg83
g4070
sg76
(lp4115
g69
(g90
g71
NtRp4116
(dp4117
g74
(dp4118
sg83
g4112
sg76
(lp4119
g69
(g70
g71
NtRp4120
(dp4121
g74
(dp4122
g82
I1
ssg83
g4116
sg76
(lp4123
(lp4124
(g3632
(S's\x07\x00\x00\x00Preface'
tRp4125
I00
S'http://www.web2py.com/book/default/chapter/00'
p4126
tp4127
a(g3632
(S's\x0c\x00\x00\x00Introduction'
tRp4128
I00
S'http://www.web2py.com/book/default/chapter/01'
p4129
tp4130
a(g3632
(S's\x06\x00\x00\x00Python'
tRp4131
I00
S'http://www.web2py.com/book/default/chapter/02'
p4132
tp4133
a(g3632
(S's\x08\x00\x00\x00Overview'
tRp4134
I00
S'http://www.web2py.com/book/default/chapter/03'
p4135
tp4136
a(g3632
(S's\x08\x00\x00\x00The Core'
tRp4137
I00
S'http://www.web2py.com/book/default/chapter/04'
p4138
tp4139
a(g3632
(S's\t\x00\x00\x00The Views'
tRp4140
I00
S'http://www.web2py.com/book/default/chapter/05'
p4141
tp4142
a(g3632
(S's\x08\x00\x00\x00Database'
tRp4143
I00
S'http://www.web2py.com/book/default/chapter/06'
p4144
tp4145
a(g3632
(S's\x14\x00\x00\x00Forms and Validators'
tRp4146
I00
S'http://www.web2py.com/book/default/chapter/07'
p4147
tp4148
a(g3632
(S's\r\x00\x00\x00Email and SMS'
tRp4149
I00
S'http://www.web2py.com/book/default/chapter/08'
p4150
tp4151
a(g3632
(S's\x0e\x00\x00\x00Access Control'
tRp4152
I00
S'http://www.web2py.com/book/default/chapter/09'
p4153
tp4154
a(g3632
(S's\x08\x00\x00\x00Services'
tRp4155
I00
S'http://www.web2py.com/book/default/chapter/10'
p4156
tp4157
a(g3632
(S's\x0c\x00\x00\x00Ajax Recipes'
tRp4158
I00
S'http://www.web2py.com/book/default/chapter/11'
p4159
tp4160
a(g3632
(S's\x16\x00\x00\x00Components and Plugins'
tRp4161
I00
S'http://www.web2py.com/book/default/chapter/12'
p4162
tp4163
a(g3632
(S's\x12\x00\x00\x00Deployment Recipes'
tRp4164
I00
S'http://www.web2py.com/book/default/chapter/13'
p4165
tp4166
a(g3632
(S's\r\x00\x00\x00Other Recipes'
tRp4167
I00
S'http://www.web2py.com/book/default/chapter/14'
p4168
tp4169
a(g3632
(S's\r\x00\x00\x00Buy this book'
tRp4170
I00
S'http://stores.lulu.com/web2py'
p4171
tp4172
aasbasbasbasbasbasbasbag69
(g85
g71
NtRp4173
(dp4174
g74
(dp4175
sg83
g3815
sg76
(lp4176
g69
(g90
g71
NtRp4177
(dp4178
g74
(dp4179
sg83
g4173
sg76
(lp4180
g69
(g70
g71
NtRp4181
(dp4182
g74
(dp4183
g82
I2
ssg83
g4177
sg76
(lp4184
g69
(g78
g71
NtRp4185
(dp4186
g74
(dp4187
g82
I1
ssg83
Nsg76
(lp4188
g69
(g85
g71
NtRp4189
(dp4190
g74
(dp4191
sg83
g4185
sg76
(lp4192
g69
(g90
g71
NtRp4193
(dp4194
g74
(dp4195
sg83
g4189
sg76
(lp4196
g69
(g70
g71
NtRp4197
(dp4198
g74
(dp4199
g82
I1
ssg83
g4193
sg76
(lp4200
g3632
(S's\t\x00\x00\x00Community'
tRp4201
asbasbasbag69
(g85
g71
NtRp4202
(dp4203
g74
(dp4204
sg83
g4185
sg76
(lp4205
g69
(g90
g71
NtRp4206
(dp4207
g74
(dp4208
sg83
g4202
sg76
(lp4209
g69
(g70
g71
NtRp4210
(dp4211
g74
(dp4212
g82
I1
ssg83
g4206
sg76
(lp4213
I00
asbasbasbag69
(g85
g71
NtRp4214
(dp4215
g74
(dp4216
sg83
g4185
sg76
(lp4217
g69
(g90
g71
NtRp4218
(dp4219
g74
(dp4220
sg83
g4214
sg76
(lp4221
g69
(g70
g71
NtRp4222
(dp4223
g74
(dp4224
g82
I1
ssg83
g4218
sg76
(lp4225
Nasbasbasbag69
(g85
g71
NtRp4226
(dp4227
g74
(dp4228
sg83
g4185
sg76
(lp4229
g69
(g90
g71
NtRp4230
(dp4231
g74
(dp4232
sg83
g4226
sg76
(lp4233
g69
(g70
g71
NtRp4234
(dp4235
g74
(dp4236
g82
I1
ssg83
g4230
sg76
(lp4237
(lp4238
(g3632
(S's\x06\x00\x00\x00Groups'
tRp4239
I00
S'http://www.web2py.com/examples/default/usergroups'
p4240
tp4241
a(g3632
(S's\x07\x00\x00\x00Twitter'
tRp4242
I00
S'http://twitter.com/web2py'
p4243
tp4244
a(g3632
(S's\t\x00\x00\x00Live Chat'
tRp4245
I00
S'http://webchat.freenode.net/?channels=web2py'
p4246
tp4247
aasbasbasbasbasbasbasbag69
(g85
g71
NtRp4248
(dp4249
g74
(dp4250
sg83
g3815
sg76
(lp4251
g69
(g90
g71
NtRp4252
(dp4253
g74
(dp4254
sg83
g4248
sg76
(lp4255
g69
(g70
g71
NtRp4256
(dp4257
g74
(dp4258
g82
I2
ssg83
g4252
sg76
(lp4259
g69
(g78
g71
NtRp4260
(dp4261
g74
(dp4262
g82
I1
ssg83
Nsg76
(lp4263
g69
(g85
g71
NtRp4264
(dp4265
g74
(dp4266
sg83
g4260
sg76
(lp4267
g69
(g90
g71
NtRp4268
(dp4269
g74
(dp4270
sg83
g4264
sg76
(lp4271
g69
(g70
g71
NtRp4272
(dp4273
g74
(dp4274
g82
I1
ssg83
g4268
sg76
(lp4275
g3632
(S's\x07\x00\x00\x00Plugins'
tRp4276
asbasbasbag69
(g85
g71
NtRp4277
(dp4278
g74
(dp4279
sg83
g4260
sg76
(lp4280
g69
(g90
g71
NtRp4281
(dp4282
g74
(dp4283
sg83
g4277
sg76
(lp4284
g69
(g70
g71
NtRp4285
(dp4286
g74
(dp4287
g82
I1
ssg83
g4281
sg76
(lp4288
I00
asbasbasbag69
(g85
g71
NtRp4289
(dp4290
g74
(dp4291
sg83
g4260
sg76
(lp4292
g69
(g90
g71
NtRp4293
(dp4294
g74
(dp4295
sg83
g4289
sg76
(lp4296
g69
(g70
g71
NtRp4297
(dp4298
g74
(dp4299
g82
I1
ssg83
g4293
sg76
(lp4300
Nasbasbasbag69
(g85
g71
NtRp4301
(dp4302
g74
(dp4303
sg83
g4260
sg76
(lp4304
g69
(g90
g71
NtRp4305
(dp4306
g74
(dp4307
sg83
g4301
sg76
(lp4308
g69
(g70
g71
NtRp4309
(dp4310
g74
(dp4311
g82
I1
ssg83
g4305
sg76
(lp4312
(lp4313
(S'plugin_wiki'
p4314
I00
S'http://web2py.com/examples/default/download'
p4315
tp4316
a(g3632
(S's\r\x00\x00\x00Other Plugins'
tRp4317
I00
g4047
tp4318
a(g3632
(S's\x0e\x00\x00\x00Layout Plugins'
tRp4319
I00
g4050
tp4320
aasbasbasbasbasbasbasbasbasbasbasbasbasbasbasbasbasbasbasbag69
(g85
g71
NtRp4321
(dp4322
g74
(dp4323
sg83
g3097
sg76
(lp4324
g69
(g90
g71
NtRp4325
(dp4326
g74
(dp4327
g94
g95
ssg83
g4321
sg76
(lp4328
S'meta'
p4329
asbag69
(g90
g71
NtRp4330
(dp4331
g74
(dp4332
g101
g102
ssg83
g4321
sg76
(lp4333
S':'
asbag69
(g90
g71
NtRp4334
(dp4335
g74
(dp4336
sg83
g4321
sg76
(lp4337
g69
(g70
g71
NtRp4338
(dp4339
g74
(dp4340
g82
I5
ssg83
g4334
sg76
(lp4341
g69
(g78
g71
NtRp4342
(dp4343
g74
(dp4344
g82
I4
ssg83
Nsg76
(lp4345
g69
(g85
g71
NtRp4346
(dp4347
g74
(dp4348
sg83
g4342
sg76
(lp4349
g69
(g90
g71
NtRp4350
(dp4351
g74
(dp4352
g94
g95
ssg83
g4346
sg76
(lp4353
S'author'
p4354
asbag69
(g90
g71
NtRp4355
(dp4356
g74
(dp4357
g101
g102
ssg83
g4346
sg76
(lp4358
S':'
asbag69
(g90
g71
NtRp4359
(dp4360
g74
(dp4361
sg83
g4346
sg76
(lp4362
g69
(g70
g71
NtRp4363
(dp4364
g74
(dp4365
g82
I4
ssg83
g4359
sg76
(lp4366
S'Your Name <you@example.com>'
p4367
asbasbasbag69
(g85
g71
NtRp4368
(dp4369
g74
(dp4370
sg83
g4342
sg76
(lp4371
g69
(g90
g71
NtRp4372
(dp4373
g74
(dp4374
g94
g95
ssg83
g4368
sg76
(lp4375
S'description'
p4376
asbag69
(g90
g71
NtRp4377
(dp4378
g74
(dp4379
g101
g102
ssg83
g4368
sg76
(lp4380
S':'
asbag69
(g90
g71
NtRp4381
(dp4382
g74
(dp4383
sg83
g4368
sg76
(lp4384
g69
(g70
g71
NtRp4385
(dp4386
g74
(dp4387
g82
I4
ssg83
g4381
sg76
(lp4388
S'a cool new app'
p4389
asbasbasbag69
(g85
g71
NtRp4390
(dp4391
g74
(dp4392
sg83
g4342
sg76
(lp4393
g69
(g90
g71
NtRp4394
(dp4395
g74
(dp4396
g94
g95
ssg83
g4390
sg76
(lp4397
S'generator'
p4398
asbag69
(g90
g71
NtRp4399
(dp4400
g74
(dp4401
g101
g102
ssg83
g4390
sg76
(lp4402
S':'
asbag69
(g90
g71
NtRp4403
(dp4404
g74
(dp4405
sg83
g4390
sg76
(lp4406
g69
(g70
g71
NtRp4407
(dp4408
g74
(dp4409
g82
I4
ssg83
g4403
sg76
(lp4410
S'Web2py Web Framework'
p4411
asbasbasbag69
(g85
g71
NtRp4412
(dp4413
g74
(dp4414
sg83
g4342
sg76
(lp4415
g69
(g90
g71
NtRp4416
(dp4417
g74
(dp4418
g94
g95
ssg83
g4412
sg76
(lp4419
S'keywords'
p4420
asbag69
(g90
g71
NtRp4421
(dp4422
g74
(dp4423
g101
g102
ssg83
g4412
sg76
(lp4424
S':'
asbag69
(g90
g71
NtRp4425
(dp4426
g74
(dp4427
sg83
g4412
sg76
(lp4428
g69
(g70
g71
NtRp4429
(dp4430
g74
(dp4431
g82
I4
ssg83
g4425
sg76
(lp4432
S'web2py, python, framework'
p4433
asbasbasbasbasbasbasbag69
(g85
g71
NtRp4434
(dp4435
g74
(dp4436
sg83
g3097
sg76
(lp4437
g69
(g90
g71
NtRp4438
(dp4439
g74
(dp4440
g94
g95
ssg83
g4434
sg76
(lp4441
S'models_to_run'
p4442
asbag69
(g90
g71
NtRp4443
(dp4444
g74
(dp4445
g101
g102
ssg83
g4434
sg76
(lp4446
S':'
asbag69
(g90
g71
NtRp4447
(dp4448
g74
(dp4449
sg83
g4434
sg76
(lp4450
g69
(g70
g71
NtRp4451
(dp4452
g74
(dp4453
g82
I5
ssg83
g4447
sg76
(lp4454
g69
(g78
g71
NtRp4455
(dp4456
g74
(dp4457
g82
I4
ssg83
Nsg76
(lp4458
g69
(g85
g71
NtRp4459
(dp4460
g74
(dp4461
sg83
g4455
sg76
(lp4462
g69
(g90
g71
NtRp4463
(dp4464
g74
(dp4465
sg83
g4459
sg76
(lp4466
g69
(g70
g71
NtRp4467
(dp4468
g74
(dp4469
g82
I4
ssg83
g4463
sg76
(lp4470
S'^\\w+\\.py$'
p4471
asbasbasbag69
(g85
g71
NtRp4472
(dp4473
g74
(dp4474
sg83
g4455
sg76
(lp4475
g69
(g90
g71
NtRp4476
(dp4477
g74
(dp4478
sg83
g4472
sg76
(lp4479
g69
(g70
g71
NtRp4480
(dp4481
g74
(dp4482
g82
I4
ssg83
g4476
sg76
(lp4483
S'^default/\\w+\\.py$'
p4484
asbasbasbag69
(g85
g71
NtRp4485
(dp4486
g74
(dp4487
sg83
g4455
sg76
(lp4488
g69
(g90
g71
NtRp4489
(dp4490
g74
(dp4491
sg83
g4485
sg76
(lp4492
g69
(g70
g71
NtRp4493
(dp4494
g74
(dp4495
g82
I4
ssg83
g4489
sg76
(lp4496
S'^default/index/\\w+\\.py$'
p4497
asbasbasbasbasbasbasbag69
(g85
g71
NtRp4498
(dp4499
g74
(dp4500
sg83
g3097
sg76
(lp4501
g69
(g90
g71
NtRp4502
(dp4503
g74
(dp4504
g94
g95
ssg83
g4498
sg76
(lp4505
S'postprocessing'
p4506
asbag69
(g90
g71
NtRp4507
(dp4508
g74
(dp4509
g101
g102
ssg83
g4498
sg76
(lp4510
S':'
asbag69
(g90
g71
NtRp4511
(dp4512
g74
(dp4513
sg83
g4498
sg76
(lp4514
g69
(g70
g71
NtRp4515
(dp4516
g74
(dp4517
g82
I5
ssg83
g4511
sg76
(lp4518
g69
(g78
g71
NtRp4519
(dp4520
g74
(dp4521
g82
I4
ssg83
Nsg76
(lp4522
sbasbasbasbag69
(g85
g71
NtRp4523
(dp4524
g74
(dp4525
sg83
g3097
sg76
(lp4526
g69
(g90
g71
NtRp4527
(dp4528
g74
(dp4529
g94
g95
ssg83
g4523
sg76
(lp4530
S'session_cookie_expires'
p4531
asbag69
(g90
g71
NtRp4532
(dp4533
g74
(dp4534
g101
g102
ssg83
g4523
sg76
(lp4535
S':'
asbag69
(g90
g71
NtRp4536
(dp4537
g74
(dp4538
sg83
g4523
sg76
(lp4539
g69
(g70
g71
NtRp4540
(dp4541
g74
(dp4542
g82
I5
ssg83
g4536
sg76
(lp4543
S'None'
p4544
asbasbasbag69
(g85
g71
NtRp4545
(dp4546
g74
(dp4547
sg83
g3097
sg76
(lp4548
g69
(g90
g71
NtRp4549
(dp4550
g74
(dp4551
g94
g95
ssg83
g4545
sg76
(lp4552
S'session_data_name'
p4553
asbag69
(g90
g71
NtRp4554
(dp4555
g74
(dp4556
g101
g102
ssg83
g4545
sg76
(lp4557
S':'
asbag69
(g90
g71
NtRp4558
(dp4559
g74
(dp4560
sg83
g4545
sg76
(lp4561
g69
(g70
g71
NtRp4562
(dp4563
g74
(dp4564
g82
I5
ssg83
g4558
sg76
(lp4565
S'session_data_assignmen3'
p4566
asbasbasbag69
(g85
g71
NtRp4567
(dp4568
g74
(dp4569
sg83
g3097
sg76
(lp4570
g69
(g90
g71
NtRp4571
(dp4572
g74
(dp4573
g94
g95
ssg83
g4567
sg76
(lp4574
S'session_filename'
p4575
asbag69
(g90
g71
NtRp4576
(dp4577
g74
(dp4578
g101
g102
ssg83
g4567
sg76
(lp4579
S':'
asbag69
(g90
g71
NtRp4580
(dp4581
g74
(dp4582
sg83
g4567
sg76
(lp4583
g69
(g70
g71
NtRp4584
(dp4585
g74
(dp4586
g82
I5
ssg83
g4580
sg76
(lp4587
S'/home/umang/web2py/applications/assignmen3/sessions/127.0.0.1-302b1188-8bf8-46c5-b3ff-ec1abdd584b8'
p4588
asbasbasbag69
(g85
g71
NtRp4589
(dp4590
g74
(dp4591
sg83
g3097
sg76
(lp4592
g69
(g90
g71
NtRp4593
(dp4594
g74
(dp4595
g94
g95
ssg83
g4589
sg76
(lp4596
S'session_id'
p4597
asbag69
(g90
g71
NtRp4598
(dp4599
g74
(dp4600
g101
g102
ssg83
g4589
sg76
(lp4601
S':'
asbag69
(g90
g71
NtRp4602
(dp4603
g74
(dp4604
sg83
g4589
sg76
(lp4605
g69
(g70
g71
NtRp4606
(dp4607
g74
(dp4608
g82
I5
ssg83
g4602
sg76
(lp4609
g3167
asbasbasbag69
(g85
g71
NtRp4610
(dp4611
g74
(dp4612
sg83
g3097
sg76
(lp4613
g69
(g90
g71
NtRp4614
(dp4615
g74
(dp4616
g94
g95
ssg83
g4610
sg76
(lp4617
S'session_id_name'
p4618
asbag69
(g90
g71
NtRp4619
(dp4620
g74
(dp4621
g101
g102
ssg83
g4610
sg76
(lp4622
S':'
asbag69
(g90
g71
NtRp4623
(dp4624
g74
(dp4625
sg83
g4610
sg76
(lp4626
g69
(g70
g71
NtRp4627
(dp4628
g74
(dp4629
g82
I5
ssg83
g4623
sg76
(lp4630
g3154
asbasbasbag69
(g85
g71
NtRp4631
(dp4632
g74
(dp4633
sg83
g3097
sg76
(lp4634
g69
(g90
g71
NtRp4635
(dp4636
g74
(dp4637
g94
g95
ssg83
g4631
sg76
(lp4638
S'session_new'
p4639
asbag69
(g90
g71
NtRp4640
(dp4641
g74
(dp4642
g101
g102
ssg83
g4631
sg76
(lp4643
S':'
asbag69
(g90
g71
NtRp4644
(dp4645
g74
(dp4646
sg83
g4631
sg76
(lp4647
g69
(g70
g71
NtRp4648
(dp4649
g74
(dp4650
g82
I5
ssg83
g4644
sg76
(lp4651
g1595
asbasbasbag69
(g85
g71
NtRp4652
(dp4653
g74
(dp4654
sg83
g3097
sg76
(lp4655
g69
(g90
g71
NtRp4656
(dp4657
g74
(dp4658
g94
g95
ssg83
g4652
sg76
(lp4659
S'session_storage_type'
p4660
asbag69
(g90
g71
NtRp4661
(dp4662
g74
(dp4663
g101
g102
ssg83
g4652
sg76
(lp4664
S':'
asbag69
(g90
g71
NtRp4665
(dp4666
g74
(dp4667
sg83
g4652
sg76
(lp4668
g69
(g70
g71
NtRp4669
(dp4670
g74
(dp4671
g82
I5
ssg83
g4665
sg76
(lp4672
g3026
asbasbasbag69
(g85
g71
NtRp4673
(dp4674
g74
(dp4675
sg83
g3097
sg76
(lp4676
g69
(g90
g71
NtRp4677
(dp4678
g74
(dp4679
g94
g95
ssg83
g4673
sg76
(lp4680
S'status'
p4681
asbag69
(g90
g71
NtRp4682
(dp4683
g74
(dp4684
g101
g102
ssg83
g4673
sg76
(lp4685
S':'
asbag69
(g90
g71
NtRp4686
(dp4687
g74
(dp4688
sg83
g4673
sg76
(lp4689
g69
(g70
g71
NtRp4690
(dp4691
g74
(dp4692
g82
I5
ssg83
g4686
sg76
(lp4693
S'200'
p4694
asbasbasbag69
(g85
g71
NtRp4695
(dp4696
g74
(dp4697
sg83
g3097
sg76
(lp4698
g69
(g90
g71
NtRp4699
(dp4700
g74
(dp4701
g94
g95
ssg83
g4695
sg76
(lp4702
S'subtitle'
p4703
asbag69
(g90
g71
NtRp4704
(dp4705
g74
(dp4706
g101
g102
ssg83
g4695
sg76
(lp4707
S':'
asbag69
(g90
g71
NtRp4708
(dp4709
g74
(dp4710
sg83
g4695
sg76
(lp4711
g69
(g70
g71
NtRp4712
(dp4713
g74
(dp4714
g82
I5
ssg83
g4708
sg76
(lp4715
g3632
(S's\r\x00\x00\x00customize me!'
tRp4716
asbasbasbag69
(g85
g71
NtRp4717
(dp4718
g74
(dp4719
sg83
g3097
sg76
(lp4720
g69
(g90
g71
NtRp4721
(dp4722
g74
(dp4723
g94
g95
ssg83
g4717
sg76
(lp4724
S'title'
p4725
asbag69
(g90
g71
NtRp4726
(dp4727
g74
(dp4728
g101
g102
ssg83
g4717
sg76
(lp4729
S':'
asbag69
(g90
g71
NtRp4730
(dp4731
g74
(dp4732
sg83
g4717
sg76
(lp4733
g69
(g70
g71
NtRp4734
(dp4735
g74
(dp4736
g82
I5
ssg83
g4730
sg76
(lp4737
S'Assignmen3'
p4738
asbasbasbag69
(g85
g71
NtRp4739
(dp4740
g74
(dp4741
sg83
g3097
sg76
(lp4742
g69
(g90
g71
NtRp4743
(dp4744
g74
(dp4745
g94
g95
ssg83
g4739
sg76
(lp4746
S'view'
p4747
asbag69
(g90
g71
NtRp4748
(dp4749
g74
(dp4750
g101
g102
ssg83
g4739
sg76
(lp4751
S':'
asbag69
(g90
g71
NtRp4752
(dp4753
g74
(dp4754
sg83
g4739
sg76
(lp4755
g69
(g70
g71
NtRp4756
(dp4757
g74
(dp4758
g82
I5
ssg83
g4752
sg76
(lp4759
S'default/index.html'
p4760
asbasbasbasbasbsS'locals'
p4761
(dp4762
g4
S"'/home/umang/web2py/applications/assignmen3/controllers/default.py'"
p4763
sg6
S"'# -*- coding: utf-8 -*-\\n# this file is released ...=crud())\\n\\nresponse._vars=response._caller(index)\\n'"
p4764
sssS'traceback'
p4765
S'Traceback (most recent call last):\n  File "/home/umang/web2py/gluon/restricted.py", line 211, in restricted\n    ccode = compile2(code, layer)\n  File "/home/umang/web2py/gluon/restricted.py", line 194, in compile2\n    return compile(code.rstrip().replace(\'\\r\\n\', \'\\n\') + \'\\n\', layer, \'exec\')\n  File "/home/umang/web2py/applications/assignmen3/controllers/default.py", line 116\n    return dict(query=query,disp=disp,q_comment=q_comment,catg=catg,pres_catg=pres_catg,has_liked)\nSyntaxError: non-keyword arg after keyword arg\n'
p4766
s.