(dp1
S'output'
p2
S"<type 'exceptions.AttributeError'> 'Table' object has no attribute 'news_id'"
p3
sS'layer'
p4
S'/home/umang/web2py/applications/assignmen3/controllers/default.py'
p5
sS'code'
p6
S'# -*- coding: utf-8 -*-\n# this file is released under public domain and you can use without limitations\n\n#########################################################################\n## This is a samples controller\n## - index is the default action of any application\n## - user is required for authentication and authorization\n## - download is for downloading files uploaded in the db (does streaming)\n## - call exposes all registered services (none by default)\n#########################################################################\n\ndef index():\n    """\n    example action using the internationalization operator T and flash\n    rendered by views/default/index.html or views/generic.html\n\n    if you need a simple wiki simple replace the two lines below with:\n    return auth.wiki()\n    """\n    #redirect(URL(r=request,f=\'first_page?query=new\'))\n    query=db(db.category.name==\'New\').select(db.category.id)\n    redirect(URL(r=request, f=\'first_page\',args=[int(query[0].id)]))\n\n@auth.requires_login()\ndef login_to_account():\n\tar=db((db.auth_membership.user_id==auth.user_id) & (db.auth_group.id==db.auth_membership.group_id)).select(db.auth_group.role)\n\tif(len(ar)==0):\n\t\tredirect(URL(r=request,f=\'user\'))\n\telif(len(ar)==1):\n\t\tx=db(db.auth_group.role==\'normal\').select(db.auth_group.id)\n\t\tdb.auth_membership.insert(user_id=auth.user_id,group_id=x[0][\'id\'])\n\t\tredirect(URL(r=request,f=\'login_normal\'))\n\telif(ar[1][\'role\']==\'normal\'):\n\t\tredirect(URL(r=request,f=\'login_normal\'))\n\telif(ar[1][\'role\']==\'admin\'):\n\t\tredirect(URL(r=request,f=\'login_admin\'))\n\ndef login_normal():\n\tdisp=db(db.news.user_id==auth.user_id).select(db.news.heading,db.news.url,db.news.category,db.news.ntype)\n\treturn dict(disp=disp)\t\n\ndef first_page():\n\tquery=int(request.args(0))\n\tdisp=db(db.news.category_id==query).select(db.news.heading,db.news.url,db.news.rating,db.news.ntype,db.news.id)\n\tq_comment=db((db.news.category_id==query) & (db.comments.news_id==db.news.id)).select(db.comments.body,db.comments.commentor)\n\tcatg=db(db.category.id>0).select(db.category.name,db.category.id)\n\tpres_catg=db(db.category.id==query).select(db.category.name)\n\tdisp=sorted(disp,key=lambda a:-a[\'rating\'])\n\tform=SQLFORM.factory(\n\t db.Field(\'comm_body\',\'string\',label=""),\n\t formstyle=\'divs\',\n\t buttons=[],)\n   \tform[0].insert(1,DIV(INPUT(_type=\'submit\',_value=\'Post\')))\n   \tif form.accepts(request.vars,session):\n        \t insert_comment(form.vars.comm_body,auth.user_id,query)\n    \telif form.errors:\n        \t response.flash=\'Some Error Occured Please Refresh\'\n    \t\n\treturn dict(query=query,disp=disp,q_comment=q_comment,catg=catg,pres_catg=pres_catg)\n\n@auth.requires_login()\ndef add_news():\n\tcatg=int(request.args(0))\n\tdb.news.category_id.default=catg\n\tdb.news.category_id.readable=False\n\tdb.news.category_id.writable=False\n\tdb.news.user_id.default=auth.user_id\n\tdb.news.user_id.writable=False\n\tdb.news.user_id.readable=False\n\tdb.news.rating.default=100\n\tdb.news.rating.writable=False\n\tdb.news.rating.readable=False\n\tform=SQLFORM(db.news,submit_button="Post",labels={\'ntype\':\'Post Type\'})\n\tif form.process().accepted:\n        \tredirect(URL(r=request, f=\'first_page\',args=[int(catg)]))\n\t\t#redirect(URL(r=request,f=\'first_page?query=%s\' % catg))\n\telif form.errors:\n\t\tresponse.flash="Error posting it"\n\treturn dict(form=form)\n\n@auth.requires_login()\ndef like():\n\tnews_id=int(request.args(0))\n\tcatg=int(request.args(1))\n\tar=db(db.news.id==news_id).select(db.news.rating)\n\tquery=db((db.rating.news_id==news_id) & (db.rating.rater_id==auth.user_id)).select(db.rating.liked)\n\tflag=1\n\t"""\n\tif((len(query)==0) or (query[0].liked==0)):\n\t\tdb(db.news.id==news_id).update(rating=ar[0].rating+5)\n\t\tflag=2\n\t\tif(len(query)==0):\n\t\t\tdb.rating.insert(news_id=news_id,rater_id=auth.user_id,liked=1,disliked=0)\n\t\telse:\n\t\t\tflag=3\n\t\t\tdb((db.rating.news_id==news_id) & (db.rating.rater_id==auth.user_id)).update(liked=1)\n\t#redirect(URL(r=request, f=\'first_page\',args=[int(catg)]))\n\treturn dict(query=query,flag=flag)\n\t"""\n\tif(len(query)==0):\n\t\tdb(db.news.id==news_id).update(rating=ar[0].rating+5)\n\t\tdb.rating.insert(news_id=news_id,rater_id=auth.user_id,liked=1,disliked=0)\n\tredirect(URL(r=request, f=\'first_page\',args=[int(catg)]))\n\n@auth.requires_login()\ndef dislike():\n\tnews_id=int(request.args(0))\n\tcatg=int(request.args(1))\n\tar=db(db.news.id==news_id).select(db.news.rating)\n\tquery=db((db.rating.news_id==news_id) & (db.rating.rater_id==auth.user_id)).select(db.rating.disliked)\n\tif(len(query)==0):\n\t\tdb(db.news.id==news_id).update(rating=ar[0].rating-3)\n\t\tdb.rating.insert(news_id=news_id,rater_id=auth.user_id,liked=0,disliked=1)\n\tredirect(URL(r=request,f=\'first_page\',args=[(int)(catg)]))\n\t#return dict(query=query)\n\n@auth.requires_login()\ndef edit_news():\n\tnews_id=int(request.args(0))\n\tcatg=int(request.args(1))\n\tquery=db((db.news.id==news_id) & (db.news.user_id==auth.user_id)).select(db.news.heading)\n\tif(len(query)==0):\n\t\tredirect(URL(r=request,f=\'first_page\',args=[(int)(catg)]))\n\telse :\n\t\tform=SQLFORM.factory(\n\t\t db.Field(\'new_heading\',\'string\',label="Enter Heading"),\n\t\t db.Field(\'new_url\',\'string\',label="Enter URL",requires=IS_URL()),\n\t\t formstyle=\'divs\',\n\t\t buttons=[],)\n   \t\tform[0].insert(1,DIV(INPUT(_type=\'submit\',_value=\'Post\')))\n\t   \tif form.accepts(request.vars,session):\n        \t\t tmp_edit(form.vars.new_heading,form.vars.url,news_id,catg)\n\t    \telif form.errors:\n        \t\t response.flash=\'Some Error Occured Please Refresh\'\n\t\treturn dict(form=form)\n\n@auth.requires_login()\ndef tmp_edit(new_heading,new_url,news_id,catg):\n\tdb(db.news.news_id==news_id).update(heading=new_heading,url=new_url,rating=100)\n\tredirect(URL(r=request,f=\'first_page\',args=[(int)(catg)]))\n\n@auth.requires_login()\ndef insert_comment(c_body,rec,query):\n\tdb.comments.insert(body=c_body,sender_id=auth.user_id,receiver=int(rec))\n        query=db(db.coment.id>0).select(db.coment.id,db.coment.receiver)\n        redirect(URL(r=request, f=\'first_page\',args=[int(query)]))\n\n\n\ndef user():\n    """\n    exposes:\n    http://..../[app]/default/user/login\n    http://..../[app]/default/user/logout\n    http://..../[app]/default/user/register\n    http://..../[app]/default/user/profile\n    http://..../[app]/default/user/retrieve_password\n    http://..../[app]/default/user/change_password\n    use @auth.requires_login()\n        @auth.requires_membership(\'group name\')\n        @auth.requires_permission(\'read\',\'table name\',record_id)\n    to decorate functions that need access control\n    """\n    return dict(form=auth())\n\n\ndef download():\n    """\n    allows downloading of uploaded files\n    http://..../[app]/default/download/[filename]\n    """\n    return response.download(request, db)\n\n\ndef call():\n    """\n    exposes services. for example:\n    http://..../[app]/default/call/jsonrpc\n    decorate with @services.jsonrpc the functions to expose\n    supports xml, json, xmlrpc, jsonrpc, amfrpc, rss, csv\n    """\n    return service()\n\n\n@auth.requires_signature()\ndef data():\n    """\n    http://..../[app]/default/data/tables\n    http://..../[app]/default/data/create/[table]\n    http://..../[app]/default/data/read/[table]/[id]\n    http://..../[app]/default/data/update/[table]/[id]\n    http://..../[app]/default/data/delete/[table]/[id]\n    http://..../[app]/default/data/select/[table]\n    http://..../[app]/default/data/search/[table]\n    but URLs must be signed, i.e. linked with\n      A(\'table\',_href=URL(\'data/tables\',user_signature=True))\n    or with the signed load operator\n      LOAD(\'default\',\'data.load\',args=\'tables\',ajax=True,user_signature=True)\n    """\n    return dict(form=crud())\n\nresponse._vars=response._caller(edit_news)\n'
p7
sS'snapshot'
p8
(dp9
S'exception'
p10
(dp11
S'__hash__'
p12
S"<method-wrapper '__hash__' of exceptions.AttributeError object>"
p13
sS'__setattr__'
p14
S"<method-wrapper '__setattr__' of exceptions.AttributeError object>"
p15
sS'__reduce_ex__'
p16
S'<built-in method __reduce_ex__ of exceptions.AttributeError object>'
p17
sS'__getslice__'
p18
S"<method-wrapper '__getslice__' of exceptions.AttributeError object>"
p19
sS'__getitem__'
p20
S"<method-wrapper '__getitem__' of exceptions.AttributeError object>"
p21
sS'__setstate__'
p22
S'<built-in method __setstate__ of exceptions.AttributeError object>'
p23
sS'args'
p24
S'("\'Table\' object has no attribute \'news_id\'",)'
p25
sS'__reduce__'
p26
S'<built-in method __reduce__ of exceptions.AttributeError object>'
p27
sS'__str__'
p28
S"<method-wrapper '__str__' of exceptions.AttributeError object>"
p29
sS'__format__'
p30
S'<built-in method __format__ of exceptions.AttributeError object>'
p31
sS'__getattribute__'
p32
S"<method-wrapper '__getattribute__' of exceptions.AttributeError object>"
p33
sS'__class__'
p34
S"<type 'exceptions.AttributeError'>"
p35
sS'__unicode__'
p36
S'<built-in method __unicode__ of exceptions.AttributeError object>'
p37
sS'__delattr__'
p38
S"<method-wrapper '__delattr__' of exceptions.AttributeError object>"
p39
sS'__subclasshook__'
p40
S'<built-in method __subclasshook__ of type object>'
p41
sS'__repr__'
p42
S"<method-wrapper '__repr__' of exceptions.AttributeError object>"
p43
sS'__dict__'
p44
S'{}'
p45
sS'__sizeof__'
p46
S'<built-in method __sizeof__ of exceptions.AttributeError object>'
p47
sS'__doc__'
p48
S"'Attribute not found.'"
p49
sS'__init__'
p50
S"<method-wrapper '__init__' of exceptions.AttributeError object>"
p51
sS'__new__'
p52
S'<built-in method __new__ of type object>'
p53
ssS'evalue'
p54
S"'Table' object has no attribute 'news_id'"
p55
sS'request'
p56
ccopy_reg
_reconstructor
p57
(cgluon.html
BEAUTIFY
p58
c__builtin__
object
p59
NtRp60
(dp61
S'attributes'
p62
(dp63
sS'components'
p64
(lp65
g57
(cgluon.html
TABLE
p66
g59
NtRp67
(dp68
g62
(dp69
S'level'
p70
I5
ssS'parent'
p71
Nsg64
(lp72
g57
(cgluon.html
TR
p73
g59
NtRp74
(dp75
g62
(dp76
sg71
g67
sg64
(lp77
g57
(cgluon.html
TD
p78
g59
NtRp79
(dp80
g62
(dp81
S'_style'
p82
S'font-weight:bold;vertical-align:top'
p83
ssg71
g74
sg64
(lp84
S'ajax'
p85
asbag57
(g78
g59
NtRp86
(dp87
g62
(dp88
S'_valign'
p89
S'top'
p90
ssg71
g74
sg64
(lp91
S':'
asbag57
(g78
g59
NtRp92
(dp93
g62
(dp94
sg71
g74
sg64
(lp95
g57
(g58
g59
NtRp96
(dp97
g62
(dp98
g70
I5
ssg71
g92
sg64
(lp99
S'False'
p100
asbasbasbag57
(g73
g59
NtRp101
(dp102
g62
(dp103
sg71
g67
sg64
(lp104
g57
(g78
g59
NtRp105
(dp106
g62
(dp107
g82
g83
ssg71
g101
sg64
(lp108
S'application'
p109
asbag57
(g78
g59
NtRp110
(dp111
g62
(dp112
g89
g90
ssg71
g101
sg64
(lp113
S':'
asbag57
(g78
g59
NtRp114
(dp115
g62
(dp116
sg71
g101
sg64
(lp117
g57
(g58
g59
NtRp118
(dp119
g62
(dp120
g70
I5
ssg71
g114
sg64
(lp121
S'assignmen3'
p122
asbasbasbag57
(g73
g59
NtRp123
(dp124
g62
(dp125
sg71
g67
sg64
(lp126
g57
(g78
g59
NtRp127
(dp128
g62
(dp129
g82
g83
ssg71
g123
sg64
(lp130
g24
asbag57
(g78
g59
NtRp131
(dp132
g62
(dp133
g89
g90
ssg71
g123
sg64
(lp134
S':'
asbag57
(g78
g59
NtRp135
(dp136
g62
(dp137
sg71
g123
sg64
(lp138
g57
(g58
g59
NtRp139
(dp140
g62
(dp141
g70
I5
ssg71
g135
sg64
(lp142
g57
(g66
g59
NtRp143
(dp144
g62
(dp145
g70
I4
ssg71
Nsg64
(lp146
g57
(g73
g59
NtRp147
(dp148
g62
(dp149
sg71
g143
sg64
(lp150
g57
(g78
g59
NtRp151
(dp152
g62
(dp153
sg71
g147
sg64
(lp154
g57
(g58
g59
NtRp155
(dp156
g62
(dp157
g70
I4
ssg71
g151
sg64
(lp158
S'4'
asbasbasbag57
(g73
g59
NtRp159
(dp160
g62
(dp161
sg71
g143
sg64
(lp162
g57
(g78
g59
NtRp163
(dp164
g62
(dp165
sg71
g159
sg64
(lp166
g57
(g58
g59
NtRp167
(dp168
g62
(dp169
g70
I4
ssg71
g163
sg64
(lp170
S'3'
asbasbasbasbasbasbasbag57
(g73
g59
NtRp171
(dp172
g62
(dp173
sg71
g67
sg64
(lp174
g57
(g78
g59
NtRp175
(dp176
g62
(dp177
g82
g83
ssg71
g171
sg64
(lp178
S'body'
p179
asbag57
(g78
g59
NtRp180
(dp181
g62
(dp182
g89
g90
ssg71
g171
sg64
(lp183
S':'
asbag57
(g78
g59
NtRp184
(dp185
g62
(dp186
sg71
g171
sg64
(lp187
g57
(g58
g59
NtRp188
(dp189
g62
(dp190
g70
I5
ssg71
g184
sg64
(lp191
S"<open file '<fdopen>', mode 'w+b' at 0x7f95288cde40>"
p192
asbasbasbag57
(g73
g59
NtRp193
(dp194
g62
(dp195
sg71
g67
sg64
(lp196
g57
(g78
g59
NtRp197
(dp198
g62
(dp199
g82
g83
ssg71
g193
sg64
(lp200
S'cid'
p201
asbag57
(g78
g59
NtRp202
(dp203
g62
(dp204
g89
g90
ssg71
g193
sg64
(lp205
S':'
asbag57
(g78
g59
NtRp206
(dp207
g62
(dp208
sg71
g193
sg64
(lp209
g57
(g58
g59
NtRp210
(dp211
g62
(dp212
g70
I5
ssg71
g206
sg64
(lp213
S'None'
p214
asbasbasbag57
(g73
g59
NtRp215
(dp216
g62
(dp217
sg71
g67
sg64
(lp218
g57
(g78
g59
NtRp219
(dp220
g62
(dp221
g82
g83
ssg71
g215
sg64
(lp222
S'client'
p223
asbag57
(g78
g59
NtRp224
(dp225
g62
(dp226
g89
g90
ssg71
g215
sg64
(lp227
S':'
asbag57
(g78
g59
NtRp228
(dp229
g62
(dp230
sg71
g215
sg64
(lp231
g57
(g58
g59
NtRp232
(dp233
g62
(dp234
g70
I5
ssg71
g228
sg64
(lp235
S'127.0.0.1'
p236
asbasbasbag57
(g73
g59
NtRp237
(dp238
g62
(dp239
sg71
g67
sg64
(lp240
g57
(g78
g59
NtRp241
(dp242
g62
(dp243
g82
g83
ssg71
g237
sg64
(lp244
S'controller'
p245
asbag57
(g78
g59
NtRp246
(dp247
g62
(dp248
g89
g90
ssg71
g237
sg64
(lp249
S':'
asbag57
(g78
g59
NtRp250
(dp251
g62
(dp252
sg71
g237
sg64
(lp253
g57
(g58
g59
NtRp254
(dp255
g62
(dp256
g70
I5
ssg71
g250
sg64
(lp257
S'default'
p258
asbasbasbag57
(g73
g59
NtRp259
(dp260
g62
(dp261
sg71
g67
sg64
(lp262
g57
(g78
g59
NtRp263
(dp264
g62
(dp265
g82
g83
ssg71
g259
sg64
(lp266
S'cookies'
p267
asbag57
(g78
g59
NtRp268
(dp269
g62
(dp270
g89
g90
ssg71
g259
sg64
(lp271
S':'
asbag57
(g78
g59
NtRp272
(dp273
g62
(dp274
sg71
g259
sg64
(lp275
g57
(g58
g59
NtRp276
(dp277
g62
(dp278
g70
I5
ssg71
g272
sg64
(lp279
g57
(g66
g59
NtRp280
(dp281
g62
(dp282
g70
I4
ssg71
Nsg64
(lp283
g57
(g73
g59
NtRp284
(dp285
g62
(dp286
sg71
g280
sg64
(lp287
g57
(g78
g59
NtRp288
(dp289
g62
(dp290
g82
g83
ssg71
g284
sg64
(lp291
S'session_id_admin'
p292
asbag57
(g78
g59
NtRp293
(dp294
g62
(dp295
g89
g90
ssg71
g284
sg64
(lp296
S':'
asbag57
(g78
g59
NtRp297
(dp298
g62
(dp299
sg71
g284
sg64
(lp300
g57
(g58
g59
NtRp301
(dp302
g62
(dp303
g70
I4
ssg71
g297
sg64
(lp304
S'127.0.0.1-d509f0cc-4c80-4380-be27-aebf7c06a1e6'
p305
ag57
(g66
g59
NtRp306
(dp307
g62
(dp308
g70
I3
ssg71
Nsg64
(lp309
g57
(g73
g59
NtRp310
(dp311
g62
(dp312
sg71
g306
sg64
(lp313
g57
(g78
g59
NtRp314
(dp315
g62
(dp316
g82
g83
ssg71
g310
sg64
(lp317
S'comment'
p318
asbag57
(g78
g59
NtRp319
(dp320
g62
(dp321
g89
g90
ssg71
g310
sg64
(lp322
S':'
asbag57
(g78
g59
NtRp323
(dp324
g62
(dp325
sg71
g310
sg64
(lp326
g57
(g58
g59
NtRp327
(dp328
g62
(dp329
g70
I3
ssg71
g323
sg64
(lp330
S''
asbasbasbag57
(g73
g59
NtRp331
(dp332
g62
(dp333
sg71
g306
sg64
(lp334
g57
(g78
g59
NtRp335
(dp336
g62
(dp337
g82
g83
ssg71
g331
sg64
(lp338
S'domain'
p339
asbag57
(g78
g59
NtRp340
(dp341
g62
(dp342
g89
g90
ssg71
g331
sg64
(lp343
S':'
asbag57
(g78
g59
NtRp344
(dp345
g62
(dp346
sg71
g331
sg64
(lp347
g57
(g58
g59
NtRp348
(dp349
g62
(dp350
g70
I3
ssg71
g344
sg64
(lp351
S''
asbasbasbag57
(g73
g59
NtRp352
(dp353
g62
(dp354
sg71
g306
sg64
(lp355
g57
(g78
g59
NtRp356
(dp357
g62
(dp358
g82
g83
ssg71
g352
sg64
(lp359
S'expires'
p360
asbag57
(g78
g59
NtRp361
(dp362
g62
(dp363
g89
g90
ssg71
g352
sg64
(lp364
S':'
asbag57
(g78
g59
NtRp365
(dp366
g62
(dp367
sg71
g352
sg64
(lp368
g57
(g58
g59
NtRp369
(dp370
g62
(dp371
g70
I3
ssg71
g365
sg64
(lp372
S''
asbasbasbag57
(g73
g59
NtRp373
(dp374
g62
(dp375
sg71
g306
sg64
(lp376
g57
(g78
g59
NtRp377
(dp378
g62
(dp379
g82
g83
ssg71
g373
sg64
(lp380
S'httponly'
p381
asbag57
(g78
g59
NtRp382
(dp383
g62
(dp384
g89
g90
ssg71
g373
sg64
(lp385
S':'
asbag57
(g78
g59
NtRp386
(dp387
g62
(dp388
sg71
g373
sg64
(lp389
g57
(g58
g59
NtRp390
(dp391
g62
(dp392
g70
I3
ssg71
g386
sg64
(lp393
S''
asbasbasbag57
(g73
g59
NtRp394
(dp395
g62
(dp396
sg71
g306
sg64
(lp397
g57
(g78
g59
NtRp398
(dp399
g62
(dp400
g82
g83
ssg71
g394
sg64
(lp401
S'max-age'
p402
asbag57
(g78
g59
NtRp403
(dp404
g62
(dp405
g89
g90
ssg71
g394
sg64
(lp406
S':'
asbag57
(g78
g59
NtRp407
(dp408
g62
(dp409
sg71
g394
sg64
(lp410
g57
(g58
g59
NtRp411
(dp412
g62
(dp413
g70
I3
ssg71
g407
sg64
(lp414
S''
asbasbasbag57
(g73
g59
NtRp415
(dp416
g62
(dp417
sg71
g306
sg64
(lp418
g57
(g78
g59
NtRp419
(dp420
g62
(dp421
g82
g83
ssg71
g415
sg64
(lp422
S'path'
p423
asbag57
(g78
g59
NtRp424
(dp425
g62
(dp426
g89
g90
ssg71
g415
sg64
(lp427
S':'
asbag57
(g78
g59
NtRp428
(dp429
g62
(dp430
sg71
g415
sg64
(lp431
g57
(g58
g59
NtRp432
(dp433
g62
(dp434
g70
I3
ssg71
g428
sg64
(lp435
S''
asbasbasbag57
(g73
g59
NtRp436
(dp437
g62
(dp438
sg71
g306
sg64
(lp439
g57
(g78
g59
NtRp440
(dp441
g62
(dp442
g82
g83
ssg71
g436
sg64
(lp443
S'secure'
p444
asbag57
(g78
g59
NtRp445
(dp446
g62
(dp447
g89
g90
ssg71
g436
sg64
(lp448
S':'
asbag57
(g78
g59
NtRp449
(dp450
g62
(dp451
sg71
g436
sg64
(lp452
g57
(g58
g59
NtRp453
(dp454
g62
(dp455
g70
I3
ssg71
g449
sg64
(lp456
S''
asbasbasbag57
(g73
g59
NtRp457
(dp458
g62
(dp459
sg71
g306
sg64
(lp460
g57
(g78
g59
NtRp461
(dp462
g62
(dp463
g82
g83
ssg71
g457
sg64
(lp464
S'version'
p465
asbag57
(g78
g59
NtRp466
(dp467
g62
(dp468
g89
g90
ssg71
g457
sg64
(lp469
S':'
asbag57
(g78
g59
NtRp470
(dp471
g62
(dp472
sg71
g457
sg64
(lp473
g57
(g58
g59
NtRp474
(dp475
g62
(dp476
g70
I3
ssg71
g470
sg64
(lp477
S''
asbasbasbasbasbasbasbag57
(g73
g59
NtRp478
(dp479
g62
(dp480
sg71
g280
sg64
(lp481
g57
(g78
g59
NtRp482
(dp483
g62
(dp484
g82
g83
ssg71
g478
sg64
(lp485
S'session_id_assignmen3'
p486
asbag57
(g78
g59
NtRp487
(dp488
g62
(dp489
g89
g90
ssg71
g478
sg64
(lp490
S':'
asbag57
(g78
g59
NtRp491
(dp492
g62
(dp493
sg71
g478
sg64
(lp494
g57
(g58
g59
NtRp495
(dp496
g62
(dp497
g70
I4
ssg71
g491
sg64
(lp498
S'127.0.0.1-f78a0883-b419-4f1b-8802-d13ae89341f4'
p499
ag57
(g66
g59
NtRp500
(dp501
g62
(dp502
g70
I3
ssg71
Nsg64
(lp503
g57
(g73
g59
NtRp504
(dp505
g62
(dp506
sg71
g500
sg64
(lp507
g57
(g78
g59
NtRp508
(dp509
g62
(dp510
g82
g83
ssg71
g504
sg64
(lp511
g318
asbag57
(g78
g59
NtRp512
(dp513
g62
(dp514
g89
g90
ssg71
g504
sg64
(lp515
S':'
asbag57
(g78
g59
NtRp516
(dp517
g62
(dp518
sg71
g504
sg64
(lp519
g57
(g58
g59
NtRp520
(dp521
g62
(dp522
g70
I3
ssg71
g516
sg64
(lp523
S''
asbasbasbag57
(g73
g59
NtRp524
(dp525
g62
(dp526
sg71
g500
sg64
(lp527
g57
(g78
g59
NtRp528
(dp529
g62
(dp530
g82
g83
ssg71
g524
sg64
(lp531
g339
asbag57
(g78
g59
NtRp532
(dp533
g62
(dp534
g89
g90
ssg71
g524
sg64
(lp535
S':'
asbag57
(g78
g59
NtRp536
(dp537
g62
(dp538
sg71
g524
sg64
(lp539
g57
(g58
g59
NtRp540
(dp541
g62
(dp542
g70
I3
ssg71
g536
sg64
(lp543
S''
asbasbasbag57
(g73
g59
NtRp544
(dp545
g62
(dp546
sg71
g500
sg64
(lp547
g57
(g78
g59
NtRp548
(dp549
g62
(dp550
g82
g83
ssg71
g544
sg64
(lp551
g360
asbag57
(g78
g59
NtRp552
(dp553
g62
(dp554
g89
g90
ssg71
g544
sg64
(lp555
S':'
asbag57
(g78
g59
NtRp556
(dp557
g62
(dp558
sg71
g544
sg64
(lp559
g57
(g58
g59
NtRp560
(dp561
g62
(dp562
g70
I3
ssg71
g556
sg64
(lp563
S''
asbasbasbag57
(g73
g59
NtRp564
(dp565
g62
(dp566
sg71
g500
sg64
(lp567
g57
(g78
g59
NtRp568
(dp569
g62
(dp570
g82
g83
ssg71
g564
sg64
(lp571
g381
asbag57
(g78
g59
NtRp572
(dp573
g62
(dp574
g89
g90
ssg71
g564
sg64
(lp575
S':'
asbag57
(g78
g59
NtRp576
(dp577
g62
(dp578
sg71
g564
sg64
(lp579
g57
(g58
g59
NtRp580
(dp581
g62
(dp582
g70
I3
ssg71
g576
sg64
(lp583
S''
asbasbasbag57
(g73
g59
NtRp584
(dp585
g62
(dp586
sg71
g500
sg64
(lp587
g57
(g78
g59
NtRp588
(dp589
g62
(dp590
g82
g83
ssg71
g584
sg64
(lp591
g402
asbag57
(g78
g59
NtRp592
(dp593
g62
(dp594
g89
g90
ssg71
g584
sg64
(lp595
S':'
asbag57
(g78
g59
NtRp596
(dp597
g62
(dp598
sg71
g584
sg64
(lp599
g57
(g58
g59
NtRp600
(dp601
g62
(dp602
g70
I3
ssg71
g596
sg64
(lp603
S''
asbasbasbag57
(g73
g59
NtRp604
(dp605
g62
(dp606
sg71
g500
sg64
(lp607
g57
(g78
g59
NtRp608
(dp609
g62
(dp610
g82
g83
ssg71
g604
sg64
(lp611
g423
asbag57
(g78
g59
NtRp612
(dp613
g62
(dp614
g89
g90
ssg71
g604
sg64
(lp615
S':'
asbag57
(g78
g59
NtRp616
(dp617
g62
(dp618
sg71
g604
sg64
(lp619
g57
(g58
g59
NtRp620
(dp621
g62
(dp622
g70
I3
ssg71
g616
sg64
(lp623
S''
asbasbasbag57
(g73
g59
NtRp624
(dp625
g62
(dp626
sg71
g500
sg64
(lp627
g57
(g78
g59
NtRp628
(dp629
g62
(dp630
g82
g83
ssg71
g624
sg64
(lp631
g444
asbag57
(g78
g59
NtRp632
(dp633
g62
(dp634
g89
g90
ssg71
g624
sg64
(lp635
S':'
asbag57
(g78
g59
NtRp636
(dp637
g62
(dp638
sg71
g624
sg64
(lp639
g57
(g58
g59
NtRp640
(dp641
g62
(dp642
g70
I3
ssg71
g636
sg64
(lp643
S''
asbasbasbag57
(g73
g59
NtRp644
(dp645
g62
(dp646
sg71
g500
sg64
(lp647
g57
(g78
g59
NtRp648
(dp649
g62
(dp650
g82
g83
ssg71
g644
sg64
(lp651
g465
asbag57
(g78
g59
NtRp652
(dp653
g62
(dp654
g89
g90
ssg71
g644
sg64
(lp655
S':'
asbag57
(g78
g59
NtRp656
(dp657
g62
(dp658
sg71
g644
sg64
(lp659
g57
(g58
g59
NtRp660
(dp661
g62
(dp662
g70
I3
ssg71
g656
sg64
(lp663
S''
asbasbasbasbasbasbasbag57
(g73
g59
NtRp664
(dp665
g62
(dp666
sg71
g280
sg64
(lp667
g57
(g78
g59
NtRp668
(dp669
g62
(dp670
g82
g83
ssg71
g664
sg64
(lp671
S'session_id_welcome'
p672
asbag57
(g78
g59
NtRp673
(dp674
g62
(dp675
g89
g90
ssg71
g664
sg64
(lp676
S':'
asbag57
(g78
g59
NtRp677
(dp678
g62
(dp679
sg71
g664
sg64
(lp680
g57
(g58
g59
NtRp681
(dp682
g62
(dp683
g70
I4
ssg71
g677
sg64
(lp684
S'127.0.0.1-a2b1b4d6-eba7-4458-9892-ba028024c0c4'
p685
ag57
(g66
g59
NtRp686
(dp687
g62
(dp688
g70
I3
ssg71
Nsg64
(lp689
g57
(g73
g59
NtRp690
(dp691
g62
(dp692
sg71
g686
sg64
(lp693
g57
(g78
g59
NtRp694
(dp695
g62
(dp696
g82
g83
ssg71
g690
sg64
(lp697
g318
asbag57
(g78
g59
NtRp698
(dp699
g62
(dp700
g89
g90
ssg71
g690
sg64
(lp701
S':'
asbag57
(g78
g59
NtRp702
(dp703
g62
(dp704
sg71
g690
sg64
(lp705
g57
(g58
g59
NtRp706
(dp707
g62
(dp708
g70
I3
ssg71
g702
sg64
(lp709
S''
asbasbasbag57
(g73
g59
NtRp710
(dp711
g62
(dp712
sg71
g686
sg64
(lp713
g57
(g78
g59
NtRp714
(dp715
g62
(dp716
g82
g83
ssg71
g710
sg64
(lp717
g339
asbag57
(g78
g59
NtRp718
(dp719
g62
(dp720
g89
g90
ssg71
g710
sg64
(lp721
S':'
asbag57
(g78
g59
NtRp722
(dp723
g62
(dp724
sg71
g710
sg64
(lp725
g57
(g58
g59
NtRp726
(dp727
g62
(dp728
g70
I3
ssg71
g722
sg64
(lp729
S''
asbasbasbag57
(g73
g59
NtRp730
(dp731
g62
(dp732
sg71
g686
sg64
(lp733
g57
(g78
g59
NtRp734
(dp735
g62
(dp736
g82
g83
ssg71
g730
sg64
(lp737
g360
asbag57
(g78
g59
NtRp738
(dp739
g62
(dp740
g89
g90
ssg71
g730
sg64
(lp741
S':'
asbag57
(g78
g59
NtRp742
(dp743
g62
(dp744
sg71
g730
sg64
(lp745
g57
(g58
g59
NtRp746
(dp747
g62
(dp748
g70
I3
ssg71
g742
sg64
(lp749
S''
asbasbasbag57
(g73
g59
NtRp750
(dp751
g62
(dp752
sg71
g686
sg64
(lp753
g57
(g78
g59
NtRp754
(dp755
g62
(dp756
g82
g83
ssg71
g750
sg64
(lp757
g381
asbag57
(g78
g59
NtRp758
(dp759
g62
(dp760
g89
g90
ssg71
g750
sg64
(lp761
S':'
asbag57
(g78
g59
NtRp762
(dp763
g62
(dp764
sg71
g750
sg64
(lp765
g57
(g58
g59
NtRp766
(dp767
g62
(dp768
g70
I3
ssg71
g762
sg64
(lp769
S''
asbasbasbag57
(g73
g59
NtRp770
(dp771
g62
(dp772
sg71
g686
sg64
(lp773
g57
(g78
g59
NtRp774
(dp775
g62
(dp776
g82
g83
ssg71
g770
sg64
(lp777
g402
asbag57
(g78
g59
NtRp778
(dp779
g62
(dp780
g89
g90
ssg71
g770
sg64
(lp781
S':'
asbag57
(g78
g59
NtRp782
(dp783
g62
(dp784
sg71
g770
sg64
(lp785
g57
(g58
g59
NtRp786
(dp787
g62
(dp788
g70
I3
ssg71
g782
sg64
(lp789
S''
asbasbasbag57
(g73
g59
NtRp790
(dp791
g62
(dp792
sg71
g686
sg64
(lp793
g57
(g78
g59
NtRp794
(dp795
g62
(dp796
g82
g83
ssg71
g790
sg64
(lp797
g423
asbag57
(g78
g59
NtRp798
(dp799
g62
(dp800
g89
g90
ssg71
g790
sg64
(lp801
S':'
asbag57
(g78
g59
NtRp802
(dp803
g62
(dp804
sg71
g790
sg64
(lp805
g57
(g58
g59
NtRp806
(dp807
g62
(dp808
g70
I3
ssg71
g802
sg64
(lp809
S''
asbasbasbag57
(g73
g59
NtRp810
(dp811
g62
(dp812
sg71
g686
sg64
(lp813
g57
(g78
g59
NtRp814
(dp815
g62
(dp816
g82
g83
ssg71
g810
sg64
(lp817
g444
asbag57
(g78
g59
NtRp818
(dp819
g62
(dp820
g89
g90
ssg71
g810
sg64
(lp821
S':'
asbag57
(g78
g59
NtRp822
(dp823
g62
(dp824
sg71
g810
sg64
(lp825
g57
(g58
g59
NtRp826
(dp827
g62
(dp828
g70
I3
ssg71
g822
sg64
(lp829
S''
asbasbasbag57
(g73
g59
NtRp830
(dp831
g62
(dp832
sg71
g686
sg64
(lp833
g57
(g78
g59
NtRp834
(dp835
g62
(dp836
g82
g83
ssg71
g830
sg64
(lp837
g465
asbag57
(g78
g59
NtRp838
(dp839
g62
(dp840
g89
g90
ssg71
g830
sg64
(lp841
S':'
asbag57
(g78
g59
NtRp842
(dp843
g62
(dp844
sg71
g830
sg64
(lp845
g57
(g58
g59
NtRp846
(dp847
g62
(dp848
g70
I3
ssg71
g842
sg64
(lp849
S''
asbasbasbasbasbasbasbasbasbasbasbag57
(g73
g59
NtRp850
(dp851
g62
(dp852
sg71
g67
sg64
(lp853
g57
(g78
g59
NtRp854
(dp855
g62
(dp856
g82
g83
ssg71
g850
sg64
(lp857
S'env'
p858
asbag57
(g78
g59
NtRp859
(dp860
g62
(dp861
g89
g90
ssg71
g850
sg64
(lp862
S':'
asbag57
(g78
g59
NtRp863
(dp864
g62
(dp865
sg71
g850
sg64
(lp866
g57
(g58
g59
NtRp867
(dp868
g62
(dp869
g70
I5
ssg71
g863
sg64
(lp870
g57
(g66
g59
NtRp871
(dp872
g62
(dp873
g70
I4
ssg71
Nsg64
(lp874
g57
(g73
g59
NtRp875
(dp876
g62
(dp877
sg71
g871
sg64
(lp878
g57
(g78
g59
NtRp879
(dp880
g62
(dp881
g82
g83
ssg71
g875
sg64
(lp882
S'app_folders'
p883
asbag57
(g78
g59
NtRp884
(dp885
g62
(dp886
g89
g90
ssg71
g875
sg64
(lp887
S':'
asbag57
(g78
g59
NtRp888
(dp889
g62
(dp890
sg71
g875
sg64
(lp891
g57
(g58
g59
NtRp892
(dp893
g62
(dp894
g70
I4
ssg71
g888
sg64
(lp895
S"set(['/home/umang/web2py/applications/admin/', '/home/umang/web2py/applications/assignmen3/', '/home/umang/web2py/applications/welcome/'])"
p896
asbasbasbag57
(g73
g59
NtRp897
(dp898
g62
(dp899
sg71
g871
sg64
(lp900
g57
(g78
g59
NtRp901
(dp902
g62
(dp903
g82
g83
ssg71
g897
sg64
(lp904
S'applications_parent'
p905
asbag57
(g78
g59
NtRp906
(dp907
g62
(dp908
g89
g90
ssg71
g897
sg64
(lp909
S':'
asbag57
(g78
g59
NtRp910
(dp911
g62
(dp912
sg71
g897
sg64
(lp913
g57
(g58
g59
NtRp914
(dp915
g62
(dp916
g70
I4
ssg71
g910
sg64
(lp917
S'/home/umang/web2py'
p918
asbasbasbag57
(g73
g59
NtRp919
(dp920
g62
(dp921
sg71
g871
sg64
(lp922
g57
(g78
g59
NtRp923
(dp924
g62
(dp925
g82
g83
ssg71
g919
sg64
(lp926
S'cmd_args'
p927
asbag57
(g78
g59
NtRp928
(dp929
g62
(dp930
g89
g90
ssg71
g919
sg64
(lp931
S':'
asbag57
(g78
g59
NtRp932
(dp933
g62
(dp934
sg71
g919
sg64
(lp935
g57
(g58
g59
NtRp936
(dp937
g62
(dp938
g70
I4
ssg71
g932
sg64
(lp939
g57
(g66
g59
NtRp940
(dp941
g62
(dp942
g70
I3
ssg71
Nsg64
(lp943
sbasbasbasbag57
(g73
g59
NtRp944
(dp945
g62
(dp946
sg71
g871
sg64
(lp947
g57
(g78
g59
NtRp948
(dp949
g62
(dp950
g82
g83
ssg71
g944
sg64
(lp951
S'cmd_options'
p952
asbag57
(g78
g59
NtRp953
(dp954
g62
(dp955
g89
g90
ssg71
g944
sg64
(lp956
S':'
asbag57
(g78
g59
NtRp957
(dp958
g62
(dp959
sg71
g944
sg64
(lp960
g57
(g58
g59
NtRp961
(dp962
g62
(dp963
g70
I4
ssg71
g957
sg64
(lp964
S"<Values at 0x1698200: {'verbose': False, 'ip': '127.0.0.1', 'with_scheduler': False, 'ips': [], 'shutdown_timeout': 5, 'taskbar': False, 'port': 8000, 'maxthreads': None, 'softcron': False, 'server_name': 'umang-HP-Pavilion-g6-Notebook-PC', 'bpython': False, 'nogui': False, 'pid_filename': 'httpserver.pid', 'extcron': False, 'runcron': False, 'run_system_tests': False, 'test': None, 'folder': '/home/umang/web2py', 'config': '', 'minthreads': None, 'winservice': '', 'shell': None, 'run': '', 'log_filename': 'httpserver.log', 'debuglevel': 30, 'args': [''], 'socket_timeout': 5, 'ssl_ca_certificate': None, 'scheduler': None, 'profiler_filename': None, 'ssl_private_key': '', 'scheduler_groups': None, 'password': '<ask>', 'request_queue_size': 5, 'ssl_certificate': '', 'cronjob': False, 'numthreads': None, 'quiet': False, 'interfaces': None, 'import_models': False, 'timeout': 10, 'plain': False, 'nobanner': False}>"
p965
asbasbasbag57
(g73
g59
NtRp966
(dp967
g62
(dp968
sg71
g871
sg64
(lp969
g57
(g78
g59
NtRp970
(dp971
g62
(dp972
g82
g83
ssg71
g966
sg64
(lp973
S'content_length'
p974
asbag57
(g78
g59
NtRp975
(dp976
g62
(dp977
g89
g90
ssg71
g966
sg64
(lp978
S':'
asbag57
(g78
g59
NtRp979
(dp980
g62
(dp981
sg71
g966
sg64
(lp982
g57
(g58
g59
NtRp983
(dp984
g62
(dp985
g70
I4
ssg71
g979
sg64
(lp986
S'670'
p987
asbasbasbag57
(g73
g59
NtRp988
(dp989
g62
(dp990
sg71
g871
sg64
(lp991
g57
(g78
g59
NtRp992
(dp993
g62
(dp994
g82
g83
ssg71
g988
sg64
(lp995
S'content_type'
p996
asbag57
(g78
g59
NtRp997
(dp998
g62
(dp999
g89
g90
ssg71
g988
sg64
(lp1000
S':'
asbag57
(g78
g59
NtRp1001
(dp1002
g62
(dp1003
sg71
g988
sg64
(lp1004
g57
(g58
g59
NtRp1005
(dp1006
g62
(dp1007
g70
I4
ssg71
g1001
sg64
(lp1008
S'multipart/form-data; boundary=---------------------------12586818961706381401536783953'
p1009
asbasbasbag57
(g73
g59
NtRp1010
(dp1011
g62
(dp1012
sg71
g871
sg64
(lp1013
g57
(g78
g59
NtRp1014
(dp1015
g62
(dp1016
g82
g83
ssg71
g1010
sg64
(lp1017
S'db_sessions'
p1018
asbag57
(g78
g59
NtRp1019
(dp1020
g62
(dp1021
g89
g90
ssg71
g1010
sg64
(lp1022
S':'
asbag57
(g78
g59
NtRp1023
(dp1024
g62
(dp1025
sg71
g1010
sg64
(lp1026
g57
(g58
g59
NtRp1027
(dp1028
g62
(dp1029
g70
I4
ssg71
g1023
sg64
(lp1030
S'set([])'
p1031
asbasbasbag57
(g73
g59
NtRp1032
(dp1033
g62
(dp1034
sg71
g871
sg64
(lp1035
g57
(g78
g59
NtRp1036
(dp1037
g62
(dp1038
g82
g83
ssg71
g1032
sg64
(lp1039
S'debugging'
p1040
asbag57
(g78
g59
NtRp1041
(dp1042
g62
(dp1043
g89
g90
ssg71
g1032
sg64
(lp1044
S':'
asbag57
(g78
g59
NtRp1045
(dp1046
g62
(dp1047
sg71
g1032
sg64
(lp1048
g57
(g58
g59
NtRp1049
(dp1050
g62
(dp1051
g70
I4
ssg71
g1045
sg64
(lp1052
g100
asbasbasbag57
(g73
g59
NtRp1053
(dp1054
g62
(dp1055
sg71
g871
sg64
(lp1056
g57
(g78
g59
NtRp1057
(dp1058
g62
(dp1059
g82
g83
ssg71
g1053
sg64
(lp1060
S'gluon_parent'
p1061
asbag57
(g78
g59
NtRp1062
(dp1063
g62
(dp1064
g89
g90
ssg71
g1053
sg64
(lp1065
S':'
asbag57
(g78
g59
NtRp1066
(dp1067
g62
(dp1068
sg71
g1053
sg64
(lp1069
g57
(g58
g59
NtRp1070
(dp1071
g62
(dp1072
g70
I4
ssg71
g1066
sg64
(lp1073
S'/home/umang/web2py'
p1074
asbasbasbag57
(g73
g59
NtRp1075
(dp1076
g62
(dp1077
sg71
g871
sg64
(lp1078
g57
(g78
g59
NtRp1079
(dp1080
g62
(dp1081
g82
g83
ssg71
g1075
sg64
(lp1082
S'http_accept'
p1083
asbag57
(g78
g59
NtRp1084
(dp1085
g62
(dp1086
g89
g90
ssg71
g1075
sg64
(lp1087
S':'
asbag57
(g78
g59
NtRp1088
(dp1089
g62
(dp1090
sg71
g1075
sg64
(lp1091
g57
(g58
g59
NtRp1092
(dp1093
g62
(dp1094
g70
I4
ssg71
g1088
sg64
(lp1095
S'text/html,application/xhtml+xml,application/xml;q=0.9,*/*;q=0.8'
p1096
asbasbasbag57
(g73
g59
NtRp1097
(dp1098
g62
(dp1099
sg71
g871
sg64
(lp1100
g57
(g78
g59
NtRp1101
(dp1102
g62
(dp1103
g82
g83
ssg71
g1097
sg64
(lp1104
S'http_accept_encoding'
p1105
asbag57
(g78
g59
NtRp1106
(dp1107
g62
(dp1108
g89
g90
ssg71
g1097
sg64
(lp1109
S':'
asbag57
(g78
g59
NtRp1110
(dp1111
g62
(dp1112
sg71
g1097
sg64
(lp1113
g57
(g58
g59
NtRp1114
(dp1115
g62
(dp1116
g70
I4
ssg71
g1110
sg64
(lp1117
S'gzip, deflate'
p1118
asbasbasbag57
(g73
g59
NtRp1119
(dp1120
g62
(dp1121
sg71
g871
sg64
(lp1122
g57
(g78
g59
NtRp1123
(dp1124
g62
(dp1125
g82
g83
ssg71
g1119
sg64
(lp1126
S'http_accept_language'
p1127
asbag57
(g78
g59
NtRp1128
(dp1129
g62
(dp1130
g89
g90
ssg71
g1119
sg64
(lp1131
S':'
asbag57
(g78
g59
NtRp1132
(dp1133
g62
(dp1134
sg71
g1119
sg64
(lp1135
g57
(g58
g59
NtRp1136
(dp1137
g62
(dp1138
g70
I4
ssg71
g1132
sg64
(lp1139
S'en-us,en;q=0.5'
p1140
asbasbasbag57
(g73
g59
NtRp1141
(dp1142
g62
(dp1143
sg71
g871
sg64
(lp1144
g57
(g78
g59
NtRp1145
(dp1146
g62
(dp1147
g82
g83
ssg71
g1141
sg64
(lp1148
S'http_connection'
p1149
asbag57
(g78
g59
NtRp1150
(dp1151
g62
(dp1152
g89
g90
ssg71
g1141
sg64
(lp1153
S':'
asbag57
(g78
g59
NtRp1154
(dp1155
g62
(dp1156
sg71
g1141
sg64
(lp1157
g57
(g58
g59
NtRp1158
(dp1159
g62
(dp1160
g70
I4
ssg71
g1154
sg64
(lp1161
S'keep-alive'
p1162
asbasbasbag57
(g73
g59
NtRp1163
(dp1164
g62
(dp1165
sg71
g871
sg64
(lp1166
g57
(g78
g59
NtRp1167
(dp1168
g62
(dp1169
g82
g83
ssg71
g1163
sg64
(lp1170
S'http_content_length'
p1171
asbag57
(g78
g59
NtRp1172
(dp1173
g62
(dp1174
g89
g90
ssg71
g1163
sg64
(lp1175
S':'
asbag57
(g78
g59
NtRp1176
(dp1177
g62
(dp1178
sg71
g1163
sg64
(lp1179
g57
(g58
g59
NtRp1180
(dp1181
g62
(dp1182
g70
I4
ssg71
g1176
sg64
(lp1183
g987
asbasbasbag57
(g73
g59
NtRp1184
(dp1185
g62
(dp1186
sg71
g871
sg64
(lp1187
g57
(g78
g59
NtRp1188
(dp1189
g62
(dp1190
g82
g83
ssg71
g1184
sg64
(lp1191
S'http_content_type'
p1192
asbag57
(g78
g59
NtRp1193
(dp1194
g62
(dp1195
g89
g90
ssg71
g1184
sg64
(lp1196
S':'
asbag57
(g78
g59
NtRp1197
(dp1198
g62
(dp1199
sg71
g1184
sg64
(lp1200
g57
(g58
g59
NtRp1201
(dp1202
g62
(dp1203
g70
I4
ssg71
g1197
sg64
(lp1204
g1009
asbasbasbag57
(g73
g59
NtRp1205
(dp1206
g62
(dp1207
sg71
g871
sg64
(lp1208
g57
(g78
g59
NtRp1209
(dp1210
g62
(dp1211
g82
g83
ssg71
g1205
sg64
(lp1212
S'http_cookie'
p1213
asbag57
(g78
g59
NtRp1214
(dp1215
g62
(dp1216
g89
g90
ssg71
g1205
sg64
(lp1217
S':'
asbag57
(g78
g59
NtRp1218
(dp1219
g62
(dp1220
sg71
g1205
sg64
(lp1221
g57
(g58
g59
NtRp1222
(dp1223
g62
(dp1224
g70
I4
ssg71
g1218
sg64
(lp1225
S'session_id_welcome=127.0.0.1-a2b1b4d6-eba7-4458-9892-ba028024c0c4; session_id_admin=127.0.0.1-d509f0cc-4c80-4380-be27-aebf7c06a1e6; session_id_assignmen3=127.0.0.1-f78a0883-b419-4f1b-8802-d13ae89341f4'
p1226
asbasbasbag57
(g73
g59
NtRp1227
(dp1228
g62
(dp1229
sg71
g871
sg64
(lp1230
g57
(g78
g59
NtRp1231
(dp1232
g62
(dp1233
g82
g83
ssg71
g1227
sg64
(lp1234
S'http_host'
p1235
asbag57
(g78
g59
NtRp1236
(dp1237
g62
(dp1238
g89
g90
ssg71
g1227
sg64
(lp1239
S':'
asbag57
(g78
g59
NtRp1240
(dp1241
g62
(dp1242
sg71
g1227
sg64
(lp1243
g57
(g58
g59
NtRp1244
(dp1245
g62
(dp1246
g70
I4
ssg71
g1240
sg64
(lp1247
S'127.0.0.1:8000'
p1248
asbasbasbag57
(g73
g59
NtRp1249
(dp1250
g62
(dp1251
sg71
g871
sg64
(lp1252
g57
(g78
g59
NtRp1253
(dp1254
g62
(dp1255
g82
g83
ssg71
g1249
sg64
(lp1256
S'http_referer'
p1257
asbag57
(g78
g59
NtRp1258
(dp1259
g62
(dp1260
g89
g90
ssg71
g1249
sg64
(lp1261
S':'
asbag57
(g78
g59
NtRp1262
(dp1263
g62
(dp1264
sg71
g1249
sg64
(lp1265
g57
(g58
g59
NtRp1266
(dp1267
g62
(dp1268
g70
I4
ssg71
g1262
sg64
(lp1269
S'http://127.0.0.1:8000/assignmen3/default/edit_news/4/3'
p1270
asbasbasbag57
(g73
g59
NtRp1271
(dp1272
g62
(dp1273
sg71
g871
sg64
(lp1274
g57
(g78
g59
NtRp1275
(dp1276
g62
(dp1277
g82
g83
ssg71
g1271
sg64
(lp1278
S'http_user_agent'
p1279
asbag57
(g78
g59
NtRp1280
(dp1281
g62
(dp1282
g89
g90
ssg71
g1271
sg64
(lp1283
S':'
asbag57
(g78
g59
NtRp1284
(dp1285
g62
(dp1286
sg71
g1271
sg64
(lp1287
g57
(g58
g59
NtRp1288
(dp1289
g62
(dp1290
g70
I4
ssg71
g1284
sg64
(lp1291
S'Mozilla/5.0 (X11; Ubuntu; Linux x86_64; rv:11.0) Gecko/20100101 Firefox/11.0'
p1292
asbasbasbag57
(g73
g59
NtRp1293
(dp1294
g62
(dp1295
sg71
g871
sg64
(lp1296
g57
(g78
g59
NtRp1297
(dp1298
g62
(dp1299
g82
g83
ssg71
g1293
sg64
(lp1300
S'is_jython'
p1301
asbag57
(g78
g59
NtRp1302
(dp1303
g62
(dp1304
g89
g90
ssg71
g1293
sg64
(lp1305
S':'
asbag57
(g78
g59
NtRp1306
(dp1307
g62
(dp1308
sg71
g1293
sg64
(lp1309
g57
(g58
g59
NtRp1310
(dp1311
g62
(dp1312
g70
I4
ssg71
g1306
sg64
(lp1313
g100
asbasbasbag57
(g73
g59
NtRp1314
(dp1315
g62
(dp1316
sg71
g871
sg64
(lp1317
g57
(g78
g59
NtRp1318
(dp1319
g62
(dp1320
g82
g83
ssg71
g1314
sg64
(lp1321
S'is_pypy'
p1322
asbag57
(g78
g59
NtRp1323
(dp1324
g62
(dp1325
g89
g90
ssg71
g1314
sg64
(lp1326
S':'
asbag57
(g78
g59
NtRp1327
(dp1328
g62
(dp1329
sg71
g1314
sg64
(lp1330
g57
(g58
g59
NtRp1331
(dp1332
g62
(dp1333
g70
I4
ssg71
g1327
sg64
(lp1334
g100
asbasbasbag57
(g73
g59
NtRp1335
(dp1336
g62
(dp1337
sg71
g871
sg64
(lp1338
g57
(g78
g59
NtRp1339
(dp1340
g62
(dp1341
g82
g83
ssg71
g1335
sg64
(lp1342
S'local_hosts'
p1343
asbag57
(g78
g59
NtRp1344
(dp1345
g62
(dp1346
g89
g90
ssg71
g1335
sg64
(lp1347
S':'
asbag57
(g78
g59
NtRp1348
(dp1349
g62
(dp1350
sg71
g1335
sg64
(lp1351
g57
(g58
g59
NtRp1352
(dp1353
g62
(dp1354
g70
I4
ssg71
g1348
sg64
(lp1355
g57
(g66
g59
NtRp1356
(dp1357
g62
(dp1358
g70
I3
ssg71
Nsg64
(lp1359
g57
(g73
g59
NtRp1360
(dp1361
g62
(dp1362
sg71
g1356
sg64
(lp1363
g57
(g78
g59
NtRp1364
(dp1365
g62
(dp1366
sg71
g1360
sg64
(lp1367
g57
(g58
g59
NtRp1368
(dp1369
g62
(dp1370
g70
I3
ssg71
g1364
sg64
(lp1371
S'::1'
p1372
asbasbasbag57
(g73
g59
NtRp1373
(dp1374
g62
(dp1375
sg71
g1356
sg64
(lp1376
g57
(g78
g59
NtRp1377
(dp1378
g62
(dp1379
sg71
g1373
sg64
(lp1380
g57
(g58
g59
NtRp1381
(dp1382
g62
(dp1383
g70
I3
ssg71
g1377
sg64
(lp1384
S'127.0.1.1'
p1385
asbasbasbag57
(g73
g59
NtRp1386
(dp1387
g62
(dp1388
sg71
g1356
sg64
(lp1389
g57
(g78
g59
NtRp1390
(dp1391
g62
(dp1392
sg71
g1386
sg64
(lp1393
g57
(g58
g59
NtRp1394
(dp1395
g62
(dp1396
g70
I3
ssg71
g1390
sg64
(lp1397
S'::ffff:127.0.0.1'
p1398
asbasbasbag57
(g73
g59
NtRp1399
(dp1400
g62
(dp1401
sg71
g1356
sg64
(lp1402
g57
(g78
g59
NtRp1403
(dp1404
g62
(dp1405
sg71
g1399
sg64
(lp1406
g57
(g58
g59
NtRp1407
(dp1408
g62
(dp1409
g70
I3
ssg71
g1403
sg64
(lp1410
S'127.0.0.1'
p1411
asbasbasbag57
(g73
g59
NtRp1412
(dp1413
g62
(dp1414
sg71
g1356
sg64
(lp1415
g57
(g78
g59
NtRp1416
(dp1417
g62
(dp1418
sg71
g1412
sg64
(lp1419
g57
(g58
g59
NtRp1420
(dp1421
g62
(dp1422
g70
I3
ssg71
g1416
sg64
(lp1423
S'umang-HP-Pavilion-g6-Notebook-PC'
p1424
asbasbasbasbasbasbasbag57
(g73
g59
NtRp1425
(dp1426
g62
(dp1427
sg71
g871
sg64
(lp1428
g57
(g78
g59
NtRp1429
(dp1430
g62
(dp1431
g82
g83
ssg71
g1425
sg64
(lp1432
S'path_info'
p1433
asbag57
(g78
g59
NtRp1434
(dp1435
g62
(dp1436
g89
g90
ssg71
g1425
sg64
(lp1437
S':'
asbag57
(g78
g59
NtRp1438
(dp1439
g62
(dp1440
sg71
g1425
sg64
(lp1441
g57
(g58
g59
NtRp1442
(dp1443
g62
(dp1444
g70
I4
ssg71
g1438
sg64
(lp1445
S'/assignmen3/default/edit_news/4/3'
p1446
asbasbasbag57
(g73
g59
NtRp1447
(dp1448
g62
(dp1449
sg71
g871
sg64
(lp1450
g57
(g78
g59
NtRp1451
(dp1452
g62
(dp1453
g82
g83
ssg71
g1447
sg64
(lp1454
S'query_string'
p1455
asbag57
(g78
g59
NtRp1456
(dp1457
g62
(dp1458
g89
g90
ssg71
g1447
sg64
(lp1459
S':'
asbag57
(g78
g59
NtRp1460
(dp1461
g62
(dp1462
sg71
g1447
sg64
(lp1463
g57
(g58
g59
NtRp1464
(dp1465
g62
(dp1466
g70
I4
ssg71
g1460
sg64
(lp1467
S''
asbasbasbag57
(g73
g59
NtRp1468
(dp1469
g62
(dp1470
sg71
g871
sg64
(lp1471
g57
(g78
g59
NtRp1472
(dp1473
g62
(dp1474
g82
g83
ssg71
g1468
sg64
(lp1475
S'remote_addr'
p1476
asbag57
(g78
g59
NtRp1477
(dp1478
g62
(dp1479
g89
g90
ssg71
g1468
sg64
(lp1480
S':'
asbag57
(g78
g59
NtRp1481
(dp1482
g62
(dp1483
sg71
g1468
sg64
(lp1484
g57
(g58
g59
NtRp1485
(dp1486
g62
(dp1487
g70
I4
ssg71
g1481
sg64
(lp1488
g236
asbasbasbag57
(g73
g59
NtRp1489
(dp1490
g62
(dp1491
sg71
g871
sg64
(lp1492
g57
(g78
g59
NtRp1493
(dp1494
g62
(dp1495
g82
g83
ssg71
g1489
sg64
(lp1496
S'remote_port'
p1497
asbag57
(g78
g59
NtRp1498
(dp1499
g62
(dp1500
g89
g90
ssg71
g1489
sg64
(lp1501
S':'
asbag57
(g78
g59
NtRp1502
(dp1503
g62
(dp1504
sg71
g1489
sg64
(lp1505
g57
(g58
g59
NtRp1506
(dp1507
g62
(dp1508
g70
I4
ssg71
g1502
sg64
(lp1509
S'33316'
p1510
asbasbasbag57
(g73
g59
NtRp1511
(dp1512
g62
(dp1513
sg71
g871
sg64
(lp1514
g57
(g78
g59
NtRp1515
(dp1516
g62
(dp1517
g82
g83
ssg71
g1511
sg64
(lp1518
S'request_method'
p1519
asbag57
(g78
g59
NtRp1520
(dp1521
g62
(dp1522
g89
g90
ssg71
g1511
sg64
(lp1523
S':'
asbag57
(g78
g59
NtRp1524
(dp1525
g62
(dp1526
sg71
g1511
sg64
(lp1527
g57
(g58
g59
NtRp1528
(dp1529
g62
(dp1530
g70
I4
ssg71
g1524
sg64
(lp1531
S'POST'
p1532
asbasbasbag57
(g73
g59
NtRp1533
(dp1534
g62
(dp1535
sg71
g871
sg64
(lp1536
g57
(g78
g59
NtRp1537
(dp1538
g62
(dp1539
g82
g83
ssg71
g1533
sg64
(lp1540
S'request_uri'
p1541
asbag57
(g78
g59
NtRp1542
(dp1543
g62
(dp1544
g89
g90
ssg71
g1533
sg64
(lp1545
S':'
asbag57
(g78
g59
NtRp1546
(dp1547
g62
(dp1548
sg71
g1533
sg64
(lp1549
g57
(g58
g59
NtRp1550
(dp1551
g62
(dp1552
g70
I4
ssg71
g1546
sg64
(lp1553
g1446
asbasbasbag57
(g73
g59
NtRp1554
(dp1555
g62
(dp1556
sg71
g871
sg64
(lp1557
g57
(g78
g59
NtRp1558
(dp1559
g62
(dp1560
g82
g83
ssg71
g1554
sg64
(lp1561
S'script_name'
p1562
asbag57
(g78
g59
NtRp1563
(dp1564
g62
(dp1565
g89
g90
ssg71
g1554
sg64
(lp1566
S':'
asbag57
(g78
g59
NtRp1567
(dp1568
g62
(dp1569
sg71
g1554
sg64
(lp1570
g57
(g58
g59
NtRp1571
(dp1572
g62
(dp1573
g70
I4
ssg71
g1567
sg64
(lp1574
S''
asbasbasbag57
(g73
g59
NtRp1575
(dp1576
g62
(dp1577
sg71
g871
sg64
(lp1578
g57
(g78
g59
NtRp1579
(dp1580
g62
(dp1581
g82
g83
ssg71
g1575
sg64
(lp1582
S'server_name'
p1583
asbag57
(g78
g59
NtRp1584
(dp1585
g62
(dp1586
g89
g90
ssg71
g1575
sg64
(lp1587
S':'
asbag57
(g78
g59
NtRp1588
(dp1589
g62
(dp1590
sg71
g1575
sg64
(lp1591
g57
(g58
g59
NtRp1592
(dp1593
g62
(dp1594
g70
I4
ssg71
g1588
sg64
(lp1595
S'umang-HP-Pavilion-g6-Notebook-PC'
p1596
asbasbasbag57
(g73
g59
NtRp1597
(dp1598
g62
(dp1599
sg71
g871
sg64
(lp1600
g57
(g78
g59
NtRp1601
(dp1602
g62
(dp1603
g82
g83
ssg71
g1597
sg64
(lp1604
S'server_port'
p1605
asbag57
(g78
g59
NtRp1606
(dp1607
g62
(dp1608
g89
g90
ssg71
g1597
sg64
(lp1609
S':'
asbag57
(g78
g59
NtRp1610
(dp1611
g62
(dp1612
sg71
g1597
sg64
(lp1613
g57
(g58
g59
NtRp1614
(dp1615
g62
(dp1616
g70
I4
ssg71
g1610
sg64
(lp1617
S'8000'
p1618
asbasbasbag57
(g73
g59
NtRp1619
(dp1620
g62
(dp1621
sg71
g871
sg64
(lp1622
g57
(g78
g59
NtRp1623
(dp1624
g62
(dp1625
g82
g83
ssg71
g1619
sg64
(lp1626
S'server_protocol'
p1627
asbag57
(g78
g59
NtRp1628
(dp1629
g62
(dp1630
g89
g90
ssg71
g1619
sg64
(lp1631
S':'
asbag57
(g78
g59
NtRp1632
(dp1633
g62
(dp1634
sg71
g1619
sg64
(lp1635
g57
(g58
g59
NtRp1636
(dp1637
g62
(dp1638
g70
I4
ssg71
g1632
sg64
(lp1639
S'HTTP/1.1'
p1640
asbasbasbag57
(g73
g59
NtRp1641
(dp1642
g62
(dp1643
sg71
g871
sg64
(lp1644
g57
(g78
g59
NtRp1645
(dp1646
g62
(dp1647
g82
g83
ssg71
g1641
sg64
(lp1648
S'server_software'
p1649
asbag57
(g78
g59
NtRp1650
(dp1651
g62
(dp1652
g89
g90
ssg71
g1641
sg64
(lp1653
S':'
asbag57
(g78
g59
NtRp1654
(dp1655
g62
(dp1656
sg71
g1641
sg64
(lp1657
g57
(g58
g59
NtRp1658
(dp1659
g62
(dp1660
g70
I4
ssg71
g1654
sg64
(lp1661
S'Rocket 1.2.6'
p1662
asbasbasbag57
(g73
g59
NtRp1663
(dp1664
g62
(dp1665
sg71
g871
sg64
(lp1666
g57
(g78
g59
NtRp1667
(dp1668
g62
(dp1669
g82
g83
ssg71
g1663
sg64
(lp1670
S'web2py_path'
p1671
asbag57
(g78
g59
NtRp1672
(dp1673
g62
(dp1674
g89
g90
ssg71
g1663
sg64
(lp1675
S':'
asbag57
(g78
g59
NtRp1676
(dp1677
g62
(dp1678
sg71
g1663
sg64
(lp1679
g57
(g58
g59
NtRp1680
(dp1681
g62
(dp1682
g70
I4
ssg71
g1676
sg64
(lp1683
g918
asbasbasbag57
(g73
g59
NtRp1684
(dp1685
g62
(dp1686
sg71
g871
sg64
(lp1687
g57
(g78
g59
NtRp1688
(dp1689
g62
(dp1690
g82
g83
ssg71
g1684
sg64
(lp1691
S'web2py_version'
p1692
asbag57
(g78
g59
NtRp1693
(dp1694
g62
(dp1695
g89
g90
ssg71
g1684
sg64
(lp1696
S':'
asbag57
(g78
g59
NtRp1697
(dp1698
g62
(dp1699
sg71
g1684
sg64
(lp1700
g57
(g58
g59
NtRp1701
(dp1702
g62
(dp1703
g70
I4
ssg71
g1697
sg64
(lp1704
g57
(g66
g59
NtRp1705
(dp1706
g62
(dp1707
g70
I3
ssg71
Nsg64
(lp1708
g57
(g73
g59
NtRp1709
(dp1710
g62
(dp1711
sg71
g1705
sg64
(lp1712
g57
(g78
g59
NtRp1713
(dp1714
g62
(dp1715
sg71
g1709
sg64
(lp1716
g57
(g58
g59
NtRp1717
(dp1718
g62
(dp1719
g70
I3
ssg71
g1713
sg64
(lp1720
S'2'
asbasbasbag57
(g73
g59
NtRp1721
(dp1722
g62
(dp1723
sg71
g1705
sg64
(lp1724
g57
(g78
g59
NtRp1725
(dp1726
g62
(dp1727
sg71
g1721
sg64
(lp1728
g57
(g58
g59
NtRp1729
(dp1730
g62
(dp1731
g70
I3
ssg71
g1725
sg64
(lp1732
S'3'
asbasbasbag57
(g73
g59
NtRp1733
(dp1734
g62
(dp1735
sg71
g1705
sg64
(lp1736
g57
(g78
g59
NtRp1737
(dp1738
g62
(dp1739
sg71
g1733
sg64
(lp1740
g57
(g58
g59
NtRp1741
(dp1742
g62
(dp1743
g70
I3
ssg71
g1737
sg64
(lp1744
S'2'
asbasbasbag57
(g73
g59
NtRp1745
(dp1746
g62
(dp1747
sg71
g1705
sg64
(lp1748
g57
(g78
g59
NtRp1749
(dp1750
g62
(dp1751
sg71
g1745
sg64
(lp1752
g57
(g58
g59
NtRp1753
(dp1754
g62
(dp1755
g70
I3
ssg71
g1749
sg64
(lp1756
S'datetime.datetime(2012, 12, 17, 15, 3, 30)'
p1757
asbasbasbag57
(g73
g59
NtRp1758
(dp1759
g62
(dp1760
sg71
g1705
sg64
(lp1761
g57
(g78
g59
NtRp1762
(dp1763
g62
(dp1764
sg71
g1758
sg64
(lp1765
g57
(g58
g59
NtRp1766
(dp1767
g62
(dp1768
g70
I3
ssg71
g1762
sg64
(lp1769
S'stable'
p1770
asbasbasbasbasbasbasbag57
(g73
g59
NtRp1771
(dp1772
g62
(dp1773
sg71
g871
sg64
(lp1774
g57
(g78
g59
NtRp1775
(dp1776
g62
(dp1777
g82
g83
ssg71
g1771
sg64
(lp1778
S'wsgi_errors'
p1779
asbag57
(g78
g59
NtRp1780
(dp1781
g62
(dp1782
g89
g90
ssg71
g1771
sg64
(lp1783
S':'
asbag57
(g78
g59
NtRp1784
(dp1785
g62
(dp1786
sg71
g1771
sg64
(lp1787
g57
(g58
g59
NtRp1788
(dp1789
g62
(dp1790
g70
I4
ssg71
g1784
sg64
(lp1791
S"<open file '<stderr>', mode 'w' at 0x7f953b4c2270>"
p1792
asbasbasbag57
(g73
g59
NtRp1793
(dp1794
g62
(dp1795
sg71
g871
sg64
(lp1796
g57
(g78
g59
NtRp1797
(dp1798
g62
(dp1799
g82
g83
ssg71
g1793
sg64
(lp1800
S'wsgi_file_wrapper'
p1801
asbag57
(g78
g59
NtRp1802
(dp1803
g62
(dp1804
g89
g90
ssg71
g1793
sg64
(lp1805
S':'
asbag57
(g78
g59
NtRp1806
(dp1807
g62
(dp1808
sg71
g1793
sg64
(lp1809
g57
(g58
g59
NtRp1810
(dp1811
g62
(dp1812
g70
I4
ssg71
g1806
sg64
(lp1813
S'<class wsgiref.util.FileWrapper at 0x1601b48>'
p1814
asbasbasbag57
(g73
g59
NtRp1815
(dp1816
g62
(dp1817
sg71
g871
sg64
(lp1818
g57
(g78
g59
NtRp1819
(dp1820
g62
(dp1821
g82
g83
ssg71
g1815
sg64
(lp1822
S'wsgi_input'
p1823
asbag57
(g78
g59
NtRp1824
(dp1825
g62
(dp1826
g89
g90
ssg71
g1815
sg64
(lp1827
S':'
asbag57
(g78
g59
NtRp1828
(dp1829
g62
(dp1830
sg71
g1815
sg64
(lp1831
g57
(g58
g59
NtRp1832
(dp1833
g62
(dp1834
g70
I4
ssg71
g1828
sg64
(lp1835
S'<socket._fileobject object at 0x7f951c7a8750>'
p1836
asbasbasbag57
(g73
g59
NtRp1837
(dp1838
g62
(dp1839
sg71
g871
sg64
(lp1840
g57
(g78
g59
NtRp1841
(dp1842
g62
(dp1843
g82
g83
ssg71
g1837
sg64
(lp1844
S'wsgi_multiprocess'
p1845
asbag57
(g78
g59
NtRp1846
(dp1847
g62
(dp1848
g89
g90
ssg71
g1837
sg64
(lp1849
S':'
asbag57
(g78
g59
NtRp1850
(dp1851
g62
(dp1852
sg71
g1837
sg64
(lp1853
g57
(g58
g59
NtRp1854
(dp1855
g62
(dp1856
g70
I4
ssg71
g1850
sg64
(lp1857
g100
asbasbasbag57
(g73
g59
NtRp1858
(dp1859
g62
(dp1860
sg71
g871
sg64
(lp1861
g57
(g78
g59
NtRp1862
(dp1863
g62
(dp1864
g82
g83
ssg71
g1858
sg64
(lp1865
S'wsgi_multithread'
p1866
asbag57
(g78
g59
NtRp1867
(dp1868
g62
(dp1869
g89
g90
ssg71
g1858
sg64
(lp1870
S':'
asbag57
(g78
g59
NtRp1871
(dp1872
g62
(dp1873
sg71
g1858
sg64
(lp1874
g57
(g58
g59
NtRp1875
(dp1876
g62
(dp1877
g70
I4
ssg71
g1871
sg64
(lp1878
S'True'
p1879
asbasbasbag57
(g73
g59
NtRp1880
(dp1881
g62
(dp1882
sg71
g871
sg64
(lp1883
g57
(g78
g59
NtRp1884
(dp1885
g62
(dp1886
g82
g83
ssg71
g1880
sg64
(lp1887
S'wsgi_run_once'
p1888
asbag57
(g78
g59
NtRp1889
(dp1890
g62
(dp1891
g89
g90
ssg71
g1880
sg64
(lp1892
S':'
asbag57
(g78
g59
NtRp1893
(dp1894
g62
(dp1895
sg71
g1880
sg64
(lp1896
g57
(g58
g59
NtRp1897
(dp1898
g62
(dp1899
g70
I4
ssg71
g1893
sg64
(lp1900
g100
asbasbasbag57
(g73
g59
NtRp1901
(dp1902
g62
(dp1903
sg71
g871
sg64
(lp1904
g57
(g78
g59
NtRp1905
(dp1906
g62
(dp1907
g82
g83
ssg71
g1901
sg64
(lp1908
S'wsgi_url_scheme'
p1909
asbag57
(g78
g59
NtRp1910
(dp1911
g62
(dp1912
g89
g90
ssg71
g1901
sg64
(lp1913
S':'
asbag57
(g78
g59
NtRp1914
(dp1915
g62
(dp1916
sg71
g1901
sg64
(lp1917
g57
(g58
g59
NtRp1918
(dp1919
g62
(dp1920
g70
I4
ssg71
g1914
sg64
(lp1921
S'http'
p1922
asbasbasbag57
(g73
g59
NtRp1923
(dp1924
g62
(dp1925
sg71
g871
sg64
(lp1926
g57
(g78
g59
NtRp1927
(dp1928
g62
(dp1929
g82
g83
ssg71
g1923
sg64
(lp1930
S'wsgi_version'
p1931
asbag57
(g78
g59
NtRp1932
(dp1933
g62
(dp1934
g89
g90
ssg71
g1923
sg64
(lp1935
S':'
asbag57
(g78
g59
NtRp1936
(dp1937
g62
(dp1938
sg71
g1923
sg64
(lp1939
g57
(g58
g59
NtRp1940
(dp1941
g62
(dp1942
g70
I4
ssg71
g1936
sg64
(lp1943
g57
(g66
g59
NtRp1944
(dp1945
g62
(dp1946
g70
I3
ssg71
Nsg64
(lp1947
g57
(g73
g59
NtRp1948
(dp1949
g62
(dp1950
sg71
g1944
sg64
(lp1951
g57
(g78
g59
NtRp1952
(dp1953
g62
(dp1954
sg71
g1948
sg64
(lp1955
g57
(g58
g59
NtRp1956
(dp1957
g62
(dp1958
g70
I3
ssg71
g1952
sg64
(lp1959
S'1'
asbasbasbag57
(g73
g59
NtRp1960
(dp1961
g62
(dp1962
sg71
g1944
sg64
(lp1963
g57
(g78
g59
NtRp1964
(dp1965
g62
(dp1966
sg71
g1960
sg64
(lp1967
g57
(g58
g59
NtRp1968
(dp1969
g62
(dp1970
g70
I3
ssg71
g1964
sg64
(lp1971
S'0'
asbasbasbasbasbasbasbasbasbasbasbag57
(g73
g59
NtRp1972
(dp1973
g62
(dp1974
sg71
g67
sg64
(lp1975
g57
(g78
g59
NtRp1976
(dp1977
g62
(dp1978
g82
g83
ssg71
g1972
sg64
(lp1979
S'extension'
p1980
asbag57
(g78
g59
NtRp1981
(dp1982
g62
(dp1983
g89
g90
ssg71
g1972
sg64
(lp1984
S':'
asbag57
(g78
g59
NtRp1985
(dp1986
g62
(dp1987
sg71
g1972
sg64
(lp1988
g57
(g58
g59
NtRp1989
(dp1990
g62
(dp1991
g70
I5
ssg71
g1985
sg64
(lp1992
S'html'
p1993
asbasbasbag57
(g73
g59
NtRp1994
(dp1995
g62
(dp1996
sg71
g67
sg64
(lp1997
g57
(g78
g59
NtRp1998
(dp1999
g62
(dp2000
g82
g83
ssg71
g1994
sg64
(lp2001
S'folder'
p2002
asbag57
(g78
g59
NtRp2003
(dp2004
g62
(dp2005
g89
g90
ssg71
g1994
sg64
(lp2006
S':'
asbag57
(g78
g59
NtRp2007
(dp2008
g62
(dp2009
sg71
g1994
sg64
(lp2010
g57
(g58
g59
NtRp2011
(dp2012
g62
(dp2013
g70
I5
ssg71
g2007
sg64
(lp2014
S'/home/umang/web2py/applications/assignmen3/'
p2015
asbasbasbag57
(g73
g59
NtRp2016
(dp2017
g62
(dp2018
sg71
g67
sg64
(lp2019
g57
(g78
g59
NtRp2020
(dp2021
g62
(dp2022
g82
g83
ssg71
g2016
sg64
(lp2023
S'function'
p2024
asbag57
(g78
g59
NtRp2025
(dp2026
g62
(dp2027
g89
g90
ssg71
g2016
sg64
(lp2028
S':'
asbag57
(g78
g59
NtRp2029
(dp2030
g62
(dp2031
sg71
g2016
sg64
(lp2032
g57
(g58
g59
NtRp2033
(dp2034
g62
(dp2035
g70
I5
ssg71
g2029
sg64
(lp2036
S'edit_news'
p2037
asbasbasbag57
(g73
g59
NtRp2038
(dp2039
g62
(dp2040
sg71
g67
sg64
(lp2041
g57
(g78
g59
NtRp2042
(dp2043
g62
(dp2044
g82
g83
ssg71
g2038
sg64
(lp2045
S'get_vars'
p2046
asbag57
(g78
g59
NtRp2047
(dp2048
g62
(dp2049
g89
g90
ssg71
g2038
sg64
(lp2050
S':'
asbag57
(g78
g59
NtRp2051
(dp2052
g62
(dp2053
sg71
g2038
sg64
(lp2054
g57
(g58
g59
NtRp2055
(dp2056
g62
(dp2057
g70
I5
ssg71
g2051
sg64
(lp2058
g57
(g66
g59
NtRp2059
(dp2060
g62
(dp2061
g70
I4
ssg71
Nsg64
(lp2062
sbasbasbasbag57
(g73
g59
NtRp2063
(dp2064
g62
(dp2065
sg71
g67
sg64
(lp2066
g57
(g78
g59
NtRp2067
(dp2068
g62
(dp2069
g82
g83
ssg71
g2063
sg64
(lp2070
S'global_settings'
p2071
asbag57
(g78
g59
NtRp2072
(dp2073
g62
(dp2074
g89
g90
ssg71
g2063
sg64
(lp2075
S':'
asbag57
(g78
g59
NtRp2076
(dp2077
g62
(dp2078
sg71
g2063
sg64
(lp2079
g57
(g58
g59
NtRp2080
(dp2081
g62
(dp2082
g70
I5
ssg71
g2076
sg64
(lp2083
g57
(g66
g59
NtRp2084
(dp2085
g62
(dp2086
g70
I4
ssg71
Nsg64
(lp2087
g57
(g73
g59
NtRp2088
(dp2089
g62
(dp2090
sg71
g2084
sg64
(lp2091
g57
(g78
g59
NtRp2092
(dp2093
g62
(dp2094
g82
g83
ssg71
g2088
sg64
(lp2095
g883
asbag57
(g78
g59
NtRp2096
(dp2097
g62
(dp2098
g89
g90
ssg71
g2088
sg64
(lp2099
S':'
asbag57
(g78
g59
NtRp2100
(dp2101
g62
(dp2102
sg71
g2088
sg64
(lp2103
g57
(g58
g59
NtRp2104
(dp2105
g62
(dp2106
g70
I4
ssg71
g2100
sg64
(lp2107
S"set(['/home/umang/web2py/applications/admin/', '/home/umang/web2py/applications/assignmen3/', '/home/umang/web2py/applications/welcome/'])"
p2108
asbasbasbag57
(g73
g59
NtRp2109
(dp2110
g62
(dp2111
sg71
g2084
sg64
(lp2112
g57
(g78
g59
NtRp2113
(dp2114
g62
(dp2115
g82
g83
ssg71
g2109
sg64
(lp2116
g905
asbag57
(g78
g59
NtRp2117
(dp2118
g62
(dp2119
g89
g90
ssg71
g2109
sg64
(lp2120
S':'
asbag57
(g78
g59
NtRp2121
(dp2122
g62
(dp2123
sg71
g2109
sg64
(lp2124
g57
(g58
g59
NtRp2125
(dp2126
g62
(dp2127
g70
I4
ssg71
g2121
sg64
(lp2128
g918
asbasbasbag57
(g73
g59
NtRp2129
(dp2130
g62
(dp2131
sg71
g2084
sg64
(lp2132
g57
(g78
g59
NtRp2133
(dp2134
g62
(dp2135
g82
g83
ssg71
g2129
sg64
(lp2136
g927
asbag57
(g78
g59
NtRp2137
(dp2138
g62
(dp2139
g89
g90
ssg71
g2129
sg64
(lp2140
S':'
asbag57
(g78
g59
NtRp2141
(dp2142
g62
(dp2143
sg71
g2129
sg64
(lp2144
g57
(g58
g59
NtRp2145
(dp2146
g62
(dp2147
g70
I4
ssg71
g2141
sg64
(lp2148
g57
(g66
g59
NtRp2149
(dp2150
g62
(dp2151
g70
I3
ssg71
Nsg64
(lp2152
sbasbasbasbag57
(g73
g59
NtRp2153
(dp2154
g62
(dp2155
sg71
g2084
sg64
(lp2156
g57
(g78
g59
NtRp2157
(dp2158
g62
(dp2159
g82
g83
ssg71
g2153
sg64
(lp2160
g952
asbag57
(g78
g59
NtRp2161
(dp2162
g62
(dp2163
g89
g90
ssg71
g2153
sg64
(lp2164
S':'
asbag57
(g78
g59
NtRp2165
(dp2166
g62
(dp2167
sg71
g2153
sg64
(lp2168
g57
(g58
g59
NtRp2169
(dp2170
g62
(dp2171
g70
I4
ssg71
g2165
sg64
(lp2172
S"<Values at 0x1698200: {'verbose': False, 'ip': '127.0.0.1', 'with_scheduler': False, 'ips': [], 'shutdown_timeout': 5, 'taskbar': False, 'port': 8000, 'maxthreads': None, 'softcron': False, 'server_name': 'umang-HP-Pavilion-g6-Notebook-PC', 'bpython': False, 'nogui': False, 'pid_filename': 'httpserver.pid', 'extcron': False, 'runcron': False, 'run_system_tests': False, 'test': None, 'folder': '/home/umang/web2py', 'config': '', 'minthreads': None, 'winservice': '', 'shell': None, 'run': '', 'log_filename': 'httpserver.log', 'debuglevel': 30, 'args': [''], 'socket_timeout': 5, 'ssl_ca_certificate': None, 'scheduler': None, 'profiler_filename': None, 'ssl_private_key': '', 'scheduler_groups': None, 'password': '<ask>', 'request_queue_size': 5, 'ssl_certificate': '', 'cronjob': False, 'numthreads': None, 'quiet': False, 'interfaces': None, 'import_models': False, 'timeout': 10, 'plain': False, 'nobanner': False}>"
p2173
asbasbasbag57
(g73
g59
NtRp2174
(dp2175
g62
(dp2176
sg71
g2084
sg64
(lp2177
g57
(g78
g59
NtRp2178
(dp2179
g62
(dp2180
g82
g83
ssg71
g2174
sg64
(lp2181
g1018
asbag57
(g78
g59
NtRp2182
(dp2183
g62
(dp2184
g89
g90
ssg71
g2174
sg64
(lp2185
S':'
asbag57
(g78
g59
NtRp2186
(dp2187
g62
(dp2188
sg71
g2174
sg64
(lp2189
g57
(g58
g59
NtRp2190
(dp2191
g62
(dp2192
g70
I4
ssg71
g2186
sg64
(lp2193
S'set([])'
p2194
asbasbasbag57
(g73
g59
NtRp2195
(dp2196
g62
(dp2197
sg71
g2084
sg64
(lp2198
g57
(g78
g59
NtRp2199
(dp2200
g62
(dp2201
g82
g83
ssg71
g2195
sg64
(lp2202
g1040
asbag57
(g78
g59
NtRp2203
(dp2204
g62
(dp2205
g89
g90
ssg71
g2195
sg64
(lp2206
S':'
asbag57
(g78
g59
NtRp2207
(dp2208
g62
(dp2209
sg71
g2195
sg64
(lp2210
g57
(g58
g59
NtRp2211
(dp2212
g62
(dp2213
g70
I4
ssg71
g2207
sg64
(lp2214
g100
asbasbasbag57
(g73
g59
NtRp2215
(dp2216
g62
(dp2217
sg71
g2084
sg64
(lp2218
g57
(g78
g59
NtRp2219
(dp2220
g62
(dp2221
g82
g83
ssg71
g2215
sg64
(lp2222
g1061
asbag57
(g78
g59
NtRp2223
(dp2224
g62
(dp2225
g89
g90
ssg71
g2215
sg64
(lp2226
S':'
asbag57
(g78
g59
NtRp2227
(dp2228
g62
(dp2229
sg71
g2215
sg64
(lp2230
g57
(g58
g59
NtRp2231
(dp2232
g62
(dp2233
g70
I4
ssg71
g2227
sg64
(lp2234
g1074
asbasbasbag57
(g73
g59
NtRp2235
(dp2236
g62
(dp2237
sg71
g2084
sg64
(lp2238
g57
(g78
g59
NtRp2239
(dp2240
g62
(dp2241
g82
g83
ssg71
g2235
sg64
(lp2242
g1301
asbag57
(g78
g59
NtRp2243
(dp2244
g62
(dp2245
g89
g90
ssg71
g2235
sg64
(lp2246
S':'
asbag57
(g78
g59
NtRp2247
(dp2248
g62
(dp2249
sg71
g2235
sg64
(lp2250
g57
(g58
g59
NtRp2251
(dp2252
g62
(dp2253
g70
I4
ssg71
g2247
sg64
(lp2254
g100
asbasbasbag57
(g73
g59
NtRp2255
(dp2256
g62
(dp2257
sg71
g2084
sg64
(lp2258
g57
(g78
g59
NtRp2259
(dp2260
g62
(dp2261
g82
g83
ssg71
g2255
sg64
(lp2262
g1322
asbag57
(g78
g59
NtRp2263
(dp2264
g62
(dp2265
g89
g90
ssg71
g2255
sg64
(lp2266
S':'
asbag57
(g78
g59
NtRp2267
(dp2268
g62
(dp2269
sg71
g2255
sg64
(lp2270
g57
(g58
g59
NtRp2271
(dp2272
g62
(dp2273
g70
I4
ssg71
g2267
sg64
(lp2274
g100
asbasbasbag57
(g73
g59
NtRp2275
(dp2276
g62
(dp2277
sg71
g2084
sg64
(lp2278
g57
(g78
g59
NtRp2279
(dp2280
g62
(dp2281
g82
g83
ssg71
g2275
sg64
(lp2282
g1343
asbag57
(g78
g59
NtRp2283
(dp2284
g62
(dp2285
g89
g90
ssg71
g2275
sg64
(lp2286
S':'
asbag57
(g78
g59
NtRp2287
(dp2288
g62
(dp2289
sg71
g2275
sg64
(lp2290
g57
(g58
g59
NtRp2291
(dp2292
g62
(dp2293
g70
I4
ssg71
g2287
sg64
(lp2294
g57
(g66
g59
NtRp2295
(dp2296
g62
(dp2297
g70
I3
ssg71
Nsg64
(lp2298
g57
(g73
g59
NtRp2299
(dp2300
g62
(dp2301
sg71
g2295
sg64
(lp2302
g57
(g78
g59
NtRp2303
(dp2304
g62
(dp2305
sg71
g2299
sg64
(lp2306
g57
(g58
g59
NtRp2307
(dp2308
g62
(dp2309
g70
I3
ssg71
g2303
sg64
(lp2310
g1372
asbasbasbag57
(g73
g59
NtRp2311
(dp2312
g62
(dp2313
sg71
g2295
sg64
(lp2314
g57
(g78
g59
NtRp2315
(dp2316
g62
(dp2317
sg71
g2311
sg64
(lp2318
g57
(g58
g59
NtRp2319
(dp2320
g62
(dp2321
g70
I3
ssg71
g2315
sg64
(lp2322
g1385
asbasbasbag57
(g73
g59
NtRp2323
(dp2324
g62
(dp2325
sg71
g2295
sg64
(lp2326
g57
(g78
g59
NtRp2327
(dp2328
g62
(dp2329
sg71
g2323
sg64
(lp2330
g57
(g58
g59
NtRp2331
(dp2332
g62
(dp2333
g70
I3
ssg71
g2327
sg64
(lp2334
g1398
asbasbasbag57
(g73
g59
NtRp2335
(dp2336
g62
(dp2337
sg71
g2295
sg64
(lp2338
g57
(g78
g59
NtRp2339
(dp2340
g62
(dp2341
sg71
g2335
sg64
(lp2342
g57
(g58
g59
NtRp2343
(dp2344
g62
(dp2345
g70
I3
ssg71
g2339
sg64
(lp2346
g1411
asbasbasbag57
(g73
g59
NtRp2347
(dp2348
g62
(dp2349
sg71
g2295
sg64
(lp2350
g57
(g78
g59
NtRp2351
(dp2352
g62
(dp2353
sg71
g2347
sg64
(lp2354
g57
(g58
g59
NtRp2355
(dp2356
g62
(dp2357
g70
I3
ssg71
g2351
sg64
(lp2358
g1424
asbasbasbasbasbasbasbag57
(g73
g59
NtRp2359
(dp2360
g62
(dp2361
sg71
g2084
sg64
(lp2362
g57
(g78
g59
NtRp2363
(dp2364
g62
(dp2365
g82
g83
ssg71
g2359
sg64
(lp2366
g1692
asbag57
(g78
g59
NtRp2367
(dp2368
g62
(dp2369
g89
g90
ssg71
g2359
sg64
(lp2370
S':'
asbag57
(g78
g59
NtRp2371
(dp2372
g62
(dp2373
sg71
g2359
sg64
(lp2374
g57
(g58
g59
NtRp2375
(dp2376
g62
(dp2377
g70
I4
ssg71
g2371
sg64
(lp2378
g57
(g66
g59
NtRp2379
(dp2380
g62
(dp2381
g70
I3
ssg71
Nsg64
(lp2382
g57
(g73
g59
NtRp2383
(dp2384
g62
(dp2385
sg71
g2379
sg64
(lp2386
g57
(g78
g59
NtRp2387
(dp2388
g62
(dp2389
sg71
g2383
sg64
(lp2390
g57
(g58
g59
NtRp2391
(dp2392
g62
(dp2393
g70
I3
ssg71
g2387
sg64
(lp2394
S'2'
asbasbasbag57
(g73
g59
NtRp2395
(dp2396
g62
(dp2397
sg71
g2379
sg64
(lp2398
g57
(g78
g59
NtRp2399
(dp2400
g62
(dp2401
sg71
g2395
sg64
(lp2402
g57
(g58
g59
NtRp2403
(dp2404
g62
(dp2405
g70
I3
ssg71
g2399
sg64
(lp2406
S'3'
asbasbasbag57
(g73
g59
NtRp2407
(dp2408
g62
(dp2409
sg71
g2379
sg64
(lp2410
g57
(g78
g59
NtRp2411
(dp2412
g62
(dp2413
sg71
g2407
sg64
(lp2414
g57
(g58
g59
NtRp2415
(dp2416
g62
(dp2417
g70
I3
ssg71
g2411
sg64
(lp2418
S'2'
asbasbasbag57
(g73
g59
NtRp2419
(dp2420
g62
(dp2421
sg71
g2379
sg64
(lp2422
g57
(g78
g59
NtRp2423
(dp2424
g62
(dp2425
sg71
g2419
sg64
(lp2426
g57
(g58
g59
NtRp2427
(dp2428
g62
(dp2429
g70
I3
ssg71
g2423
sg64
(lp2430
S'datetime.datetime(2012, 12, 17, 15, 3, 30)'
p2431
asbasbasbag57
(g73
g59
NtRp2432
(dp2433
g62
(dp2434
sg71
g2379
sg64
(lp2435
g57
(g78
g59
NtRp2436
(dp2437
g62
(dp2438
sg71
g2432
sg64
(lp2439
g57
(g58
g59
NtRp2440
(dp2441
g62
(dp2442
g70
I3
ssg71
g2436
sg64
(lp2443
g1770
asbasbasbasbasbasbasbasbasbasbasbag57
(g73
g59
NtRp2444
(dp2445
g62
(dp2446
sg71
g67
sg64
(lp2447
g57
(g78
g59
NtRp2448
(dp2449
g62
(dp2450
g82
g83
ssg71
g2444
sg64
(lp2451
S'is_https'
p2452
asbag57
(g78
g59
NtRp2453
(dp2454
g62
(dp2455
g89
g90
ssg71
g2444
sg64
(lp2456
S':'
asbag57
(g78
g59
NtRp2457
(dp2458
g62
(dp2459
sg71
g2444
sg64
(lp2460
g57
(g58
g59
NtRp2461
(dp2462
g62
(dp2463
g70
I5
ssg71
g2457
sg64
(lp2464
g100
asbasbasbag57
(g73
g59
NtRp2465
(dp2466
g62
(dp2467
sg71
g67
sg64
(lp2468
g57
(g78
g59
NtRp2469
(dp2470
g62
(dp2471
g82
g83
ssg71
g2465
sg64
(lp2472
S'is_local'
p2473
asbag57
(g78
g59
NtRp2474
(dp2475
g62
(dp2476
g89
g90
ssg71
g2465
sg64
(lp2477
S':'
asbag57
(g78
g59
NtRp2478
(dp2479
g62
(dp2480
sg71
g2465
sg64
(lp2481
g57
(g58
g59
NtRp2482
(dp2483
g62
(dp2484
g70
I5
ssg71
g2478
sg64
(lp2485
g1879
asbasbasbag57
(g73
g59
NtRp2486
(dp2487
g62
(dp2488
sg71
g67
sg64
(lp2489
g57
(g78
g59
NtRp2490
(dp2491
g62
(dp2492
g82
g83
ssg71
g2486
sg64
(lp2493
S'is_restful'
p2494
asbag57
(g78
g59
NtRp2495
(dp2496
g62
(dp2497
g89
g90
ssg71
g2486
sg64
(lp2498
S':'
asbag57
(g78
g59
NtRp2499
(dp2500
g62
(dp2501
sg71
g2486
sg64
(lp2502
g57
(g58
g59
NtRp2503
(dp2504
g62
(dp2505
g70
I5
ssg71
g2499
sg64
(lp2506
g100
asbasbasbag57
(g73
g59
NtRp2507
(dp2508
g62
(dp2509
sg71
g67
sg64
(lp2510
g57
(g78
g59
NtRp2511
(dp2512
g62
(dp2513
g82
g83
ssg71
g2507
sg64
(lp2514
S'now'
p2515
asbag57
(g78
g59
NtRp2516
(dp2517
g62
(dp2518
g89
g90
ssg71
g2507
sg64
(lp2519
S':'
asbag57
(g78
g59
NtRp2520
(dp2521
g62
(dp2522
sg71
g2507
sg64
(lp2523
g57
(g58
g59
NtRp2524
(dp2525
g62
(dp2526
g70
I5
ssg71
g2520
sg64
(lp2527
S'datetime.datetime(2013, 8, 27, 15, 45, 50, 135059)'
p2528
asbasbasbag57
(g73
g59
NtRp2529
(dp2530
g62
(dp2531
sg71
g67
sg64
(lp2532
g57
(g78
g59
NtRp2533
(dp2534
g62
(dp2535
g82
g83
ssg71
g2529
sg64
(lp2536
S'post_vars'
p2537
asbag57
(g78
g59
NtRp2538
(dp2539
g62
(dp2540
g89
g90
ssg71
g2529
sg64
(lp2541
S':'
asbag57
(g78
g59
NtRp2542
(dp2543
g62
(dp2544
sg71
g2529
sg64
(lp2545
g57
(g58
g59
NtRp2546
(dp2547
g62
(dp2548
g70
I5
ssg71
g2542
sg64
(lp2549
g57
(g66
g59
NtRp2550
(dp2551
g62
(dp2552
g70
I4
ssg71
Nsg64
(lp2553
g57
(g73
g59
NtRp2554
(dp2555
g62
(dp2556
sg71
g2550
sg64
(lp2557
g57
(g78
g59
NtRp2558
(dp2559
g62
(dp2560
g82
g83
ssg71
g2554
sg64
(lp2561
S'new_heading'
p2562
asbag57
(g78
g59
NtRp2563
(dp2564
g62
(dp2565
g89
g90
ssg71
g2554
sg64
(lp2566
S':'
asbag57
(g78
g59
NtRp2567
(dp2568
g62
(dp2569
sg71
g2554
sg64
(lp2570
g57
(g58
g59
NtRp2571
(dp2572
g62
(dp2573
g70
I4
ssg71
g2567
sg64
(lp2574
S'changed heading'
p2575
asbasbasbag57
(g73
g59
NtRp2576
(dp2577
g62
(dp2578
sg71
g2550
sg64
(lp2579
g57
(g78
g59
NtRp2580
(dp2581
g62
(dp2582
g82
g83
ssg71
g2576
sg64
(lp2583
S'new_url'
p2584
asbag57
(g78
g59
NtRp2585
(dp2586
g62
(dp2587
g89
g90
ssg71
g2576
sg64
(lp2588
S':'
asbag57
(g78
g59
NtRp2589
(dp2590
g62
(dp2591
sg71
g2576
sg64
(lp2592
g57
(g58
g59
NtRp2593
(dp2594
g62
(dp2595
g70
I4
ssg71
g2589
sg64
(lp2596
S'http://stackoverflow.com/questions/2059111/python-if-statement-with-multiple-conditions'
p2597
asbasbasbasbasbasbasbag57
(g73
g59
NtRp2598
(dp2599
g62
(dp2600
sg71
g67
sg64
(lp2601
g57
(g78
g59
NtRp2602
(dp2603
g62
(dp2604
g82
g83
ssg71
g2598
sg64
(lp2605
S'raw_args'
p2606
asbag57
(g78
g59
NtRp2607
(dp2608
g62
(dp2609
g89
g90
ssg71
g2598
sg64
(lp2610
S':'
asbag57
(g78
g59
NtRp2611
(dp2612
g62
(dp2613
sg71
g2598
sg64
(lp2614
g57
(g58
g59
NtRp2615
(dp2616
g62
(dp2617
g70
I5
ssg71
g2611
sg64
(lp2618
S'4/3'
p2619
asbasbasbag57
(g73
g59
NtRp2620
(dp2621
g62
(dp2622
sg71
g67
sg64
(lp2623
g57
(g78
g59
NtRp2624
(dp2625
g62
(dp2626
g82
g83
ssg71
g2620
sg64
(lp2627
S'raw_extension'
p2628
asbag57
(g78
g59
NtRp2629
(dp2630
g62
(dp2631
g89
g90
ssg71
g2620
sg64
(lp2632
S':'
asbag57
(g78
g59
NtRp2633
(dp2634
g62
(dp2635
sg71
g2620
sg64
(lp2636
g57
(g58
g59
NtRp2637
(dp2638
g62
(dp2639
g70
I5
ssg71
g2633
sg64
(lp2640
S'None'
p2641
asbasbasbag57
(g73
g59
NtRp2642
(dp2643
g62
(dp2644
sg71
g67
sg64
(lp2645
g57
(g78
g59
NtRp2646
(dp2647
g62
(dp2648
g82
g83
ssg71
g2642
sg64
(lp2649
S'url'
p2650
asbag57
(g78
g59
NtRp2651
(dp2652
g62
(dp2653
g89
g90
ssg71
g2642
sg64
(lp2654
S':'
asbag57
(g78
g59
NtRp2655
(dp2656
g62
(dp2657
sg71
g2642
sg64
(lp2658
g57
(g58
g59
NtRp2659
(dp2660
g62
(dp2661
g70
I5
ssg71
g2655
sg64
(lp2662
g1446
asbasbasbag57
(g73
g59
NtRp2663
(dp2664
g62
(dp2665
sg71
g67
sg64
(lp2666
g57
(g78
g59
NtRp2667
(dp2668
g62
(dp2669
g82
g83
ssg71
g2663
sg64
(lp2670
S'utcnow'
p2671
asbag57
(g78
g59
NtRp2672
(dp2673
g62
(dp2674
g89
g90
ssg71
g2663
sg64
(lp2675
S':'
asbag57
(g78
g59
NtRp2676
(dp2677
g62
(dp2678
sg71
g2663
sg64
(lp2679
g57
(g58
g59
NtRp2680
(dp2681
g62
(dp2682
g70
I5
ssg71
g2676
sg64
(lp2683
S'datetime.datetime(2013, 8, 27, 10, 15, 50, 135122)'
p2684
asbasbasbag57
(g73
g59
NtRp2685
(dp2686
g62
(dp2687
sg71
g67
sg64
(lp2688
g57
(g78
g59
NtRp2689
(dp2690
g62
(dp2691
g82
g83
ssg71
g2685
sg64
(lp2692
S'uuid'
p2693
asbag57
(g78
g59
NtRp2694
(dp2695
g62
(dp2696
g89
g90
ssg71
g2685
sg64
(lp2697
S':'
asbag57
(g78
g59
NtRp2698
(dp2699
g62
(dp2700
sg71
g2685
sg64
(lp2701
g57
(g58
g59
NtRp2702
(dp2703
g62
(dp2704
g70
I5
ssg71
g2698
sg64
(lp2705
S'assignmen3/127.0.0.1.2013-08-27.15-45-50.bc658844-92d8-4356-b35b-aeaaae6ee1c6'
p2706
asbasbasbag57
(g73
g59
NtRp2707
(dp2708
g62
(dp2709
sg71
g67
sg64
(lp2710
g57
(g78
g59
NtRp2711
(dp2712
g62
(dp2713
g82
g83
ssg71
g2707
sg64
(lp2714
S'vars'
p2715
asbag57
(g78
g59
NtRp2716
(dp2717
g62
(dp2718
g89
g90
ssg71
g2707
sg64
(lp2719
S':'
asbag57
(g78
g59
NtRp2720
(dp2721
g62
(dp2722
sg71
g2707
sg64
(lp2723
g57
(g58
g59
NtRp2724
(dp2725
g62
(dp2726
g70
I5
ssg71
g2720
sg64
(lp2727
g57
(g66
g59
NtRp2728
(dp2729
g62
(dp2730
g70
I4
ssg71
Nsg64
(lp2731
g57
(g73
g59
NtRp2732
(dp2733
g62
(dp2734
sg71
g2728
sg64
(lp2735
g57
(g78
g59
NtRp2736
(dp2737
g62
(dp2738
g82
g83
ssg71
g2732
sg64
(lp2739
g2562
asbag57
(g78
g59
NtRp2740
(dp2741
g62
(dp2742
g89
g90
ssg71
g2732
sg64
(lp2743
S':'
asbag57
(g78
g59
NtRp2744
(dp2745
g62
(dp2746
sg71
g2732
sg64
(lp2747
g57
(g58
g59
NtRp2748
(dp2749
g62
(dp2750
g70
I4
ssg71
g2744
sg64
(lp2751
g2575
asbasbasbag57
(g73
g59
NtRp2752
(dp2753
g62
(dp2754
sg71
g2728
sg64
(lp2755
g57
(g78
g59
NtRp2756
(dp2757
g62
(dp2758
g82
g83
ssg71
g2752
sg64
(lp2759
g2584
asbag57
(g78
g59
NtRp2760
(dp2761
g62
(dp2762
g89
g90
ssg71
g2752
sg64
(lp2763
S':'
asbag57
(g78
g59
NtRp2764
(dp2765
g62
(dp2766
sg71
g2752
sg64
(lp2767
g57
(g58
g59
NtRp2768
(dp2769
g62
(dp2770
g70
I4
ssg71
g2764
sg64
(lp2771
g2597
asbasbasbasbasbasbasbag57
(g73
g59
NtRp2772
(dp2773
g62
(dp2774
sg71
g67
sg64
(lp2775
g57
(g78
g59
NtRp2776
(dp2777
g62
(dp2778
g82
g83
ssg71
g2772
sg64
(lp2779
S'wsgi'
p2780
asbag57
(g78
g59
NtRp2781
(dp2782
g62
(dp2783
g89
g90
ssg71
g2772
sg64
(lp2784
S':'
asbag57
(g78
g59
NtRp2785
(dp2786
g62
(dp2787
sg71
g2772
sg64
(lp2788
g57
(g58
g59
NtRp2789
(dp2790
g62
(dp2791
g70
I5
ssg71
g2785
sg64
(lp2792
g57
(g66
g59
NtRp2793
(dp2794
g62
(dp2795
g70
I4
ssg71
Nsg64
(lp2796
g57
(g73
g59
NtRp2797
(dp2798
g62
(dp2799
sg71
g2793
sg64
(lp2800
g57
(g78
g59
NtRp2801
(dp2802
g62
(dp2803
g82
g83
ssg71
g2797
sg64
(lp2804
S'environ'
p2805
asbag57
(g78
g59
NtRp2806
(dp2807
g62
(dp2808
g89
g90
ssg71
g2797
sg64
(lp2809
S':'
asbag57
(g78
g59
NtRp2810
(dp2811
g62
(dp2812
sg71
g2797
sg64
(lp2813
g57
(g58
g59
NtRp2814
(dp2815
g62
(dp2816
g70
I4
ssg71
g2810
sg64
(lp2817
g57
(g66
g59
NtRp2818
(dp2819
g62
(dp2820
g70
I3
ssg71
Nsg64
(lp2821
g57
(g73
g59
NtRp2822
(dp2823
g62
(dp2824
sg71
g2818
sg64
(lp2825
g57
(g78
g59
NtRp2826
(dp2827
g62
(dp2828
g82
g83
ssg71
g2822
sg64
(lp2829
S'CONTENT_LENGTH'
p2830
asbag57
(g78
g59
NtRp2831
(dp2832
g62
(dp2833
g89
g90
ssg71
g2822
sg64
(lp2834
S':'
asbag57
(g78
g59
NtRp2835
(dp2836
g62
(dp2837
sg71
g2822
sg64
(lp2838
g57
(g58
g59
NtRp2839
(dp2840
g62
(dp2841
g70
I3
ssg71
g2835
sg64
(lp2842
g987
asbasbasbag57
(g73
g59
NtRp2843
(dp2844
g62
(dp2845
sg71
g2818
sg64
(lp2846
g57
(g78
g59
NtRp2847
(dp2848
g62
(dp2849
g82
g83
ssg71
g2843
sg64
(lp2850
S'CONTENT_TYPE'
p2851
asbag57
(g78
g59
NtRp2852
(dp2853
g62
(dp2854
g89
g90
ssg71
g2843
sg64
(lp2855
S':'
asbag57
(g78
g59
NtRp2856
(dp2857
g62
(dp2858
sg71
g2843
sg64
(lp2859
g57
(g58
g59
NtRp2860
(dp2861
g62
(dp2862
g70
I3
ssg71
g2856
sg64
(lp2863
g1009
asbasbasbag57
(g73
g59
NtRp2864
(dp2865
g62
(dp2866
sg71
g2818
sg64
(lp2867
g57
(g78
g59
NtRp2868
(dp2869
g62
(dp2870
g82
g83
ssg71
g2864
sg64
(lp2871
S'HTTP_ACCEPT'
p2872
asbag57
(g78
g59
NtRp2873
(dp2874
g62
(dp2875
g89
g90
ssg71
g2864
sg64
(lp2876
S':'
asbag57
(g78
g59
NtRp2877
(dp2878
g62
(dp2879
sg71
g2864
sg64
(lp2880
g57
(g58
g59
NtRp2881
(dp2882
g62
(dp2883
g70
I3
ssg71
g2877
sg64
(lp2884
g1096
asbasbasbag57
(g73
g59
NtRp2885
(dp2886
g62
(dp2887
sg71
g2818
sg64
(lp2888
g57
(g78
g59
NtRp2889
(dp2890
g62
(dp2891
g82
g83
ssg71
g2885
sg64
(lp2892
S'HTTP_ACCEPT_ENCODING'
p2893
asbag57
(g78
g59
NtRp2894
(dp2895
g62
(dp2896
g89
g90
ssg71
g2885
sg64
(lp2897
S':'
asbag57
(g78
g59
NtRp2898
(dp2899
g62
(dp2900
sg71
g2885
sg64
(lp2901
g57
(g58
g59
NtRp2902
(dp2903
g62
(dp2904
g70
I3
ssg71
g2898
sg64
(lp2905
g1118
asbasbasbag57
(g73
g59
NtRp2906
(dp2907
g62
(dp2908
sg71
g2818
sg64
(lp2909
g57
(g78
g59
NtRp2910
(dp2911
g62
(dp2912
g82
g83
ssg71
g2906
sg64
(lp2913
S'HTTP_ACCEPT_LANGUAGE'
p2914
asbag57
(g78
g59
NtRp2915
(dp2916
g62
(dp2917
g89
g90
ssg71
g2906
sg64
(lp2918
S':'
asbag57
(g78
g59
NtRp2919
(dp2920
g62
(dp2921
sg71
g2906
sg64
(lp2922
g57
(g58
g59
NtRp2923
(dp2924
g62
(dp2925
g70
I3
ssg71
g2919
sg64
(lp2926
g1140
asbasbasbag57
(g73
g59
NtRp2927
(dp2928
g62
(dp2929
sg71
g2818
sg64
(lp2930
g57
(g78
g59
NtRp2931
(dp2932
g62
(dp2933
g82
g83
ssg71
g2927
sg64
(lp2934
S'HTTP_CONNECTION'
p2935
asbag57
(g78
g59
NtRp2936
(dp2937
g62
(dp2938
g89
g90
ssg71
g2927
sg64
(lp2939
S':'
asbag57
(g78
g59
NtRp2940
(dp2941
g62
(dp2942
sg71
g2927
sg64
(lp2943
g57
(g58
g59
NtRp2944
(dp2945
g62
(dp2946
g70
I3
ssg71
g2940
sg64
(lp2947
g1162
asbasbasbag57
(g73
g59
NtRp2948
(dp2949
g62
(dp2950
sg71
g2818
sg64
(lp2951
g57
(g78
g59
NtRp2952
(dp2953
g62
(dp2954
g82
g83
ssg71
g2948
sg64
(lp2955
S'HTTP_CONTENT_LENGTH'
p2956
asbag57
(g78
g59
NtRp2957
(dp2958
g62
(dp2959
g89
g90
ssg71
g2948
sg64
(lp2960
S':'
asbag57
(g78
g59
NtRp2961
(dp2962
g62
(dp2963
sg71
g2948
sg64
(lp2964
g57
(g58
g59
NtRp2965
(dp2966
g62
(dp2967
g70
I3
ssg71
g2961
sg64
(lp2968
g987
asbasbasbag57
(g73
g59
NtRp2969
(dp2970
g62
(dp2971
sg71
g2818
sg64
(lp2972
g57
(g78
g59
NtRp2973
(dp2974
g62
(dp2975
g82
g83
ssg71
g2969
sg64
(lp2976
S'HTTP_CONTENT_TYPE'
p2977
asbag57
(g78
g59
NtRp2978
(dp2979
g62
(dp2980
g89
g90
ssg71
g2969
sg64
(lp2981
S':'
asbag57
(g78
g59
NtRp2982
(dp2983
g62
(dp2984
sg71
g2969
sg64
(lp2985
g57
(g58
g59
NtRp2986
(dp2987
g62
(dp2988
g70
I3
ssg71
g2982
sg64
(lp2989
g1009
asbasbasbag57
(g73
g59
NtRp2990
(dp2991
g62
(dp2992
sg71
g2818
sg64
(lp2993
g57
(g78
g59
NtRp2994
(dp2995
g62
(dp2996
g82
g83
ssg71
g2990
sg64
(lp2997
S'HTTP_COOKIE'
p2998
asbag57
(g78
g59
NtRp2999
(dp3000
g62
(dp3001
g89
g90
ssg71
g2990
sg64
(lp3002
S':'
asbag57
(g78
g59
NtRp3003
(dp3004
g62
(dp3005
sg71
g2990
sg64
(lp3006
g57
(g58
g59
NtRp3007
(dp3008
g62
(dp3009
g70
I3
ssg71
g3003
sg64
(lp3010
g1226
asbasbasbag57
(g73
g59
NtRp3011
(dp3012
g62
(dp3013
sg71
g2818
sg64
(lp3014
g57
(g78
g59
NtRp3015
(dp3016
g62
(dp3017
g82
g83
ssg71
g3011
sg64
(lp3018
S'HTTP_HOST'
p3019
asbag57
(g78
g59
NtRp3020
(dp3021
g62
(dp3022
g89
g90
ssg71
g3011
sg64
(lp3023
S':'
asbag57
(g78
g59
NtRp3024
(dp3025
g62
(dp3026
sg71
g3011
sg64
(lp3027
g57
(g58
g59
NtRp3028
(dp3029
g62
(dp3030
g70
I3
ssg71
g3024
sg64
(lp3031
g1248
asbasbasbag57
(g73
g59
NtRp3032
(dp3033
g62
(dp3034
sg71
g2818
sg64
(lp3035
g57
(g78
g59
NtRp3036
(dp3037
g62
(dp3038
g82
g83
ssg71
g3032
sg64
(lp3039
S'HTTP_REFERER'
p3040
asbag57
(g78
g59
NtRp3041
(dp3042
g62
(dp3043
g89
g90
ssg71
g3032
sg64
(lp3044
S':'
asbag57
(g78
g59
NtRp3045
(dp3046
g62
(dp3047
sg71
g3032
sg64
(lp3048
g57
(g58
g59
NtRp3049
(dp3050
g62
(dp3051
g70
I3
ssg71
g3045
sg64
(lp3052
g1270
asbasbasbag57
(g73
g59
NtRp3053
(dp3054
g62
(dp3055
sg71
g2818
sg64
(lp3056
g57
(g78
g59
NtRp3057
(dp3058
g62
(dp3059
g82
g83
ssg71
g3053
sg64
(lp3060
S'HTTP_USER_AGENT'
p3061
asbag57
(g78
g59
NtRp3062
(dp3063
g62
(dp3064
g89
g90
ssg71
g3053
sg64
(lp3065
S':'
asbag57
(g78
g59
NtRp3066
(dp3067
g62
(dp3068
sg71
g3053
sg64
(lp3069
g57
(g58
g59
NtRp3070
(dp3071
g62
(dp3072
g70
I3
ssg71
g3066
sg64
(lp3073
g1292
asbasbasbag57
(g73
g59
NtRp3074
(dp3075
g62
(dp3076
sg71
g2818
sg64
(lp3077
g57
(g78
g59
NtRp3078
(dp3079
g62
(dp3080
g82
g83
ssg71
g3074
sg64
(lp3081
S'PATH_INFO'
p3082
asbag57
(g78
g59
NtRp3083
(dp3084
g62
(dp3085
g89
g90
ssg71
g3074
sg64
(lp3086
S':'
asbag57
(g78
g59
NtRp3087
(dp3088
g62
(dp3089
sg71
g3074
sg64
(lp3090
g57
(g58
g59
NtRp3091
(dp3092
g62
(dp3093
g70
I3
ssg71
g3087
sg64
(lp3094
g1446
asbasbasbag57
(g73
g59
NtRp3095
(dp3096
g62
(dp3097
sg71
g2818
sg64
(lp3098
g57
(g78
g59
NtRp3099
(dp3100
g62
(dp3101
g82
g83
ssg71
g3095
sg64
(lp3102
S'QUERY_STRING'
p3103
asbag57
(g78
g59
NtRp3104
(dp3105
g62
(dp3106
g89
g90
ssg71
g3095
sg64
(lp3107
S':'
asbag57
(g78
g59
NtRp3108
(dp3109
g62
(dp3110
sg71
g3095
sg64
(lp3111
g57
(g58
g59
NtRp3112
(dp3113
g62
(dp3114
g70
I3
ssg71
g3108
sg64
(lp3115
S''
asbasbasbag57
(g73
g59
NtRp3116
(dp3117
g62
(dp3118
sg71
g2818
sg64
(lp3119
g57
(g78
g59
NtRp3120
(dp3121
g62
(dp3122
g82
g83
ssg71
g3116
sg64
(lp3123
S'REMOTE_ADDR'
p3124
asbag57
(g78
g59
NtRp3125
(dp3126
g62
(dp3127
g89
g90
ssg71
g3116
sg64
(lp3128
S':'
asbag57
(g78
g59
NtRp3129
(dp3130
g62
(dp3131
sg71
g3116
sg64
(lp3132
g57
(g58
g59
NtRp3133
(dp3134
g62
(dp3135
g70
I3
ssg71
g3129
sg64
(lp3136
g236
asbasbasbag57
(g73
g59
NtRp3137
(dp3138
g62
(dp3139
sg71
g2818
sg64
(lp3140
g57
(g78
g59
NtRp3141
(dp3142
g62
(dp3143
g82
g83
ssg71
g3137
sg64
(lp3144
S'REMOTE_PORT'
p3145
asbag57
(g78
g59
NtRp3146
(dp3147
g62
(dp3148
g89
g90
ssg71
g3137
sg64
(lp3149
S':'
asbag57
(g78
g59
NtRp3150
(dp3151
g62
(dp3152
sg71
g3137
sg64
(lp3153
g57
(g58
g59
NtRp3154
(dp3155
g62
(dp3156
g70
I3
ssg71
g3150
sg64
(lp3157
g1510
asbasbasbag57
(g73
g59
NtRp3158
(dp3159
g62
(dp3160
sg71
g2818
sg64
(lp3161
g57
(g78
g59
NtRp3162
(dp3163
g62
(dp3164
g82
g83
ssg71
g3158
sg64
(lp3165
S'REQUEST_METHOD'
p3166
asbag57
(g78
g59
NtRp3167
(dp3168
g62
(dp3169
g89
g90
ssg71
g3158
sg64
(lp3170
S':'
asbag57
(g78
g59
NtRp3171
(dp3172
g62
(dp3173
sg71
g3158
sg64
(lp3174
g57
(g58
g59
NtRp3175
(dp3176
g62
(dp3177
g70
I3
ssg71
g3171
sg64
(lp3178
g1532
asbasbasbag57
(g73
g59
NtRp3179
(dp3180
g62
(dp3181
sg71
g2818
sg64
(lp3182
g57
(g78
g59
NtRp3183
(dp3184
g62
(dp3185
g82
g83
ssg71
g3179
sg64
(lp3186
S'REQUEST_URI'
p3187
asbag57
(g78
g59
NtRp3188
(dp3189
g62
(dp3190
g89
g90
ssg71
g3179
sg64
(lp3191
S':'
asbag57
(g78
g59
NtRp3192
(dp3193
g62
(dp3194
sg71
g3179
sg64
(lp3195
g57
(g58
g59
NtRp3196
(dp3197
g62
(dp3198
g70
I3
ssg71
g3192
sg64
(lp3199
g1446
asbasbasbag57
(g73
g59
NtRp3200
(dp3201
g62
(dp3202
sg71
g2818
sg64
(lp3203
g57
(g78
g59
NtRp3204
(dp3205
g62
(dp3206
g82
g83
ssg71
g3200
sg64
(lp3207
S'SCRIPT_NAME'
p3208
asbag57
(g78
g59
NtRp3209
(dp3210
g62
(dp3211
g89
g90
ssg71
g3200
sg64
(lp3212
S':'
asbag57
(g78
g59
NtRp3213
(dp3214
g62
(dp3215
sg71
g3200
sg64
(lp3216
g57
(g58
g59
NtRp3217
(dp3218
g62
(dp3219
g70
I3
ssg71
g3213
sg64
(lp3220
S''
asbasbasbag57
(g73
g59
NtRp3221
(dp3222
g62
(dp3223
sg71
g2818
sg64
(lp3224
g57
(g78
g59
NtRp3225
(dp3226
g62
(dp3227
g82
g83
ssg71
g3221
sg64
(lp3228
S'SERVER_NAME'
p3229
asbag57
(g78
g59
NtRp3230
(dp3231
g62
(dp3232
g89
g90
ssg71
g3221
sg64
(lp3233
S':'
asbag57
(g78
g59
NtRp3234
(dp3235
g62
(dp3236
sg71
g3221
sg64
(lp3237
g57
(g58
g59
NtRp3238
(dp3239
g62
(dp3240
g70
I3
ssg71
g3234
sg64
(lp3241
g1596
asbasbasbag57
(g73
g59
NtRp3242
(dp3243
g62
(dp3244
sg71
g2818
sg64
(lp3245
g57
(g78
g59
NtRp3246
(dp3247
g62
(dp3248
g82
g83
ssg71
g3242
sg64
(lp3249
S'SERVER_PORT'
p3250
asbag57
(g78
g59
NtRp3251
(dp3252
g62
(dp3253
g89
g90
ssg71
g3242
sg64
(lp3254
S':'
asbag57
(g78
g59
NtRp3255
(dp3256
g62
(dp3257
sg71
g3242
sg64
(lp3258
g57
(g58
g59
NtRp3259
(dp3260
g62
(dp3261
g70
I3
ssg71
g3255
sg64
(lp3262
g1618
asbasbasbag57
(g73
g59
NtRp3263
(dp3264
g62
(dp3265
sg71
g2818
sg64
(lp3266
g57
(g78
g59
NtRp3267
(dp3268
g62
(dp3269
g82
g83
ssg71
g3263
sg64
(lp3270
S'SERVER_PROTOCOL'
p3271
asbag57
(g78
g59
NtRp3272
(dp3273
g62
(dp3274
g89
g90
ssg71
g3263
sg64
(lp3275
S':'
asbag57
(g78
g59
NtRp3276
(dp3277
g62
(dp3278
sg71
g3263
sg64
(lp3279
g57
(g58
g59
NtRp3280
(dp3281
g62
(dp3282
g70
I3
ssg71
g3276
sg64
(lp3283
g1640
asbasbasbag57
(g73
g59
NtRp3284
(dp3285
g62
(dp3286
sg71
g2818
sg64
(lp3287
g57
(g78
g59
NtRp3288
(dp3289
g62
(dp3290
g82
g83
ssg71
g3284
sg64
(lp3291
S'SERVER_SOFTWARE'
p3292
asbag57
(g78
g59
NtRp3293
(dp3294
g62
(dp3295
g89
g90
ssg71
g3284
sg64
(lp3296
S':'
asbag57
(g78
g59
NtRp3297
(dp3298
g62
(dp3299
sg71
g3284
sg64
(lp3300
g57
(g58
g59
NtRp3301
(dp3302
g62
(dp3303
g70
I3
ssg71
g3297
sg64
(lp3304
g1662
asbasbasbag57
(g73
g59
NtRp3305
(dp3306
g62
(dp3307
sg71
g2818
sg64
(lp3308
g57
(g78
g59
NtRp3309
(dp3310
g62
(dp3311
g82
g83
ssg71
g3305
sg64
(lp3312
S'wsgi.errors'
p3313
asbag57
(g78
g59
NtRp3314
(dp3315
g62
(dp3316
g89
g90
ssg71
g3305
sg64
(lp3317
S':'
asbag57
(g78
g59
NtRp3318
(dp3319
g62
(dp3320
sg71
g3305
sg64
(lp3321
g57
(g58
g59
NtRp3322
(dp3323
g62
(dp3324
g70
I3
ssg71
g3318
sg64
(lp3325
S"<open file '<stderr>', mode 'w' at 0x7f953b4c2270>"
p3326
asbasbasbag57
(g73
g59
NtRp3327
(dp3328
g62
(dp3329
sg71
g2818
sg64
(lp3330
g57
(g78
g59
NtRp3331
(dp3332
g62
(dp3333
g82
g83
ssg71
g3327
sg64
(lp3334
S'wsgi.file_wrapper'
p3335
asbag57
(g78
g59
NtRp3336
(dp3337
g62
(dp3338
g89
g90
ssg71
g3327
sg64
(lp3339
S':'
asbag57
(g78
g59
NtRp3340
(dp3341
g62
(dp3342
sg71
g3327
sg64
(lp3343
g57
(g58
g59
NtRp3344
(dp3345
g62
(dp3346
g70
I3
ssg71
g3340
sg64
(lp3347
S'<class wsgiref.util.FileWrapper at 0x1601b48>'
p3348
asbasbasbag57
(g73
g59
NtRp3349
(dp3350
g62
(dp3351
sg71
g2818
sg64
(lp3352
g57
(g78
g59
NtRp3353
(dp3354
g62
(dp3355
g82
g83
ssg71
g3349
sg64
(lp3356
S'wsgi.input'
p3357
asbag57
(g78
g59
NtRp3358
(dp3359
g62
(dp3360
g89
g90
ssg71
g3349
sg64
(lp3361
S':'
asbag57
(g78
g59
NtRp3362
(dp3363
g62
(dp3364
sg71
g3349
sg64
(lp3365
g57
(g58
g59
NtRp3366
(dp3367
g62
(dp3368
g70
I3
ssg71
g3362
sg64
(lp3369
S"<open file '<fdopen>', mode 'w+b' at 0x7f95288cde40>"
p3370
asbasbasbag57
(g73
g59
NtRp3371
(dp3372
g62
(dp3373
sg71
g2818
sg64
(lp3374
g57
(g78
g59
NtRp3375
(dp3376
g62
(dp3377
g82
g83
ssg71
g3371
sg64
(lp3378
S'wsgi.multiprocess'
p3379
asbag57
(g78
g59
NtRp3380
(dp3381
g62
(dp3382
g89
g90
ssg71
g3371
sg64
(lp3383
S':'
asbag57
(g78
g59
NtRp3384
(dp3385
g62
(dp3386
sg71
g3371
sg64
(lp3387
g57
(g58
g59
NtRp3388
(dp3389
g62
(dp3390
g70
I3
ssg71
g3384
sg64
(lp3391
g100
asbasbasbag57
(g73
g59
NtRp3392
(dp3393
g62
(dp3394
sg71
g2818
sg64
(lp3395
g57
(g78
g59
NtRp3396
(dp3397
g62
(dp3398
g82
g83
ssg71
g3392
sg64
(lp3399
S'wsgi.multithread'
p3400
asbag57
(g78
g59
NtRp3401
(dp3402
g62
(dp3403
g89
g90
ssg71
g3392
sg64
(lp3404
S':'
asbag57
(g78
g59
NtRp3405
(dp3406
g62
(dp3407
sg71
g3392
sg64
(lp3408
g57
(g58
g59
NtRp3409
(dp3410
g62
(dp3411
g70
I3
ssg71
g3405
sg64
(lp3412
g1879
asbasbasbag57
(g73
g59
NtRp3413
(dp3414
g62
(dp3415
sg71
g2818
sg64
(lp3416
g57
(g78
g59
NtRp3417
(dp3418
g62
(dp3419
g82
g83
ssg71
g3413
sg64
(lp3420
S'wsgi.run_once'
p3421
asbag57
(g78
g59
NtRp3422
(dp3423
g62
(dp3424
g89
g90
ssg71
g3413
sg64
(lp3425
S':'
asbag57
(g78
g59
NtRp3426
(dp3427
g62
(dp3428
sg71
g3413
sg64
(lp3429
g57
(g58
g59
NtRp3430
(dp3431
g62
(dp3432
g70
I3
ssg71
g3426
sg64
(lp3433
g100
asbasbasbag57
(g73
g59
NtRp3434
(dp3435
g62
(dp3436
sg71
g2818
sg64
(lp3437
g57
(g78
g59
NtRp3438
(dp3439
g62
(dp3440
g82
g83
ssg71
g3434
sg64
(lp3441
S'wsgi.url_scheme'
p3442
asbag57
(g78
g59
NtRp3443
(dp3444
g62
(dp3445
g89
g90
ssg71
g3434
sg64
(lp3446
S':'
asbag57
(g78
g59
NtRp3447
(dp3448
g62
(dp3449
sg71
g3434
sg64
(lp3450
g57
(g58
g59
NtRp3451
(dp3452
g62
(dp3453
g70
I3
ssg71
g3447
sg64
(lp3454
g1922
asbasbasbag57
(g73
g59
NtRp3455
(dp3456
g62
(dp3457
sg71
g2818
sg64
(lp3458
g57
(g78
g59
NtRp3459
(dp3460
g62
(dp3461
g82
g83
ssg71
g3455
sg64
(lp3462
S'wsgi.version'
p3463
asbag57
(g78
g59
NtRp3464
(dp3465
g62
(dp3466
g89
g90
ssg71
g3455
sg64
(lp3467
S':'
asbag57
(g78
g59
NtRp3468
(dp3469
g62
(dp3470
sg71
g3455
sg64
(lp3471
g57
(g58
g59
NtRp3472
(dp3473
g62
(dp3474
g70
I3
ssg71
g3468
sg64
(lp3475
S'1'
asbasbasbasbasbasbasbasbasbasbasbasbasbsS'frames'
p3476
(lp3477
(dp3478
S'file'
p3479
S'/home/umang/web2py/gluon/restricted.py'
p3480
sS'dump'
p3481
(dp3482
S'environment'
p3483
S"{'A': <class 'gluon.html.A'>, 'Auth': <class 'gluon.tools.Auth'>, 'B': <class 'gluon.html.B'>, 'BEAUTIFY': <class 'gluon.html.BEAUTIFY'>, 'BODY': <class 'gluon.html.BODY'>, 'BR': <class 'gluon.html.BR'>, 'BUTTON': <class 'gluon.html.BUTTON'>, 'CAT': <class 'gluon.html.CAT'>, 'CENTER': <class 'gluon.html.CENTER'>, 'CLEANUP': <class 'gluon.validators.CLEANUP'>, ...}"
p3484
sS'ccode'
p3485
S'<code object <module> at 0x7f950c1a3030, file "/...ions/assignmen3/controllers/default.py", line 12>'
p3486
ssS'lnum'
p3487
I212
sS'lines'
p3488
(dp3489
I207
S'    try:'
p3490
sI208
S'        if isinstance(code, types.CodeType):'
p3491
sI209
S'            ccode = code'
p3492
sI210
S'        else:'
p3493
sI211
S'            ccode = compile2(code, layer)'
p3494
sI212
S'        exec ccode in environment'
p3495
sI213
S'    except HTTP:'
p3496
sI214
S'        raise'
p3497
sI215
S'    except RestrictedError:'
p3498
sI216
S'        # do not encapsulate (obfuscate) the original RestrictedError'
p3499
ssS'call'
p3500
S"(code='# -*- coding: utf-8 -*-\\n# this file is released ...d())\\n\\nresponse._vars=response._caller(edit_news)\\n', environment={'A': <class 'gluon.html.A'>, 'Auth': <class 'gluon.tools.Auth'>, 'B': <class 'gluon.html.B'>, 'BEAUTIFY': <class 'gluon.html.BEAUTIFY'>, 'BODY': <class 'gluon.html.BODY'>, 'BR': <class 'gluon.html.BR'>, 'BUTTON': <class 'gluon.html.BUTTON'>, 'CAT': <class 'gluon.html.CAT'>, 'CENTER': <class 'gluon.html.CENTER'>, 'CLEANUP': <class 'gluon.validators.CLEANUP'>, ...}, layer='/home/umang/web2py/applications/assignmen3/controllers/default.py')"
p3501
sS'func'
p3502
S'restricted'
p3503
sa(dp3504
g3479
S'/home/umang/web2py/applications/assignmen3/controllers/default.py'
p3505
sg3481
(dp3506
sg3487
I202
sg3488
(dp3507
I192
S'    http://..../[app]/default/data/delete/[table]/[id]'
p3508
sI193
S'    http://..../[app]/default/data/select/[table]'
p3509
sI194
S'    http://..../[app]/default/data/search/[table]'
p3510
sI195
S'    but URLs must be signed, i.e. linked with'
p3511
sI196
S"      A('table',_href=URL('data/tables',user_signature=True))"
p3512
sI197
S'    or with the signed load operator'
p3513
sI198
S"      LOAD('default','data.load',args='tables',ajax=True,user_signature=True)"
p3514
sI199
S'    """'
p3515
sI200
S'    return dict(form=crud())'
p3516
sI191
S'    http://..../[app]/default/data/update/[table]/[id]'
p3517
ssg3500
S'()'
p3518
sg3502
S'<module>'
p3519
sa(dp3520
g3479
S'/home/umang/web2py/gluon/globals.py'
p3521
sg3481
(dp3522
S'self'
p3523
S'undefined'
p3524
sS'f'
S'<function edit_news>'
p3525
ssg3487
I193
sg3488
(dp3526
I192
S'        self._vars = None'
p3527
sI193
S'        self._caller = lambda f: f()'
p3528
sI194
S'        self._view_environment = None'
p3529
sI195
S'        self._custom_commit = None'
p3530
sI196
S'        self._custom_rollback = None'
p3531
sI197
S''
sI188
S'        self.menu = []             # used by the default view layout'
p3532
sI189
S'        self.files = []            # used by web2py_ajax.html'
p3533
sI190
S'        self.generic_patterns = []  # patterns to allow generic views'
p3534
sI191
S"        self.delimiters = ('{{', '}}')"
p3535
ssg3500
S'(f=<function edit_news>)'
p3536
sg3502
S'<lambda>'
p3537
sa(dp3538
g3479
S'/home/umang/web2py/gluon/tools.py'
p3539
sg3481
(dp3540
S'action'
p3541
S'<function edit_news>'
p3542
sS'a'
S'()'
p3543
sS'b'
g45
ssg3487
I2929
sg3488
(dp3544
I2924
S'                    flag = condition'
p3545
sI2925
S'                if not flag:'
p3546
sI2926
S'                    current.session.flash = self.messages.access_denied'
p3547
sI2927
S'                    return call_or_redirect('
p3548
sI2928
S'                        self.settings.on_failed_authorization)'
p3549
sI2929
S'                return action(*a, **b)'
p3550
sI2930
S'            f.__doc__ = action.__doc__'
p3551
sI2931
S'            f.__name__ = action.__name__'
p3552
sI2932
S'            f.__dict__.update(action.__dict__)'
p3553
sI2933
S'            return f'
p3554
ssg3500
S'(*a=(), **b={})'
p3555
sg3502
S'f'
sa(dp3556
g3479
S'/home/umang/web2py/applications/assignmen3/controllers/default.py'
p3557
sg3481
(dp3558
S'form.vars'
p3559
S"<Storage {'new_url': 'http://stackoverflow.com/q...', 'id': None, 'new_heading': 'changed heading'}>"
p3560
sS'form'
p3561
S'<gluon.sqlhtml.SQLFORM object>'
p3562
sS'catg'
p3563
S'3'
sS'global tmp_edit'
p3564
S'<function tmp_edit>'
p3565
sS'news_id'
p3566
S'4'
sS'form.vars.url'
p3567
S'None'
p3568
sS'form.vars.new_heading'
p3569
S"'changed heading'"
p3570
ssg3487
I132
sg3488
(dp3571
I128
S"\t\t formstyle='divs',"
p3572
sI129
S'\t\t buttons=[],)'
p3573
sI130
S"   \t\tform[0].insert(1,DIV(INPUT(_type='submit',_value='Post')))"
p3574
sI131
S'\t   \tif form.accepts(request.vars,session):'
p3575
sI132
S'        \t\t tmp_edit(form.vars.new_heading,form.vars.url,news_id,catg)'
p3576
sI133
S'\t    \telif form.errors:'
p3577
sI134
S"        \t\t response.flash='Some Error Occured Please Refresh'"
p3578
sI135
S'\t\treturn dict(form=form)'
p3579
sI136
S''
sI127
S'\t\t db.Field(\'new_url\',\'string\',label="Enter URL",requires=IS_URL()),'
p3580
ssg3500
S'()'
p3581
sg3502
S'edit_news'
p3582
sa(dp3583
g3479
S'/home/umang/web2py/gluon/tools.py'
p3584
sg3481
(dp3585
S'action'
p3586
S'<function tmp_edit>'
p3587
sS'a'
S"('changed heading', None, 4, 3)"
p3588
sS'b'
g45
ssg3487
I2929
sg3488
(dp3589
I2924
S'                    flag = condition'
p3590
sI2925
S'                if not flag:'
p3591
sI2926
S'                    current.session.flash = self.messages.access_denied'
p3592
sI2927
S'                    return call_or_redirect('
p3593
sI2928
S'                        self.settings.on_failed_authorization)'
p3594
sI2929
S'                return action(*a, **b)'
p3595
sI2930
S'            f.__doc__ = action.__doc__'
p3596
sI2931
S'            f.__name__ = action.__name__'
p3597
sI2932
S'            f.__dict__.update(action.__dict__)'
p3598
sI2933
S'            return f'
p3599
ssg3500
S"(*a=('changed heading', None, 4, 3), **b={})"
p3600
sg3502
S'f'
sa(dp3601
g3479
S'/home/umang/web2py/applications/assignmen3/controllers/default.py'
p3602
sg3481
(dp3603
S'rating'
p3604
g3524
sS'db.news.news_id'
p3605
g3524
sS'url'
p3606
g3524
sS'new_url'
p3607
S'None'
p3608
sS'db.news'
p3609
S'<Table news (id,heading,url,category_id,ntype,user_id,rating)>'
p3610
sS'news_id'
p3611
S'4'
sS').update'
p3612
g3524
sS'new_heading'
p3613
S"'changed heading'"
p3614
sS'global db'
p3615
S'<DAL uri="sqlite://storage.sqlite">'
p3616
sS'heading'
p3617
g3524
ssg3487
I139
sg3488
(dp3618
I134
S"        \t\t response.flash='Some Error Occured Please Refresh'"
p3619
sI135
S'\t\treturn dict(form=form)'
p3620
sI136
S''
sI137
S'@auth.requires_login()'
p3621
sI138
S'def tmp_edit(new_heading,new_url,news_id,catg):'
p3622
sI139
S'\tdb(db.news.news_id==news_id).update(heading=new_heading,url=new_url,rating=100)'
p3623
sI140
S"\tredirect(URL(r=request,f='first_page',args=[(int)(catg)]))"
p3624
sI141
S''
sI142
S'@auth.requires_login()'
p3625
sI143
S'def insert_comment(c_body,rec,query):'
p3626
ssg3500
S"(new_heading='changed heading', new_url=None, news_id=4, catg=3)"
p3627
sg3502
S'tmp_edit'
p3628
sa(dp3629
g3479
S'/home/umang/web2py/gluon/dal.py'
p3630
sg3481
(dp3631
S'builtinstr'
p3632
S"<type 'str'>"
p3633
sS'self'
p3634
S'<Table news (id,heading,url,category_id,ntype,user_id,rating)>'
p3635
sS'global ogetattr'
p3636
S"<slot wrapper '__getattribute__' of 'object' objects>"
p3637
sS'key'
p3638
S"'news_id'"
p3639
ssg3487
I7745
sg3488
(dp3640
I7744
S'        elif key:'
p3641
sI7745
S'            return ogetattr(self, str(key))'
p3642
sI7746
S''
sI7747
S'    def __call__(self, key=DEFAULT, **kwargs):'
p3643
sI7748
S"        for_update = kwargs.get('_for_update',False)"
p3644
sI7749
S"        if '_for_update' in kwargs: del kwargs['_for_update']"
p3645
sI7740
S'                return rows[0]'
p3646
sI7741
S'            return None'
p3647
sI7742
S"        elif str(key).isdigit() or 'google' in DRIVERS and isinstance(key, Key):"
p3648
sI7743
S'            return self._db(self._id == key).select(limitby=(0,1)).first()'
p3649
ssg3500
S"(self=<Table news (id,heading,url,category_id,ntype,user_id,rating)>, key='news_id')"
p3650
sg3502
g20
sasS'pyver'
p3651
S'Python 2.7.3: /usr/bin/python'
p3652
sS'session'
p3653
g57
(g58
g59
NtRp3654
(dp3655
g62
(dp3656
sg64
(lp3657
g57
(g66
g59
NtRp3658
(dp3659
g62
(dp3660
g70
I5
ssg71
Nsg64
(lp3661
g57
(g73
g59
NtRp3662
(dp3663
g62
(dp3664
sg71
g3658
sg64
(lp3665
g57
(g78
g59
NtRp3666
(dp3667
g62
(dp3668
g82
g83
ssg71
g3662
sg64
(lp3669
S'auth'
p3670
asbag57
(g78
g59
NtRp3671
(dp3672
g62
(dp3673
g89
g90
ssg71
g3662
sg64
(lp3674
S':'
asbag57
(g78
g59
NtRp3675
(dp3676
g62
(dp3677
sg71
g3662
sg64
(lp3678
g57
(g58
g59
NtRp3679
(dp3680
g62
(dp3681
g70
I5
ssg71
g3675
sg64
(lp3682
g57
(g66
g59
NtRp3683
(dp3684
g62
(dp3685
g70
I4
ssg71
Nsg64
(lp3686
g57
(g73
g59
NtRp3687
(dp3688
g62
(dp3689
sg71
g3683
sg64
(lp3690
g57
(g78
g59
NtRp3691
(dp3692
g62
(dp3693
g82
g83
ssg71
g3687
sg64
(lp3694
S'expiration'
p3695
asbag57
(g78
g59
NtRp3696
(dp3697
g62
(dp3698
g89
g90
ssg71
g3687
sg64
(lp3699
S':'
asbag57
(g78
g59
NtRp3700
(dp3701
g62
(dp3702
sg71
g3687
sg64
(lp3703
g57
(g58
g59
NtRp3704
(dp3705
g62
(dp3706
g70
I4
ssg71
g3700
sg64
(lp3707
S'3600'
p3708
asbasbasbag57
(g73
g59
NtRp3709
(dp3710
g62
(dp3711
sg71
g3683
sg64
(lp3712
g57
(g78
g59
NtRp3713
(dp3714
g62
(dp3715
g82
g83
ssg71
g3709
sg64
(lp3716
S'hmac_key'
p3717
asbag57
(g78
g59
NtRp3718
(dp3719
g62
(dp3720
g89
g90
ssg71
g3709
sg64
(lp3721
S':'
asbag57
(g78
g59
NtRp3722
(dp3723
g62
(dp3724
sg71
g3709
sg64
(lp3725
g57
(g58
g59
NtRp3726
(dp3727
g62
(dp3728
g70
I4
ssg71
g3722
sg64
(lp3729
S'4107bf60-9c3d-438f-9050-70f5ba162069'
p3730
asbasbasbag57
(g73
g59
NtRp3731
(dp3732
g62
(dp3733
sg71
g3683
sg64
(lp3734
g57
(g78
g59
NtRp3735
(dp3736
g62
(dp3737
g82
g83
ssg71
g3731
sg64
(lp3738
S'last_visit'
p3739
asbag57
(g78
g59
NtRp3740
(dp3741
g62
(dp3742
g89
g90
ssg71
g3731
sg64
(lp3743
S':'
asbag57
(g78
g59
NtRp3744
(dp3745
g62
(dp3746
sg71
g3731
sg64
(lp3747
g57
(g58
g59
NtRp3748
(dp3749
g62
(dp3750
g70
I4
ssg71
g3744
sg64
(lp3751
S'datetime.datetime(2013, 8, 27, 15, 45, 50, 135059)'
p3752
asbasbasbag57
(g73
g59
NtRp3753
(dp3754
g62
(dp3755
sg71
g3683
sg64
(lp3756
g57
(g78
g59
NtRp3757
(dp3758
g62
(dp3759
g82
g83
ssg71
g3753
sg64
(lp3760
S'remember'
p3761
asbag57
(g78
g59
NtRp3762
(dp3763
g62
(dp3764
g89
g90
ssg71
g3753
sg64
(lp3765
S':'
asbag57
(g78
g59
NtRp3766
(dp3767
g62
(dp3768
sg71
g3753
sg64
(lp3769
g57
(g58
g59
NtRp3770
(dp3771
g62
(dp3772
g70
I4
ssg71
g3766
sg64
(lp3773
g100
asbasbasbag57
(g73
g59
NtRp3774
(dp3775
g62
(dp3776
sg71
g3683
sg64
(lp3777
g57
(g78
g59
NtRp3778
(dp3779
g62
(dp3780
g82
g83
ssg71
g3774
sg64
(lp3781
S'user'
p3782
asbag57
(g78
g59
NtRp3783
(dp3784
g62
(dp3785
g89
g90
ssg71
g3774
sg64
(lp3786
S':'
asbag57
(g78
g59
NtRp3787
(dp3788
g62
(dp3789
sg71
g3774
sg64
(lp3790
g57
(g58
g59
NtRp3791
(dp3792
g62
(dp3793
g70
I4
ssg71
g3787
sg64
(lp3794
g57
(g66
g59
NtRp3795
(dp3796
g62
(dp3797
g70
I3
ssg71
Nsg64
(lp3798
g57
(g73
g59
NtRp3799
(dp3800
g62
(dp3801
sg71
g3795
sg64
(lp3802
g57
(g78
g59
NtRp3803
(dp3804
g62
(dp3805
g82
g83
ssg71
g3799
sg64
(lp3806
S'email'
p3807
asbag57
(g78
g59
NtRp3808
(dp3809
g62
(dp3810
g89
g90
ssg71
g3799
sg64
(lp3811
S':'
asbag57
(g78
g59
NtRp3812
(dp3813
g62
(dp3814
sg71
g3799
sg64
(lp3815
g57
(g58
g59
NtRp3816
(dp3817
g62
(dp3818
g70
I3
ssg71
g3812
sg64
(lp3819
S'umang.goel@students.iiit.ac.in'
p3820
asbasbasbag57
(g73
g59
NtRp3821
(dp3822
g62
(dp3823
sg71
g3795
sg64
(lp3824
g57
(g78
g59
NtRp3825
(dp3826
g62
(dp3827
g82
g83
ssg71
g3821
sg64
(lp3828
S'first_name'
p3829
asbag57
(g78
g59
NtRp3830
(dp3831
g62
(dp3832
g89
g90
ssg71
g3821
sg64
(lp3833
S':'
asbag57
(g78
g59
NtRp3834
(dp3835
g62
(dp3836
sg71
g3821
sg64
(lp3837
g57
(g58
g59
NtRp3838
(dp3839
g62
(dp3840
g70
I3
ssg71
g3834
sg64
(lp3841
S'Umang'
p3842
asbasbasbag57
(g73
g59
NtRp3843
(dp3844
g62
(dp3845
sg71
g3795
sg64
(lp3846
g57
(g78
g59
NtRp3847
(dp3848
g62
(dp3849
g82
g83
ssg71
g3843
sg64
(lp3850
S'id'
p3851
asbag57
(g78
g59
NtRp3852
(dp3853
g62
(dp3854
g89
g90
ssg71
g3843
sg64
(lp3855
S':'
asbag57
(g78
g59
NtRp3856
(dp3857
g62
(dp3858
sg71
g3843
sg64
(lp3859
g57
(g58
g59
NtRp3860
(dp3861
g62
(dp3862
g70
I3
ssg71
g3856
sg64
(lp3863
S'1'
asbasbasbag57
(g73
g59
NtRp3864
(dp3865
g62
(dp3866
sg71
g3795
sg64
(lp3867
g57
(g78
g59
NtRp3868
(dp3869
g62
(dp3870
g82
g83
ssg71
g3864
sg64
(lp3871
S'last_name'
p3872
asbag57
(g78
g59
NtRp3873
(dp3874
g62
(dp3875
g89
g90
ssg71
g3864
sg64
(lp3876
S':'
asbag57
(g78
g59
NtRp3877
(dp3878
g62
(dp3879
sg71
g3864
sg64
(lp3880
g57
(g58
g59
NtRp3881
(dp3882
g62
(dp3883
g70
I3
ssg71
g3877
sg64
(lp3884
S'Goel'
p3885
asbasbasbag57
(g73
g59
NtRp3886
(dp3887
g62
(dp3888
sg71
g3795
sg64
(lp3889
g57
(g78
g59
NtRp3890
(dp3891
g62
(dp3892
g82
g83
ssg71
g3886
sg64
(lp3893
S'registration_id'
p3894
asbag57
(g78
g59
NtRp3895
(dp3896
g62
(dp3897
g89
g90
ssg71
g3886
sg64
(lp3898
S':'
asbag57
(g78
g59
NtRp3899
(dp3900
g62
(dp3901
sg71
g3886
sg64
(lp3902
g57
(g58
g59
NtRp3903
(dp3904
g62
(dp3905
g70
I3
ssg71
g3899
sg64
(lp3906
S''
asbasbasbag57
(g73
g59
NtRp3907
(dp3908
g62
(dp3909
sg71
g3795
sg64
(lp3910
g57
(g78
g59
NtRp3911
(dp3912
g62
(dp3913
g82
g83
ssg71
g3907
sg64
(lp3914
S'registration_key'
p3915
asbag57
(g78
g59
NtRp3916
(dp3917
g62
(dp3918
g89
g90
ssg71
g3907
sg64
(lp3919
S':'
asbag57
(g78
g59
NtRp3920
(dp3921
g62
(dp3922
sg71
g3907
sg64
(lp3923
g57
(g58
g59
NtRp3924
(dp3925
g62
(dp3926
g70
I3
ssg71
g3920
sg64
(lp3927
S''
asbasbasbag57
(g73
g59
NtRp3928
(dp3929
g62
(dp3930
sg71
g3795
sg64
(lp3931
g57
(g78
g59
NtRp3932
(dp3933
g62
(dp3934
g82
g83
ssg71
g3928
sg64
(lp3935
S'reset_password_key'
p3936
asbag57
(g78
g59
NtRp3937
(dp3938
g62
(dp3939
g89
g90
ssg71
g3928
sg64
(lp3940
S':'
asbag57
(g78
g59
NtRp3941
(dp3942
g62
(dp3943
sg71
g3928
sg64
(lp3944
g57
(g58
g59
NtRp3945
(dp3946
g62
(dp3947
g70
I3
ssg71
g3941
sg64
(lp3948
S''
asbasbasbasbasbasbasbag57
(g73
g59
NtRp3949
(dp3950
g62
(dp3951
sg71
g3683
sg64
(lp3952
g57
(g78
g59
NtRp3953
(dp3954
g62
(dp3955
g82
g83
ssg71
g3949
sg64
(lp3956
S'user_groups'
p3957
asbag57
(g78
g59
NtRp3958
(dp3959
g62
(dp3960
g89
g90
ssg71
g3949
sg64
(lp3961
S':'
asbag57
(g78
g59
NtRp3962
(dp3963
g62
(dp3964
sg71
g3949
sg64
(lp3965
g57
(g58
g59
NtRp3966
(dp3967
g62
(dp3968
g70
I4
ssg71
g3962
sg64
(lp3969
g57
(g66
g59
NtRp3970
(dp3971
g62
(dp3972
g70
I3
ssg71
Nsg64
(lp3973
g57
(g73
g59
NtRp3974
(dp3975
g62
(dp3976
sg71
g3970
sg64
(lp3977
g57
(g78
g59
NtRp3978
(dp3979
g62
(dp3980
g82
g83
ssg71
g3974
sg64
(lp3981
S'1'
asbag57
(g78
g59
NtRp3982
(dp3983
g62
(dp3984
g89
g90
ssg71
g3974
sg64
(lp3985
S':'
asbag57
(g78
g59
NtRp3986
(dp3987
g62
(dp3988
sg71
g3974
sg64
(lp3989
g57
(g58
g59
NtRp3990
(dp3991
g62
(dp3992
g70
I3
ssg71
g3986
sg64
(lp3993
S'user_1'
p3994
asbasbasbasbasbasbasbasbasbasbasbag57
(g73
g59
NtRp3995
(dp3996
g62
(dp3997
sg71
g3658
sg64
(lp3998
g57
(g78
g59
NtRp3999
(dp4000
g62
(dp4001
g82
g83
ssg71
g3995
sg64
(lp4002
S'flash'
p4003
asbag57
(g78
g59
NtRp4004
(dp4005
g62
(dp4006
g89
g90
ssg71
g3995
sg64
(lp4007
S':'
asbag57
(g78
g59
NtRp4008
(dp4009
g62
(dp4010
sg71
g3995
sg64
(lp4011
g57
(g58
g59
NtRp4012
(dp4013
g62
(dp4014
g70
I5
ssg71
g4008
sg64
(lp4015
S'None'
p4016
asbasbasbag57
(g73
g59
NtRp4017
(dp4018
g62
(dp4019
sg71
g3658
sg64
(lp4020
g57
(g78
g59
NtRp4021
(dp4022
g62
(dp4023
g82
g83
ssg71
g4017
sg64
(lp4024
S'last_orderby'
p4025
asbag57
(g78
g59
NtRp4026
(dp4027
g62
(dp4028
g89
g90
ssg71
g4017
sg64
(lp4029
S':'
asbag57
(g78
g59
NtRp4030
(dp4031
g62
(dp4032
sg71
g4017
sg64
(lp4033
g57
(g58
g59
NtRp4034
(dp4035
g62
(dp4036
g70
I5
ssg71
g4030
sg64
(lp4037
S'None'
p4038
asbasbasbag57
(g73
g59
NtRp4039
(dp4040
g62
(dp4041
sg71
g3658
sg64
(lp4042
g57
(g78
g59
NtRp4043
(dp4044
g62
(dp4045
g82
g83
ssg71
g4039
sg64
(lp4046
S'last_query'
p4047
asbag57
(g78
g59
NtRp4048
(dp4049
g62
(dp4050
g89
g90
ssg71
g4039
sg64
(lp4051
S':'
asbag57
(g78
g59
NtRp4052
(dp4053
g62
(dp4054
sg71
g4039
sg64
(lp4055
g57
(g58
g59
NtRp4056
(dp4057
g62
(dp4058
g70
I5
ssg71
g4052
sg64
(lp4059
S'db.news.id>0'
p4060
asbasbasbasbasbsS'etype'
p4061
S"<type 'exceptions.AttributeError'>"
p4062
sS'date'
p4063
S'Tue Aug 27 15:45:50 2013'
p4064
sS'response'
p4065
g57
(g58
g59
NtRp4066
(dp4067
g62
(dp4068
sg64
(lp4069
g57
(g66
g59
NtRp4070
(dp4071
g62
(dp4072
g70
I5
ssg71
Nsg64
(lp4073
g57
(g73
g59
NtRp4074
(dp4075
g62
(dp4076
sg71
g4070
sg64
(lp4077
g57
(g78
g59
NtRp4078
(dp4079
g62
(dp4080
g82
g83
ssg71
g4074
sg64
(lp4081
g179
asbag57
(g78
g59
NtRp4082
(dp4083
g62
(dp4084
g89
g90
ssg71
g4074
sg64
(lp4085
S':'
asbag57
(g78
g59
NtRp4086
(dp4087
g62
(dp4088
sg71
g4074
sg64
(lp4089
g57
(g58
g59
NtRp4090
(dp4091
g62
(dp4092
g70
I5
ssg71
g4086
sg64
(lp4093
S'<cStringIO.StringO object at 0x7f95202eb180>'
p4094
asbasbasbag57
(g73
g59
NtRp4095
(dp4096
g62
(dp4097
sg71
g4070
sg64
(lp4098
g57
(g78
g59
NtRp4099
(dp4100
g62
(dp4101
g82
g83
ssg71
g4095
sg64
(lp4102
g267
asbag57
(g78
g59
NtRp4103
(dp4104
g62
(dp4105
g89
g90
ssg71
g4095
sg64
(lp4106
S':'
asbag57
(g78
g59
NtRp4107
(dp4108
g62
(dp4109
sg71
g4095
sg64
(lp4110
g57
(g58
g59
NtRp4111
(dp4112
g62
(dp4113
g70
I5
ssg71
g4107
sg64
(lp4114
g57
(g66
g59
NtRp4115
(dp4116
g62
(dp4117
g70
I4
ssg71
Nsg64
(lp4118
g57
(g73
g59
NtRp4119
(dp4120
g62
(dp4121
sg71
g4115
sg64
(lp4122
g57
(g78
g59
NtRp4123
(dp4124
g62
(dp4125
g82
g83
ssg71
g4119
sg64
(lp4126
S'session_id_assignmen3'
p4127
asbag57
(g78
g59
NtRp4128
(dp4129
g62
(dp4130
g89
g90
ssg71
g4119
sg64
(lp4131
S':'
asbag57
(g78
g59
NtRp4132
(dp4133
g62
(dp4134
sg71
g4119
sg64
(lp4135
g57
(g58
g59
NtRp4136
(dp4137
g62
(dp4138
g70
I4
ssg71
g4132
sg64
(lp4139
g499
ag57
(g66
g59
NtRp4140
(dp4141
g62
(dp4142
g70
I3
ssg71
Nsg64
(lp4143
g57
(g73
g59
NtRp4144
(dp4145
g62
(dp4146
sg71
g4140
sg64
(lp4147
g57
(g78
g59
NtRp4148
(dp4149
g62
(dp4150
g82
g83
ssg71
g4144
sg64
(lp4151
g318
asbag57
(g78
g59
NtRp4152
(dp4153
g62
(dp4154
g89
g90
ssg71
g4144
sg64
(lp4155
S':'
asbag57
(g78
g59
NtRp4156
(dp4157
g62
(dp4158
sg71
g4144
sg64
(lp4159
g57
(g58
g59
NtRp4160
(dp4161
g62
(dp4162
g70
I3
ssg71
g4156
sg64
(lp4163
S''
asbasbasbag57
(g73
g59
NtRp4164
(dp4165
g62
(dp4166
sg71
g4140
sg64
(lp4167
g57
(g78
g59
NtRp4168
(dp4169
g62
(dp4170
g82
g83
ssg71
g4164
sg64
(lp4171
g339
asbag57
(g78
g59
NtRp4172
(dp4173
g62
(dp4174
g89
g90
ssg71
g4164
sg64
(lp4175
S':'
asbag57
(g78
g59
NtRp4176
(dp4177
g62
(dp4178
sg71
g4164
sg64
(lp4179
g57
(g58
g59
NtRp4180
(dp4181
g62
(dp4182
g70
I3
ssg71
g4176
sg64
(lp4183
S''
asbasbasbag57
(g73
g59
NtRp4184
(dp4185
g62
(dp4186
sg71
g4140
sg64
(lp4187
g57
(g78
g59
NtRp4188
(dp4189
g62
(dp4190
g82
g83
ssg71
g4184
sg64
(lp4191
g360
asbag57
(g78
g59
NtRp4192
(dp4193
g62
(dp4194
g89
g90
ssg71
g4184
sg64
(lp4195
S':'
asbag57
(g78
g59
NtRp4196
(dp4197
g62
(dp4198
sg71
g4184
sg64
(lp4199
g57
(g58
g59
NtRp4200
(dp4201
g62
(dp4202
g70
I3
ssg71
g4196
sg64
(lp4203
S''
asbasbasbag57
(g73
g59
NtRp4204
(dp4205
g62
(dp4206
sg71
g4140
sg64
(lp4207
g57
(g78
g59
NtRp4208
(dp4209
g62
(dp4210
g82
g83
ssg71
g4204
sg64
(lp4211
g381
asbag57
(g78
g59
NtRp4212
(dp4213
g62
(dp4214
g89
g90
ssg71
g4204
sg64
(lp4215
S':'
asbag57
(g78
g59
NtRp4216
(dp4217
g62
(dp4218
sg71
g4204
sg64
(lp4219
g57
(g58
g59
NtRp4220
(dp4221
g62
(dp4222
g70
I3
ssg71
g4216
sg64
(lp4223
S''
asbasbasbag57
(g73
g59
NtRp4224
(dp4225
g62
(dp4226
sg71
g4140
sg64
(lp4227
g57
(g78
g59
NtRp4228
(dp4229
g62
(dp4230
g82
g83
ssg71
g4224
sg64
(lp4231
g402
asbag57
(g78
g59
NtRp4232
(dp4233
g62
(dp4234
g89
g90
ssg71
g4224
sg64
(lp4235
S':'
asbag57
(g78
g59
NtRp4236
(dp4237
g62
(dp4238
sg71
g4224
sg64
(lp4239
g57
(g58
g59
NtRp4240
(dp4241
g62
(dp4242
g70
I3
ssg71
g4236
sg64
(lp4243
S''
asbasbasbag57
(g73
g59
NtRp4244
(dp4245
g62
(dp4246
sg71
g4140
sg64
(lp4247
g57
(g78
g59
NtRp4248
(dp4249
g62
(dp4250
g82
g83
ssg71
g4244
sg64
(lp4251
g423
asbag57
(g78
g59
NtRp4252
(dp4253
g62
(dp4254
g89
g90
ssg71
g4244
sg64
(lp4255
S':'
asbag57
(g78
g59
NtRp4256
(dp4257
g62
(dp4258
sg71
g4244
sg64
(lp4259
g57
(g58
g59
NtRp4260
(dp4261
g62
(dp4262
g70
I3
ssg71
g4256
sg64
(lp4263
S'/'
asbasbasbag57
(g73
g59
NtRp4264
(dp4265
g62
(dp4266
sg71
g4140
sg64
(lp4267
g57
(g78
g59
NtRp4268
(dp4269
g62
(dp4270
g82
g83
ssg71
g4264
sg64
(lp4271
g444
asbag57
(g78
g59
NtRp4272
(dp4273
g62
(dp4274
g89
g90
ssg71
g4264
sg64
(lp4275
S':'
asbag57
(g78
g59
NtRp4276
(dp4277
g62
(dp4278
sg71
g4264
sg64
(lp4279
g57
(g58
g59
NtRp4280
(dp4281
g62
(dp4282
g70
I3
ssg71
g4276
sg64
(lp4283
S''
asbasbasbag57
(g73
g59
NtRp4284
(dp4285
g62
(dp4286
sg71
g4140
sg64
(lp4287
g57
(g78
g59
NtRp4288
(dp4289
g62
(dp4290
g82
g83
ssg71
g4284
sg64
(lp4291
g465
asbag57
(g78
g59
NtRp4292
(dp4293
g62
(dp4294
g89
g90
ssg71
g4284
sg64
(lp4295
S':'
asbag57
(g78
g59
NtRp4296
(dp4297
g62
(dp4298
sg71
g4284
sg64
(lp4299
g57
(g58
g59
NtRp4300
(dp4301
g62
(dp4302
g70
I3
ssg71
g4296
sg64
(lp4303
S''
asbasbasbasbasbasbasbasbasbasbasbag57
(g73
g59
NtRp4304
(dp4305
g62
(dp4306
sg71
g4070
sg64
(lp4307
g57
(g78
g59
NtRp4308
(dp4309
g62
(dp4310
g82
g83
ssg71
g4304
sg64
(lp4311
S'delimiters'
p4312
asbag57
(g78
g59
NtRp4313
(dp4314
g62
(dp4315
g89
g90
ssg71
g4304
sg64
(lp4316
S':'
asbag57
(g78
g59
NtRp4317
(dp4318
g62
(dp4319
sg71
g4304
sg64
(lp4320
g57
(g58
g59
NtRp4321
(dp4322
g62
(dp4323
g70
I5
ssg71
g4317
sg64
(lp4324
g57
(g66
g59
NtRp4325
(dp4326
g62
(dp4327
g70
I4
ssg71
Nsg64
(lp4328
g57
(g73
g59
NtRp4329
(dp4330
g62
(dp4331
sg71
g4325
sg64
(lp4332
g57
(g78
g59
NtRp4333
(dp4334
g62
(dp4335
sg71
g4329
sg64
(lp4336
g57
(g58
g59
NtRp4337
(dp4338
g62
(dp4339
g70
I4
ssg71
g4333
sg64
(lp4340
S'{{'
p4341
asbasbasbag57
(g73
g59
NtRp4342
(dp4343
g62
(dp4344
sg71
g4325
sg64
(lp4345
g57
(g78
g59
NtRp4346
(dp4347
g62
(dp4348
sg71
g4342
sg64
(lp4349
g57
(g58
g59
NtRp4350
(dp4351
g62
(dp4352
g70
I4
ssg71
g4346
sg64
(lp4353
S'}}'
p4354
asbasbasbasbasbasbasbag57
(g73
g59
NtRp4355
(dp4356
g62
(dp4357
sg71
g4070
sg64
(lp4358
g57
(g78
g59
NtRp4359
(dp4360
g62
(dp4361
g82
g83
ssg71
g4355
sg64
(lp4362
S'files'
p4363
asbag57
(g78
g59
NtRp4364
(dp4365
g62
(dp4366
g89
g90
ssg71
g4355
sg64
(lp4367
S':'
asbag57
(g78
g59
NtRp4368
(dp4369
g62
(dp4370
sg71
g4355
sg64
(lp4371
g57
(g58
g59
NtRp4372
(dp4373
g62
(dp4374
g70
I5
ssg71
g4368
sg64
(lp4375
g57
(g66
g59
NtRp4376
(dp4377
g62
(dp4378
g70
I4
ssg71
Nsg64
(lp4379
sbasbasbasbag57
(g73
g59
NtRp4380
(dp4381
g62
(dp4382
sg71
g4070
sg64
(lp4383
g57
(g78
g59
NtRp4384
(dp4385
g62
(dp4386
g82
g83
ssg71
g4380
sg64
(lp4387
S'flash'
p4388
asbag57
(g78
g59
NtRp4389
(dp4390
g62
(dp4391
g89
g90
ssg71
g4380
sg64
(lp4392
S':'
asbag57
(g78
g59
NtRp4393
(dp4394
g62
(dp4395
sg71
g4380
sg64
(lp4396
g57
(g58
g59
NtRp4397
(dp4398
g62
(dp4399
g70
I5
ssg71
g4393
sg64
(lp4400
S''
asbasbasbag57
(g73
g59
NtRp4401
(dp4402
g62
(dp4403
sg71
g4070
sg64
(lp4404
g57
(g78
g59
NtRp4405
(dp4406
g62
(dp4407
g82
g83
ssg71
g4401
sg64
(lp4408
S'generic_patterns'
p4409
asbag57
(g78
g59
NtRp4410
(dp4411
g62
(dp4412
g89
g90
ssg71
g4401
sg64
(lp4413
S':'
asbag57
(g78
g59
NtRp4414
(dp4415
g62
(dp4416
sg71
g4401
sg64
(lp4417
g57
(g58
g59
NtRp4418
(dp4419
g62
(dp4420
g70
I5
ssg71
g4414
sg64
(lp4421
g57
(g66
g59
NtRp4422
(dp4423
g62
(dp4424
g70
I4
ssg71
Nsg64
(lp4425
g57
(g73
g59
NtRp4426
(dp4427
g62
(dp4428
sg71
g4422
sg64
(lp4429
g57
(g78
g59
NtRp4430
(dp4431
g62
(dp4432
sg71
g4426
sg64
(lp4433
g57
(g58
g59
NtRp4434
(dp4435
g62
(dp4436
g70
I4
ssg71
g4430
sg64
(lp4437
S'*'
asbasbasbasbasbasbasbag57
(g73
g59
NtRp4438
(dp4439
g62
(dp4440
sg71
g4070
sg64
(lp4441
g57
(g78
g59
NtRp4442
(dp4443
g62
(dp4444
g82
g83
ssg71
g4438
sg64
(lp4445
S'google_analytics_id'
p4446
asbag57
(g78
g59
NtRp4447
(dp4448
g62
(dp4449
g89
g90
ssg71
g4438
sg64
(lp4450
S':'
asbag57
(g78
g59
NtRp4451
(dp4452
g62
(dp4453
sg71
g4438
sg64
(lp4454
g57
(g58
g59
NtRp4455
(dp4456
g62
(dp4457
g70
I5
ssg71
g4451
sg64
(lp4458
S'None'
p4459
asbasbasbag57
(g73
g59
NtRp4460
(dp4461
g62
(dp4462
sg71
g4070
sg64
(lp4463
g57
(g78
g59
NtRp4464
(dp4465
g62
(dp4466
g82
g83
ssg71
g4460
sg64
(lp4467
S'headers'
p4468
asbag57
(g78
g59
NtRp4469
(dp4470
g62
(dp4471
g89
g90
ssg71
g4460
sg64
(lp4472
S':'
asbag57
(g78
g59
NtRp4473
(dp4474
g62
(dp4475
sg71
g4460
sg64
(lp4476
g57
(g58
g59
NtRp4477
(dp4478
g62
(dp4479
g70
I5
ssg71
g4473
sg64
(lp4480
g57
(g66
g59
NtRp4481
(dp4482
g62
(dp4483
g70
I4
ssg71
Nsg64
(lp4484
g57
(g73
g59
NtRp4485
(dp4486
g62
(dp4487
sg71
g4481
sg64
(lp4488
g57
(g78
g59
NtRp4489
(dp4490
g62
(dp4491
g82
g83
ssg71
g4485
sg64
(lp4492
S'X-Powered-By'
p4493
asbag57
(g78
g59
NtRp4494
(dp4495
g62
(dp4496
g89
g90
ssg71
g4485
sg64
(lp4497
S':'
asbag57
(g78
g59
NtRp4498
(dp4499
g62
(dp4500
sg71
g4485
sg64
(lp4501
g57
(g58
g59
NtRp4502
(dp4503
g62
(dp4504
g70
I4
ssg71
g4498
sg64
(lp4505
S'web2py'
p4506
asbasbasbasbasbasbasbag57
(g73
g59
NtRp4507
(dp4508
g62
(dp4509
sg71
g4070
sg64
(lp4510
g57
(g78
g59
NtRp4511
(dp4512
g62
(dp4513
g82
g83
ssg71
g4507
sg64
(lp4514
S'logo'
p4515
asbag57
(g78
g59
NtRp4516
(dp4517
g62
(dp4518
g89
g90
ssg71
g4507
sg64
(lp4519
S':'
asbag57
(g78
g59
NtRp4520
(dp4521
g62
(dp4522
sg71
g4507
sg64
(lp4523
g57
(g58
g59
NtRp4524
(dp4525
g62
(dp4526
g70
I5
ssg71
g4520
sg64
(lp4527
g57
(cgluon.html
A
p4528
g59
NtRp4529
(dp4530
g62
(dp4531
S'_class'
p4532
S'brand'
p4533
sS'_href'
p4534
S'http://www.web2py.com/'
p4535
ssg71
Nsg64
(lp4536
g57
(cgluon.html
B
p4537
g59
NtRp4538
(dp4539
g62
(dp4540
sg71
g4529
sg64
(lp4541
S'web'
p4542
ag57
(cgluon.html
SPAN
p4543
g59
NtRp4544
(dp4545
g62
(dp4546
sg71
g4538
sg64
(lp4547
I2
asbaS'py'
p4548
asbacgluon.html
XML_unpickle
p4549
(S's\r\x00\x00\x00&trade;&nbsp;'
tRp4550
asbasbasbasbag57
(g73
g59
NtRp4551
(dp4552
g62
(dp4553
sg71
g4070
sg64
(lp4554
g57
(g78
g59
NtRp4555
(dp4556
g62
(dp4557
g82
g83
ssg71
g4551
sg64
(lp4558
S'menu'
p4559
asbag57
(g78
g59
NtRp4560
(dp4561
g62
(dp4562
g89
g90
ssg71
g4551
sg64
(lp4563
S':'
asbag57
(g78
g59
NtRp4564
(dp4565
g62
(dp4566
sg71
g4551
sg64
(lp4567
g57
(g58
g59
NtRp4568
(dp4569
g62
(dp4570
g70
I5
ssg71
g4564
sg64
(lp4571
g57
(g66
g59
NtRp4572
(dp4573
g62
(dp4574
g70
I4
ssg71
Nsg64
(lp4575
g57
(g73
g59
NtRp4576
(dp4577
g62
(dp4578
sg71
g4572
sg64
(lp4579
g57
(g78
g59
NtRp4580
(dp4581
g62
(dp4582
sg71
g4576
sg64
(lp4583
g57
(g58
g59
NtRp4584
(dp4585
g62
(dp4586
g70
I4
ssg71
g4580
sg64
(lp4587
g57
(g66
g59
NtRp4588
(dp4589
g62
(dp4590
g70
I3
ssg71
Nsg64
(lp4591
g57
(g73
g59
NtRp4592
(dp4593
g62
(dp4594
sg71
g4588
sg64
(lp4595
g57
(g78
g59
NtRp4596
(dp4597
g62
(dp4598
sg71
g4592
sg64
(lp4599
g57
(g58
g59
NtRp4600
(dp4601
g62
(dp4602
g70
I3
ssg71
g4596
sg64
(lp4603
cgluon.languages
lazyT_unpickle
p4604
(S's\x04\x00\x00\x00Home'
tRp4605
asbasbasbag57
(g73
g59
NtRp4606
(dp4607
g62
(dp4608
sg71
g4588
sg64
(lp4609
g57
(g78
g59
NtRp4610
(dp4611
g62
(dp4612
sg71
g4606
sg64
(lp4613
g57
(g58
g59
NtRp4614
(dp4615
g62
(dp4616
g70
I3
ssg71
g4610
sg64
(lp4617
g100
asbasbasbag57
(g73
g59
NtRp4618
(dp4619
g62
(dp4620
sg71
g4588
sg64
(lp4621
g57
(g78
g59
NtRp4622
(dp4623
g62
(dp4624
sg71
g4618
sg64
(lp4625
g57
(g58
g59
NtRp4626
(dp4627
g62
(dp4628
g70
I3
ssg71
g4622
sg64
(lp4629
S'/assignmen3/default/index'
p4630
asbasbasbag57
(g73
g59
NtRp4631
(dp4632
g62
(dp4633
sg71
g4588
sg64
(lp4634
g57
(g78
g59
NtRp4635
(dp4636
g62
(dp4637
sg71
g4631
sg64
(lp4638
g57
(g58
g59
NtRp4639
(dp4640
g62
(dp4641
g70
I3
ssg71
g4635
sg64
(lp4642
g57
(g66
g59
NtRp4643
(dp4644
g62
(dp4645
g70
I2
ssg71
Nsg64
(lp4646
sbasbasbasbasbasbasbasbag57
(g73
g59
NtRp4647
(dp4648
g62
(dp4649
sg71
g4572
sg64
(lp4650
g57
(g78
g59
NtRp4651
(dp4652
g62
(dp4653
sg71
g4647
sg64
(lp4654
g57
(g58
g59
NtRp4655
(dp4656
g62
(dp4657
g70
I4
ssg71
g4651
sg64
(lp4658
g57
(g66
g59
NtRp4659
(dp4660
g62
(dp4661
g70
I3
ssg71
Nsg64
(lp4662
g57
(g73
g59
NtRp4663
(dp4664
g62
(dp4665
sg71
g4659
sg64
(lp4666
g57
(g78
g59
NtRp4667
(dp4668
g62
(dp4669
sg71
g4663
sg64
(lp4670
g57
(g58
g59
NtRp4671
(dp4672
g62
(dp4673
g70
I3
ssg71
g4667
sg64
(lp4674
g57
(g4543
g59
NtRp4675
(dp4676
g62
(dp4677
g4532
S'highlighted'
p4678
ssg71
Nsg64
(lp4679
g4506
asbasbasbasbag57
(g73
g59
NtRp4680
(dp4681
g62
(dp4682
sg71
g4659
sg64
(lp4683
g57
(g78
g59
NtRp4684
(dp4685
g62
(dp4686
sg71
g4680
sg64
(lp4687
g57
(g58
g59
NtRp4688
(dp4689
g62
(dp4690
g70
I3
ssg71
g4684
sg64
(lp4691
g100
asbasbasbag57
(g73
g59
NtRp4692
(dp4693
g62
(dp4694
sg71
g4659
sg64
(lp4695
g57
(g78
g59
NtRp4696
(dp4697
g62
(dp4698
sg71
g4692
sg64
(lp4699
g57
(g58
g59
NtRp4700
(dp4701
g62
(dp4702
g70
I3
ssg71
g4696
sg64
(lp4703
S'http://web2py.com'
p4704
asbasbasbag57
(g73
g59
NtRp4705
(dp4706
g62
(dp4707
sg71
g4659
sg64
(lp4708
g57
(g78
g59
NtRp4709
(dp4710
g62
(dp4711
sg71
g4705
sg64
(lp4712
g57
(g58
g59
NtRp4713
(dp4714
g62
(dp4715
g70
I3
ssg71
g4709
sg64
(lp4716
g57
(g66
g59
NtRp4717
(dp4718
g62
(dp4719
g70
I2
ssg71
Nsg64
(lp4720
g57
(g73
g59
NtRp4721
(dp4722
g62
(dp4723
sg71
g4717
sg64
(lp4724
g57
(g78
g59
NtRp4725
(dp4726
g62
(dp4727
sg71
g4721
sg64
(lp4728
g57
(g58
g59
NtRp4729
(dp4730
g62
(dp4731
g70
I2
ssg71
g4725
sg64
(lp4732
g57
(g66
g59
NtRp4733
(dp4734
g62
(dp4735
g70
I1
ssg71
Nsg64
(lp4736
g57
(g73
g59
NtRp4737
(dp4738
g62
(dp4739
sg71
g4733
sg64
(lp4740
g57
(g78
g59
NtRp4741
(dp4742
g62
(dp4743
sg71
g4737
sg64
(lp4744
g57
(g58
g59
NtRp4745
(dp4746
g62
(dp4747
g70
I1
ssg71
g4741
sg64
(lp4748
g4604
(S's\x08\x00\x00\x00My Sites'
tRp4749
asbasbasbag57
(g73
g59
NtRp4750
(dp4751
g62
(dp4752
sg71
g4733
sg64
(lp4753
g57
(g78
g59
NtRp4754
(dp4755
g62
(dp4756
sg71
g4750
sg64
(lp4757
g57
(g58
g59
NtRp4758
(dp4759
g62
(dp4760
g70
I1
ssg71
g4754
sg64
(lp4761
I00
asbasbasbag57
(g73
g59
NtRp4762
(dp4763
g62
(dp4764
sg71
g4733
sg64
(lp4765
g57
(g78
g59
NtRp4766
(dp4767
g62
(dp4768
sg71
g4762
sg64
(lp4769
g57
(g58
g59
NtRp4770
(dp4771
g62
(dp4772
g70
I1
ssg71
g4766
sg64
(lp4773
S'/admin/default/site'
p4774
asbasbasbasbasbasbasbag57
(g73
g59
NtRp4775
(dp4776
g62
(dp4777
sg71
g4717
sg64
(lp4778
g57
(g78
g59
NtRp4779
(dp4780
g62
(dp4781
sg71
g4775
sg64
(lp4782
g57
(g58
g59
NtRp4783
(dp4784
g62
(dp4785
g70
I2
ssg71
g4779
sg64
(lp4786
g57
(g66
g59
NtRp4787
(dp4788
g62
(dp4789
g70
I1
ssg71
Nsg64
(lp4790
g57
(g73
g59
NtRp4791
(dp4792
g62
(dp4793
sg71
g4787
sg64
(lp4794
g57
(g78
g59
NtRp4795
(dp4796
g62
(dp4797
sg71
g4791
sg64
(lp4798
g57
(g58
g59
NtRp4799
(dp4800
g62
(dp4801
g70
I1
ssg71
g4795
sg64
(lp4802
g4604
(S's\x08\x00\x00\x00This App'
tRp4803
asbasbasbag57
(g73
g59
NtRp4804
(dp4805
g62
(dp4806
sg71
g4787
sg64
(lp4807
g57
(g78
g59
NtRp4808
(dp4809
g62
(dp4810
sg71
g4804
sg64
(lp4811
g57
(g58
g59
NtRp4812
(dp4813
g62
(dp4814
g70
I1
ssg71
g4808
sg64
(lp4815
I00
asbasbasbag57
(g73
g59
NtRp4816
(dp4817
g62
(dp4818
sg71
g4787
sg64
(lp4819
g57
(g78
g59
NtRp4820
(dp4821
g62
(dp4822
sg71
g4816
sg64
(lp4823
g57
(g58
g59
NtRp4824
(dp4825
g62
(dp4826
g70
I1
ssg71
g4820
sg64
(lp4827
S'/admin/default/design/assignmen3'
p4828
asbasbasbag57
(g73
g59
NtRp4829
(dp4830
g62
(dp4831
sg71
g4787
sg64
(lp4832
g57
(g78
g59
NtRp4833
(dp4834
g62
(dp4835
sg71
g4829
sg64
(lp4836
g57
(g58
g59
NtRp4837
(dp4838
g62
(dp4839
g70
I1
ssg71
g4833
sg64
(lp4840
(lp4841
(g4604
(S's\n\x00\x00\x00Controller'
tRp4842
I00
S'/admin/default/edit/assignmen3/controllers/default.py'
tp4843
a(g4604
(S's\x04\x00\x00\x00View'
tRp4844
I00
S'/admin/default/edit/assignmen3/views/default/edit_news.html'
tp4845
a(g4604
(S's\x06\x00\x00\x00Layout'
tRp4846
I00
S'/admin/default/edit/assignmen3/views/layout.html'
tp4847
a(g4604
(S's\n\x00\x00\x00Stylesheet'
tRp4848
I00
S'/admin/default/edit/assignmen3/static/css/web2py.css'
tp4849
a(g4604
(S's\x08\x00\x00\x00DB Model'
tRp4850
I00
S'/admin/default/edit/assignmen3/models/db.py'
tp4851
a(g4604
(S's\n\x00\x00\x00Menu Model'
tRp4852
I00
S'/admin/default/edit/assignmen3/models/menu.py'
tp4853
a(g4604
(S's\x08\x00\x00\x00Database'
tRp4854
I00
S'/assignmen3/appadmin/index'
tp4855
a(g4604
(S's\x06\x00\x00\x00Errors'
tRp4856
I00
S'/admin/default/errors/assignmen3'
tp4857
a(g4604
(S's\x05\x00\x00\x00About'
tRp4858
I00
S'/admin/default/about/assignmen3'
tp4859
aasbasbasbasbasbasbasbag57
(g73
g59
NtRp4860
(dp4861
g62
(dp4862
sg71
g4717
sg64
(lp4863
g57
(g78
g59
NtRp4864
(dp4865
g62
(dp4866
sg71
g4860
sg64
(lp4867
g57
(g58
g59
NtRp4868
(dp4869
g62
(dp4870
g70
I2
ssg71
g4864
sg64
(lp4871
g57
(g66
g59
NtRp4872
(dp4873
g62
(dp4874
g70
I1
ssg71
Nsg64
(lp4875
g57
(g73
g59
NtRp4876
(dp4877
g62
(dp4878
sg71
g4872
sg64
(lp4879
g57
(g78
g59
NtRp4880
(dp4881
g62
(dp4882
sg71
g4876
sg64
(lp4883
g57
(g58
g59
NtRp4884
(dp4885
g62
(dp4886
g70
I1
ssg71
g4880
sg64
(lp4887
S'web2py.com'
p4888
asbasbasbag57
(g73
g59
NtRp4889
(dp4890
g62
(dp4891
sg71
g4872
sg64
(lp4892
g57
(g78
g59
NtRp4893
(dp4894
g62
(dp4895
sg71
g4889
sg64
(lp4896
g57
(g58
g59
NtRp4897
(dp4898
g62
(dp4899
g70
I1
ssg71
g4893
sg64
(lp4900
I00
asbasbasbag57
(g73
g59
NtRp4901
(dp4902
g62
(dp4903
sg71
g4872
sg64
(lp4904
g57
(g78
g59
NtRp4905
(dp4906
g62
(dp4907
sg71
g4901
sg64
(lp4908
g57
(g58
g59
NtRp4909
(dp4910
g62
(dp4911
g70
I1
ssg71
g4905
sg64
(lp4912
S'http://www.web2py.com'
p4913
asbasbasbag57
(g73
g59
NtRp4914
(dp4915
g62
(dp4916
sg71
g4872
sg64
(lp4917
g57
(g78
g59
NtRp4918
(dp4919
g62
(dp4920
sg71
g4914
sg64
(lp4921
g57
(g58
g59
NtRp4922
(dp4923
g62
(dp4924
g70
I1
ssg71
g4918
sg64
(lp4925
(lp4926
(g4604
(S's\x08\x00\x00\x00Download'
tRp4927
I00
S'http://www.web2py.com/examples/default/download'
p4928
tp4929
a(g4604
(S's\x07\x00\x00\x00Support'
tRp4930
I00
S'http://www.web2py.com/examples/default/support'
p4931
tp4932
a(g4604
(S's\x04\x00\x00\x00Demo'
tRp4933
I00
S'http://web2py.com/demo_admin'
p4934
tp4935
a(g4604
(S's\x0e\x00\x00\x00Quick Examples'
tRp4936
I00
S'http://web2py.com/examples/default/examples'
p4937
tp4938
a(g4604
(S's\x03\x00\x00\x00FAQ'
tRp4939
I00
S'http://web2py.com/AlterEgo'
p4940
tp4941
a(g4604
(S's\x06\x00\x00\x00Videos'
tRp4942
I00
S'http://www.web2py.com/examples/default/videos/'
p4943
tp4944
a(g4604
(S's\x11\x00\x00\x00Free Applications'
tRp4945
I00
S'http://web2py.com/appliances'
p4946
tp4947
a(g4604
(S's\x07\x00\x00\x00Plugins'
tRp4948
I00
S'http://web2py.com/plugins'
p4949
tp4950
a(g4604
(S's\x07\x00\x00\x00Layouts'
tRp4951
I00
S'http://web2py.com/layouts'
p4952
tp4953
a(g4604
(S's\x07\x00\x00\x00Recipes'
tRp4954
I00
S'http://web2pyslices.com/'
p4955
tp4956
a(g4604
(S's\x08\x00\x00\x00Semantic'
tRp4957
I00
S'http://web2py.com/semantic'
p4958
tp4959
aasbasbasbasbasbasbasbag57
(g73
g59
NtRp4960
(dp4961
g62
(dp4962
sg71
g4717
sg64
(lp4963
g57
(g78
g59
NtRp4964
(dp4965
g62
(dp4966
sg71
g4960
sg64
(lp4967
g57
(g58
g59
NtRp4968
(dp4969
g62
(dp4970
g70
I2
ssg71
g4964
sg64
(lp4971
g57
(g66
g59
NtRp4972
(dp4973
g62
(dp4974
g70
I1
ssg71
Nsg64
(lp4975
g57
(g73
g59
NtRp4976
(dp4977
g62
(dp4978
sg71
g4972
sg64
(lp4979
g57
(g78
g59
NtRp4980
(dp4981
g62
(dp4982
sg71
g4976
sg64
(lp4983
g57
(g58
g59
NtRp4984
(dp4985
g62
(dp4986
g70
I1
ssg71
g4980
sg64
(lp4987
g4604
(S's\r\x00\x00\x00Documentation'
tRp4988
asbasbasbag57
(g73
g59
NtRp4989
(dp4990
g62
(dp4991
sg71
g4972
sg64
(lp4992
g57
(g78
g59
NtRp4993
(dp4994
g62
(dp4995
sg71
g4989
sg64
(lp4996
g57
(g58
g59
NtRp4997
(dp4998
g62
(dp4999
g70
I1
ssg71
g4993
sg64
(lp5000
I00
asbasbasbag57
(g73
g59
NtRp5001
(dp5002
g62
(dp5003
sg71
g4972
sg64
(lp5004
g57
(g78
g59
NtRp5005
(dp5006
g62
(dp5007
sg71
g5001
sg64
(lp5008
g57
(g58
g59
NtRp5009
(dp5010
g62
(dp5011
g70
I1
ssg71
g5005
sg64
(lp5012
S'http://www.web2py.com/book'
p5013
asbasbasbag57
(g73
g59
NtRp5014
(dp5015
g62
(dp5016
sg71
g4972
sg64
(lp5017
g57
(g78
g59
NtRp5018
(dp5019
g62
(dp5020
sg71
g5014
sg64
(lp5021
g57
(g58
g59
NtRp5022
(dp5023
g62
(dp5024
g70
I1
ssg71
g5018
sg64
(lp5025
(lp5026
(g4604
(S's\x07\x00\x00\x00Preface'
tRp5027
I00
S'http://www.web2py.com/book/default/chapter/00'
p5028
tp5029
a(g4604
(S's\x0c\x00\x00\x00Introduction'
tRp5030
I00
S'http://www.web2py.com/book/default/chapter/01'
p5031
tp5032
a(g4604
(S's\x06\x00\x00\x00Python'
tRp5033
I00
S'http://www.web2py.com/book/default/chapter/02'
p5034
tp5035
a(g4604
(S's\x08\x00\x00\x00Overview'
tRp5036
I00
S'http://www.web2py.com/book/default/chapter/03'
p5037
tp5038
a(g4604
(S's\x08\x00\x00\x00The Core'
tRp5039
I00
S'http://www.web2py.com/book/default/chapter/04'
p5040
tp5041
a(g4604
(S's\t\x00\x00\x00The Views'
tRp5042
I00
S'http://www.web2py.com/book/default/chapter/05'
p5043
tp5044
a(g4604
(S's\x08\x00\x00\x00Database'
tRp5045
I00
S'http://www.web2py.com/book/default/chapter/06'
p5046
tp5047
a(g4604
(S's\x14\x00\x00\x00Forms and Validators'
tRp5048
I00
S'http://www.web2py.com/book/default/chapter/07'
p5049
tp5050
a(g4604
(S's\r\x00\x00\x00Email and SMS'
tRp5051
I00
S'http://www.web2py.com/book/default/chapter/08'
p5052
tp5053
a(g4604
(S's\x0e\x00\x00\x00Access Control'
tRp5054
I00
S'http://www.web2py.com/book/default/chapter/09'
p5055
tp5056
a(g4604
(S's\x08\x00\x00\x00Services'
tRp5057
I00
S'http://www.web2py.com/book/default/chapter/10'
p5058
tp5059
a(g4604
(S's\x0c\x00\x00\x00Ajax Recipes'
tRp5060
I00
S'http://www.web2py.com/book/default/chapter/11'
p5061
tp5062
a(g4604
(S's\x16\x00\x00\x00Components and Plugins'
tRp5063
I00
S'http://www.web2py.com/book/default/chapter/12'
p5064
tp5065
a(g4604
(S's\x12\x00\x00\x00Deployment Recipes'
tRp5066
I00
S'http://www.web2py.com/book/default/chapter/13'
p5067
tp5068
a(g4604
(S's\r\x00\x00\x00Other Recipes'
tRp5069
I00
S'http://www.web2py.com/book/default/chapter/14'
p5070
tp5071
a(g4604
(S's\r\x00\x00\x00Buy this book'
tRp5072
I00
S'http://stores.lulu.com/web2py'
p5073
tp5074
aasbasbasbasbasbasbasbag57
(g73
g59
NtRp5075
(dp5076
g62
(dp5077
sg71
g4717
sg64
(lp5078
g57
(g78
g59
NtRp5079
(dp5080
g62
(dp5081
sg71
g5075
sg64
(lp5082
g57
(g58
g59
NtRp5083
(dp5084
g62
(dp5085
g70
I2
ssg71
g5079
sg64
(lp5086
g57
(g66
g59
NtRp5087
(dp5088
g62
(dp5089
g70
I1
ssg71
Nsg64
(lp5090
g57
(g73
g59
NtRp5091
(dp5092
g62
(dp5093
sg71
g5087
sg64
(lp5094
g57
(g78
g59
NtRp5095
(dp5096
g62
(dp5097
sg71
g5091
sg64
(lp5098
g57
(g58
g59
NtRp5099
(dp5100
g62
(dp5101
g70
I1
ssg71
g5095
sg64
(lp5102
g4604
(S's\t\x00\x00\x00Community'
tRp5103
asbasbasbag57
(g73
g59
NtRp5104
(dp5105
g62
(dp5106
sg71
g5087
sg64
(lp5107
g57
(g78
g59
NtRp5108
(dp5109
g62
(dp5110
sg71
g5104
sg64
(lp5111
g57
(g58
g59
NtRp5112
(dp5113
g62
(dp5114
g70
I1
ssg71
g5108
sg64
(lp5115
I00
asbasbasbag57
(g73
g59
NtRp5116
(dp5117
g62
(dp5118
sg71
g5087
sg64
(lp5119
g57
(g78
g59
NtRp5120
(dp5121
g62
(dp5122
sg71
g5116
sg64
(lp5123
g57
(g58
g59
NtRp5124
(dp5125
g62
(dp5126
g70
I1
ssg71
g5120
sg64
(lp5127
Nasbasbasbag57
(g73
g59
NtRp5128
(dp5129
g62
(dp5130
sg71
g5087
sg64
(lp5131
g57
(g78
g59
NtRp5132
(dp5133
g62
(dp5134
sg71
g5128
sg64
(lp5135
g57
(g58
g59
NtRp5136
(dp5137
g62
(dp5138
g70
I1
ssg71
g5132
sg64
(lp5139
(lp5140
(g4604
(S's\x06\x00\x00\x00Groups'
tRp5141
I00
S'http://www.web2py.com/examples/default/usergroups'
p5142
tp5143
a(g4604
(S's\x07\x00\x00\x00Twitter'
tRp5144
I00
S'http://twitter.com/web2py'
p5145
tp5146
a(g4604
(S's\t\x00\x00\x00Live Chat'
tRp5147
I00
S'http://webchat.freenode.net/?channels=web2py'
p5148
tp5149
aasbasbasbasbasbasbasbag57
(g73
g59
NtRp5150
(dp5151
g62
(dp5152
sg71
g4717
sg64
(lp5153
g57
(g78
g59
NtRp5154
(dp5155
g62
(dp5156
sg71
g5150
sg64
(lp5157
g57
(g58
g59
NtRp5158
(dp5159
g62
(dp5160
g70
I2
ssg71
g5154
sg64
(lp5161
g57
(g66
g59
NtRp5162
(dp5163
g62
(dp5164
g70
I1
ssg71
Nsg64
(lp5165
g57
(g73
g59
NtRp5166
(dp5167
g62
(dp5168
sg71
g5162
sg64
(lp5169
g57
(g78
g59
NtRp5170
(dp5171
g62
(dp5172
sg71
g5166
sg64
(lp5173
g57
(g58
g59
NtRp5174
(dp5175
g62
(dp5176
g70
I1
ssg71
g5170
sg64
(lp5177
g4604
(S's\x07\x00\x00\x00Plugins'
tRp5178
asbasbasbag57
(g73
g59
NtRp5179
(dp5180
g62
(dp5181
sg71
g5162
sg64
(lp5182
g57
(g78
g59
NtRp5183
(dp5184
g62
(dp5185
sg71
g5179
sg64
(lp5186
g57
(g58
g59
NtRp5187
(dp5188
g62
(dp5189
g70
I1
ssg71
g5183
sg64
(lp5190
I00
asbasbasbag57
(g73
g59
NtRp5191
(dp5192
g62
(dp5193
sg71
g5162
sg64
(lp5194
g57
(g78
g59
NtRp5195
(dp5196
g62
(dp5197
sg71
g5191
sg64
(lp5198
g57
(g58
g59
NtRp5199
(dp5200
g62
(dp5201
g70
I1
ssg71
g5195
sg64
(lp5202
Nasbasbasbag57
(g73
g59
NtRp5203
(dp5204
g62
(dp5205
sg71
g5162
sg64
(lp5206
g57
(g78
g59
NtRp5207
(dp5208
g62
(dp5209
sg71
g5203
sg64
(lp5210
g57
(g58
g59
NtRp5211
(dp5212
g62
(dp5213
g70
I1
ssg71
g5207
sg64
(lp5214
(lp5215
(S'plugin_wiki'
p5216
I00
S'http://web2py.com/examples/default/download'
p5217
tp5218
a(g4604
(S's\r\x00\x00\x00Other Plugins'
tRp5219
I00
g4949
tp5220
a(g4604
(S's\x0e\x00\x00\x00Layout Plugins'
tRp5221
I00
g4952
tp5222
aasbasbasbasbasbasbasbasbasbasbasbasbasbasbasbasbasbasbasbag57
(g73
g59
NtRp5223
(dp5224
g62
(dp5225
sg71
g4070
sg64
(lp5226
g57
(g78
g59
NtRp5227
(dp5228
g62
(dp5229
g82
g83
ssg71
g5223
sg64
(lp5230
S'meta'
p5231
asbag57
(g78
g59
NtRp5232
(dp5233
g62
(dp5234
g89
g90
ssg71
g5223
sg64
(lp5235
S':'
asbag57
(g78
g59
NtRp5236
(dp5237
g62
(dp5238
sg71
g5223
sg64
(lp5239
g57
(g58
g59
NtRp5240
(dp5241
g62
(dp5242
g70
I5
ssg71
g5236
sg64
(lp5243
g57
(g66
g59
NtRp5244
(dp5245
g62
(dp5246
g70
I4
ssg71
Nsg64
(lp5247
g57
(g73
g59
NtRp5248
(dp5249
g62
(dp5250
sg71
g5244
sg64
(lp5251
g57
(g78
g59
NtRp5252
(dp5253
g62
(dp5254
g82
g83
ssg71
g5248
sg64
(lp5255
S'author'
p5256
asbag57
(g78
g59
NtRp5257
(dp5258
g62
(dp5259
g89
g90
ssg71
g5248
sg64
(lp5260
S':'
asbag57
(g78
g59
NtRp5261
(dp5262
g62
(dp5263
sg71
g5248
sg64
(lp5264
g57
(g58
g59
NtRp5265
(dp5266
g62
(dp5267
g70
I4
ssg71
g5261
sg64
(lp5268
S'Your Name <you@example.com>'
p5269
asbasbasbag57
(g73
g59
NtRp5270
(dp5271
g62
(dp5272
sg71
g5244
sg64
(lp5273
g57
(g78
g59
NtRp5274
(dp5275
g62
(dp5276
g82
g83
ssg71
g5270
sg64
(lp5277
S'description'
p5278
asbag57
(g78
g59
NtRp5279
(dp5280
g62
(dp5281
g89
g90
ssg71
g5270
sg64
(lp5282
S':'
asbag57
(g78
g59
NtRp5283
(dp5284
g62
(dp5285
sg71
g5270
sg64
(lp5286
g57
(g58
g59
NtRp5287
(dp5288
g62
(dp5289
g70
I4
ssg71
g5283
sg64
(lp5290
S'a cool new app'
p5291
asbasbasbag57
(g73
g59
NtRp5292
(dp5293
g62
(dp5294
sg71
g5244
sg64
(lp5295
g57
(g78
g59
NtRp5296
(dp5297
g62
(dp5298
g82
g83
ssg71
g5292
sg64
(lp5299
S'generator'
p5300
asbag57
(g78
g59
NtRp5301
(dp5302
g62
(dp5303
g89
g90
ssg71
g5292
sg64
(lp5304
S':'
asbag57
(g78
g59
NtRp5305
(dp5306
g62
(dp5307
sg71
g5292
sg64
(lp5308
g57
(g58
g59
NtRp5309
(dp5310
g62
(dp5311
g70
I4
ssg71
g5305
sg64
(lp5312
S'Web2py Web Framework'
p5313
asbasbasbag57
(g73
g59
NtRp5314
(dp5315
g62
(dp5316
sg71
g5244
sg64
(lp5317
g57
(g78
g59
NtRp5318
(dp5319
g62
(dp5320
g82
g83
ssg71
g5314
sg64
(lp5321
S'keywords'
p5322
asbag57
(g78
g59
NtRp5323
(dp5324
g62
(dp5325
g89
g90
ssg71
g5314
sg64
(lp5326
S':'
asbag57
(g78
g59
NtRp5327
(dp5328
g62
(dp5329
sg71
g5314
sg64
(lp5330
g57
(g58
g59
NtRp5331
(dp5332
g62
(dp5333
g70
I4
ssg71
g5327
sg64
(lp5334
S'web2py, python, framework'
p5335
asbasbasbasbasbasbasbag57
(g73
g59
NtRp5336
(dp5337
g62
(dp5338
sg71
g4070
sg64
(lp5339
g57
(g78
g59
NtRp5340
(dp5341
g62
(dp5342
g82
g83
ssg71
g5336
sg64
(lp5343
S'models_to_run'
p5344
asbag57
(g78
g59
NtRp5345
(dp5346
g62
(dp5347
g89
g90
ssg71
g5336
sg64
(lp5348
S':'
asbag57
(g78
g59
NtRp5349
(dp5350
g62
(dp5351
sg71
g5336
sg64
(lp5352
g57
(g58
g59
NtRp5353
(dp5354
g62
(dp5355
g70
I5
ssg71
g5349
sg64
(lp5356
g57
(g66
g59
NtRp5357
(dp5358
g62
(dp5359
g70
I4
ssg71
Nsg64
(lp5360
g57
(g73
g59
NtRp5361
(dp5362
g62
(dp5363
sg71
g5357
sg64
(lp5364
g57
(g78
g59
NtRp5365
(dp5366
g62
(dp5367
sg71
g5361
sg64
(lp5368
g57
(g58
g59
NtRp5369
(dp5370
g62
(dp5371
g70
I4
ssg71
g5365
sg64
(lp5372
S'^\\w+\\.py$'
p5373
asbasbasbag57
(g73
g59
NtRp5374
(dp5375
g62
(dp5376
sg71
g5357
sg64
(lp5377
g57
(g78
g59
NtRp5378
(dp5379
g62
(dp5380
sg71
g5374
sg64
(lp5381
g57
(g58
g59
NtRp5382
(dp5383
g62
(dp5384
g70
I4
ssg71
g5378
sg64
(lp5385
S'^default/\\w+\\.py$'
p5386
asbasbasbag57
(g73
g59
NtRp5387
(dp5388
g62
(dp5389
sg71
g5357
sg64
(lp5390
g57
(g78
g59
NtRp5391
(dp5392
g62
(dp5393
sg71
g5387
sg64
(lp5394
g57
(g58
g59
NtRp5395
(dp5396
g62
(dp5397
g70
I4
ssg71
g5391
sg64
(lp5398
S'^default/edit_news/\\w+\\.py$'
p5399
asbasbasbasbasbasbasbag57
(g73
g59
NtRp5400
(dp5401
g62
(dp5402
sg71
g4070
sg64
(lp5403
g57
(g78
g59
NtRp5404
(dp5405
g62
(dp5406
g82
g83
ssg71
g5400
sg64
(lp5407
S'postprocessing'
p5408
asbag57
(g78
g59
NtRp5409
(dp5410
g62
(dp5411
g89
g90
ssg71
g5400
sg64
(lp5412
S':'
asbag57
(g78
g59
NtRp5413
(dp5414
g62
(dp5415
sg71
g5400
sg64
(lp5416
g57
(g58
g59
NtRp5417
(dp5418
g62
(dp5419
g70
I5
ssg71
g5413
sg64
(lp5420
g57
(g66
g59
NtRp5421
(dp5422
g62
(dp5423
g70
I4
ssg71
Nsg64
(lp5424
sbasbasbasbag57
(g73
g59
NtRp5425
(dp5426
g62
(dp5427
sg71
g4070
sg64
(lp5428
g57
(g78
g59
NtRp5429
(dp5430
g62
(dp5431
g82
g83
ssg71
g5425
sg64
(lp5432
S'session_cookie_expires'
p5433
asbag57
(g78
g59
NtRp5434
(dp5435
g62
(dp5436
g89
g90
ssg71
g5425
sg64
(lp5437
S':'
asbag57
(g78
g59
NtRp5438
(dp5439
g62
(dp5440
sg71
g5425
sg64
(lp5441
g57
(g58
g59
NtRp5442
(dp5443
g62
(dp5444
g70
I5
ssg71
g5438
sg64
(lp5445
S'None'
p5446
asbasbasbag57
(g73
g59
NtRp5447
(dp5448
g62
(dp5449
sg71
g4070
sg64
(lp5450
g57
(g78
g59
NtRp5451
(dp5452
g62
(dp5453
g82
g83
ssg71
g5447
sg64
(lp5454
S'session_data_name'
p5455
asbag57
(g78
g59
NtRp5456
(dp5457
g62
(dp5458
g89
g90
ssg71
g5447
sg64
(lp5459
S':'
asbag57
(g78
g59
NtRp5460
(dp5461
g62
(dp5462
sg71
g5447
sg64
(lp5463
g57
(g58
g59
NtRp5464
(dp5465
g62
(dp5466
g70
I5
ssg71
g5460
sg64
(lp5467
S'session_data_assignmen3'
p5468
asbasbasbag57
(g73
g59
NtRp5469
(dp5470
g62
(dp5471
sg71
g4070
sg64
(lp5472
g57
(g78
g59
NtRp5473
(dp5474
g62
(dp5475
g82
g83
ssg71
g5469
sg64
(lp5476
S'session_file'
p5477
asbag57
(g78
g59
NtRp5478
(dp5479
g62
(dp5480
g89
g90
ssg71
g5469
sg64
(lp5481
S':'
asbag57
(g78
g59
NtRp5482
(dp5483
g62
(dp5484
sg71
g5469
sg64
(lp5485
g57
(g58
g59
NtRp5486
(dp5487
g62
(dp5488
g70
I5
ssg71
g5482
sg64
(lp5489
S"<open file '/home/umang/web2py/applications/assignmen3/sessions/127.0.0.1-f78a0883-b419-4f1b-8802-d13ae89341f4', mode 'rb+' at 0x7f9514314c90>"
p5490
asbasbasbag57
(g73
g59
NtRp5491
(dp5492
g62
(dp5493
sg71
g4070
sg64
(lp5494
g57
(g78
g59
NtRp5495
(dp5496
g62
(dp5497
g82
g83
ssg71
g5491
sg64
(lp5498
S'session_filename'
p5499
asbag57
(g78
g59
NtRp5500
(dp5501
g62
(dp5502
g89
g90
ssg71
g5491
sg64
(lp5503
S':'
asbag57
(g78
g59
NtRp5504
(dp5505
g62
(dp5506
sg71
g5491
sg64
(lp5507
g57
(g58
g59
NtRp5508
(dp5509
g62
(dp5510
g70
I5
ssg71
g5504
sg64
(lp5511
S'/home/umang/web2py/applications/assignmen3/sessions/127.0.0.1-f78a0883-b419-4f1b-8802-d13ae89341f4'
p5512
asbasbasbag57
(g73
g59
NtRp5513
(dp5514
g62
(dp5515
sg71
g4070
sg64
(lp5516
g57
(g78
g59
NtRp5517
(dp5518
g62
(dp5519
g82
g83
ssg71
g5513
sg64
(lp5520
S'session_id'
p5521
asbag57
(g78
g59
NtRp5522
(dp5523
g62
(dp5524
g89
g90
ssg71
g5513
sg64
(lp5525
S':'
asbag57
(g78
g59
NtRp5526
(dp5527
g62
(dp5528
sg71
g5513
sg64
(lp5529
g57
(g58
g59
NtRp5530
(dp5531
g62
(dp5532
g70
I5
ssg71
g5526
sg64
(lp5533
g499
asbasbasbag57
(g73
g59
NtRp5534
(dp5535
g62
(dp5536
sg71
g4070
sg64
(lp5537
g57
(g78
g59
NtRp5538
(dp5539
g62
(dp5540
g82
g83
ssg71
g5534
sg64
(lp5541
S'session_id_name'
p5542
asbag57
(g78
g59
NtRp5543
(dp5544
g62
(dp5545
g89
g90
ssg71
g5534
sg64
(lp5546
S':'
asbag57
(g78
g59
NtRp5547
(dp5548
g62
(dp5549
sg71
g5534
sg64
(lp5550
g57
(g58
g59
NtRp5551
(dp5552
g62
(dp5553
g70
I5
ssg71
g5547
sg64
(lp5554
g4127
asbasbasbag57
(g73
g59
NtRp5555
(dp5556
g62
(dp5557
sg71
g4070
sg64
(lp5558
g57
(g78
g59
NtRp5559
(dp5560
g62
(dp5561
g82
g83
ssg71
g5555
sg64
(lp5562
S'session_locked'
p5563
asbag57
(g78
g59
NtRp5564
(dp5565
g62
(dp5566
g89
g90
ssg71
g5555
sg64
(lp5567
S':'
asbag57
(g78
g59
NtRp5568
(dp5569
g62
(dp5570
sg71
g5555
sg64
(lp5571
g57
(g58
g59
NtRp5572
(dp5573
g62
(dp5574
g70
I5
ssg71
g5568
sg64
(lp5575
g1879
asbasbasbag57
(g73
g59
NtRp5576
(dp5577
g62
(dp5578
sg71
g4070
sg64
(lp5579
g57
(g78
g59
NtRp5580
(dp5581
g62
(dp5582
g82
g83
ssg71
g5576
sg64
(lp5583
S'session_new'
p5584
asbag57
(g78
g59
NtRp5585
(dp5586
g62
(dp5587
g89
g90
ssg71
g5576
sg64
(lp5588
S':'
asbag57
(g78
g59
NtRp5589
(dp5590
g62
(dp5591
sg71
g5576
sg64
(lp5592
g57
(g58
g59
NtRp5593
(dp5594
g62
(dp5595
g70
I5
ssg71
g5589
sg64
(lp5596
g100
asbasbasbag57
(g73
g59
NtRp5597
(dp5598
g62
(dp5599
sg71
g4070
sg64
(lp5600
g57
(g78
g59
NtRp5601
(dp5602
g62
(dp5603
g82
g83
ssg71
g5597
sg64
(lp5604
S'session_storage_type'
p5605
asbag57
(g78
g59
NtRp5606
(dp5607
g62
(dp5608
g89
g90
ssg71
g5597
sg64
(lp5609
S':'
asbag57
(g78
g59
NtRp5610
(dp5611
g62
(dp5612
sg71
g5597
sg64
(lp5613
g57
(g58
g59
NtRp5614
(dp5615
g62
(dp5616
g70
I5
ssg71
g5610
sg64
(lp5617
g3479
asbasbasbag57
(g73
g59
NtRp5618
(dp5619
g62
(dp5620
sg71
g4070
sg64
(lp5621
g57
(g78
g59
NtRp5622
(dp5623
g62
(dp5624
g82
g83
ssg71
g5618
sg64
(lp5625
S'status'
p5626
asbag57
(g78
g59
NtRp5627
(dp5628
g62
(dp5629
g89
g90
ssg71
g5618
sg64
(lp5630
S':'
asbag57
(g78
g59
NtRp5631
(dp5632
g62
(dp5633
sg71
g5618
sg64
(lp5634
g57
(g58
g59
NtRp5635
(dp5636
g62
(dp5637
g70
I5
ssg71
g5631
sg64
(lp5638
S'200'
p5639
asbasbasbag57
(g73
g59
NtRp5640
(dp5641
g62
(dp5642
sg71
g4070
sg64
(lp5643
g57
(g78
g59
NtRp5644
(dp5645
g62
(dp5646
g82
g83
ssg71
g5640
sg64
(lp5647
S'subtitle'
p5648
asbag57
(g78
g59
NtRp5649
(dp5650
g62
(dp5651
g89
g90
ssg71
g5640
sg64
(lp5652
S':'
asbag57
(g78
g59
NtRp5653
(dp5654
g62
(dp5655
sg71
g5640
sg64
(lp5656
g57
(g58
g59
NtRp5657
(dp5658
g62
(dp5659
g70
I5
ssg71
g5653
sg64
(lp5660
g4604
(S's\r\x00\x00\x00customize me!'
tRp5661
asbasbasbag57
(g73
g59
NtRp5662
(dp5663
g62
(dp5664
sg71
g4070
sg64
(lp5665
g57
(g78
g59
NtRp5666
(dp5667
g62
(dp5668
g82
g83
ssg71
g5662
sg64
(lp5669
S'title'
p5670
asbag57
(g78
g59
NtRp5671
(dp5672
g62
(dp5673
g89
g90
ssg71
g5662
sg64
(lp5674
S':'
asbag57
(g78
g59
NtRp5675
(dp5676
g62
(dp5677
sg71
g5662
sg64
(lp5678
g57
(g58
g59
NtRp5679
(dp5680
g62
(dp5681
g70
I5
ssg71
g5675
sg64
(lp5682
S'Assignmen3'
p5683
asbasbasbag57
(g73
g59
NtRp5684
(dp5685
g62
(dp5686
sg71
g4070
sg64
(lp5687
g57
(g78
g59
NtRp5688
(dp5689
g62
(dp5690
g82
g83
ssg71
g5684
sg64
(lp5691
S'view'
p5692
asbag57
(g78
g59
NtRp5693
(dp5694
g62
(dp5695
g89
g90
ssg71
g5684
sg64
(lp5696
S':'
asbag57
(g78
g59
NtRp5697
(dp5698
g62
(dp5699
sg71
g5684
sg64
(lp5700
g57
(g58
g59
NtRp5701
(dp5702
g62
(dp5703
g70
I5
ssg71
g5697
sg64
(lp5704
S'default/edit_news.html'
p5705
asbasbasbasbasbsS'locals'
p5706
(dp5707
S'self'
p5708
S'<Table news (id,heading,url,category_id,ntype,user_id,rating)>'
p5709
sS'key'
p5710
S"'news_id'"
p5711
sssS'traceback'
p5712
S'Traceback (most recent call last):\n  File "/home/umang/web2py/gluon/restricted.py", line 212, in restricted\n    exec ccode in environment\n  File "/home/umang/web2py/applications/assignmen3/controllers/default.py", line 202, in <module>\n  File "/home/umang/web2py/gluon/globals.py", line 193, in <lambda>\n    self._caller = lambda f: f()\n  File "/home/umang/web2py/gluon/tools.py", line 2929, in f\n    return action(*a, **b)\n  File "/home/umang/web2py/applications/assignmen3/controllers/default.py", line 132, in edit_news\n    tmp_edit(form.vars.new_heading,form.vars.url,news_id,catg)\n  File "/home/umang/web2py/gluon/tools.py", line 2929, in f\n    return action(*a, **b)\n  File "/home/umang/web2py/applications/assignmen3/controllers/default.py", line 139, in tmp_edit\n    db(db.news.news_id==news_id).update(heading=new_heading,url=new_url,rating=100)\n  File "/home/umang/web2py/gluon/dal.py", line 7745, in __getitem__\n    return ogetattr(self, str(key))\nAttributeError: \'Table\' object has no attribute \'news_id\'\n'
p5713
s.