(dp1
S'output'
p2
S"<type 'exceptions.TypeError'> object of type 'bool' has no len()"
p3
sS'layer'
p4
S'/home/umang/web2py/applications/assignmen3/controllers/default.py'
p5
sS'code'
p6
S'# -*- coding: utf-8 -*-\n# this file is released under public domain and you can use without limitations\n\n#########################################################################\n## This is a samples controller\n## - index is the default action of any application\n## - user is required for authentication and authorization\n## - download is for downloading files uploaded in the db (does streaming)\n## - call exposes all registered services (none by default)\n#########################################################################\n\ndef index():\n    """\n    example action using the internationalization operator T and flash\n    rendered by views/default/index.html or views/generic.html\n\n    if you need a simple wiki simple replace the two lines below with:\n    return auth.wiki()\n    """\n    #redirect(URL(r=request,f=\'first_page?query=new\'))\n    query=db(db.category.name==\'New\').select(db.category.id)\n    redirect(URL(r=request, f=\'first_page\',args=[int(query[0].id)]))\n\n@auth.requires_login()\ndef login_to_account():\n\tar=db((db.auth_membership.user_id==auth.user_id) & (db.auth_group.id==db.auth_membership.group_id)).select(db.auth_group.role)\n\tif(len(ar)==0):\n\t\tredirect(URL(r=request,f=\'user\'))\n\telif(len(ar)==1):\n\t\tx=db(db.auth_group.role==\'normal\').select(db.auth_group.id)\n\t\tdb.auth_membership.insert(user_id=auth.user_id,group_id=x[0][\'id\'])\n\t\tredirect(URL(r=request,f=\'login_normal\'))\n\telif(ar[1][\'role\']==\'normal\'):\n\t\tredirect(URL(r=request,f=\'login_normal\'))\n\telif(ar[1][\'role\']==\'admin\'):\n\t\tredirect(URL(r=request,f=\'login_admin\'))\n\ndef login_normal():\n\tdisp=db(db.news.user_id==auth.user_id).select(db.news.heading,db.news.url,db.news.category,db.news.ntype)\n\treturn dict(disp=disp)\t\n\ndef first_page():\n\tquery=int(request.args(0))\n\tdisp=db(db.news.category_id==query).select(db.news.heading,db.news.url,db.news.rating,db.news.ntype,db.news.id)\n\tq_comment=db((db.news.category_id==query) & (db.comments.news_id==db.news.id)).select(db.comments.body,db.comments.commentor)\n\tcatg=db(db.category.id>0).select(db.category.name,db.category.id)\n\tpres_catg=db(db.category.id==query).select(db.category.name)\n\n\tform=SQLFORM.factory(\n\t db.Field(\'comm_body\',\'string\',label=""),\n\t formstyle=\'divs\',\n\t buttons=[],)\n   \tform[0].insert(1,DIV(INPUT(_type=\'submit\',_value=\'Post\')))\n   \tif form.accepts(request.vars,session):\n        \t insert_comment(form.vars.comm_body,auth.user_id,query)\n    \telif form.errors:\n        \t response.flash=\'Some Error Occured Please Refresh\'\n    \t\n\treturn dict(query=query,disp=disp,q_comment=q_comment,catg=catg,pres_catg=pres_catg)\n\n@auth.requires_login()\ndef add_news():\n\tcatg=int(request.args(0))\n\tdb.news.category_id.default=catg\n\tdb.news.category_id.readable=False\n\tdb.news.category_id.writable=False\n\tdb.news.user_id.default=auth.user_id\n\tdb.news.user_id.writable=False\n\tdb.news.user_id.readable=False\n\tdb.news.rating.default=100\n\tdb.news.rating.writable=False\n\tdb.news.rating.readable=False\n\tform=SQLFORM(db.news,submit_button="Post",labels={\'ntype\':\'Post Type\'})\n\tif form.process().accepted:\n        \tredirect(URL(r=request, f=\'first_page\',args=[int(catg)]))\n\t\t#redirect(URL(r=request,f=\'first_page?query=%s\' % catg))\n\telif form.errors:\n\t\tresponse.flash="Error posting it"\n\treturn dict(form=form)\n\n@auth.requires_login()\ndef like():\n\tnews_id=int(request.args(0))\n\tcatg=int(request.args(1))\n\tar=db(db.news.id==news_id).select(db.news.rating)\n\tquery=db((db.rating.news_id==news_id) & (db.rating.rater_id==auth.user_id)).select(db.rating.liked)\n\tif(len(query)==0 or query[0].liked==0):\n\t\tdb(db.news.id==news_id).update(rating=ar[0].rating+5)\n\t\tif(len(query==0)):\n\t\t\tdb.rating.insert(news_id=news_id,rater_id=auth.user_id,liked=1,disliked=0)\n\t\telse:\n\t\t\tdb((db.rating.news_id==news_id) & (db.rating.rater_id==auth.user_id)).update(liked=1)\n\tredirect(URL(r=request,f=\'first_page?query=%s\' % catg))\n\n@auth.requires_login()\ndef dislike():\n\tnews_id=int(request.args(0))\n\tcatg=int(request.args(1))\n\tar=db(db.news.id==news_id).select(db.news.rating)\n\tquery=db((db.rating.news_id==news_id) & (db.rating.rater_id==auth.user_id)).select(db.rating.disliked)\n\tif(len(query)==0 or query[0].disliked==0):\n\t\tdb(db.news.id==news_id).update(rating=ar[0].rating-3)\n\t\tif(len(query)==0):\n\t\t\tdb.rating.insert(news_id=news_id,rater_id=auth.user_id,liked=0,disliked=1)\n\t\telse:\n\t\t\tdb((db.rating.news_id==news_id) & (db.rating.rater_id==auth.user_id)).update(disliked=1)\n\tredirect(URL(r=request,f=\'first_page?query=%s\' % catg))\n\n@auth.requires_login()\ndef insert_comment(c_body,rec,query):\n\tdb.comments.insert(body=c_body,sender_id=auth.user_id,receiver=int(rec))\n    #    query=db(db.coment.id>0).select(db.coment.id,db.coment.receiver)\n        redirect(URL(r=request, f=\'first_page\',args=[int(query)]))\n\n\n\ndef user():\n    """\n    exposes:\n    http://..../[app]/default/user/login\n    http://..../[app]/default/user/logout\n    http://..../[app]/default/user/register\n    http://..../[app]/default/user/profile\n    http://..../[app]/default/user/retrieve_password\n    http://..../[app]/default/user/change_password\n    use @auth.requires_login()\n        @auth.requires_membership(\'group name\')\n        @auth.requires_permission(\'read\',\'table name\',record_id)\n    to decorate functions that need access control\n    """\n    return dict(form=auth())\n\n\ndef download():\n    """\n    allows downloading of uploaded files\n    http://..../[app]/default/download/[filename]\n    """\n    return response.download(request, db)\n\n\ndef call():\n    """\n    exposes services. for example:\n    http://..../[app]/default/call/jsonrpc\n    decorate with @services.jsonrpc the functions to expose\n    supports xml, json, xmlrpc, jsonrpc, amfrpc, rss, csv\n    """\n    return service()\n\n\n@auth.requires_signature()\ndef data():\n    """\n    http://..../[app]/default/data/tables\n    http://..../[app]/default/data/create/[table]\n    http://..../[app]/default/data/read/[table]/[id]\n    http://..../[app]/default/data/update/[table]/[id]\n    http://..../[app]/default/data/delete/[table]/[id]\n    http://..../[app]/default/data/select/[table]\n    http://..../[app]/default/data/search/[table]\n    but URLs must be signed, i.e. linked with\n      A(\'table\',_href=URL(\'data/tables\',user_signature=True))\n    or with the signed load operator\n      LOAD(\'default\',\'data.load\',args=\'tables\',ajax=True,user_signature=True)\n    """\n    return dict(form=crud())\n\nresponse._vars=response._caller(like)\n'
p7
sS'snapshot'
p8
(dp9
S'exception'
p10
(dp11
S'__hash__'
p12
S"<method-wrapper '__hash__' of exceptions.TypeError object>"
p13
sS'__setattr__'
p14
S"<method-wrapper '__setattr__' of exceptions.TypeError object>"
p15
sS'__reduce_ex__'
p16
S'<built-in method __reduce_ex__ of exceptions.TypeError object>'
p17
sS'__getslice__'
p18
S"<method-wrapper '__getslice__' of exceptions.TypeError object>"
p19
sS'__getitem__'
p20
S"<method-wrapper '__getitem__' of exceptions.TypeError object>"
p21
sS'__setstate__'
p22
S'<built-in method __setstate__ of exceptions.TypeError object>'
p23
sS'args'
p24
S'("object of type \'bool\' has no len()",)'
p25
sS'__reduce__'
p26
S'<built-in method __reduce__ of exceptions.TypeError object>'
p27
sS'__str__'
p28
S"<method-wrapper '__str__' of exceptions.TypeError object>"
p29
sS'__format__'
p30
S'<built-in method __format__ of exceptions.TypeError object>'
p31
sS'__getattribute__'
p32
S"<method-wrapper '__getattribute__' of exceptions.TypeError object>"
p33
sS'__class__'
p34
S"<type 'exceptions.TypeError'>"
p35
sS'__unicode__'
p36
S'<built-in method __unicode__ of exceptions.TypeError object>'
p37
sS'__delattr__'
p38
S"<method-wrapper '__delattr__' of exceptions.TypeError object>"
p39
sS'__subclasshook__'
p40
S'<built-in method __subclasshook__ of type object>'
p41
sS'__repr__'
p42
S"<method-wrapper '__repr__' of exceptions.TypeError object>"
p43
sS'__dict__'
p44
S'{}'
p45
sS'__sizeof__'
p46
S'<built-in method __sizeof__ of exceptions.TypeError object>'
p47
sS'__doc__'
p48
S"'Inappropriate argument type.'"
p49
sS'__init__'
p50
S"<method-wrapper '__init__' of exceptions.TypeError object>"
p51
sS'__new__'
p52
S'<built-in method __new__ of type object>'
p53
ssS'evalue'
p54
S"object of type 'bool' has no len()"
p55
sS'request'
p56
ccopy_reg
_reconstructor
p57
(cgluon.html
BEAUTIFY
p58
c__builtin__
object
p59
NtRp60
(dp61
S'attributes'
p62
(dp63
sS'components'
p64
(lp65
g57
(cgluon.html
TABLE
p66
g59
NtRp67
(dp68
g62
(dp69
S'level'
p70
I5
ssS'parent'
p71
Nsg64
(lp72
g57
(cgluon.html
TR
p73
g59
NtRp74
(dp75
g62
(dp76
sg71
g67
sg64
(lp77
g57
(cgluon.html
TD
p78
g59
NtRp79
(dp80
g62
(dp81
S'_style'
p82
S'font-weight:bold;vertical-align:top'
p83
ssg71
g74
sg64
(lp84
S'ajax'
p85
asbag57
(g78
g59
NtRp86
(dp87
g62
(dp88
S'_valign'
p89
S'top'
p90
ssg71
g74
sg64
(lp91
S':'
asbag57
(g78
g59
NtRp92
(dp93
g62
(dp94
sg71
g74
sg64
(lp95
g57
(g58
g59
NtRp96
(dp97
g62
(dp98
g70
I5
ssg71
g92
sg64
(lp99
S'False'
p100
asbasbasbag57
(g73
g59
NtRp101
(dp102
g62
(dp103
sg71
g67
sg64
(lp104
g57
(g78
g59
NtRp105
(dp106
g62
(dp107
g82
g83
ssg71
g101
sg64
(lp108
S'application'
p109
asbag57
(g78
g59
NtRp110
(dp111
g62
(dp112
g89
g90
ssg71
g101
sg64
(lp113
S':'
asbag57
(g78
g59
NtRp114
(dp115
g62
(dp116
sg71
g101
sg64
(lp117
g57
(g58
g59
NtRp118
(dp119
g62
(dp120
g70
I5
ssg71
g114
sg64
(lp121
S'assignmen3'
p122
asbasbasbag57
(g73
g59
NtRp123
(dp124
g62
(dp125
sg71
g67
sg64
(lp126
g57
(g78
g59
NtRp127
(dp128
g62
(dp129
g82
g83
ssg71
g123
sg64
(lp130
g24
asbag57
(g78
g59
NtRp131
(dp132
g62
(dp133
g89
g90
ssg71
g123
sg64
(lp134
S':'
asbag57
(g78
g59
NtRp135
(dp136
g62
(dp137
sg71
g123
sg64
(lp138
g57
(g58
g59
NtRp139
(dp140
g62
(dp141
g70
I5
ssg71
g135
sg64
(lp142
g57
(g66
g59
NtRp143
(dp144
g62
(dp145
g70
I4
ssg71
Nsg64
(lp146
g57
(g73
g59
NtRp147
(dp148
g62
(dp149
sg71
g143
sg64
(lp150
g57
(g78
g59
NtRp151
(dp152
g62
(dp153
sg71
g147
sg64
(lp154
g57
(g58
g59
NtRp155
(dp156
g62
(dp157
g70
I4
ssg71
g151
sg64
(lp158
S'1'
asbasbasbag57
(g73
g59
NtRp159
(dp160
g62
(dp161
sg71
g143
sg64
(lp162
g57
(g78
g59
NtRp163
(dp164
g62
(dp165
sg71
g159
sg64
(lp166
g57
(g58
g59
NtRp167
(dp168
g62
(dp169
g70
I4
ssg71
g163
sg64
(lp170
S'2'
asbasbasbasbasbasbasbag57
(g73
g59
NtRp171
(dp172
g62
(dp173
sg71
g67
sg64
(lp174
g57
(g78
g59
NtRp175
(dp176
g62
(dp177
g82
g83
ssg71
g171
sg64
(lp178
S'body'
p179
asbag57
(g78
g59
NtRp180
(dp181
g62
(dp182
g89
g90
ssg71
g171
sg64
(lp183
S':'
asbag57
(g78
g59
NtRp184
(dp185
g62
(dp186
sg71
g171
sg64
(lp187
g57
(g58
g59
NtRp188
(dp189
g62
(dp190
g70
I5
ssg71
g184
sg64
(lp191
S'<cStringIO.StringO object at 0x7fb3944e9ed8>'
p192
asbasbasbag57
(g73
g59
NtRp193
(dp194
g62
(dp195
sg71
g67
sg64
(lp196
g57
(g78
g59
NtRp197
(dp198
g62
(dp199
g82
g83
ssg71
g193
sg64
(lp200
S'cid'
p201
asbag57
(g78
g59
NtRp202
(dp203
g62
(dp204
g89
g90
ssg71
g193
sg64
(lp205
S':'
asbag57
(g78
g59
NtRp206
(dp207
g62
(dp208
sg71
g193
sg64
(lp209
g57
(g58
g59
NtRp210
(dp211
g62
(dp212
g70
I5
ssg71
g206
sg64
(lp213
S'None'
p214
asbasbasbag57
(g73
g59
NtRp215
(dp216
g62
(dp217
sg71
g67
sg64
(lp218
g57
(g78
g59
NtRp219
(dp220
g62
(dp221
g82
g83
ssg71
g215
sg64
(lp222
S'client'
p223
asbag57
(g78
g59
NtRp224
(dp225
g62
(dp226
g89
g90
ssg71
g215
sg64
(lp227
S':'
asbag57
(g78
g59
NtRp228
(dp229
g62
(dp230
sg71
g215
sg64
(lp231
g57
(g58
g59
NtRp232
(dp233
g62
(dp234
g70
I5
ssg71
g228
sg64
(lp235
S'127.0.0.1'
p236
asbasbasbag57
(g73
g59
NtRp237
(dp238
g62
(dp239
sg71
g67
sg64
(lp240
g57
(g78
g59
NtRp241
(dp242
g62
(dp243
g82
g83
ssg71
g237
sg64
(lp244
S'controller'
p245
asbag57
(g78
g59
NtRp246
(dp247
g62
(dp248
g89
g90
ssg71
g237
sg64
(lp249
S':'
asbag57
(g78
g59
NtRp250
(dp251
g62
(dp252
sg71
g237
sg64
(lp253
g57
(g58
g59
NtRp254
(dp255
g62
(dp256
g70
I5
ssg71
g250
sg64
(lp257
S'default'
p258
asbasbasbag57
(g73
g59
NtRp259
(dp260
g62
(dp261
sg71
g67
sg64
(lp262
g57
(g78
g59
NtRp263
(dp264
g62
(dp265
g82
g83
ssg71
g259
sg64
(lp266
S'cookies'
p267
asbag57
(g78
g59
NtRp268
(dp269
g62
(dp270
g89
g90
ssg71
g259
sg64
(lp271
S':'
asbag57
(g78
g59
NtRp272
(dp273
g62
(dp274
sg71
g259
sg64
(lp275
g57
(g58
g59
NtRp276
(dp277
g62
(dp278
g70
I5
ssg71
g272
sg64
(lp279
g57
(g66
g59
NtRp280
(dp281
g62
(dp282
g70
I4
ssg71
Nsg64
(lp283
g57
(g73
g59
NtRp284
(dp285
g62
(dp286
sg71
g280
sg64
(lp287
g57
(g78
g59
NtRp288
(dp289
g62
(dp290
g82
g83
ssg71
g284
sg64
(lp291
S'session_id_admin'
p292
asbag57
(g78
g59
NtRp293
(dp294
g62
(dp295
g89
g90
ssg71
g284
sg64
(lp296
S':'
asbag57
(g78
g59
NtRp297
(dp298
g62
(dp299
sg71
g284
sg64
(lp300
g57
(g58
g59
NtRp301
(dp302
g62
(dp303
g70
I4
ssg71
g297
sg64
(lp304
S'127.0.0.1-3084c772-81da-4392-9cca-26b69ed0651f'
p305
ag57
(g66
g59
NtRp306
(dp307
g62
(dp308
g70
I3
ssg71
Nsg64
(lp309
g57
(g73
g59
NtRp310
(dp311
g62
(dp312
sg71
g306
sg64
(lp313
g57
(g78
g59
NtRp314
(dp315
g62
(dp316
g82
g83
ssg71
g310
sg64
(lp317
S'comment'
p318
asbag57
(g78
g59
NtRp319
(dp320
g62
(dp321
g89
g90
ssg71
g310
sg64
(lp322
S':'
asbag57
(g78
g59
NtRp323
(dp324
g62
(dp325
sg71
g310
sg64
(lp326
g57
(g58
g59
NtRp327
(dp328
g62
(dp329
g70
I3
ssg71
g323
sg64
(lp330
S''
asbasbasbag57
(g73
g59
NtRp331
(dp332
g62
(dp333
sg71
g306
sg64
(lp334
g57
(g78
g59
NtRp335
(dp336
g62
(dp337
g82
g83
ssg71
g331
sg64
(lp338
S'domain'
p339
asbag57
(g78
g59
NtRp340
(dp341
g62
(dp342
g89
g90
ssg71
g331
sg64
(lp343
S':'
asbag57
(g78
g59
NtRp344
(dp345
g62
(dp346
sg71
g331
sg64
(lp347
g57
(g58
g59
NtRp348
(dp349
g62
(dp350
g70
I3
ssg71
g344
sg64
(lp351
S''
asbasbasbag57
(g73
g59
NtRp352
(dp353
g62
(dp354
sg71
g306
sg64
(lp355
g57
(g78
g59
NtRp356
(dp357
g62
(dp358
g82
g83
ssg71
g352
sg64
(lp359
S'expires'
p360
asbag57
(g78
g59
NtRp361
(dp362
g62
(dp363
g89
g90
ssg71
g352
sg64
(lp364
S':'
asbag57
(g78
g59
NtRp365
(dp366
g62
(dp367
sg71
g352
sg64
(lp368
g57
(g58
g59
NtRp369
(dp370
g62
(dp371
g70
I3
ssg71
g365
sg64
(lp372
S''
asbasbasbag57
(g73
g59
NtRp373
(dp374
g62
(dp375
sg71
g306
sg64
(lp376
g57
(g78
g59
NtRp377
(dp378
g62
(dp379
g82
g83
ssg71
g373
sg64
(lp380
S'httponly'
p381
asbag57
(g78
g59
NtRp382
(dp383
g62
(dp384
g89
g90
ssg71
g373
sg64
(lp385
S':'
asbag57
(g78
g59
NtRp386
(dp387
g62
(dp388
sg71
g373
sg64
(lp389
g57
(g58
g59
NtRp390
(dp391
g62
(dp392
g70
I3
ssg71
g386
sg64
(lp393
S''
asbasbasbag57
(g73
g59
NtRp394
(dp395
g62
(dp396
sg71
g306
sg64
(lp397
g57
(g78
g59
NtRp398
(dp399
g62
(dp400
g82
g83
ssg71
g394
sg64
(lp401
S'max-age'
p402
asbag57
(g78
g59
NtRp403
(dp404
g62
(dp405
g89
g90
ssg71
g394
sg64
(lp406
S':'
asbag57
(g78
g59
NtRp407
(dp408
g62
(dp409
sg71
g394
sg64
(lp410
g57
(g58
g59
NtRp411
(dp412
g62
(dp413
g70
I3
ssg71
g407
sg64
(lp414
S''
asbasbasbag57
(g73
g59
NtRp415
(dp416
g62
(dp417
sg71
g306
sg64
(lp418
g57
(g78
g59
NtRp419
(dp420
g62
(dp421
g82
g83
ssg71
g415
sg64
(lp422
S'path'
p423
asbag57
(g78
g59
NtRp424
(dp425
g62
(dp426
g89
g90
ssg71
g415
sg64
(lp427
S':'
asbag57
(g78
g59
NtRp428
(dp429
g62
(dp430
sg71
g415
sg64
(lp431
g57
(g58
g59
NtRp432
(dp433
g62
(dp434
g70
I3
ssg71
g428
sg64
(lp435
S''
asbasbasbag57
(g73
g59
NtRp436
(dp437
g62
(dp438
sg71
g306
sg64
(lp439
g57
(g78
g59
NtRp440
(dp441
g62
(dp442
g82
g83
ssg71
g436
sg64
(lp443
S'secure'
p444
asbag57
(g78
g59
NtRp445
(dp446
g62
(dp447
g89
g90
ssg71
g436
sg64
(lp448
S':'
asbag57
(g78
g59
NtRp449
(dp450
g62
(dp451
sg71
g436
sg64
(lp452
g57
(g58
g59
NtRp453
(dp454
g62
(dp455
g70
I3
ssg71
g449
sg64
(lp456
S''
asbasbasbag57
(g73
g59
NtRp457
(dp458
g62
(dp459
sg71
g306
sg64
(lp460
g57
(g78
g59
NtRp461
(dp462
g62
(dp463
g82
g83
ssg71
g457
sg64
(lp464
S'version'
p465
asbag57
(g78
g59
NtRp466
(dp467
g62
(dp468
g89
g90
ssg71
g457
sg64
(lp469
S':'
asbag57
(g78
g59
NtRp470
(dp471
g62
(dp472
sg71
g457
sg64
(lp473
g57
(g58
g59
NtRp474
(dp475
g62
(dp476
g70
I3
ssg71
g470
sg64
(lp477
S''
asbasbasbasbasbasbasbag57
(g73
g59
NtRp478
(dp479
g62
(dp480
sg71
g280
sg64
(lp481
g57
(g78
g59
NtRp482
(dp483
g62
(dp484
g82
g83
ssg71
g478
sg64
(lp485
S'session_id_assignmen3'
p486
asbag57
(g78
g59
NtRp487
(dp488
g62
(dp489
g89
g90
ssg71
g478
sg64
(lp490
S':'
asbag57
(g78
g59
NtRp491
(dp492
g62
(dp493
sg71
g478
sg64
(lp494
g57
(g58
g59
NtRp495
(dp496
g62
(dp497
g70
I4
ssg71
g491
sg64
(lp498
S'127.0.0.1-29d2a057-a0f4-454d-a27a-8e10f33a428a'
p499
ag57
(g66
g59
NtRp500
(dp501
g62
(dp502
g70
I3
ssg71
Nsg64
(lp503
g57
(g73
g59
NtRp504
(dp505
g62
(dp506
sg71
g500
sg64
(lp507
g57
(g78
g59
NtRp508
(dp509
g62
(dp510
g82
g83
ssg71
g504
sg64
(lp511
g318
asbag57
(g78
g59
NtRp512
(dp513
g62
(dp514
g89
g90
ssg71
g504
sg64
(lp515
S':'
asbag57
(g78
g59
NtRp516
(dp517
g62
(dp518
sg71
g504
sg64
(lp519
g57
(g58
g59
NtRp520
(dp521
g62
(dp522
g70
I3
ssg71
g516
sg64
(lp523
S''
asbasbasbag57
(g73
g59
NtRp524
(dp525
g62
(dp526
sg71
g500
sg64
(lp527
g57
(g78
g59
NtRp528
(dp529
g62
(dp530
g82
g83
ssg71
g524
sg64
(lp531
g339
asbag57
(g78
g59
NtRp532
(dp533
g62
(dp534
g89
g90
ssg71
g524
sg64
(lp535
S':'
asbag57
(g78
g59
NtRp536
(dp537
g62
(dp538
sg71
g524
sg64
(lp539
g57
(g58
g59
NtRp540
(dp541
g62
(dp542
g70
I3
ssg71
g536
sg64
(lp543
S''
asbasbasbag57
(g73
g59
NtRp544
(dp545
g62
(dp546
sg71
g500
sg64
(lp547
g57
(g78
g59
NtRp548
(dp549
g62
(dp550
g82
g83
ssg71
g544
sg64
(lp551
g360
asbag57
(g78
g59
NtRp552
(dp553
g62
(dp554
g89
g90
ssg71
g544
sg64
(lp555
S':'
asbag57
(g78
g59
NtRp556
(dp557
g62
(dp558
sg71
g544
sg64
(lp559
g57
(g58
g59
NtRp560
(dp561
g62
(dp562
g70
I3
ssg71
g556
sg64
(lp563
S''
asbasbasbag57
(g73
g59
NtRp564
(dp565
g62
(dp566
sg71
g500
sg64
(lp567
g57
(g78
g59
NtRp568
(dp569
g62
(dp570
g82
g83
ssg71
g564
sg64
(lp571
g381
asbag57
(g78
g59
NtRp572
(dp573
g62
(dp574
g89
g90
ssg71
g564
sg64
(lp575
S':'
asbag57
(g78
g59
NtRp576
(dp577
g62
(dp578
sg71
g564
sg64
(lp579
g57
(g58
g59
NtRp580
(dp581
g62
(dp582
g70
I3
ssg71
g576
sg64
(lp583
S''
asbasbasbag57
(g73
g59
NtRp584
(dp585
g62
(dp586
sg71
g500
sg64
(lp587
g57
(g78
g59
NtRp588
(dp589
g62
(dp590
g82
g83
ssg71
g584
sg64
(lp591
g402
asbag57
(g78
g59
NtRp592
(dp593
g62
(dp594
g89
g90
ssg71
g584
sg64
(lp595
S':'
asbag57
(g78
g59
NtRp596
(dp597
g62
(dp598
sg71
g584
sg64
(lp599
g57
(g58
g59
NtRp600
(dp601
g62
(dp602
g70
I3
ssg71
g596
sg64
(lp603
S''
asbasbasbag57
(g73
g59
NtRp604
(dp605
g62
(dp606
sg71
g500
sg64
(lp607
g57
(g78
g59
NtRp608
(dp609
g62
(dp610
g82
g83
ssg71
g604
sg64
(lp611
g423
asbag57
(g78
g59
NtRp612
(dp613
g62
(dp614
g89
g90
ssg71
g604
sg64
(lp615
S':'
asbag57
(g78
g59
NtRp616
(dp617
g62
(dp618
sg71
g604
sg64
(lp619
g57
(g58
g59
NtRp620
(dp621
g62
(dp622
g70
I3
ssg71
g616
sg64
(lp623
S''
asbasbasbag57
(g73
g59
NtRp624
(dp625
g62
(dp626
sg71
g500
sg64
(lp627
g57
(g78
g59
NtRp628
(dp629
g62
(dp630
g82
g83
ssg71
g624
sg64
(lp631
g444
asbag57
(g78
g59
NtRp632
(dp633
g62
(dp634
g89
g90
ssg71
g624
sg64
(lp635
S':'
asbag57
(g78
g59
NtRp636
(dp637
g62
(dp638
sg71
g624
sg64
(lp639
g57
(g58
g59
NtRp640
(dp641
g62
(dp642
g70
I3
ssg71
g636
sg64
(lp643
S''
asbasbasbag57
(g73
g59
NtRp644
(dp645
g62
(dp646
sg71
g500
sg64
(lp647
g57
(g78
g59
NtRp648
(dp649
g62
(dp650
g82
g83
ssg71
g644
sg64
(lp651
g465
asbag57
(g78
g59
NtRp652
(dp653
g62
(dp654
g89
g90
ssg71
g644
sg64
(lp655
S':'
asbag57
(g78
g59
NtRp656
(dp657
g62
(dp658
sg71
g644
sg64
(lp659
g57
(g58
g59
NtRp660
(dp661
g62
(dp662
g70
I3
ssg71
g656
sg64
(lp663
S''
asbasbasbasbasbasbasbag57
(g73
g59
NtRp664
(dp665
g62
(dp666
sg71
g280
sg64
(lp667
g57
(g78
g59
NtRp668
(dp669
g62
(dp670
g82
g83
ssg71
g664
sg64
(lp671
S'session_id_welcome'
p672
asbag57
(g78
g59
NtRp673
(dp674
g62
(dp675
g89
g90
ssg71
g664
sg64
(lp676
S':'
asbag57
(g78
g59
NtRp677
(dp678
g62
(dp679
sg71
g664
sg64
(lp680
g57
(g58
g59
NtRp681
(dp682
g62
(dp683
g70
I4
ssg71
g677
sg64
(lp684
S'127.0.0.1-8dc4cf7f-f02b-432b-8997-58277fa557ea'
p685
ag57
(g66
g59
NtRp686
(dp687
g62
(dp688
g70
I3
ssg71
Nsg64
(lp689
g57
(g73
g59
NtRp690
(dp691
g62
(dp692
sg71
g686
sg64
(lp693
g57
(g78
g59
NtRp694
(dp695
g62
(dp696
g82
g83
ssg71
g690
sg64
(lp697
g318
asbag57
(g78
g59
NtRp698
(dp699
g62
(dp700
g89
g90
ssg71
g690
sg64
(lp701
S':'
asbag57
(g78
g59
NtRp702
(dp703
g62
(dp704
sg71
g690
sg64
(lp705
g57
(g58
g59
NtRp706
(dp707
g62
(dp708
g70
I3
ssg71
g702
sg64
(lp709
S''
asbasbasbag57
(g73
g59
NtRp710
(dp711
g62
(dp712
sg71
g686
sg64
(lp713
g57
(g78
g59
NtRp714
(dp715
g62
(dp716
g82
g83
ssg71
g710
sg64
(lp717
g339
asbag57
(g78
g59
NtRp718
(dp719
g62
(dp720
g89
g90
ssg71
g710
sg64
(lp721
S':'
asbag57
(g78
g59
NtRp722
(dp723
g62
(dp724
sg71
g710
sg64
(lp725
g57
(g58
g59
NtRp726
(dp727
g62
(dp728
g70
I3
ssg71
g722
sg64
(lp729
S''
asbasbasbag57
(g73
g59
NtRp730
(dp731
g62
(dp732
sg71
g686
sg64
(lp733
g57
(g78
g59
NtRp734
(dp735
g62
(dp736
g82
g83
ssg71
g730
sg64
(lp737
g360
asbag57
(g78
g59
NtRp738
(dp739
g62
(dp740
g89
g90
ssg71
g730
sg64
(lp741
S':'
asbag57
(g78
g59
NtRp742
(dp743
g62
(dp744
sg71
g730
sg64
(lp745
g57
(g58
g59
NtRp746
(dp747
g62
(dp748
g70
I3
ssg71
g742
sg64
(lp749
S''
asbasbasbag57
(g73
g59
NtRp750
(dp751
g62
(dp752
sg71
g686
sg64
(lp753
g57
(g78
g59
NtRp754
(dp755
g62
(dp756
g82
g83
ssg71
g750
sg64
(lp757
g381
asbag57
(g78
g59
NtRp758
(dp759
g62
(dp760
g89
g90
ssg71
g750
sg64
(lp761
S':'
asbag57
(g78
g59
NtRp762
(dp763
g62
(dp764
sg71
g750
sg64
(lp765
g57
(g58
g59
NtRp766
(dp767
g62
(dp768
g70
I3
ssg71
g762
sg64
(lp769
S''
asbasbasbag57
(g73
g59
NtRp770
(dp771
g62
(dp772
sg71
g686
sg64
(lp773
g57
(g78
g59
NtRp774
(dp775
g62
(dp776
g82
g83
ssg71
g770
sg64
(lp777
g402
asbag57
(g78
g59
NtRp778
(dp779
g62
(dp780
g89
g90
ssg71
g770
sg64
(lp781
S':'
asbag57
(g78
g59
NtRp782
(dp783
g62
(dp784
sg71
g770
sg64
(lp785
g57
(g58
g59
NtRp786
(dp787
g62
(dp788
g70
I3
ssg71
g782
sg64
(lp789
S''
asbasbasbag57
(g73
g59
NtRp790
(dp791
g62
(dp792
sg71
g686
sg64
(lp793
g57
(g78
g59
NtRp794
(dp795
g62
(dp796
g82
g83
ssg71
g790
sg64
(lp797
g423
asbag57
(g78
g59
NtRp798
(dp799
g62
(dp800
g89
g90
ssg71
g790
sg64
(lp801
S':'
asbag57
(g78
g59
NtRp802
(dp803
g62
(dp804
sg71
g790
sg64
(lp805
g57
(g58
g59
NtRp806
(dp807
g62
(dp808
g70
I3
ssg71
g802
sg64
(lp809
S''
asbasbasbag57
(g73
g59
NtRp810
(dp811
g62
(dp812
sg71
g686
sg64
(lp813
g57
(g78
g59
NtRp814
(dp815
g62
(dp816
g82
g83
ssg71
g810
sg64
(lp817
g444
asbag57
(g78
g59
NtRp818
(dp819
g62
(dp820
g89
g90
ssg71
g810
sg64
(lp821
S':'
asbag57
(g78
g59
NtRp822
(dp823
g62
(dp824
sg71
g810
sg64
(lp825
g57
(g58
g59
NtRp826
(dp827
g62
(dp828
g70
I3
ssg71
g822
sg64
(lp829
S''
asbasbasbag57
(g73
g59
NtRp830
(dp831
g62
(dp832
sg71
g686
sg64
(lp833
g57
(g78
g59
NtRp834
(dp835
g62
(dp836
g82
g83
ssg71
g830
sg64
(lp837
g465
asbag57
(g78
g59
NtRp838
(dp839
g62
(dp840
g89
g90
ssg71
g830
sg64
(lp841
S':'
asbag57
(g78
g59
NtRp842
(dp843
g62
(dp844
sg71
g830
sg64
(lp845
g57
(g58
g59
NtRp846
(dp847
g62
(dp848
g70
I3
ssg71
g842
sg64
(lp849
S''
asbasbasbasbasbasbasbasbasbasbasbag57
(g73
g59
NtRp850
(dp851
g62
(dp852
sg71
g67
sg64
(lp853
g57
(g78
g59
NtRp854
(dp855
g62
(dp856
g82
g83
ssg71
g850
sg64
(lp857
S'env'
p858
asbag57
(g78
g59
NtRp859
(dp860
g62
(dp861
g89
g90
ssg71
g850
sg64
(lp862
S':'
asbag57
(g78
g59
NtRp863
(dp864
g62
(dp865
sg71
g850
sg64
(lp866
g57
(g58
g59
NtRp867
(dp868
g62
(dp869
g70
I5
ssg71
g863
sg64
(lp870
g57
(g66
g59
NtRp871
(dp872
g62
(dp873
g70
I4
ssg71
Nsg64
(lp874
g57
(g73
g59
NtRp875
(dp876
g62
(dp877
sg71
g871
sg64
(lp878
g57
(g78
g59
NtRp879
(dp880
g62
(dp881
g82
g83
ssg71
g875
sg64
(lp882
S'app_folders'
p883
asbag57
(g78
g59
NtRp884
(dp885
g62
(dp886
g89
g90
ssg71
g875
sg64
(lp887
S':'
asbag57
(g78
g59
NtRp888
(dp889
g62
(dp890
sg71
g875
sg64
(lp891
g57
(g58
g59
NtRp892
(dp893
g62
(dp894
g70
I4
ssg71
g888
sg64
(lp895
S"set(['/home/umang/web2py/applications/admin/', '/home/umang/web2py/applications/assignmen3/', '/home/umang/web2py/applications/welcome/'])"
p896
asbasbasbag57
(g73
g59
NtRp897
(dp898
g62
(dp899
sg71
g871
sg64
(lp900
g57
(g78
g59
NtRp901
(dp902
g62
(dp903
g82
g83
ssg71
g897
sg64
(lp904
S'applications_parent'
p905
asbag57
(g78
g59
NtRp906
(dp907
g62
(dp908
g89
g90
ssg71
g897
sg64
(lp909
S':'
asbag57
(g78
g59
NtRp910
(dp911
g62
(dp912
sg71
g897
sg64
(lp913
g57
(g58
g59
NtRp914
(dp915
g62
(dp916
g70
I4
ssg71
g910
sg64
(lp917
S'/home/umang/web2py'
p918
asbasbasbag57
(g73
g59
NtRp919
(dp920
g62
(dp921
sg71
g871
sg64
(lp922
g57
(g78
g59
NtRp923
(dp924
g62
(dp925
g82
g83
ssg71
g919
sg64
(lp926
S'cmd_args'
p927
asbag57
(g78
g59
NtRp928
(dp929
g62
(dp930
g89
g90
ssg71
g919
sg64
(lp931
S':'
asbag57
(g78
g59
NtRp932
(dp933
g62
(dp934
sg71
g919
sg64
(lp935
g57
(g58
g59
NtRp936
(dp937
g62
(dp938
g70
I4
ssg71
g932
sg64
(lp939
g57
(g66
g59
NtRp940
(dp941
g62
(dp942
g70
I3
ssg71
Nsg64
(lp943
sbasbasbasbag57
(g73
g59
NtRp944
(dp945
g62
(dp946
sg71
g871
sg64
(lp947
g57
(g78
g59
NtRp948
(dp949
g62
(dp950
g82
g83
ssg71
g944
sg64
(lp951
S'cmd_options'
p952
asbag57
(g78
g59
NtRp953
(dp954
g62
(dp955
g89
g90
ssg71
g944
sg64
(lp956
S':'
asbag57
(g78
g59
NtRp957
(dp958
g62
(dp959
sg71
g944
sg64
(lp960
g57
(g58
g59
NtRp961
(dp962
g62
(dp963
g70
I4
ssg71
g957
sg64
(lp964
S"<Values at 0x1e8e200: {'verbose': False, 'ip': '127.0.0.1', 'with_scheduler': False, 'ips': [], 'shutdown_timeout': 5, 'taskbar': False, 'port': 8000, 'maxthreads': None, 'softcron': False, 'server_name': 'umang-HP-Pavilion-g6-Notebook-PC', 'bpython': False, 'nogui': False, 'pid_filename': 'httpserver.pid', 'extcron': False, 'runcron': False, 'run_system_tests': False, 'test': None, 'folder': '/home/umang/web2py', 'config': '', 'minthreads': None, 'winservice': '', 'shell': None, 'run': '', 'log_filename': 'httpserver.log', 'debuglevel': 30, 'args': [''], 'socket_timeout': 5, 'ssl_ca_certificate': None, 'scheduler': None, 'profiler_filename': None, 'ssl_private_key': '', 'scheduler_groups': None, 'password': '<ask>', 'request_queue_size': 5, 'ssl_certificate': '', 'cronjob': False, 'numthreads': None, 'quiet': False, 'interfaces': None, 'import_models': False, 'timeout': 10, 'plain': False, 'nobanner': False}>"
p965
asbasbasbag57
(g73
g59
NtRp966
(dp967
g62
(dp968
sg71
g871
sg64
(lp969
g57
(g78
g59
NtRp970
(dp971
g62
(dp972
g82
g83
ssg71
g966
sg64
(lp973
S'db_sessions'
p974
asbag57
(g78
g59
NtRp975
(dp976
g62
(dp977
g89
g90
ssg71
g966
sg64
(lp978
S':'
asbag57
(g78
g59
NtRp979
(dp980
g62
(dp981
sg71
g966
sg64
(lp982
g57
(g58
g59
NtRp983
(dp984
g62
(dp985
g70
I4
ssg71
g979
sg64
(lp986
S'set([])'
p987
asbasbasbag57
(g73
g59
NtRp988
(dp989
g62
(dp990
sg71
g871
sg64
(lp991
g57
(g78
g59
NtRp992
(dp993
g62
(dp994
g82
g83
ssg71
g988
sg64
(lp995
S'debugging'
p996
asbag57
(g78
g59
NtRp997
(dp998
g62
(dp999
g89
g90
ssg71
g988
sg64
(lp1000
S':'
asbag57
(g78
g59
NtRp1001
(dp1002
g62
(dp1003
sg71
g988
sg64
(lp1004
g57
(g58
g59
NtRp1005
(dp1006
g62
(dp1007
g70
I4
ssg71
g1001
sg64
(lp1008
g100
asbasbasbag57
(g73
g59
NtRp1009
(dp1010
g62
(dp1011
sg71
g871
sg64
(lp1012
g57
(g78
g59
NtRp1013
(dp1014
g62
(dp1015
g82
g83
ssg71
g1009
sg64
(lp1016
S'gluon_parent'
p1017
asbag57
(g78
g59
NtRp1018
(dp1019
g62
(dp1020
g89
g90
ssg71
g1009
sg64
(lp1021
S':'
asbag57
(g78
g59
NtRp1022
(dp1023
g62
(dp1024
sg71
g1009
sg64
(lp1025
g57
(g58
g59
NtRp1026
(dp1027
g62
(dp1028
g70
I4
ssg71
g1022
sg64
(lp1029
S'/home/umang/web2py'
p1030
asbasbasbag57
(g73
g59
NtRp1031
(dp1032
g62
(dp1033
sg71
g871
sg64
(lp1034
g57
(g78
g59
NtRp1035
(dp1036
g62
(dp1037
g82
g83
ssg71
g1031
sg64
(lp1038
S'http_accept'
p1039
asbag57
(g78
g59
NtRp1040
(dp1041
g62
(dp1042
g89
g90
ssg71
g1031
sg64
(lp1043
S':'
asbag57
(g78
g59
NtRp1044
(dp1045
g62
(dp1046
sg71
g1031
sg64
(lp1047
g57
(g58
g59
NtRp1048
(dp1049
g62
(dp1050
g70
I4
ssg71
g1044
sg64
(lp1051
S'text/html,application/xhtml+xml,application/xml;q=0.9,*/*;q=0.8'
p1052
asbasbasbag57
(g73
g59
NtRp1053
(dp1054
g62
(dp1055
sg71
g871
sg64
(lp1056
g57
(g78
g59
NtRp1057
(dp1058
g62
(dp1059
g82
g83
ssg71
g1053
sg64
(lp1060
S'http_accept_encoding'
p1061
asbag57
(g78
g59
NtRp1062
(dp1063
g62
(dp1064
g89
g90
ssg71
g1053
sg64
(lp1065
S':'
asbag57
(g78
g59
NtRp1066
(dp1067
g62
(dp1068
sg71
g1053
sg64
(lp1069
g57
(g58
g59
NtRp1070
(dp1071
g62
(dp1072
g70
I4
ssg71
g1066
sg64
(lp1073
S'gzip, deflate'
p1074
asbasbasbag57
(g73
g59
NtRp1075
(dp1076
g62
(dp1077
sg71
g871
sg64
(lp1078
g57
(g78
g59
NtRp1079
(dp1080
g62
(dp1081
g82
g83
ssg71
g1075
sg64
(lp1082
S'http_accept_language'
p1083
asbag57
(g78
g59
NtRp1084
(dp1085
g62
(dp1086
g89
g90
ssg71
g1075
sg64
(lp1087
S':'
asbag57
(g78
g59
NtRp1088
(dp1089
g62
(dp1090
sg71
g1075
sg64
(lp1091
g57
(g58
g59
NtRp1092
(dp1093
g62
(dp1094
g70
I4
ssg71
g1088
sg64
(lp1095
S'en-us,en;q=0.5'
p1096
asbasbasbag57
(g73
g59
NtRp1097
(dp1098
g62
(dp1099
sg71
g871
sg64
(lp1100
g57
(g78
g59
NtRp1101
(dp1102
g62
(dp1103
g82
g83
ssg71
g1097
sg64
(lp1104
S'http_cache_control'
p1105
asbag57
(g78
g59
NtRp1106
(dp1107
g62
(dp1108
g89
g90
ssg71
g1097
sg64
(lp1109
S':'
asbag57
(g78
g59
NtRp1110
(dp1111
g62
(dp1112
sg71
g1097
sg64
(lp1113
g57
(g58
g59
NtRp1114
(dp1115
g62
(dp1116
g70
I4
ssg71
g1110
sg64
(lp1117
S'max-age=0'
p1118
asbasbasbag57
(g73
g59
NtRp1119
(dp1120
g62
(dp1121
sg71
g871
sg64
(lp1122
g57
(g78
g59
NtRp1123
(dp1124
g62
(dp1125
g82
g83
ssg71
g1119
sg64
(lp1126
S'http_connection'
p1127
asbag57
(g78
g59
NtRp1128
(dp1129
g62
(dp1130
g89
g90
ssg71
g1119
sg64
(lp1131
S':'
asbag57
(g78
g59
NtRp1132
(dp1133
g62
(dp1134
sg71
g1119
sg64
(lp1135
g57
(g58
g59
NtRp1136
(dp1137
g62
(dp1138
g70
I4
ssg71
g1132
sg64
(lp1139
S'keep-alive'
p1140
asbasbasbag57
(g73
g59
NtRp1141
(dp1142
g62
(dp1143
sg71
g871
sg64
(lp1144
g57
(g78
g59
NtRp1145
(dp1146
g62
(dp1147
g82
g83
ssg71
g1141
sg64
(lp1148
S'http_cookie'
p1149
asbag57
(g78
g59
NtRp1150
(dp1151
g62
(dp1152
g89
g90
ssg71
g1141
sg64
(lp1153
S':'
asbag57
(g78
g59
NtRp1154
(dp1155
g62
(dp1156
sg71
g1141
sg64
(lp1157
g57
(g58
g59
NtRp1158
(dp1159
g62
(dp1160
g70
I4
ssg71
g1154
sg64
(lp1161
S'session_id_welcome=127.0.0.1-8dc4cf7f-f02b-432b-8997-58277fa557ea; session_id_assignmen3=127.0.0.1-29d2a057-a0f4-454d-a27a-8e10f33a428a; session_id_admin=127.0.0.1-3084c772-81da-4392-9cca-26b69ed0651f'
p1162
asbasbasbag57
(g73
g59
NtRp1163
(dp1164
g62
(dp1165
sg71
g871
sg64
(lp1166
g57
(g78
g59
NtRp1167
(dp1168
g62
(dp1169
g82
g83
ssg71
g1163
sg64
(lp1170
S'http_host'
p1171
asbag57
(g78
g59
NtRp1172
(dp1173
g62
(dp1174
g89
g90
ssg71
g1163
sg64
(lp1175
S':'
asbag57
(g78
g59
NtRp1176
(dp1177
g62
(dp1178
sg71
g1163
sg64
(lp1179
g57
(g58
g59
NtRp1180
(dp1181
g62
(dp1182
g70
I4
ssg71
g1176
sg64
(lp1183
S'127.0.0.1:8000'
p1184
asbasbasbag57
(g73
g59
NtRp1185
(dp1186
g62
(dp1187
sg71
g871
sg64
(lp1188
g57
(g78
g59
NtRp1189
(dp1190
g62
(dp1191
g82
g83
ssg71
g1185
sg64
(lp1192
S'http_referer'
p1193
asbag57
(g78
g59
NtRp1194
(dp1195
g62
(dp1196
g89
g90
ssg71
g1185
sg64
(lp1197
S':'
asbag57
(g78
g59
NtRp1198
(dp1199
g62
(dp1200
sg71
g1185
sg64
(lp1201
g57
(g58
g59
NtRp1202
(dp1203
g62
(dp1204
g70
I4
ssg71
g1198
sg64
(lp1205
S'http://127.0.0.1:8000/assignmen3/default/first_page/2'
p1206
asbasbasbag57
(g73
g59
NtRp1207
(dp1208
g62
(dp1209
sg71
g871
sg64
(lp1210
g57
(g78
g59
NtRp1211
(dp1212
g62
(dp1213
g82
g83
ssg71
g1207
sg64
(lp1214
S'http_user_agent'
p1215
asbag57
(g78
g59
NtRp1216
(dp1217
g62
(dp1218
g89
g90
ssg71
g1207
sg64
(lp1219
S':'
asbag57
(g78
g59
NtRp1220
(dp1221
g62
(dp1222
sg71
g1207
sg64
(lp1223
g57
(g58
g59
NtRp1224
(dp1225
g62
(dp1226
g70
I4
ssg71
g1220
sg64
(lp1227
S'Mozilla/5.0 (X11; Ubuntu; Linux x86_64; rv:11.0) Gecko/20100101 Firefox/11.0'
p1228
asbasbasbag57
(g73
g59
NtRp1229
(dp1230
g62
(dp1231
sg71
g871
sg64
(lp1232
g57
(g78
g59
NtRp1233
(dp1234
g62
(dp1235
g82
g83
ssg71
g1229
sg64
(lp1236
S'is_jython'
p1237
asbag57
(g78
g59
NtRp1238
(dp1239
g62
(dp1240
g89
g90
ssg71
g1229
sg64
(lp1241
S':'
asbag57
(g78
g59
NtRp1242
(dp1243
g62
(dp1244
sg71
g1229
sg64
(lp1245
g57
(g58
g59
NtRp1246
(dp1247
g62
(dp1248
g70
I4
ssg71
g1242
sg64
(lp1249
g100
asbasbasbag57
(g73
g59
NtRp1250
(dp1251
g62
(dp1252
sg71
g871
sg64
(lp1253
g57
(g78
g59
NtRp1254
(dp1255
g62
(dp1256
g82
g83
ssg71
g1250
sg64
(lp1257
S'is_pypy'
p1258
asbag57
(g78
g59
NtRp1259
(dp1260
g62
(dp1261
g89
g90
ssg71
g1250
sg64
(lp1262
S':'
asbag57
(g78
g59
NtRp1263
(dp1264
g62
(dp1265
sg71
g1250
sg64
(lp1266
g57
(g58
g59
NtRp1267
(dp1268
g62
(dp1269
g70
I4
ssg71
g1263
sg64
(lp1270
g100
asbasbasbag57
(g73
g59
NtRp1271
(dp1272
g62
(dp1273
sg71
g871
sg64
(lp1274
g57
(g78
g59
NtRp1275
(dp1276
g62
(dp1277
g82
g83
ssg71
g1271
sg64
(lp1278
S'local_hosts'
p1279
asbag57
(g78
g59
NtRp1280
(dp1281
g62
(dp1282
g89
g90
ssg71
g1271
sg64
(lp1283
S':'
asbag57
(g78
g59
NtRp1284
(dp1285
g62
(dp1286
sg71
g1271
sg64
(lp1287
g57
(g58
g59
NtRp1288
(dp1289
g62
(dp1290
g70
I4
ssg71
g1284
sg64
(lp1291
g57
(g66
g59
NtRp1292
(dp1293
g62
(dp1294
g70
I3
ssg71
Nsg64
(lp1295
g57
(g73
g59
NtRp1296
(dp1297
g62
(dp1298
sg71
g1292
sg64
(lp1299
g57
(g78
g59
NtRp1300
(dp1301
g62
(dp1302
sg71
g1296
sg64
(lp1303
g57
(g58
g59
NtRp1304
(dp1305
g62
(dp1306
g70
I3
ssg71
g1300
sg64
(lp1307
S'::1'
p1308
asbasbasbag57
(g73
g59
NtRp1309
(dp1310
g62
(dp1311
sg71
g1292
sg64
(lp1312
g57
(g78
g59
NtRp1313
(dp1314
g62
(dp1315
sg71
g1309
sg64
(lp1316
g57
(g58
g59
NtRp1317
(dp1318
g62
(dp1319
g70
I3
ssg71
g1313
sg64
(lp1320
S'127.0.1.1'
p1321
asbasbasbag57
(g73
g59
NtRp1322
(dp1323
g62
(dp1324
sg71
g1292
sg64
(lp1325
g57
(g78
g59
NtRp1326
(dp1327
g62
(dp1328
sg71
g1322
sg64
(lp1329
g57
(g58
g59
NtRp1330
(dp1331
g62
(dp1332
g70
I3
ssg71
g1326
sg64
(lp1333
S'::ffff:127.0.0.1'
p1334
asbasbasbag57
(g73
g59
NtRp1335
(dp1336
g62
(dp1337
sg71
g1292
sg64
(lp1338
g57
(g78
g59
NtRp1339
(dp1340
g62
(dp1341
sg71
g1335
sg64
(lp1342
g57
(g58
g59
NtRp1343
(dp1344
g62
(dp1345
g70
I3
ssg71
g1339
sg64
(lp1346
S'127.0.0.1'
p1347
asbasbasbag57
(g73
g59
NtRp1348
(dp1349
g62
(dp1350
sg71
g1292
sg64
(lp1351
g57
(g78
g59
NtRp1352
(dp1353
g62
(dp1354
sg71
g1348
sg64
(lp1355
g57
(g58
g59
NtRp1356
(dp1357
g62
(dp1358
g70
I3
ssg71
g1352
sg64
(lp1359
S'umang-HP-Pavilion-g6-Notebook-PC'
p1360
asbasbasbasbasbasbasbag57
(g73
g59
NtRp1361
(dp1362
g62
(dp1363
sg71
g871
sg64
(lp1364
g57
(g78
g59
NtRp1365
(dp1366
g62
(dp1367
g82
g83
ssg71
g1361
sg64
(lp1368
S'path_info'
p1369
asbag57
(g78
g59
NtRp1370
(dp1371
g62
(dp1372
g89
g90
ssg71
g1361
sg64
(lp1373
S':'
asbag57
(g78
g59
NtRp1374
(dp1375
g62
(dp1376
sg71
g1361
sg64
(lp1377
g57
(g58
g59
NtRp1378
(dp1379
g62
(dp1380
g70
I4
ssg71
g1374
sg64
(lp1381
S'/assignmen3/default/like/1/2'
p1382
asbasbasbag57
(g73
g59
NtRp1383
(dp1384
g62
(dp1385
sg71
g871
sg64
(lp1386
g57
(g78
g59
NtRp1387
(dp1388
g62
(dp1389
g82
g83
ssg71
g1383
sg64
(lp1390
S'query_string'
p1391
asbag57
(g78
g59
NtRp1392
(dp1393
g62
(dp1394
g89
g90
ssg71
g1383
sg64
(lp1395
S':'
asbag57
(g78
g59
NtRp1396
(dp1397
g62
(dp1398
sg71
g1383
sg64
(lp1399
g57
(g58
g59
NtRp1400
(dp1401
g62
(dp1402
g70
I4
ssg71
g1396
sg64
(lp1403
S''
asbasbasbag57
(g73
g59
NtRp1404
(dp1405
g62
(dp1406
sg71
g871
sg64
(lp1407
g57
(g78
g59
NtRp1408
(dp1409
g62
(dp1410
g82
g83
ssg71
g1404
sg64
(lp1411
S'remote_addr'
p1412
asbag57
(g78
g59
NtRp1413
(dp1414
g62
(dp1415
g89
g90
ssg71
g1404
sg64
(lp1416
S':'
asbag57
(g78
g59
NtRp1417
(dp1418
g62
(dp1419
sg71
g1404
sg64
(lp1420
g57
(g58
g59
NtRp1421
(dp1422
g62
(dp1423
g70
I4
ssg71
g1417
sg64
(lp1424
g236
asbasbasbag57
(g73
g59
NtRp1425
(dp1426
g62
(dp1427
sg71
g871
sg64
(lp1428
g57
(g78
g59
NtRp1429
(dp1430
g62
(dp1431
g82
g83
ssg71
g1425
sg64
(lp1432
S'remote_port'
p1433
asbag57
(g78
g59
NtRp1434
(dp1435
g62
(dp1436
g89
g90
ssg71
g1425
sg64
(lp1437
S':'
asbag57
(g78
g59
NtRp1438
(dp1439
g62
(dp1440
sg71
g1425
sg64
(lp1441
g57
(g58
g59
NtRp1442
(dp1443
g62
(dp1444
g70
I4
ssg71
g1438
sg64
(lp1445
S'40983'
p1446
asbasbasbag57
(g73
g59
NtRp1447
(dp1448
g62
(dp1449
sg71
g871
sg64
(lp1450
g57
(g78
g59
NtRp1451
(dp1452
g62
(dp1453
g82
g83
ssg71
g1447
sg64
(lp1454
S'request_method'
p1455
asbag57
(g78
g59
NtRp1456
(dp1457
g62
(dp1458
g89
g90
ssg71
g1447
sg64
(lp1459
S':'
asbag57
(g78
g59
NtRp1460
(dp1461
g62
(dp1462
sg71
g1447
sg64
(lp1463
g57
(g58
g59
NtRp1464
(dp1465
g62
(dp1466
g70
I4
ssg71
g1460
sg64
(lp1467
S'GET'
p1468
asbasbasbag57
(g73
g59
NtRp1469
(dp1470
g62
(dp1471
sg71
g871
sg64
(lp1472
g57
(g78
g59
NtRp1473
(dp1474
g62
(dp1475
g82
g83
ssg71
g1469
sg64
(lp1476
S'request_uri'
p1477
asbag57
(g78
g59
NtRp1478
(dp1479
g62
(dp1480
g89
g90
ssg71
g1469
sg64
(lp1481
S':'
asbag57
(g78
g59
NtRp1482
(dp1483
g62
(dp1484
sg71
g1469
sg64
(lp1485
g57
(g58
g59
NtRp1486
(dp1487
g62
(dp1488
g70
I4
ssg71
g1482
sg64
(lp1489
g1382
asbasbasbag57
(g73
g59
NtRp1490
(dp1491
g62
(dp1492
sg71
g871
sg64
(lp1493
g57
(g78
g59
NtRp1494
(dp1495
g62
(dp1496
g82
g83
ssg71
g1490
sg64
(lp1497
S'script_name'
p1498
asbag57
(g78
g59
NtRp1499
(dp1500
g62
(dp1501
g89
g90
ssg71
g1490
sg64
(lp1502
S':'
asbag57
(g78
g59
NtRp1503
(dp1504
g62
(dp1505
sg71
g1490
sg64
(lp1506
g57
(g58
g59
NtRp1507
(dp1508
g62
(dp1509
g70
I4
ssg71
g1503
sg64
(lp1510
S''
asbasbasbag57
(g73
g59
NtRp1511
(dp1512
g62
(dp1513
sg71
g871
sg64
(lp1514
g57
(g78
g59
NtRp1515
(dp1516
g62
(dp1517
g82
g83
ssg71
g1511
sg64
(lp1518
S'server_name'
p1519
asbag57
(g78
g59
NtRp1520
(dp1521
g62
(dp1522
g89
g90
ssg71
g1511
sg64
(lp1523
S':'
asbag57
(g78
g59
NtRp1524
(dp1525
g62
(dp1526
sg71
g1511
sg64
(lp1527
g57
(g58
g59
NtRp1528
(dp1529
g62
(dp1530
g70
I4
ssg71
g1524
sg64
(lp1531
S'umang-HP-Pavilion-g6-Notebook-PC'
p1532
asbasbasbag57
(g73
g59
NtRp1533
(dp1534
g62
(dp1535
sg71
g871
sg64
(lp1536
g57
(g78
g59
NtRp1537
(dp1538
g62
(dp1539
g82
g83
ssg71
g1533
sg64
(lp1540
S'server_port'
p1541
asbag57
(g78
g59
NtRp1542
(dp1543
g62
(dp1544
g89
g90
ssg71
g1533
sg64
(lp1545
S':'
asbag57
(g78
g59
NtRp1546
(dp1547
g62
(dp1548
sg71
g1533
sg64
(lp1549
g57
(g58
g59
NtRp1550
(dp1551
g62
(dp1552
g70
I4
ssg71
g1546
sg64
(lp1553
S'8000'
p1554
asbasbasbag57
(g73
g59
NtRp1555
(dp1556
g62
(dp1557
sg71
g871
sg64
(lp1558
g57
(g78
g59
NtRp1559
(dp1560
g62
(dp1561
g82
g83
ssg71
g1555
sg64
(lp1562
S'server_protocol'
p1563
asbag57
(g78
g59
NtRp1564
(dp1565
g62
(dp1566
g89
g90
ssg71
g1555
sg64
(lp1567
S':'
asbag57
(g78
g59
NtRp1568
(dp1569
g62
(dp1570
sg71
g1555
sg64
(lp1571
g57
(g58
g59
NtRp1572
(dp1573
g62
(dp1574
g70
I4
ssg71
g1568
sg64
(lp1575
S'HTTP/1.1'
p1576
asbasbasbag57
(g73
g59
NtRp1577
(dp1578
g62
(dp1579
sg71
g871
sg64
(lp1580
g57
(g78
g59
NtRp1581
(dp1582
g62
(dp1583
g82
g83
ssg71
g1577
sg64
(lp1584
S'server_software'
p1585
asbag57
(g78
g59
NtRp1586
(dp1587
g62
(dp1588
g89
g90
ssg71
g1577
sg64
(lp1589
S':'
asbag57
(g78
g59
NtRp1590
(dp1591
g62
(dp1592
sg71
g1577
sg64
(lp1593
g57
(g58
g59
NtRp1594
(dp1595
g62
(dp1596
g70
I4
ssg71
g1590
sg64
(lp1597
S'Rocket 1.2.6'
p1598
asbasbasbag57
(g73
g59
NtRp1599
(dp1600
g62
(dp1601
sg71
g871
sg64
(lp1602
g57
(g78
g59
NtRp1603
(dp1604
g62
(dp1605
g82
g83
ssg71
g1599
sg64
(lp1606
S'web2py_path'
p1607
asbag57
(g78
g59
NtRp1608
(dp1609
g62
(dp1610
g89
g90
ssg71
g1599
sg64
(lp1611
S':'
asbag57
(g78
g59
NtRp1612
(dp1613
g62
(dp1614
sg71
g1599
sg64
(lp1615
g57
(g58
g59
NtRp1616
(dp1617
g62
(dp1618
g70
I4
ssg71
g1612
sg64
(lp1619
g918
asbasbasbag57
(g73
g59
NtRp1620
(dp1621
g62
(dp1622
sg71
g871
sg64
(lp1623
g57
(g78
g59
NtRp1624
(dp1625
g62
(dp1626
g82
g83
ssg71
g1620
sg64
(lp1627
S'web2py_version'
p1628
asbag57
(g78
g59
NtRp1629
(dp1630
g62
(dp1631
g89
g90
ssg71
g1620
sg64
(lp1632
S':'
asbag57
(g78
g59
NtRp1633
(dp1634
g62
(dp1635
sg71
g1620
sg64
(lp1636
g57
(g58
g59
NtRp1637
(dp1638
g62
(dp1639
g70
I4
ssg71
g1633
sg64
(lp1640
g57
(g66
g59
NtRp1641
(dp1642
g62
(dp1643
g70
I3
ssg71
Nsg64
(lp1644
g57
(g73
g59
NtRp1645
(dp1646
g62
(dp1647
sg71
g1641
sg64
(lp1648
g57
(g78
g59
NtRp1649
(dp1650
g62
(dp1651
sg71
g1645
sg64
(lp1652
g57
(g58
g59
NtRp1653
(dp1654
g62
(dp1655
g70
I3
ssg71
g1649
sg64
(lp1656
S'2'
asbasbasbag57
(g73
g59
NtRp1657
(dp1658
g62
(dp1659
sg71
g1641
sg64
(lp1660
g57
(g78
g59
NtRp1661
(dp1662
g62
(dp1663
sg71
g1657
sg64
(lp1664
g57
(g58
g59
NtRp1665
(dp1666
g62
(dp1667
g70
I3
ssg71
g1661
sg64
(lp1668
S'3'
asbasbasbag57
(g73
g59
NtRp1669
(dp1670
g62
(dp1671
sg71
g1641
sg64
(lp1672
g57
(g78
g59
NtRp1673
(dp1674
g62
(dp1675
sg71
g1669
sg64
(lp1676
g57
(g58
g59
NtRp1677
(dp1678
g62
(dp1679
g70
I3
ssg71
g1673
sg64
(lp1680
S'2'
asbasbasbag57
(g73
g59
NtRp1681
(dp1682
g62
(dp1683
sg71
g1641
sg64
(lp1684
g57
(g78
g59
NtRp1685
(dp1686
g62
(dp1687
sg71
g1681
sg64
(lp1688
g57
(g58
g59
NtRp1689
(dp1690
g62
(dp1691
g70
I3
ssg71
g1685
sg64
(lp1692
S'datetime.datetime(2012, 12, 17, 15, 3, 30)'
p1693
asbasbasbag57
(g73
g59
NtRp1694
(dp1695
g62
(dp1696
sg71
g1641
sg64
(lp1697
g57
(g78
g59
NtRp1698
(dp1699
g62
(dp1700
sg71
g1694
sg64
(lp1701
g57
(g58
g59
NtRp1702
(dp1703
g62
(dp1704
g70
I3
ssg71
g1698
sg64
(lp1705
S'stable'
p1706
asbasbasbasbasbasbasbag57
(g73
g59
NtRp1707
(dp1708
g62
(dp1709
sg71
g871
sg64
(lp1710
g57
(g78
g59
NtRp1711
(dp1712
g62
(dp1713
g82
g83
ssg71
g1707
sg64
(lp1714
S'wsgi_errors'
p1715
asbag57
(g78
g59
NtRp1716
(dp1717
g62
(dp1718
g89
g90
ssg71
g1707
sg64
(lp1719
S':'
asbag57
(g78
g59
NtRp1720
(dp1721
g62
(dp1722
sg71
g1707
sg64
(lp1723
g57
(g58
g59
NtRp1724
(dp1725
g62
(dp1726
g70
I4
ssg71
g1720
sg64
(lp1727
S"<open file '<stderr>', mode 'w' at 0x7fb3abe8a270>"
p1728
asbasbasbag57
(g73
g59
NtRp1729
(dp1730
g62
(dp1731
sg71
g871
sg64
(lp1732
g57
(g78
g59
NtRp1733
(dp1734
g62
(dp1735
g82
g83
ssg71
g1729
sg64
(lp1736
S'wsgi_file_wrapper'
p1737
asbag57
(g78
g59
NtRp1738
(dp1739
g62
(dp1740
g89
g90
ssg71
g1729
sg64
(lp1741
S':'
asbag57
(g78
g59
NtRp1742
(dp1743
g62
(dp1744
sg71
g1729
sg64
(lp1745
g57
(g58
g59
NtRp1746
(dp1747
g62
(dp1748
g70
I4
ssg71
g1742
sg64
(lp1749
S'<class wsgiref.util.FileWrapper at 0x1df7b48>'
p1750
asbasbasbag57
(g73
g59
NtRp1751
(dp1752
g62
(dp1753
sg71
g871
sg64
(lp1754
g57
(g78
g59
NtRp1755
(dp1756
g62
(dp1757
g82
g83
ssg71
g1751
sg64
(lp1758
S'wsgi_input'
p1759
asbag57
(g78
g59
NtRp1760
(dp1761
g62
(dp1762
g89
g90
ssg71
g1751
sg64
(lp1763
S':'
asbag57
(g78
g59
NtRp1764
(dp1765
g62
(dp1766
sg71
g1751
sg64
(lp1767
g57
(g58
g59
NtRp1768
(dp1769
g62
(dp1770
g70
I4
ssg71
g1764
sg64
(lp1771
S'<socket._fileobject object at 0x7fb3905c76d0>'
p1772
asbasbasbag57
(g73
g59
NtRp1773
(dp1774
g62
(dp1775
sg71
g871
sg64
(lp1776
g57
(g78
g59
NtRp1777
(dp1778
g62
(dp1779
g82
g83
ssg71
g1773
sg64
(lp1780
S'wsgi_multiprocess'
p1781
asbag57
(g78
g59
NtRp1782
(dp1783
g62
(dp1784
g89
g90
ssg71
g1773
sg64
(lp1785
S':'
asbag57
(g78
g59
NtRp1786
(dp1787
g62
(dp1788
sg71
g1773
sg64
(lp1789
g57
(g58
g59
NtRp1790
(dp1791
g62
(dp1792
g70
I4
ssg71
g1786
sg64
(lp1793
g100
asbasbasbag57
(g73
g59
NtRp1794
(dp1795
g62
(dp1796
sg71
g871
sg64
(lp1797
g57
(g78
g59
NtRp1798
(dp1799
g62
(dp1800
g82
g83
ssg71
g1794
sg64
(lp1801
S'wsgi_multithread'
p1802
asbag57
(g78
g59
NtRp1803
(dp1804
g62
(dp1805
g89
g90
ssg71
g1794
sg64
(lp1806
S':'
asbag57
(g78
g59
NtRp1807
(dp1808
g62
(dp1809
sg71
g1794
sg64
(lp1810
g57
(g58
g59
NtRp1811
(dp1812
g62
(dp1813
g70
I4
ssg71
g1807
sg64
(lp1814
S'True'
p1815
asbasbasbag57
(g73
g59
NtRp1816
(dp1817
g62
(dp1818
sg71
g871
sg64
(lp1819
g57
(g78
g59
NtRp1820
(dp1821
g62
(dp1822
g82
g83
ssg71
g1816
sg64
(lp1823
S'wsgi_run_once'
p1824
asbag57
(g78
g59
NtRp1825
(dp1826
g62
(dp1827
g89
g90
ssg71
g1816
sg64
(lp1828
S':'
asbag57
(g78
g59
NtRp1829
(dp1830
g62
(dp1831
sg71
g1816
sg64
(lp1832
g57
(g58
g59
NtRp1833
(dp1834
g62
(dp1835
g70
I4
ssg71
g1829
sg64
(lp1836
g100
asbasbasbag57
(g73
g59
NtRp1837
(dp1838
g62
(dp1839
sg71
g871
sg64
(lp1840
g57
(g78
g59
NtRp1841
(dp1842
g62
(dp1843
g82
g83
ssg71
g1837
sg64
(lp1844
S'wsgi_url_scheme'
p1845
asbag57
(g78
g59
NtRp1846
(dp1847
g62
(dp1848
g89
g90
ssg71
g1837
sg64
(lp1849
S':'
asbag57
(g78
g59
NtRp1850
(dp1851
g62
(dp1852
sg71
g1837
sg64
(lp1853
g57
(g58
g59
NtRp1854
(dp1855
g62
(dp1856
g70
I4
ssg71
g1850
sg64
(lp1857
S'http'
p1858
asbasbasbag57
(g73
g59
NtRp1859
(dp1860
g62
(dp1861
sg71
g871
sg64
(lp1862
g57
(g78
g59
NtRp1863
(dp1864
g62
(dp1865
g82
g83
ssg71
g1859
sg64
(lp1866
S'wsgi_version'
p1867
asbag57
(g78
g59
NtRp1868
(dp1869
g62
(dp1870
g89
g90
ssg71
g1859
sg64
(lp1871
S':'
asbag57
(g78
g59
NtRp1872
(dp1873
g62
(dp1874
sg71
g1859
sg64
(lp1875
g57
(g58
g59
NtRp1876
(dp1877
g62
(dp1878
g70
I4
ssg71
g1872
sg64
(lp1879
g57
(g66
g59
NtRp1880
(dp1881
g62
(dp1882
g70
I3
ssg71
Nsg64
(lp1883
g57
(g73
g59
NtRp1884
(dp1885
g62
(dp1886
sg71
g1880
sg64
(lp1887
g57
(g78
g59
NtRp1888
(dp1889
g62
(dp1890
sg71
g1884
sg64
(lp1891
g57
(g58
g59
NtRp1892
(dp1893
g62
(dp1894
g70
I3
ssg71
g1888
sg64
(lp1895
S'1'
asbasbasbag57
(g73
g59
NtRp1896
(dp1897
g62
(dp1898
sg71
g1880
sg64
(lp1899
g57
(g78
g59
NtRp1900
(dp1901
g62
(dp1902
sg71
g1896
sg64
(lp1903
g57
(g58
g59
NtRp1904
(dp1905
g62
(dp1906
g70
I3
ssg71
g1900
sg64
(lp1907
S'0'
asbasbasbasbasbasbasbasbasbasbasbag57
(g73
g59
NtRp1908
(dp1909
g62
(dp1910
sg71
g67
sg64
(lp1911
g57
(g78
g59
NtRp1912
(dp1913
g62
(dp1914
g82
g83
ssg71
g1908
sg64
(lp1915
S'extension'
p1916
asbag57
(g78
g59
NtRp1917
(dp1918
g62
(dp1919
g89
g90
ssg71
g1908
sg64
(lp1920
S':'
asbag57
(g78
g59
NtRp1921
(dp1922
g62
(dp1923
sg71
g1908
sg64
(lp1924
g57
(g58
g59
NtRp1925
(dp1926
g62
(dp1927
g70
I5
ssg71
g1921
sg64
(lp1928
S'html'
p1929
asbasbasbag57
(g73
g59
NtRp1930
(dp1931
g62
(dp1932
sg71
g67
sg64
(lp1933
g57
(g78
g59
NtRp1934
(dp1935
g62
(dp1936
g82
g83
ssg71
g1930
sg64
(lp1937
S'folder'
p1938
asbag57
(g78
g59
NtRp1939
(dp1940
g62
(dp1941
g89
g90
ssg71
g1930
sg64
(lp1942
S':'
asbag57
(g78
g59
NtRp1943
(dp1944
g62
(dp1945
sg71
g1930
sg64
(lp1946
g57
(g58
g59
NtRp1947
(dp1948
g62
(dp1949
g70
I5
ssg71
g1943
sg64
(lp1950
S'/home/umang/web2py/applications/assignmen3/'
p1951
asbasbasbag57
(g73
g59
NtRp1952
(dp1953
g62
(dp1954
sg71
g67
sg64
(lp1955
g57
(g78
g59
NtRp1956
(dp1957
g62
(dp1958
g82
g83
ssg71
g1952
sg64
(lp1959
S'function'
p1960
asbag57
(g78
g59
NtRp1961
(dp1962
g62
(dp1963
g89
g90
ssg71
g1952
sg64
(lp1964
S':'
asbag57
(g78
g59
NtRp1965
(dp1966
g62
(dp1967
sg71
g1952
sg64
(lp1968
g57
(g58
g59
NtRp1969
(dp1970
g62
(dp1971
g70
I5
ssg71
g1965
sg64
(lp1972
S'like'
p1973
asbasbasbag57
(g73
g59
NtRp1974
(dp1975
g62
(dp1976
sg71
g67
sg64
(lp1977
g57
(g78
g59
NtRp1978
(dp1979
g62
(dp1980
g82
g83
ssg71
g1974
sg64
(lp1981
S'get_vars'
p1982
asbag57
(g78
g59
NtRp1983
(dp1984
g62
(dp1985
g89
g90
ssg71
g1974
sg64
(lp1986
S':'
asbag57
(g78
g59
NtRp1987
(dp1988
g62
(dp1989
sg71
g1974
sg64
(lp1990
g57
(g58
g59
NtRp1991
(dp1992
g62
(dp1993
g70
I5
ssg71
g1987
sg64
(lp1994
g57
(g66
g59
NtRp1995
(dp1996
g62
(dp1997
g70
I4
ssg71
Nsg64
(lp1998
sbasbasbasbag57
(g73
g59
NtRp1999
(dp2000
g62
(dp2001
sg71
g67
sg64
(lp2002
g57
(g78
g59
NtRp2003
(dp2004
g62
(dp2005
g82
g83
ssg71
g1999
sg64
(lp2006
S'global_settings'
p2007
asbag57
(g78
g59
NtRp2008
(dp2009
g62
(dp2010
g89
g90
ssg71
g1999
sg64
(lp2011
S':'
asbag57
(g78
g59
NtRp2012
(dp2013
g62
(dp2014
sg71
g1999
sg64
(lp2015
g57
(g58
g59
NtRp2016
(dp2017
g62
(dp2018
g70
I5
ssg71
g2012
sg64
(lp2019
g57
(g66
g59
NtRp2020
(dp2021
g62
(dp2022
g70
I4
ssg71
Nsg64
(lp2023
g57
(g73
g59
NtRp2024
(dp2025
g62
(dp2026
sg71
g2020
sg64
(lp2027
g57
(g78
g59
NtRp2028
(dp2029
g62
(dp2030
g82
g83
ssg71
g2024
sg64
(lp2031
g883
asbag57
(g78
g59
NtRp2032
(dp2033
g62
(dp2034
g89
g90
ssg71
g2024
sg64
(lp2035
S':'
asbag57
(g78
g59
NtRp2036
(dp2037
g62
(dp2038
sg71
g2024
sg64
(lp2039
g57
(g58
g59
NtRp2040
(dp2041
g62
(dp2042
g70
I4
ssg71
g2036
sg64
(lp2043
S"set(['/home/umang/web2py/applications/admin/', '/home/umang/web2py/applications/assignmen3/', '/home/umang/web2py/applications/welcome/'])"
p2044
asbasbasbag57
(g73
g59
NtRp2045
(dp2046
g62
(dp2047
sg71
g2020
sg64
(lp2048
g57
(g78
g59
NtRp2049
(dp2050
g62
(dp2051
g82
g83
ssg71
g2045
sg64
(lp2052
g905
asbag57
(g78
g59
NtRp2053
(dp2054
g62
(dp2055
g89
g90
ssg71
g2045
sg64
(lp2056
S':'
asbag57
(g78
g59
NtRp2057
(dp2058
g62
(dp2059
sg71
g2045
sg64
(lp2060
g57
(g58
g59
NtRp2061
(dp2062
g62
(dp2063
g70
I4
ssg71
g2057
sg64
(lp2064
g918
asbasbasbag57
(g73
g59
NtRp2065
(dp2066
g62
(dp2067
sg71
g2020
sg64
(lp2068
g57
(g78
g59
NtRp2069
(dp2070
g62
(dp2071
g82
g83
ssg71
g2065
sg64
(lp2072
g927
asbag57
(g78
g59
NtRp2073
(dp2074
g62
(dp2075
g89
g90
ssg71
g2065
sg64
(lp2076
S':'
asbag57
(g78
g59
NtRp2077
(dp2078
g62
(dp2079
sg71
g2065
sg64
(lp2080
g57
(g58
g59
NtRp2081
(dp2082
g62
(dp2083
g70
I4
ssg71
g2077
sg64
(lp2084
g57
(g66
g59
NtRp2085
(dp2086
g62
(dp2087
g70
I3
ssg71
Nsg64
(lp2088
sbasbasbasbag57
(g73
g59
NtRp2089
(dp2090
g62
(dp2091
sg71
g2020
sg64
(lp2092
g57
(g78
g59
NtRp2093
(dp2094
g62
(dp2095
g82
g83
ssg71
g2089
sg64
(lp2096
g952
asbag57
(g78
g59
NtRp2097
(dp2098
g62
(dp2099
g89
g90
ssg71
g2089
sg64
(lp2100
S':'
asbag57
(g78
g59
NtRp2101
(dp2102
g62
(dp2103
sg71
g2089
sg64
(lp2104
g57
(g58
g59
NtRp2105
(dp2106
g62
(dp2107
g70
I4
ssg71
g2101
sg64
(lp2108
S"<Values at 0x1e8e200: {'verbose': False, 'ip': '127.0.0.1', 'with_scheduler': False, 'ips': [], 'shutdown_timeout': 5, 'taskbar': False, 'port': 8000, 'maxthreads': None, 'softcron': False, 'server_name': 'umang-HP-Pavilion-g6-Notebook-PC', 'bpython': False, 'nogui': False, 'pid_filename': 'httpserver.pid', 'extcron': False, 'runcron': False, 'run_system_tests': False, 'test': None, 'folder': '/home/umang/web2py', 'config': '', 'minthreads': None, 'winservice': '', 'shell': None, 'run': '', 'log_filename': 'httpserver.log', 'debuglevel': 30, 'args': [''], 'socket_timeout': 5, 'ssl_ca_certificate': None, 'scheduler': None, 'profiler_filename': None, 'ssl_private_key': '', 'scheduler_groups': None, 'password': '<ask>', 'request_queue_size': 5, 'ssl_certificate': '', 'cronjob': False, 'numthreads': None, 'quiet': False, 'interfaces': None, 'import_models': False, 'timeout': 10, 'plain': False, 'nobanner': False}>"
p2109
asbasbasbag57
(g73
g59
NtRp2110
(dp2111
g62
(dp2112
sg71
g2020
sg64
(lp2113
g57
(g78
g59
NtRp2114
(dp2115
g62
(dp2116
g82
g83
ssg71
g2110
sg64
(lp2117
g974
asbag57
(g78
g59
NtRp2118
(dp2119
g62
(dp2120
g89
g90
ssg71
g2110
sg64
(lp2121
S':'
asbag57
(g78
g59
NtRp2122
(dp2123
g62
(dp2124
sg71
g2110
sg64
(lp2125
g57
(g58
g59
NtRp2126
(dp2127
g62
(dp2128
g70
I4
ssg71
g2122
sg64
(lp2129
S'set([])'
p2130
asbasbasbag57
(g73
g59
NtRp2131
(dp2132
g62
(dp2133
sg71
g2020
sg64
(lp2134
g57
(g78
g59
NtRp2135
(dp2136
g62
(dp2137
g82
g83
ssg71
g2131
sg64
(lp2138
g996
asbag57
(g78
g59
NtRp2139
(dp2140
g62
(dp2141
g89
g90
ssg71
g2131
sg64
(lp2142
S':'
asbag57
(g78
g59
NtRp2143
(dp2144
g62
(dp2145
sg71
g2131
sg64
(lp2146
g57
(g58
g59
NtRp2147
(dp2148
g62
(dp2149
g70
I4
ssg71
g2143
sg64
(lp2150
g100
asbasbasbag57
(g73
g59
NtRp2151
(dp2152
g62
(dp2153
sg71
g2020
sg64
(lp2154
g57
(g78
g59
NtRp2155
(dp2156
g62
(dp2157
g82
g83
ssg71
g2151
sg64
(lp2158
g1017
asbag57
(g78
g59
NtRp2159
(dp2160
g62
(dp2161
g89
g90
ssg71
g2151
sg64
(lp2162
S':'
asbag57
(g78
g59
NtRp2163
(dp2164
g62
(dp2165
sg71
g2151
sg64
(lp2166
g57
(g58
g59
NtRp2167
(dp2168
g62
(dp2169
g70
I4
ssg71
g2163
sg64
(lp2170
g1030
asbasbasbag57
(g73
g59
NtRp2171
(dp2172
g62
(dp2173
sg71
g2020
sg64
(lp2174
g57
(g78
g59
NtRp2175
(dp2176
g62
(dp2177
g82
g83
ssg71
g2171
sg64
(lp2178
g1237
asbag57
(g78
g59
NtRp2179
(dp2180
g62
(dp2181
g89
g90
ssg71
g2171
sg64
(lp2182
S':'
asbag57
(g78
g59
NtRp2183
(dp2184
g62
(dp2185
sg71
g2171
sg64
(lp2186
g57
(g58
g59
NtRp2187
(dp2188
g62
(dp2189
g70
I4
ssg71
g2183
sg64
(lp2190
g100
asbasbasbag57
(g73
g59
NtRp2191
(dp2192
g62
(dp2193
sg71
g2020
sg64
(lp2194
g57
(g78
g59
NtRp2195
(dp2196
g62
(dp2197
g82
g83
ssg71
g2191
sg64
(lp2198
g1258
asbag57
(g78
g59
NtRp2199
(dp2200
g62
(dp2201
g89
g90
ssg71
g2191
sg64
(lp2202
S':'
asbag57
(g78
g59
NtRp2203
(dp2204
g62
(dp2205
sg71
g2191
sg64
(lp2206
g57
(g58
g59
NtRp2207
(dp2208
g62
(dp2209
g70
I4
ssg71
g2203
sg64
(lp2210
g100
asbasbasbag57
(g73
g59
NtRp2211
(dp2212
g62
(dp2213
sg71
g2020
sg64
(lp2214
g57
(g78
g59
NtRp2215
(dp2216
g62
(dp2217
g82
g83
ssg71
g2211
sg64
(lp2218
g1279
asbag57
(g78
g59
NtRp2219
(dp2220
g62
(dp2221
g89
g90
ssg71
g2211
sg64
(lp2222
S':'
asbag57
(g78
g59
NtRp2223
(dp2224
g62
(dp2225
sg71
g2211
sg64
(lp2226
g57
(g58
g59
NtRp2227
(dp2228
g62
(dp2229
g70
I4
ssg71
g2223
sg64
(lp2230
g57
(g66
g59
NtRp2231
(dp2232
g62
(dp2233
g70
I3
ssg71
Nsg64
(lp2234
g57
(g73
g59
NtRp2235
(dp2236
g62
(dp2237
sg71
g2231
sg64
(lp2238
g57
(g78
g59
NtRp2239
(dp2240
g62
(dp2241
sg71
g2235
sg64
(lp2242
g57
(g58
g59
NtRp2243
(dp2244
g62
(dp2245
g70
I3
ssg71
g2239
sg64
(lp2246
g1308
asbasbasbag57
(g73
g59
NtRp2247
(dp2248
g62
(dp2249
sg71
g2231
sg64
(lp2250
g57
(g78
g59
NtRp2251
(dp2252
g62
(dp2253
sg71
g2247
sg64
(lp2254
g57
(g58
g59
NtRp2255
(dp2256
g62
(dp2257
g70
I3
ssg71
g2251
sg64
(lp2258
g1321
asbasbasbag57
(g73
g59
NtRp2259
(dp2260
g62
(dp2261
sg71
g2231
sg64
(lp2262
g57
(g78
g59
NtRp2263
(dp2264
g62
(dp2265
sg71
g2259
sg64
(lp2266
g57
(g58
g59
NtRp2267
(dp2268
g62
(dp2269
g70
I3
ssg71
g2263
sg64
(lp2270
g1334
asbasbasbag57
(g73
g59
NtRp2271
(dp2272
g62
(dp2273
sg71
g2231
sg64
(lp2274
g57
(g78
g59
NtRp2275
(dp2276
g62
(dp2277
sg71
g2271
sg64
(lp2278
g57
(g58
g59
NtRp2279
(dp2280
g62
(dp2281
g70
I3
ssg71
g2275
sg64
(lp2282
g1347
asbasbasbag57
(g73
g59
NtRp2283
(dp2284
g62
(dp2285
sg71
g2231
sg64
(lp2286
g57
(g78
g59
NtRp2287
(dp2288
g62
(dp2289
sg71
g2283
sg64
(lp2290
g57
(g58
g59
NtRp2291
(dp2292
g62
(dp2293
g70
I3
ssg71
g2287
sg64
(lp2294
g1360
asbasbasbasbasbasbasbag57
(g73
g59
NtRp2295
(dp2296
g62
(dp2297
sg71
g2020
sg64
(lp2298
g57
(g78
g59
NtRp2299
(dp2300
g62
(dp2301
g82
g83
ssg71
g2295
sg64
(lp2302
g1628
asbag57
(g78
g59
NtRp2303
(dp2304
g62
(dp2305
g89
g90
ssg71
g2295
sg64
(lp2306
S':'
asbag57
(g78
g59
NtRp2307
(dp2308
g62
(dp2309
sg71
g2295
sg64
(lp2310
g57
(g58
g59
NtRp2311
(dp2312
g62
(dp2313
g70
I4
ssg71
g2307
sg64
(lp2314
g57
(g66
g59
NtRp2315
(dp2316
g62
(dp2317
g70
I3
ssg71
Nsg64
(lp2318
g57
(g73
g59
NtRp2319
(dp2320
g62
(dp2321
sg71
g2315
sg64
(lp2322
g57
(g78
g59
NtRp2323
(dp2324
g62
(dp2325
sg71
g2319
sg64
(lp2326
g57
(g58
g59
NtRp2327
(dp2328
g62
(dp2329
g70
I3
ssg71
g2323
sg64
(lp2330
S'2'
asbasbasbag57
(g73
g59
NtRp2331
(dp2332
g62
(dp2333
sg71
g2315
sg64
(lp2334
g57
(g78
g59
NtRp2335
(dp2336
g62
(dp2337
sg71
g2331
sg64
(lp2338
g57
(g58
g59
NtRp2339
(dp2340
g62
(dp2341
g70
I3
ssg71
g2335
sg64
(lp2342
S'3'
asbasbasbag57
(g73
g59
NtRp2343
(dp2344
g62
(dp2345
sg71
g2315
sg64
(lp2346
g57
(g78
g59
NtRp2347
(dp2348
g62
(dp2349
sg71
g2343
sg64
(lp2350
g57
(g58
g59
NtRp2351
(dp2352
g62
(dp2353
g70
I3
ssg71
g2347
sg64
(lp2354
S'2'
asbasbasbag57
(g73
g59
NtRp2355
(dp2356
g62
(dp2357
sg71
g2315
sg64
(lp2358
g57
(g78
g59
NtRp2359
(dp2360
g62
(dp2361
sg71
g2355
sg64
(lp2362
g57
(g58
g59
NtRp2363
(dp2364
g62
(dp2365
g70
I3
ssg71
g2359
sg64
(lp2366
S'datetime.datetime(2012, 12, 17, 15, 3, 30)'
p2367
asbasbasbag57
(g73
g59
NtRp2368
(dp2369
g62
(dp2370
sg71
g2315
sg64
(lp2371
g57
(g78
g59
NtRp2372
(dp2373
g62
(dp2374
sg71
g2368
sg64
(lp2375
g57
(g58
g59
NtRp2376
(dp2377
g62
(dp2378
g70
I3
ssg71
g2372
sg64
(lp2379
g1706
asbasbasbasbasbasbasbasbasbasbasbag57
(g73
g59
NtRp2380
(dp2381
g62
(dp2382
sg71
g67
sg64
(lp2383
g57
(g78
g59
NtRp2384
(dp2385
g62
(dp2386
g82
g83
ssg71
g2380
sg64
(lp2387
S'is_https'
p2388
asbag57
(g78
g59
NtRp2389
(dp2390
g62
(dp2391
g89
g90
ssg71
g2380
sg64
(lp2392
S':'
asbag57
(g78
g59
NtRp2393
(dp2394
g62
(dp2395
sg71
g2380
sg64
(lp2396
g57
(g58
g59
NtRp2397
(dp2398
g62
(dp2399
g70
I5
ssg71
g2393
sg64
(lp2400
g100
asbasbasbag57
(g73
g59
NtRp2401
(dp2402
g62
(dp2403
sg71
g67
sg64
(lp2404
g57
(g78
g59
NtRp2405
(dp2406
g62
(dp2407
g82
g83
ssg71
g2401
sg64
(lp2408
S'is_local'
p2409
asbag57
(g78
g59
NtRp2410
(dp2411
g62
(dp2412
g89
g90
ssg71
g2401
sg64
(lp2413
S':'
asbag57
(g78
g59
NtRp2414
(dp2415
g62
(dp2416
sg71
g2401
sg64
(lp2417
g57
(g58
g59
NtRp2418
(dp2419
g62
(dp2420
g70
I5
ssg71
g2414
sg64
(lp2421
g1815
asbasbasbag57
(g73
g59
NtRp2422
(dp2423
g62
(dp2424
sg71
g67
sg64
(lp2425
g57
(g78
g59
NtRp2426
(dp2427
g62
(dp2428
g82
g83
ssg71
g2422
sg64
(lp2429
S'is_restful'
p2430
asbag57
(g78
g59
NtRp2431
(dp2432
g62
(dp2433
g89
g90
ssg71
g2422
sg64
(lp2434
S':'
asbag57
(g78
g59
NtRp2435
(dp2436
g62
(dp2437
sg71
g2422
sg64
(lp2438
g57
(g58
g59
NtRp2439
(dp2440
g62
(dp2441
g70
I5
ssg71
g2435
sg64
(lp2442
g100
asbasbasbag57
(g73
g59
NtRp2443
(dp2444
g62
(dp2445
sg71
g67
sg64
(lp2446
g57
(g78
g59
NtRp2447
(dp2448
g62
(dp2449
g82
g83
ssg71
g2443
sg64
(lp2450
S'now'
p2451
asbag57
(g78
g59
NtRp2452
(dp2453
g62
(dp2454
g89
g90
ssg71
g2443
sg64
(lp2455
S':'
asbag57
(g78
g59
NtRp2456
(dp2457
g62
(dp2458
sg71
g2443
sg64
(lp2459
g57
(g58
g59
NtRp2460
(dp2461
g62
(dp2462
g70
I5
ssg71
g2456
sg64
(lp2463
S'datetime.datetime(2013, 8, 27, 1, 1, 46, 587117)'
p2464
asbasbasbag57
(g73
g59
NtRp2465
(dp2466
g62
(dp2467
sg71
g67
sg64
(lp2468
g57
(g78
g59
NtRp2469
(dp2470
g62
(dp2471
g82
g83
ssg71
g2465
sg64
(lp2472
S'post_vars'
p2473
asbag57
(g78
g59
NtRp2474
(dp2475
g62
(dp2476
g89
g90
ssg71
g2465
sg64
(lp2477
S':'
asbag57
(g78
g59
NtRp2478
(dp2479
g62
(dp2480
sg71
g2465
sg64
(lp2481
g57
(g58
g59
NtRp2482
(dp2483
g62
(dp2484
g70
I5
ssg71
g2478
sg64
(lp2485
g57
(g66
g59
NtRp2486
(dp2487
g62
(dp2488
g70
I4
ssg71
Nsg64
(lp2489
sbasbasbasbag57
(g73
g59
NtRp2490
(dp2491
g62
(dp2492
sg71
g67
sg64
(lp2493
g57
(g78
g59
NtRp2494
(dp2495
g62
(dp2496
g82
g83
ssg71
g2490
sg64
(lp2497
S'raw_args'
p2498
asbag57
(g78
g59
NtRp2499
(dp2500
g62
(dp2501
g89
g90
ssg71
g2490
sg64
(lp2502
S':'
asbag57
(g78
g59
NtRp2503
(dp2504
g62
(dp2505
sg71
g2490
sg64
(lp2506
g57
(g58
g59
NtRp2507
(dp2508
g62
(dp2509
g70
I5
ssg71
g2503
sg64
(lp2510
S'1/2'
p2511
asbasbasbag57
(g73
g59
NtRp2512
(dp2513
g62
(dp2514
sg71
g67
sg64
(lp2515
g57
(g78
g59
NtRp2516
(dp2517
g62
(dp2518
g82
g83
ssg71
g2512
sg64
(lp2519
S'raw_extension'
p2520
asbag57
(g78
g59
NtRp2521
(dp2522
g62
(dp2523
g89
g90
ssg71
g2512
sg64
(lp2524
S':'
asbag57
(g78
g59
NtRp2525
(dp2526
g62
(dp2527
sg71
g2512
sg64
(lp2528
g57
(g58
g59
NtRp2529
(dp2530
g62
(dp2531
g70
I5
ssg71
g2525
sg64
(lp2532
S'None'
p2533
asbasbasbag57
(g73
g59
NtRp2534
(dp2535
g62
(dp2536
sg71
g67
sg64
(lp2537
g57
(g78
g59
NtRp2538
(dp2539
g62
(dp2540
g82
g83
ssg71
g2534
sg64
(lp2541
S'url'
p2542
asbag57
(g78
g59
NtRp2543
(dp2544
g62
(dp2545
g89
g90
ssg71
g2534
sg64
(lp2546
S':'
asbag57
(g78
g59
NtRp2547
(dp2548
g62
(dp2549
sg71
g2534
sg64
(lp2550
g57
(g58
g59
NtRp2551
(dp2552
g62
(dp2553
g70
I5
ssg71
g2547
sg64
(lp2554
g1382
asbasbasbag57
(g73
g59
NtRp2555
(dp2556
g62
(dp2557
sg71
g67
sg64
(lp2558
g57
(g78
g59
NtRp2559
(dp2560
g62
(dp2561
g82
g83
ssg71
g2555
sg64
(lp2562
S'utcnow'
p2563
asbag57
(g78
g59
NtRp2564
(dp2565
g62
(dp2566
g89
g90
ssg71
g2555
sg64
(lp2567
S':'
asbag57
(g78
g59
NtRp2568
(dp2569
g62
(dp2570
sg71
g2555
sg64
(lp2571
g57
(g58
g59
NtRp2572
(dp2573
g62
(dp2574
g70
I5
ssg71
g2568
sg64
(lp2575
S'datetime.datetime(2013, 8, 26, 19, 31, 46, 587172)'
p2576
asbasbasbag57
(g73
g59
NtRp2577
(dp2578
g62
(dp2579
sg71
g67
sg64
(lp2580
g57
(g78
g59
NtRp2581
(dp2582
g62
(dp2583
g82
g83
ssg71
g2577
sg64
(lp2584
S'uuid'
p2585
asbag57
(g78
g59
NtRp2586
(dp2587
g62
(dp2588
g89
g90
ssg71
g2577
sg64
(lp2589
S':'
asbag57
(g78
g59
NtRp2590
(dp2591
g62
(dp2592
sg71
g2577
sg64
(lp2593
g57
(g58
g59
NtRp2594
(dp2595
g62
(dp2596
g70
I5
ssg71
g2590
sg64
(lp2597
S'assignmen3/127.0.0.1.2013-08-27.01-01-46.8ddbfa77-fab6-458e-84d8-eb2a27b8aa85'
p2598
asbasbasbag57
(g73
g59
NtRp2599
(dp2600
g62
(dp2601
sg71
g67
sg64
(lp2602
g57
(g78
g59
NtRp2603
(dp2604
g62
(dp2605
g82
g83
ssg71
g2599
sg64
(lp2606
S'vars'
p2607
asbag57
(g78
g59
NtRp2608
(dp2609
g62
(dp2610
g89
g90
ssg71
g2599
sg64
(lp2611
S':'
asbag57
(g78
g59
NtRp2612
(dp2613
g62
(dp2614
sg71
g2599
sg64
(lp2615
g57
(g58
g59
NtRp2616
(dp2617
g62
(dp2618
g70
I5
ssg71
g2612
sg64
(lp2619
g57
(g66
g59
NtRp2620
(dp2621
g62
(dp2622
g70
I4
ssg71
Nsg64
(lp2623
sbasbasbasbag57
(g73
g59
NtRp2624
(dp2625
g62
(dp2626
sg71
g67
sg64
(lp2627
g57
(g78
g59
NtRp2628
(dp2629
g62
(dp2630
g82
g83
ssg71
g2624
sg64
(lp2631
S'wsgi'
p2632
asbag57
(g78
g59
NtRp2633
(dp2634
g62
(dp2635
g89
g90
ssg71
g2624
sg64
(lp2636
S':'
asbag57
(g78
g59
NtRp2637
(dp2638
g62
(dp2639
sg71
g2624
sg64
(lp2640
g57
(g58
g59
NtRp2641
(dp2642
g62
(dp2643
g70
I5
ssg71
g2637
sg64
(lp2644
g57
(g66
g59
NtRp2645
(dp2646
g62
(dp2647
g70
I4
ssg71
Nsg64
(lp2648
g57
(g73
g59
NtRp2649
(dp2650
g62
(dp2651
sg71
g2645
sg64
(lp2652
g57
(g78
g59
NtRp2653
(dp2654
g62
(dp2655
g82
g83
ssg71
g2649
sg64
(lp2656
S'environ'
p2657
asbag57
(g78
g59
NtRp2658
(dp2659
g62
(dp2660
g89
g90
ssg71
g2649
sg64
(lp2661
S':'
asbag57
(g78
g59
NtRp2662
(dp2663
g62
(dp2664
sg71
g2649
sg64
(lp2665
g57
(g58
g59
NtRp2666
(dp2667
g62
(dp2668
g70
I4
ssg71
g2662
sg64
(lp2669
g57
(g66
g59
NtRp2670
(dp2671
g62
(dp2672
g70
I3
ssg71
Nsg64
(lp2673
g57
(g73
g59
NtRp2674
(dp2675
g62
(dp2676
sg71
g2670
sg64
(lp2677
g57
(g78
g59
NtRp2678
(dp2679
g62
(dp2680
g82
g83
ssg71
g2674
sg64
(lp2681
S'HTTP_ACCEPT'
p2682
asbag57
(g78
g59
NtRp2683
(dp2684
g62
(dp2685
g89
g90
ssg71
g2674
sg64
(lp2686
S':'
asbag57
(g78
g59
NtRp2687
(dp2688
g62
(dp2689
sg71
g2674
sg64
(lp2690
g57
(g58
g59
NtRp2691
(dp2692
g62
(dp2693
g70
I3
ssg71
g2687
sg64
(lp2694
g1052
asbasbasbag57
(g73
g59
NtRp2695
(dp2696
g62
(dp2697
sg71
g2670
sg64
(lp2698
g57
(g78
g59
NtRp2699
(dp2700
g62
(dp2701
g82
g83
ssg71
g2695
sg64
(lp2702
S'HTTP_ACCEPT_ENCODING'
p2703
asbag57
(g78
g59
NtRp2704
(dp2705
g62
(dp2706
g89
g90
ssg71
g2695
sg64
(lp2707
S':'
asbag57
(g78
g59
NtRp2708
(dp2709
g62
(dp2710
sg71
g2695
sg64
(lp2711
g57
(g58
g59
NtRp2712
(dp2713
g62
(dp2714
g70
I3
ssg71
g2708
sg64
(lp2715
g1074
asbasbasbag57
(g73
g59
NtRp2716
(dp2717
g62
(dp2718
sg71
g2670
sg64
(lp2719
g57
(g78
g59
NtRp2720
(dp2721
g62
(dp2722
g82
g83
ssg71
g2716
sg64
(lp2723
S'HTTP_ACCEPT_LANGUAGE'
p2724
asbag57
(g78
g59
NtRp2725
(dp2726
g62
(dp2727
g89
g90
ssg71
g2716
sg64
(lp2728
S':'
asbag57
(g78
g59
NtRp2729
(dp2730
g62
(dp2731
sg71
g2716
sg64
(lp2732
g57
(g58
g59
NtRp2733
(dp2734
g62
(dp2735
g70
I3
ssg71
g2729
sg64
(lp2736
g1096
asbasbasbag57
(g73
g59
NtRp2737
(dp2738
g62
(dp2739
sg71
g2670
sg64
(lp2740
g57
(g78
g59
NtRp2741
(dp2742
g62
(dp2743
g82
g83
ssg71
g2737
sg64
(lp2744
S'HTTP_CACHE_CONTROL'
p2745
asbag57
(g78
g59
NtRp2746
(dp2747
g62
(dp2748
g89
g90
ssg71
g2737
sg64
(lp2749
S':'
asbag57
(g78
g59
NtRp2750
(dp2751
g62
(dp2752
sg71
g2737
sg64
(lp2753
g57
(g58
g59
NtRp2754
(dp2755
g62
(dp2756
g70
I3
ssg71
g2750
sg64
(lp2757
g1118
asbasbasbag57
(g73
g59
NtRp2758
(dp2759
g62
(dp2760
sg71
g2670
sg64
(lp2761
g57
(g78
g59
NtRp2762
(dp2763
g62
(dp2764
g82
g83
ssg71
g2758
sg64
(lp2765
S'HTTP_CONNECTION'
p2766
asbag57
(g78
g59
NtRp2767
(dp2768
g62
(dp2769
g89
g90
ssg71
g2758
sg64
(lp2770
S':'
asbag57
(g78
g59
NtRp2771
(dp2772
g62
(dp2773
sg71
g2758
sg64
(lp2774
g57
(g58
g59
NtRp2775
(dp2776
g62
(dp2777
g70
I3
ssg71
g2771
sg64
(lp2778
g1140
asbasbasbag57
(g73
g59
NtRp2779
(dp2780
g62
(dp2781
sg71
g2670
sg64
(lp2782
g57
(g78
g59
NtRp2783
(dp2784
g62
(dp2785
g82
g83
ssg71
g2779
sg64
(lp2786
S'HTTP_COOKIE'
p2787
asbag57
(g78
g59
NtRp2788
(dp2789
g62
(dp2790
g89
g90
ssg71
g2779
sg64
(lp2791
S':'
asbag57
(g78
g59
NtRp2792
(dp2793
g62
(dp2794
sg71
g2779
sg64
(lp2795
g57
(g58
g59
NtRp2796
(dp2797
g62
(dp2798
g70
I3
ssg71
g2792
sg64
(lp2799
g1162
asbasbasbag57
(g73
g59
NtRp2800
(dp2801
g62
(dp2802
sg71
g2670
sg64
(lp2803
g57
(g78
g59
NtRp2804
(dp2805
g62
(dp2806
g82
g83
ssg71
g2800
sg64
(lp2807
S'HTTP_HOST'
p2808
asbag57
(g78
g59
NtRp2809
(dp2810
g62
(dp2811
g89
g90
ssg71
g2800
sg64
(lp2812
S':'
asbag57
(g78
g59
NtRp2813
(dp2814
g62
(dp2815
sg71
g2800
sg64
(lp2816
g57
(g58
g59
NtRp2817
(dp2818
g62
(dp2819
g70
I3
ssg71
g2813
sg64
(lp2820
g1184
asbasbasbag57
(g73
g59
NtRp2821
(dp2822
g62
(dp2823
sg71
g2670
sg64
(lp2824
g57
(g78
g59
NtRp2825
(dp2826
g62
(dp2827
g82
g83
ssg71
g2821
sg64
(lp2828
S'HTTP_REFERER'
p2829
asbag57
(g78
g59
NtRp2830
(dp2831
g62
(dp2832
g89
g90
ssg71
g2821
sg64
(lp2833
S':'
asbag57
(g78
g59
NtRp2834
(dp2835
g62
(dp2836
sg71
g2821
sg64
(lp2837
g57
(g58
g59
NtRp2838
(dp2839
g62
(dp2840
g70
I3
ssg71
g2834
sg64
(lp2841
g1206
asbasbasbag57
(g73
g59
NtRp2842
(dp2843
g62
(dp2844
sg71
g2670
sg64
(lp2845
g57
(g78
g59
NtRp2846
(dp2847
g62
(dp2848
g82
g83
ssg71
g2842
sg64
(lp2849
S'HTTP_USER_AGENT'
p2850
asbag57
(g78
g59
NtRp2851
(dp2852
g62
(dp2853
g89
g90
ssg71
g2842
sg64
(lp2854
S':'
asbag57
(g78
g59
NtRp2855
(dp2856
g62
(dp2857
sg71
g2842
sg64
(lp2858
g57
(g58
g59
NtRp2859
(dp2860
g62
(dp2861
g70
I3
ssg71
g2855
sg64
(lp2862
g1228
asbasbasbag57
(g73
g59
NtRp2863
(dp2864
g62
(dp2865
sg71
g2670
sg64
(lp2866
g57
(g78
g59
NtRp2867
(dp2868
g62
(dp2869
g82
g83
ssg71
g2863
sg64
(lp2870
S'PATH_INFO'
p2871
asbag57
(g78
g59
NtRp2872
(dp2873
g62
(dp2874
g89
g90
ssg71
g2863
sg64
(lp2875
S':'
asbag57
(g78
g59
NtRp2876
(dp2877
g62
(dp2878
sg71
g2863
sg64
(lp2879
g57
(g58
g59
NtRp2880
(dp2881
g62
(dp2882
g70
I3
ssg71
g2876
sg64
(lp2883
g1382
asbasbasbag57
(g73
g59
NtRp2884
(dp2885
g62
(dp2886
sg71
g2670
sg64
(lp2887
g57
(g78
g59
NtRp2888
(dp2889
g62
(dp2890
g82
g83
ssg71
g2884
sg64
(lp2891
S'QUERY_STRING'
p2892
asbag57
(g78
g59
NtRp2893
(dp2894
g62
(dp2895
g89
g90
ssg71
g2884
sg64
(lp2896
S':'
asbag57
(g78
g59
NtRp2897
(dp2898
g62
(dp2899
sg71
g2884
sg64
(lp2900
g57
(g58
g59
NtRp2901
(dp2902
g62
(dp2903
g70
I3
ssg71
g2897
sg64
(lp2904
S''
asbasbasbag57
(g73
g59
NtRp2905
(dp2906
g62
(dp2907
sg71
g2670
sg64
(lp2908
g57
(g78
g59
NtRp2909
(dp2910
g62
(dp2911
g82
g83
ssg71
g2905
sg64
(lp2912
S'REMOTE_ADDR'
p2913
asbag57
(g78
g59
NtRp2914
(dp2915
g62
(dp2916
g89
g90
ssg71
g2905
sg64
(lp2917
S':'
asbag57
(g78
g59
NtRp2918
(dp2919
g62
(dp2920
sg71
g2905
sg64
(lp2921
g57
(g58
g59
NtRp2922
(dp2923
g62
(dp2924
g70
I3
ssg71
g2918
sg64
(lp2925
g236
asbasbasbag57
(g73
g59
NtRp2926
(dp2927
g62
(dp2928
sg71
g2670
sg64
(lp2929
g57
(g78
g59
NtRp2930
(dp2931
g62
(dp2932
g82
g83
ssg71
g2926
sg64
(lp2933
S'REMOTE_PORT'
p2934
asbag57
(g78
g59
NtRp2935
(dp2936
g62
(dp2937
g89
g90
ssg71
g2926
sg64
(lp2938
S':'
asbag57
(g78
g59
NtRp2939
(dp2940
g62
(dp2941
sg71
g2926
sg64
(lp2942
g57
(g58
g59
NtRp2943
(dp2944
g62
(dp2945
g70
I3
ssg71
g2939
sg64
(lp2946
g1446
asbasbasbag57
(g73
g59
NtRp2947
(dp2948
g62
(dp2949
sg71
g2670
sg64
(lp2950
g57
(g78
g59
NtRp2951
(dp2952
g62
(dp2953
g82
g83
ssg71
g2947
sg64
(lp2954
S'REQUEST_METHOD'
p2955
asbag57
(g78
g59
NtRp2956
(dp2957
g62
(dp2958
g89
g90
ssg71
g2947
sg64
(lp2959
S':'
asbag57
(g78
g59
NtRp2960
(dp2961
g62
(dp2962
sg71
g2947
sg64
(lp2963
g57
(g58
g59
NtRp2964
(dp2965
g62
(dp2966
g70
I3
ssg71
g2960
sg64
(lp2967
g1468
asbasbasbag57
(g73
g59
NtRp2968
(dp2969
g62
(dp2970
sg71
g2670
sg64
(lp2971
g57
(g78
g59
NtRp2972
(dp2973
g62
(dp2974
g82
g83
ssg71
g2968
sg64
(lp2975
S'REQUEST_URI'
p2976
asbag57
(g78
g59
NtRp2977
(dp2978
g62
(dp2979
g89
g90
ssg71
g2968
sg64
(lp2980
S':'
asbag57
(g78
g59
NtRp2981
(dp2982
g62
(dp2983
sg71
g2968
sg64
(lp2984
g57
(g58
g59
NtRp2985
(dp2986
g62
(dp2987
g70
I3
ssg71
g2981
sg64
(lp2988
g1382
asbasbasbag57
(g73
g59
NtRp2989
(dp2990
g62
(dp2991
sg71
g2670
sg64
(lp2992
g57
(g78
g59
NtRp2993
(dp2994
g62
(dp2995
g82
g83
ssg71
g2989
sg64
(lp2996
S'SCRIPT_NAME'
p2997
asbag57
(g78
g59
NtRp2998
(dp2999
g62
(dp3000
g89
g90
ssg71
g2989
sg64
(lp3001
S':'
asbag57
(g78
g59
NtRp3002
(dp3003
g62
(dp3004
sg71
g2989
sg64
(lp3005
g57
(g58
g59
NtRp3006
(dp3007
g62
(dp3008
g70
I3
ssg71
g3002
sg64
(lp3009
S''
asbasbasbag57
(g73
g59
NtRp3010
(dp3011
g62
(dp3012
sg71
g2670
sg64
(lp3013
g57
(g78
g59
NtRp3014
(dp3015
g62
(dp3016
g82
g83
ssg71
g3010
sg64
(lp3017
S'SERVER_NAME'
p3018
asbag57
(g78
g59
NtRp3019
(dp3020
g62
(dp3021
g89
g90
ssg71
g3010
sg64
(lp3022
S':'
asbag57
(g78
g59
NtRp3023
(dp3024
g62
(dp3025
sg71
g3010
sg64
(lp3026
g57
(g58
g59
NtRp3027
(dp3028
g62
(dp3029
g70
I3
ssg71
g3023
sg64
(lp3030
g1532
asbasbasbag57
(g73
g59
NtRp3031
(dp3032
g62
(dp3033
sg71
g2670
sg64
(lp3034
g57
(g78
g59
NtRp3035
(dp3036
g62
(dp3037
g82
g83
ssg71
g3031
sg64
(lp3038
S'SERVER_PORT'
p3039
asbag57
(g78
g59
NtRp3040
(dp3041
g62
(dp3042
g89
g90
ssg71
g3031
sg64
(lp3043
S':'
asbag57
(g78
g59
NtRp3044
(dp3045
g62
(dp3046
sg71
g3031
sg64
(lp3047
g57
(g58
g59
NtRp3048
(dp3049
g62
(dp3050
g70
I3
ssg71
g3044
sg64
(lp3051
g1554
asbasbasbag57
(g73
g59
NtRp3052
(dp3053
g62
(dp3054
sg71
g2670
sg64
(lp3055
g57
(g78
g59
NtRp3056
(dp3057
g62
(dp3058
g82
g83
ssg71
g3052
sg64
(lp3059
S'SERVER_PROTOCOL'
p3060
asbag57
(g78
g59
NtRp3061
(dp3062
g62
(dp3063
g89
g90
ssg71
g3052
sg64
(lp3064
S':'
asbag57
(g78
g59
NtRp3065
(dp3066
g62
(dp3067
sg71
g3052
sg64
(lp3068
g57
(g58
g59
NtRp3069
(dp3070
g62
(dp3071
g70
I3
ssg71
g3065
sg64
(lp3072
g1576
asbasbasbag57
(g73
g59
NtRp3073
(dp3074
g62
(dp3075
sg71
g2670
sg64
(lp3076
g57
(g78
g59
NtRp3077
(dp3078
g62
(dp3079
g82
g83
ssg71
g3073
sg64
(lp3080
S'SERVER_SOFTWARE'
p3081
asbag57
(g78
g59
NtRp3082
(dp3083
g62
(dp3084
g89
g90
ssg71
g3073
sg64
(lp3085
S':'
asbag57
(g78
g59
NtRp3086
(dp3087
g62
(dp3088
sg71
g3073
sg64
(lp3089
g57
(g58
g59
NtRp3090
(dp3091
g62
(dp3092
g70
I3
ssg71
g3086
sg64
(lp3093
g1598
asbasbasbag57
(g73
g59
NtRp3094
(dp3095
g62
(dp3096
sg71
g2670
sg64
(lp3097
g57
(g78
g59
NtRp3098
(dp3099
g62
(dp3100
g82
g83
ssg71
g3094
sg64
(lp3101
S'wsgi.errors'
p3102
asbag57
(g78
g59
NtRp3103
(dp3104
g62
(dp3105
g89
g90
ssg71
g3094
sg64
(lp3106
S':'
asbag57
(g78
g59
NtRp3107
(dp3108
g62
(dp3109
sg71
g3094
sg64
(lp3110
g57
(g58
g59
NtRp3111
(dp3112
g62
(dp3113
g70
I3
ssg71
g3107
sg64
(lp3114
S"<open file '<stderr>', mode 'w' at 0x7fb3abe8a270>"
p3115
asbasbasbag57
(g73
g59
NtRp3116
(dp3117
g62
(dp3118
sg71
g2670
sg64
(lp3119
g57
(g78
g59
NtRp3120
(dp3121
g62
(dp3122
g82
g83
ssg71
g3116
sg64
(lp3123
S'wsgi.file_wrapper'
p3124
asbag57
(g78
g59
NtRp3125
(dp3126
g62
(dp3127
g89
g90
ssg71
g3116
sg64
(lp3128
S':'
asbag57
(g78
g59
NtRp3129
(dp3130
g62
(dp3131
sg71
g3116
sg64
(lp3132
g57
(g58
g59
NtRp3133
(dp3134
g62
(dp3135
g70
I3
ssg71
g3129
sg64
(lp3136
S'<class wsgiref.util.FileWrapper at 0x1df7b48>'
p3137
asbasbasbag57
(g73
g59
NtRp3138
(dp3139
g62
(dp3140
sg71
g2670
sg64
(lp3141
g57
(g78
g59
NtRp3142
(dp3143
g62
(dp3144
g82
g83
ssg71
g3138
sg64
(lp3145
S'wsgi.input'
p3146
asbag57
(g78
g59
NtRp3147
(dp3148
g62
(dp3149
g89
g90
ssg71
g3138
sg64
(lp3150
S':'
asbag57
(g78
g59
NtRp3151
(dp3152
g62
(dp3153
sg71
g3138
sg64
(lp3154
g57
(g58
g59
NtRp3155
(dp3156
g62
(dp3157
g70
I3
ssg71
g3151
sg64
(lp3158
S'<cStringIO.StringO object at 0x7fb3944e9ed8>'
p3159
asbasbasbag57
(g73
g59
NtRp3160
(dp3161
g62
(dp3162
sg71
g2670
sg64
(lp3163
g57
(g78
g59
NtRp3164
(dp3165
g62
(dp3166
g82
g83
ssg71
g3160
sg64
(lp3167
S'wsgi.multiprocess'
p3168
asbag57
(g78
g59
NtRp3169
(dp3170
g62
(dp3171
g89
g90
ssg71
g3160
sg64
(lp3172
S':'
asbag57
(g78
g59
NtRp3173
(dp3174
g62
(dp3175
sg71
g3160
sg64
(lp3176
g57
(g58
g59
NtRp3177
(dp3178
g62
(dp3179
g70
I3
ssg71
g3173
sg64
(lp3180
g100
asbasbasbag57
(g73
g59
NtRp3181
(dp3182
g62
(dp3183
sg71
g2670
sg64
(lp3184
g57
(g78
g59
NtRp3185
(dp3186
g62
(dp3187
g82
g83
ssg71
g3181
sg64
(lp3188
S'wsgi.multithread'
p3189
asbag57
(g78
g59
NtRp3190
(dp3191
g62
(dp3192
g89
g90
ssg71
g3181
sg64
(lp3193
S':'
asbag57
(g78
g59
NtRp3194
(dp3195
g62
(dp3196
sg71
g3181
sg64
(lp3197
g57
(g58
g59
NtRp3198
(dp3199
g62
(dp3200
g70
I3
ssg71
g3194
sg64
(lp3201
g1815
asbasbasbag57
(g73
g59
NtRp3202
(dp3203
g62
(dp3204
sg71
g2670
sg64
(lp3205
g57
(g78
g59
NtRp3206
(dp3207
g62
(dp3208
g82
g83
ssg71
g3202
sg64
(lp3209
S'wsgi.run_once'
p3210
asbag57
(g78
g59
NtRp3211
(dp3212
g62
(dp3213
g89
g90
ssg71
g3202
sg64
(lp3214
S':'
asbag57
(g78
g59
NtRp3215
(dp3216
g62
(dp3217
sg71
g3202
sg64
(lp3218
g57
(g58
g59
NtRp3219
(dp3220
g62
(dp3221
g70
I3
ssg71
g3215
sg64
(lp3222
g100
asbasbasbag57
(g73
g59
NtRp3223
(dp3224
g62
(dp3225
sg71
g2670
sg64
(lp3226
g57
(g78
g59
NtRp3227
(dp3228
g62
(dp3229
g82
g83
ssg71
g3223
sg64
(lp3230
S'wsgi.url_scheme'
p3231
asbag57
(g78
g59
NtRp3232
(dp3233
g62
(dp3234
g89
g90
ssg71
g3223
sg64
(lp3235
S':'
asbag57
(g78
g59
NtRp3236
(dp3237
g62
(dp3238
sg71
g3223
sg64
(lp3239
g57
(g58
g59
NtRp3240
(dp3241
g62
(dp3242
g70
I3
ssg71
g3236
sg64
(lp3243
g1858
asbasbasbag57
(g73
g59
NtRp3244
(dp3245
g62
(dp3246
sg71
g2670
sg64
(lp3247
g57
(g78
g59
NtRp3248
(dp3249
g62
(dp3250
g82
g83
ssg71
g3244
sg64
(lp3251
S'wsgi.version'
p3252
asbag57
(g78
g59
NtRp3253
(dp3254
g62
(dp3255
g89
g90
ssg71
g3244
sg64
(lp3256
S':'
asbag57
(g78
g59
NtRp3257
(dp3258
g62
(dp3259
sg71
g3244
sg64
(lp3260
g57
(g58
g59
NtRp3261
(dp3262
g62
(dp3263
g70
I3
ssg71
g3257
sg64
(lp3264
S'1'
asbasbasbasbasbasbasbasbasbasbasbasbasbsS'frames'
p3265
(lp3266
(dp3267
S'file'
p3268
S'/home/umang/web2py/gluon/restricted.py'
p3269
sS'dump'
p3270
(dp3271
S'environment'
p3272
S"{'A': <class 'gluon.html.A'>, 'Auth': <class 'gluon.tools.Auth'>, 'B': <class 'gluon.html.B'>, 'BEAUTIFY': <class 'gluon.html.BEAUTIFY'>, 'BODY': <class 'gluon.html.BODY'>, 'BR': <class 'gluon.html.BR'>, 'BUTTON': <class 'gluon.html.BUTTON'>, 'CAT': <class 'gluon.html.CAT'>, 'CENTER': <class 'gluon.html.CENTER'>, 'CLEANUP': <class 'gluon.validators.CLEANUP'>, ...}"
p3273
sS'ccode'
p3274
S'<code object <module> at 0x7fb3940ba430, file "/...ions/assignmen3/controllers/default.py", line 12>'
p3275
ssS'lnum'
p3276
I212
sS'lines'
p3277
(dp3278
I207
S'    try:'
p3279
sI208
S'        if isinstance(code, types.CodeType):'
p3280
sI209
S'            ccode = code'
p3281
sI210
S'        else:'
p3282
sI211
S'            ccode = compile2(code, layer)'
p3283
sI212
S'        exec ccode in environment'
p3284
sI213
S'    except HTTP:'
p3285
sI214
S'        raise'
p3286
sI215
S'    except RestrictedError:'
p3287
sI216
S'        # do not encapsulate (obfuscate) the original RestrictedError'
p3288
ssS'call'
p3289
S"(code='# -*- coding: utf-8 -*-\\n# this file is released ...m=crud())\\n\\nresponse._vars=response._caller(like)\\n', environment={'A': <class 'gluon.html.A'>, 'Auth': <class 'gluon.tools.Auth'>, 'B': <class 'gluon.html.B'>, 'BEAUTIFY': <class 'gluon.html.BEAUTIFY'>, 'BODY': <class 'gluon.html.BODY'>, 'BR': <class 'gluon.html.BR'>, 'BUTTON': <class 'gluon.html.BUTTON'>, 'CAT': <class 'gluon.html.CAT'>, 'CENTER': <class 'gluon.html.CENTER'>, 'CLEANUP': <class 'gluon.validators.CLEANUP'>, ...}, layer='/home/umang/web2py/applications/assignmen3/controllers/default.py')"
p3290
sS'func'
p3291
S'restricted'
p3292
sa(dp3293
g3268
S'/home/umang/web2py/applications/assignmen3/controllers/default.py'
p3294
sg3270
(dp3295
sg3276
I169
sg3277
(dp3296
I160
S'    http://..../[app]/default/data/select/[table]'
p3297
sI161
S'    http://..../[app]/default/data/search/[table]'
p3298
sI162
S'    but URLs must be signed, i.e. linked with'
p3299
sI163
S"      A('table',_href=URL('data/tables',user_signature=True))"
p3300
sI164
S'    or with the signed load operator'
p3301
sI165
S"      LOAD('default','data.load',args='tables',ajax=True,user_signature=True)"
p3302
sI166
S'    """'
p3303
sI167
S'    return dict(form=crud())'
p3304
sI158
S'    http://..../[app]/default/data/update/[table]/[id]'
p3305
sI159
S'    http://..../[app]/default/data/delete/[table]/[id]'
p3306
ssg3289
S'()'
p3307
sg3291
S'<module>'
p3308
sa(dp3309
g3268
S'/home/umang/web2py/gluon/globals.py'
p3310
sg3270
(dp3311
S'self'
p3312
S'undefined'
p3313
sS'f'
S'<function like>'
p3314
ssg3276
I193
sg3277
(dp3315
I192
S'        self._vars = None'
p3316
sI193
S'        self._caller = lambda f: f()'
p3317
sI194
S'        self._view_environment = None'
p3318
sI195
S'        self._custom_commit = None'
p3319
sI196
S'        self._custom_rollback = None'
p3320
sI197
S''
sI188
S'        self.menu = []             # used by the default view layout'
p3321
sI189
S'        self.files = []            # used by web2py_ajax.html'
p3322
sI190
S'        self.generic_patterns = []  # patterns to allow generic views'
p3323
sI191
S"        self.delimiters = ('{{', '}}')"
p3324
ssg3289
S'(f=<function like>)'
p3325
sg3291
S'<lambda>'
p3326
sa(dp3327
g3268
S'/home/umang/web2py/gluon/tools.py'
p3328
sg3270
(dp3329
S'action'
p3330
S'<function like>'
p3331
sS'a'
S'()'
p3332
sS'b'
g45
ssg3276
I2929
sg3277
(dp3333
I2924
S'                    flag = condition'
p3334
sI2925
S'                if not flag:'
p3335
sI2926
S'                    current.session.flash = self.messages.access_denied'
p3336
sI2927
S'                    return call_or_redirect('
p3337
sI2928
S'                        self.settings.on_failed_authorization)'
p3338
sI2929
S'                return action(*a, **b)'
p3339
sI2930
S'            f.__doc__ = action.__doc__'
p3340
sI2931
S'            f.__name__ = action.__name__'
p3341
sI2932
S'            f.__dict__.update(action.__dict__)'
p3342
sI2933
S'            return f'
p3343
ssg3289
S'(*a=(), **b={})'
p3344
sg3291
S'f'
sa(dp3345
g3268
S'/home/umang/web2py/applications/assignmen3/controllers/default.py'
p3346
sg3270
(dp3347
S'builtinlen'
p3348
S'<built-in function len>'
p3349
sS'query'
p3350
S'<Rows (0)>'
p3351
ssg3276
I89
sg3277
(dp3352
I84
S'\tcatg=int(request.args(1))'
p3353
sI85
S'\tar=db(db.news.id==news_id).select(db.news.rating)'
p3354
sI86
S'\tquery=db((db.rating.news_id==news_id) & (db.rating.rater_id==auth.user_id)).select(db.rating.liked)'
p3355
sI87
S'\tif(len(query)==0 or query[0].liked==0):'
p3356
sI88
S'\t\tdb(db.news.id==news_id).update(rating=ar[0].rating+5)'
p3357
sI89
S'\t\tif(len(query==0)):'
p3358
sI90
S'\t\t\tdb.rating.insert(news_id=news_id,rater_id=auth.user_id,liked=1,disliked=0)'
p3359
sI91
S'\t\telse:'
p3360
sI92
S'\t\t\tdb((db.rating.news_id==news_id) & (db.rating.rater_id==auth.user_id)).update(liked=1)'
p3361
sI93
S"\tredirect(URL(r=request,f='first_page?query=%s' % catg))"
p3362
ssg3289
S'()'
p3363
sg3291
S'like'
p3364
sasS'pyver'
p3365
S'Python 2.7.3: /usr/bin/python'
p3366
sS'session'
p3367
g57
(g58
g59
NtRp3368
(dp3369
g62
(dp3370
sg64
(lp3371
g57
(g66
g59
NtRp3372
(dp3373
g62
(dp3374
g70
I5
ssg71
Nsg64
(lp3375
g57
(g73
g59
NtRp3376
(dp3377
g62
(dp3378
sg71
g3372
sg64
(lp3379
g57
(g78
g59
NtRp3380
(dp3381
g62
(dp3382
g82
g83
ssg71
g3376
sg64
(lp3383
S'auth'
p3384
asbag57
(g78
g59
NtRp3385
(dp3386
g62
(dp3387
g89
g90
ssg71
g3376
sg64
(lp3388
S':'
asbag57
(g78
g59
NtRp3389
(dp3390
g62
(dp3391
sg71
g3376
sg64
(lp3392
g57
(g58
g59
NtRp3393
(dp3394
g62
(dp3395
g70
I5
ssg71
g3389
sg64
(lp3396
g57
(g66
g59
NtRp3397
(dp3398
g62
(dp3399
g70
I4
ssg71
Nsg64
(lp3400
g57
(g73
g59
NtRp3401
(dp3402
g62
(dp3403
sg71
g3397
sg64
(lp3404
g57
(g78
g59
NtRp3405
(dp3406
g62
(dp3407
g82
g83
ssg71
g3401
sg64
(lp3408
S'expiration'
p3409
asbag57
(g78
g59
NtRp3410
(dp3411
g62
(dp3412
g89
g90
ssg71
g3401
sg64
(lp3413
S':'
asbag57
(g78
g59
NtRp3414
(dp3415
g62
(dp3416
sg71
g3401
sg64
(lp3417
g57
(g58
g59
NtRp3418
(dp3419
g62
(dp3420
g70
I4
ssg71
g3414
sg64
(lp3421
S'3600'
p3422
asbasbasbag57
(g73
g59
NtRp3423
(dp3424
g62
(dp3425
sg71
g3397
sg64
(lp3426
g57
(g78
g59
NtRp3427
(dp3428
g62
(dp3429
g82
g83
ssg71
g3423
sg64
(lp3430
S'hmac_key'
p3431
asbag57
(g78
g59
NtRp3432
(dp3433
g62
(dp3434
g89
g90
ssg71
g3423
sg64
(lp3435
S':'
asbag57
(g78
g59
NtRp3436
(dp3437
g62
(dp3438
sg71
g3423
sg64
(lp3439
g57
(g58
g59
NtRp3440
(dp3441
g62
(dp3442
g70
I4
ssg71
g3436
sg64
(lp3443
S'846c6b84-f4ac-494f-a7d1-61b38727699e'
p3444
asbasbasbag57
(g73
g59
NtRp3445
(dp3446
g62
(dp3447
sg71
g3397
sg64
(lp3448
g57
(g78
g59
NtRp3449
(dp3450
g62
(dp3451
g82
g83
ssg71
g3445
sg64
(lp3452
S'last_visit'
p3453
asbag57
(g78
g59
NtRp3454
(dp3455
g62
(dp3456
g89
g90
ssg71
g3445
sg64
(lp3457
S':'
asbag57
(g78
g59
NtRp3458
(dp3459
g62
(dp3460
sg71
g3445
sg64
(lp3461
g57
(g58
g59
NtRp3462
(dp3463
g62
(dp3464
g70
I4
ssg71
g3458
sg64
(lp3465
S'datetime.datetime(2013, 8, 27, 1, 1, 46, 587117)'
p3466
asbasbasbag57
(g73
g59
NtRp3467
(dp3468
g62
(dp3469
sg71
g3397
sg64
(lp3470
g57
(g78
g59
NtRp3471
(dp3472
g62
(dp3473
g82
g83
ssg71
g3467
sg64
(lp3474
S'user'
p3475
asbag57
(g78
g59
NtRp3476
(dp3477
g62
(dp3478
g89
g90
ssg71
g3467
sg64
(lp3479
S':'
asbag57
(g78
g59
NtRp3480
(dp3481
g62
(dp3482
sg71
g3467
sg64
(lp3483
g57
(g58
g59
NtRp3484
(dp3485
g62
(dp3486
g70
I4
ssg71
g3480
sg64
(lp3487
g57
(g66
g59
NtRp3488
(dp3489
g62
(dp3490
g70
I3
ssg71
Nsg64
(lp3491
g57
(g73
g59
NtRp3492
(dp3493
g62
(dp3494
sg71
g3488
sg64
(lp3495
g57
(g78
g59
NtRp3496
(dp3497
g62
(dp3498
g82
g83
ssg71
g3492
sg64
(lp3499
S'email'
p3500
asbag57
(g78
g59
NtRp3501
(dp3502
g62
(dp3503
g89
g90
ssg71
g3492
sg64
(lp3504
S':'
asbag57
(g78
g59
NtRp3505
(dp3506
g62
(dp3507
sg71
g3492
sg64
(lp3508
g57
(g58
g59
NtRp3509
(dp3510
g62
(dp3511
g70
I3
ssg71
g3505
sg64
(lp3512
S'umang.goel@students.iiit.ac.in'
p3513
asbasbasbag57
(g73
g59
NtRp3514
(dp3515
g62
(dp3516
sg71
g3488
sg64
(lp3517
g57
(g78
g59
NtRp3518
(dp3519
g62
(dp3520
g82
g83
ssg71
g3514
sg64
(lp3521
S'first_name'
p3522
asbag57
(g78
g59
NtRp3523
(dp3524
g62
(dp3525
g89
g90
ssg71
g3514
sg64
(lp3526
S':'
asbag57
(g78
g59
NtRp3527
(dp3528
g62
(dp3529
sg71
g3514
sg64
(lp3530
g57
(g58
g59
NtRp3531
(dp3532
g62
(dp3533
g70
I3
ssg71
g3527
sg64
(lp3534
S'Umang'
p3535
asbasbasbag57
(g73
g59
NtRp3536
(dp3537
g62
(dp3538
sg71
g3488
sg64
(lp3539
g57
(g78
g59
NtRp3540
(dp3541
g62
(dp3542
g82
g83
ssg71
g3536
sg64
(lp3543
S'id'
p3544
asbag57
(g78
g59
NtRp3545
(dp3546
g62
(dp3547
g89
g90
ssg71
g3536
sg64
(lp3548
S':'
asbag57
(g78
g59
NtRp3549
(dp3550
g62
(dp3551
sg71
g3536
sg64
(lp3552
g57
(g58
g59
NtRp3553
(dp3554
g62
(dp3555
g70
I3
ssg71
g3549
sg64
(lp3556
S'1'
asbasbasbag57
(g73
g59
NtRp3557
(dp3558
g62
(dp3559
sg71
g3488
sg64
(lp3560
g57
(g78
g59
NtRp3561
(dp3562
g62
(dp3563
g82
g83
ssg71
g3557
sg64
(lp3564
S'last_name'
p3565
asbag57
(g78
g59
NtRp3566
(dp3567
g62
(dp3568
g89
g90
ssg71
g3557
sg64
(lp3569
S':'
asbag57
(g78
g59
NtRp3570
(dp3571
g62
(dp3572
sg71
g3557
sg64
(lp3573
g57
(g58
g59
NtRp3574
(dp3575
g62
(dp3576
g70
I3
ssg71
g3570
sg64
(lp3577
S'Goel'
p3578
asbasbasbag57
(g73
g59
NtRp3579
(dp3580
g62
(dp3581
sg71
g3488
sg64
(lp3582
g57
(g78
g59
NtRp3583
(dp3584
g62
(dp3585
g82
g83
ssg71
g3579
sg64
(lp3586
S'registration_id'
p3587
asbag57
(g78
g59
NtRp3588
(dp3589
g62
(dp3590
g89
g90
ssg71
g3579
sg64
(lp3591
S':'
asbag57
(g78
g59
NtRp3592
(dp3593
g62
(dp3594
sg71
g3579
sg64
(lp3595
g57
(g58
g59
NtRp3596
(dp3597
g62
(dp3598
g70
I3
ssg71
g3592
sg64
(lp3599
S''
asbasbasbag57
(g73
g59
NtRp3600
(dp3601
g62
(dp3602
sg71
g3488
sg64
(lp3603
g57
(g78
g59
NtRp3604
(dp3605
g62
(dp3606
g82
g83
ssg71
g3600
sg64
(lp3607
S'registration_key'
p3608
asbag57
(g78
g59
NtRp3609
(dp3610
g62
(dp3611
g89
g90
ssg71
g3600
sg64
(lp3612
S':'
asbag57
(g78
g59
NtRp3613
(dp3614
g62
(dp3615
sg71
g3600
sg64
(lp3616
g57
(g58
g59
NtRp3617
(dp3618
g62
(dp3619
g70
I3
ssg71
g3613
sg64
(lp3620
S''
asbasbasbag57
(g73
g59
NtRp3621
(dp3622
g62
(dp3623
sg71
g3488
sg64
(lp3624
g57
(g78
g59
NtRp3625
(dp3626
g62
(dp3627
g82
g83
ssg71
g3621
sg64
(lp3628
S'reset_password_key'
p3629
asbag57
(g78
g59
NtRp3630
(dp3631
g62
(dp3632
g89
g90
ssg71
g3621
sg64
(lp3633
S':'
asbag57
(g78
g59
NtRp3634
(dp3635
g62
(dp3636
sg71
g3621
sg64
(lp3637
g57
(g58
g59
NtRp3638
(dp3639
g62
(dp3640
g70
I3
ssg71
g3634
sg64
(lp3641
S''
asbasbasbasbasbasbasbag57
(g73
g59
NtRp3642
(dp3643
g62
(dp3644
sg71
g3397
sg64
(lp3645
g57
(g78
g59
NtRp3646
(dp3647
g62
(dp3648
g82
g83
ssg71
g3642
sg64
(lp3649
S'user_groups'
p3650
asbag57
(g78
g59
NtRp3651
(dp3652
g62
(dp3653
g89
g90
ssg71
g3642
sg64
(lp3654
S':'
asbag57
(g78
g59
NtRp3655
(dp3656
g62
(dp3657
sg71
g3642
sg64
(lp3658
g57
(g58
g59
NtRp3659
(dp3660
g62
(dp3661
g70
I4
ssg71
g3655
sg64
(lp3662
g57
(g66
g59
NtRp3663
(dp3664
g62
(dp3665
g70
I3
ssg71
Nsg64
(lp3666
g57
(g73
g59
NtRp3667
(dp3668
g62
(dp3669
sg71
g3663
sg64
(lp3670
g57
(g78
g59
NtRp3671
(dp3672
g62
(dp3673
g82
g83
ssg71
g3667
sg64
(lp3674
S'1'
asbag57
(g78
g59
NtRp3675
(dp3676
g62
(dp3677
g89
g90
ssg71
g3667
sg64
(lp3678
S':'
asbag57
(g78
g59
NtRp3679
(dp3680
g62
(dp3681
sg71
g3667
sg64
(lp3682
g57
(g58
g59
NtRp3683
(dp3684
g62
(dp3685
g70
I3
ssg71
g3679
sg64
(lp3686
S'user_1'
p3687
asbasbasbasbasbasbasbasbasbasbasbag57
(g73
g59
NtRp3688
(dp3689
g62
(dp3690
sg71
g3372
sg64
(lp3691
g57
(g78
g59
NtRp3692
(dp3693
g62
(dp3694
g82
g83
ssg71
g3688
sg64
(lp3695
S'flash'
p3696
asbag57
(g78
g59
NtRp3697
(dp3698
g62
(dp3699
g89
g90
ssg71
g3688
sg64
(lp3700
S':'
asbag57
(g78
g59
NtRp3701
(dp3702
g62
(dp3703
sg71
g3688
sg64
(lp3704
g57
(g58
g59
NtRp3705
(dp3706
g62
(dp3707
g70
I5
ssg71
g3701
sg64
(lp3708
S'None'
p3709
asbasbasbag57
(g73
g59
NtRp3710
(dp3711
g62
(dp3712
sg71
g3372
sg64
(lp3713
g57
(g78
g59
NtRp3714
(dp3715
g62
(dp3716
g82
g83
ssg71
g3710
sg64
(lp3717
S'last_orderby'
p3718
asbag57
(g78
g59
NtRp3719
(dp3720
g62
(dp3721
g89
g90
ssg71
g3710
sg64
(lp3722
S':'
asbag57
(g78
g59
NtRp3723
(dp3724
g62
(dp3725
sg71
g3710
sg64
(lp3726
g57
(g58
g59
NtRp3727
(dp3728
g62
(dp3729
g70
I5
ssg71
g3723
sg64
(lp3730
S'None'
p3731
asbasbasbag57
(g73
g59
NtRp3732
(dp3733
g62
(dp3734
sg71
g3372
sg64
(lp3735
g57
(g78
g59
NtRp3736
(dp3737
g62
(dp3738
g82
g83
ssg71
g3732
sg64
(lp3739
S'last_query'
p3740
asbag57
(g78
g59
NtRp3741
(dp3742
g62
(dp3743
g89
g90
ssg71
g3732
sg64
(lp3744
S':'
asbag57
(g78
g59
NtRp3745
(dp3746
g62
(dp3747
sg71
g3732
sg64
(lp3748
g57
(g58
g59
NtRp3749
(dp3750
g62
(dp3751
g70
I5
ssg71
g3745
sg64
(lp3752
S'db.news.id>0'
p3753
asbasbasbasbasbsS'etype'
p3754
S"<type 'exceptions.TypeError'>"
p3755
sS'date'
p3756
S'Tue Aug 27 01:01:46 2013'
p3757
sS'response'
p3758
g57
(g58
g59
NtRp3759
(dp3760
g62
(dp3761
sg64
(lp3762
g57
(g66
g59
NtRp3763
(dp3764
g62
(dp3765
g70
I5
ssg71
Nsg64
(lp3766
g57
(g73
g59
NtRp3767
(dp3768
g62
(dp3769
sg71
g3763
sg64
(lp3770
g57
(g78
g59
NtRp3771
(dp3772
g62
(dp3773
g82
g83
ssg71
g3767
sg64
(lp3774
g179
asbag57
(g78
g59
NtRp3775
(dp3776
g62
(dp3777
g89
g90
ssg71
g3767
sg64
(lp3778
S':'
asbag57
(g78
g59
NtRp3779
(dp3780
g62
(dp3781
sg71
g3767
sg64
(lp3782
g57
(g58
g59
NtRp3783
(dp3784
g62
(dp3785
g70
I5
ssg71
g3779
sg64
(lp3786
S'<cStringIO.StringO object at 0x7fb3940bcf10>'
p3787
asbasbasbag57
(g73
g59
NtRp3788
(dp3789
g62
(dp3790
sg71
g3763
sg64
(lp3791
g57
(g78
g59
NtRp3792
(dp3793
g62
(dp3794
g82
g83
ssg71
g3788
sg64
(lp3795
g267
asbag57
(g78
g59
NtRp3796
(dp3797
g62
(dp3798
g89
g90
ssg71
g3788
sg64
(lp3799
S':'
asbag57
(g78
g59
NtRp3800
(dp3801
g62
(dp3802
sg71
g3788
sg64
(lp3803
g57
(g58
g59
NtRp3804
(dp3805
g62
(dp3806
g70
I5
ssg71
g3800
sg64
(lp3807
g57
(g66
g59
NtRp3808
(dp3809
g62
(dp3810
g70
I4
ssg71
Nsg64
(lp3811
g57
(g73
g59
NtRp3812
(dp3813
g62
(dp3814
sg71
g3808
sg64
(lp3815
g57
(g78
g59
NtRp3816
(dp3817
g62
(dp3818
g82
g83
ssg71
g3812
sg64
(lp3819
S'session_id_assignmen3'
p3820
asbag57
(g78
g59
NtRp3821
(dp3822
g62
(dp3823
g89
g90
ssg71
g3812
sg64
(lp3824
S':'
asbag57
(g78
g59
NtRp3825
(dp3826
g62
(dp3827
sg71
g3812
sg64
(lp3828
g57
(g58
g59
NtRp3829
(dp3830
g62
(dp3831
g70
I4
ssg71
g3825
sg64
(lp3832
g499
ag57
(g66
g59
NtRp3833
(dp3834
g62
(dp3835
g70
I3
ssg71
Nsg64
(lp3836
g57
(g73
g59
NtRp3837
(dp3838
g62
(dp3839
sg71
g3833
sg64
(lp3840
g57
(g78
g59
NtRp3841
(dp3842
g62
(dp3843
g82
g83
ssg71
g3837
sg64
(lp3844
g318
asbag57
(g78
g59
NtRp3845
(dp3846
g62
(dp3847
g89
g90
ssg71
g3837
sg64
(lp3848
S':'
asbag57
(g78
g59
NtRp3849
(dp3850
g62
(dp3851
sg71
g3837
sg64
(lp3852
g57
(g58
g59
NtRp3853
(dp3854
g62
(dp3855
g70
I3
ssg71
g3849
sg64
(lp3856
S''
asbasbasbag57
(g73
g59
NtRp3857
(dp3858
g62
(dp3859
sg71
g3833
sg64
(lp3860
g57
(g78
g59
NtRp3861
(dp3862
g62
(dp3863
g82
g83
ssg71
g3857
sg64
(lp3864
g339
asbag57
(g78
g59
NtRp3865
(dp3866
g62
(dp3867
g89
g90
ssg71
g3857
sg64
(lp3868
S':'
asbag57
(g78
g59
NtRp3869
(dp3870
g62
(dp3871
sg71
g3857
sg64
(lp3872
g57
(g58
g59
NtRp3873
(dp3874
g62
(dp3875
g70
I3
ssg71
g3869
sg64
(lp3876
S''
asbasbasbag57
(g73
g59
NtRp3877
(dp3878
g62
(dp3879
sg71
g3833
sg64
(lp3880
g57
(g78
g59
NtRp3881
(dp3882
g62
(dp3883
g82
g83
ssg71
g3877
sg64
(lp3884
g360
asbag57
(g78
g59
NtRp3885
(dp3886
g62
(dp3887
g89
g90
ssg71
g3877
sg64
(lp3888
S':'
asbag57
(g78
g59
NtRp3889
(dp3890
g62
(dp3891
sg71
g3877
sg64
(lp3892
g57
(g58
g59
NtRp3893
(dp3894
g62
(dp3895
g70
I3
ssg71
g3889
sg64
(lp3896
S''
asbasbasbag57
(g73
g59
NtRp3897
(dp3898
g62
(dp3899
sg71
g3833
sg64
(lp3900
g57
(g78
g59
NtRp3901
(dp3902
g62
(dp3903
g82
g83
ssg71
g3897
sg64
(lp3904
g381
asbag57
(g78
g59
NtRp3905
(dp3906
g62
(dp3907
g89
g90
ssg71
g3897
sg64
(lp3908
S':'
asbag57
(g78
g59
NtRp3909
(dp3910
g62
(dp3911
sg71
g3897
sg64
(lp3912
g57
(g58
g59
NtRp3913
(dp3914
g62
(dp3915
g70
I3
ssg71
g3909
sg64
(lp3916
S''
asbasbasbag57
(g73
g59
NtRp3917
(dp3918
g62
(dp3919
sg71
g3833
sg64
(lp3920
g57
(g78
g59
NtRp3921
(dp3922
g62
(dp3923
g82
g83
ssg71
g3917
sg64
(lp3924
g402
asbag57
(g78
g59
NtRp3925
(dp3926
g62
(dp3927
g89
g90
ssg71
g3917
sg64
(lp3928
S':'
asbag57
(g78
g59
NtRp3929
(dp3930
g62
(dp3931
sg71
g3917
sg64
(lp3932
g57
(g58
g59
NtRp3933
(dp3934
g62
(dp3935
g70
I3
ssg71
g3929
sg64
(lp3936
S''
asbasbasbag57
(g73
g59
NtRp3937
(dp3938
g62
(dp3939
sg71
g3833
sg64
(lp3940
g57
(g78
g59
NtRp3941
(dp3942
g62
(dp3943
g82
g83
ssg71
g3937
sg64
(lp3944
g423
asbag57
(g78
g59
NtRp3945
(dp3946
g62
(dp3947
g89
g90
ssg71
g3937
sg64
(lp3948
S':'
asbag57
(g78
g59
NtRp3949
(dp3950
g62
(dp3951
sg71
g3937
sg64
(lp3952
g57
(g58
g59
NtRp3953
(dp3954
g62
(dp3955
g70
I3
ssg71
g3949
sg64
(lp3956
S'/'
asbasbasbag57
(g73
g59
NtRp3957
(dp3958
g62
(dp3959
sg71
g3833
sg64
(lp3960
g57
(g78
g59
NtRp3961
(dp3962
g62
(dp3963
g82
g83
ssg71
g3957
sg64
(lp3964
g444
asbag57
(g78
g59
NtRp3965
(dp3966
g62
(dp3967
g89
g90
ssg71
g3957
sg64
(lp3968
S':'
asbag57
(g78
g59
NtRp3969
(dp3970
g62
(dp3971
sg71
g3957
sg64
(lp3972
g57
(g58
g59
NtRp3973
(dp3974
g62
(dp3975
g70
I3
ssg71
g3969
sg64
(lp3976
S''
asbasbasbag57
(g73
g59
NtRp3977
(dp3978
g62
(dp3979
sg71
g3833
sg64
(lp3980
g57
(g78
g59
NtRp3981
(dp3982
g62
(dp3983
g82
g83
ssg71
g3977
sg64
(lp3984
g465
asbag57
(g78
g59
NtRp3985
(dp3986
g62
(dp3987
g89
g90
ssg71
g3977
sg64
(lp3988
S':'
asbag57
(g78
g59
NtRp3989
(dp3990
g62
(dp3991
sg71
g3977
sg64
(lp3992
g57
(g58
g59
NtRp3993
(dp3994
g62
(dp3995
g70
I3
ssg71
g3989
sg64
(lp3996
S''
asbasbasbasbasbasbasbasbasbasbasbag57
(g73
g59
NtRp3997
(dp3998
g62
(dp3999
sg71
g3763
sg64
(lp4000
g57
(g78
g59
NtRp4001
(dp4002
g62
(dp4003
g82
g83
ssg71
g3997
sg64
(lp4004
S'delimiters'
p4005
asbag57
(g78
g59
NtRp4006
(dp4007
g62
(dp4008
g89
g90
ssg71
g3997
sg64
(lp4009
S':'
asbag57
(g78
g59
NtRp4010
(dp4011
g62
(dp4012
sg71
g3997
sg64
(lp4013
g57
(g58
g59
NtRp4014
(dp4015
g62
(dp4016
g70
I5
ssg71
g4010
sg64
(lp4017
g57
(g66
g59
NtRp4018
(dp4019
g62
(dp4020
g70
I4
ssg71
Nsg64
(lp4021
g57
(g73
g59
NtRp4022
(dp4023
g62
(dp4024
sg71
g4018
sg64
(lp4025
g57
(g78
g59
NtRp4026
(dp4027
g62
(dp4028
sg71
g4022
sg64
(lp4029
g57
(g58
g59
NtRp4030
(dp4031
g62
(dp4032
g70
I4
ssg71
g4026
sg64
(lp4033
S'{{'
p4034
asbasbasbag57
(g73
g59
NtRp4035
(dp4036
g62
(dp4037
sg71
g4018
sg64
(lp4038
g57
(g78
g59
NtRp4039
(dp4040
g62
(dp4041
sg71
g4035
sg64
(lp4042
g57
(g58
g59
NtRp4043
(dp4044
g62
(dp4045
g70
I4
ssg71
g4039
sg64
(lp4046
S'}}'
p4047
asbasbasbasbasbasbasbag57
(g73
g59
NtRp4048
(dp4049
g62
(dp4050
sg71
g3763
sg64
(lp4051
g57
(g78
g59
NtRp4052
(dp4053
g62
(dp4054
g82
g83
ssg71
g4048
sg64
(lp4055
S'files'
p4056
asbag57
(g78
g59
NtRp4057
(dp4058
g62
(dp4059
g89
g90
ssg71
g4048
sg64
(lp4060
S':'
asbag57
(g78
g59
NtRp4061
(dp4062
g62
(dp4063
sg71
g4048
sg64
(lp4064
g57
(g58
g59
NtRp4065
(dp4066
g62
(dp4067
g70
I5
ssg71
g4061
sg64
(lp4068
g57
(g66
g59
NtRp4069
(dp4070
g62
(dp4071
g70
I4
ssg71
Nsg64
(lp4072
sbasbasbasbag57
(g73
g59
NtRp4073
(dp4074
g62
(dp4075
sg71
g3763
sg64
(lp4076
g57
(g78
g59
NtRp4077
(dp4078
g62
(dp4079
g82
g83
ssg71
g4073
sg64
(lp4080
S'flash'
p4081
asbag57
(g78
g59
NtRp4082
(dp4083
g62
(dp4084
g89
g90
ssg71
g4073
sg64
(lp4085
S':'
asbag57
(g78
g59
NtRp4086
(dp4087
g62
(dp4088
sg71
g4073
sg64
(lp4089
g57
(g58
g59
NtRp4090
(dp4091
g62
(dp4092
g70
I5
ssg71
g4086
sg64
(lp4093
S''
asbasbasbag57
(g73
g59
NtRp4094
(dp4095
g62
(dp4096
sg71
g3763
sg64
(lp4097
g57
(g78
g59
NtRp4098
(dp4099
g62
(dp4100
g82
g83
ssg71
g4094
sg64
(lp4101
S'generic_patterns'
p4102
asbag57
(g78
g59
NtRp4103
(dp4104
g62
(dp4105
g89
g90
ssg71
g4094
sg64
(lp4106
S':'
asbag57
(g78
g59
NtRp4107
(dp4108
g62
(dp4109
sg71
g4094
sg64
(lp4110
g57
(g58
g59
NtRp4111
(dp4112
g62
(dp4113
g70
I5
ssg71
g4107
sg64
(lp4114
g57
(g66
g59
NtRp4115
(dp4116
g62
(dp4117
g70
I4
ssg71
Nsg64
(lp4118
g57
(g73
g59
NtRp4119
(dp4120
g62
(dp4121
sg71
g4115
sg64
(lp4122
g57
(g78
g59
NtRp4123
(dp4124
g62
(dp4125
sg71
g4119
sg64
(lp4126
g57
(g58
g59
NtRp4127
(dp4128
g62
(dp4129
g70
I4
ssg71
g4123
sg64
(lp4130
S'*'
asbasbasbasbasbasbasbag57
(g73
g59
NtRp4131
(dp4132
g62
(dp4133
sg71
g3763
sg64
(lp4134
g57
(g78
g59
NtRp4135
(dp4136
g62
(dp4137
g82
g83
ssg71
g4131
sg64
(lp4138
S'google_analytics_id'
p4139
asbag57
(g78
g59
NtRp4140
(dp4141
g62
(dp4142
g89
g90
ssg71
g4131
sg64
(lp4143
S':'
asbag57
(g78
g59
NtRp4144
(dp4145
g62
(dp4146
sg71
g4131
sg64
(lp4147
g57
(g58
g59
NtRp4148
(dp4149
g62
(dp4150
g70
I5
ssg71
g4144
sg64
(lp4151
S'None'
p4152
asbasbasbag57
(g73
g59
NtRp4153
(dp4154
g62
(dp4155
sg71
g3763
sg64
(lp4156
g57
(g78
g59
NtRp4157
(dp4158
g62
(dp4159
g82
g83
ssg71
g4153
sg64
(lp4160
S'headers'
p4161
asbag57
(g78
g59
NtRp4162
(dp4163
g62
(dp4164
g89
g90
ssg71
g4153
sg64
(lp4165
S':'
asbag57
(g78
g59
NtRp4166
(dp4167
g62
(dp4168
sg71
g4153
sg64
(lp4169
g57
(g58
g59
NtRp4170
(dp4171
g62
(dp4172
g70
I5
ssg71
g4166
sg64
(lp4173
g57
(g66
g59
NtRp4174
(dp4175
g62
(dp4176
g70
I4
ssg71
Nsg64
(lp4177
g57
(g73
g59
NtRp4178
(dp4179
g62
(dp4180
sg71
g4174
sg64
(lp4181
g57
(g78
g59
NtRp4182
(dp4183
g62
(dp4184
g82
g83
ssg71
g4178
sg64
(lp4185
S'X-Powered-By'
p4186
asbag57
(g78
g59
NtRp4187
(dp4188
g62
(dp4189
g89
g90
ssg71
g4178
sg64
(lp4190
S':'
asbag57
(g78
g59
NtRp4191
(dp4192
g62
(dp4193
sg71
g4178
sg64
(lp4194
g57
(g58
g59
NtRp4195
(dp4196
g62
(dp4197
g70
I4
ssg71
g4191
sg64
(lp4198
S'web2py'
p4199
asbasbasbasbasbasbasbag57
(g73
g59
NtRp4200
(dp4201
g62
(dp4202
sg71
g3763
sg64
(lp4203
g57
(g78
g59
NtRp4204
(dp4205
g62
(dp4206
g82
g83
ssg71
g4200
sg64
(lp4207
S'logo'
p4208
asbag57
(g78
g59
NtRp4209
(dp4210
g62
(dp4211
g89
g90
ssg71
g4200
sg64
(lp4212
S':'
asbag57
(g78
g59
NtRp4213
(dp4214
g62
(dp4215
sg71
g4200
sg64
(lp4216
g57
(g58
g59
NtRp4217
(dp4218
g62
(dp4219
g70
I5
ssg71
g4213
sg64
(lp4220
g57
(cgluon.html
A
p4221
g59
NtRp4222
(dp4223
g62
(dp4224
S'_class'
p4225
S'brand'
p4226
sS'_href'
p4227
S'http://www.web2py.com/'
p4228
ssg71
Nsg64
(lp4229
g57
(cgluon.html
B
p4230
g59
NtRp4231
(dp4232
g62
(dp4233
sg71
g4222
sg64
(lp4234
S'web'
p4235
ag57
(cgluon.html
SPAN
p4236
g59
NtRp4237
(dp4238
g62
(dp4239
sg71
g4231
sg64
(lp4240
I2
asbaS'py'
p4241
asbacgluon.html
XML_unpickle
p4242
(S's\r\x00\x00\x00&trade;&nbsp;'
tRp4243
asbasbasbasbag57
(g73
g59
NtRp4244
(dp4245
g62
(dp4246
sg71
g3763
sg64
(lp4247
g57
(g78
g59
NtRp4248
(dp4249
g62
(dp4250
g82
g83
ssg71
g4244
sg64
(lp4251
S'menu'
p4252
asbag57
(g78
g59
NtRp4253
(dp4254
g62
(dp4255
g89
g90
ssg71
g4244
sg64
(lp4256
S':'
asbag57
(g78
g59
NtRp4257
(dp4258
g62
(dp4259
sg71
g4244
sg64
(lp4260
g57
(g58
g59
NtRp4261
(dp4262
g62
(dp4263
g70
I5
ssg71
g4257
sg64
(lp4264
g57
(g66
g59
NtRp4265
(dp4266
g62
(dp4267
g70
I4
ssg71
Nsg64
(lp4268
g57
(g73
g59
NtRp4269
(dp4270
g62
(dp4271
sg71
g4265
sg64
(lp4272
g57
(g78
g59
NtRp4273
(dp4274
g62
(dp4275
sg71
g4269
sg64
(lp4276
g57
(g58
g59
NtRp4277
(dp4278
g62
(dp4279
g70
I4
ssg71
g4273
sg64
(lp4280
g57
(g66
g59
NtRp4281
(dp4282
g62
(dp4283
g70
I3
ssg71
Nsg64
(lp4284
g57
(g73
g59
NtRp4285
(dp4286
g62
(dp4287
sg71
g4281
sg64
(lp4288
g57
(g78
g59
NtRp4289
(dp4290
g62
(dp4291
sg71
g4285
sg64
(lp4292
g57
(g58
g59
NtRp4293
(dp4294
g62
(dp4295
g70
I3
ssg71
g4289
sg64
(lp4296
cgluon.languages
lazyT_unpickle
p4297
(S's\x04\x00\x00\x00Home'
tRp4298
asbasbasbag57
(g73
g59
NtRp4299
(dp4300
g62
(dp4301
sg71
g4281
sg64
(lp4302
g57
(g78
g59
NtRp4303
(dp4304
g62
(dp4305
sg71
g4299
sg64
(lp4306
g57
(g58
g59
NtRp4307
(dp4308
g62
(dp4309
g70
I3
ssg71
g4303
sg64
(lp4310
g100
asbasbasbag57
(g73
g59
NtRp4311
(dp4312
g62
(dp4313
sg71
g4281
sg64
(lp4314
g57
(g78
g59
NtRp4315
(dp4316
g62
(dp4317
sg71
g4311
sg64
(lp4318
g57
(g58
g59
NtRp4319
(dp4320
g62
(dp4321
g70
I3
ssg71
g4315
sg64
(lp4322
S'/assignmen3/default/index'
p4323
asbasbasbag57
(g73
g59
NtRp4324
(dp4325
g62
(dp4326
sg71
g4281
sg64
(lp4327
g57
(g78
g59
NtRp4328
(dp4329
g62
(dp4330
sg71
g4324
sg64
(lp4331
g57
(g58
g59
NtRp4332
(dp4333
g62
(dp4334
g70
I3
ssg71
g4328
sg64
(lp4335
g57
(g66
g59
NtRp4336
(dp4337
g62
(dp4338
g70
I2
ssg71
Nsg64
(lp4339
sbasbasbasbasbasbasbasbag57
(g73
g59
NtRp4340
(dp4341
g62
(dp4342
sg71
g4265
sg64
(lp4343
g57
(g78
g59
NtRp4344
(dp4345
g62
(dp4346
sg71
g4340
sg64
(lp4347
g57
(g58
g59
NtRp4348
(dp4349
g62
(dp4350
g70
I4
ssg71
g4344
sg64
(lp4351
g57
(g66
g59
NtRp4352
(dp4353
g62
(dp4354
g70
I3
ssg71
Nsg64
(lp4355
g57
(g73
g59
NtRp4356
(dp4357
g62
(dp4358
sg71
g4352
sg64
(lp4359
g57
(g78
g59
NtRp4360
(dp4361
g62
(dp4362
sg71
g4356
sg64
(lp4363
g57
(g58
g59
NtRp4364
(dp4365
g62
(dp4366
g70
I3
ssg71
g4360
sg64
(lp4367
g57
(g4236
g59
NtRp4368
(dp4369
g62
(dp4370
g4225
S'highlighted'
p4371
ssg71
Nsg64
(lp4372
g4199
asbasbasbasbag57
(g73
g59
NtRp4373
(dp4374
g62
(dp4375
sg71
g4352
sg64
(lp4376
g57
(g78
g59
NtRp4377
(dp4378
g62
(dp4379
sg71
g4373
sg64
(lp4380
g57
(g58
g59
NtRp4381
(dp4382
g62
(dp4383
g70
I3
ssg71
g4377
sg64
(lp4384
g100
asbasbasbag57
(g73
g59
NtRp4385
(dp4386
g62
(dp4387
sg71
g4352
sg64
(lp4388
g57
(g78
g59
NtRp4389
(dp4390
g62
(dp4391
sg71
g4385
sg64
(lp4392
g57
(g58
g59
NtRp4393
(dp4394
g62
(dp4395
g70
I3
ssg71
g4389
sg64
(lp4396
S'http://web2py.com'
p4397
asbasbasbag57
(g73
g59
NtRp4398
(dp4399
g62
(dp4400
sg71
g4352
sg64
(lp4401
g57
(g78
g59
NtRp4402
(dp4403
g62
(dp4404
sg71
g4398
sg64
(lp4405
g57
(g58
g59
NtRp4406
(dp4407
g62
(dp4408
g70
I3
ssg71
g4402
sg64
(lp4409
g57
(g66
g59
NtRp4410
(dp4411
g62
(dp4412
g70
I2
ssg71
Nsg64
(lp4413
g57
(g73
g59
NtRp4414
(dp4415
g62
(dp4416
sg71
g4410
sg64
(lp4417
g57
(g78
g59
NtRp4418
(dp4419
g62
(dp4420
sg71
g4414
sg64
(lp4421
g57
(g58
g59
NtRp4422
(dp4423
g62
(dp4424
g70
I2
ssg71
g4418
sg64
(lp4425
g57
(g66
g59
NtRp4426
(dp4427
g62
(dp4428
g70
I1
ssg71
Nsg64
(lp4429
g57
(g73
g59
NtRp4430
(dp4431
g62
(dp4432
sg71
g4426
sg64
(lp4433
g57
(g78
g59
NtRp4434
(dp4435
g62
(dp4436
sg71
g4430
sg64
(lp4437
g57
(g58
g59
NtRp4438
(dp4439
g62
(dp4440
g70
I1
ssg71
g4434
sg64
(lp4441
g4297
(S's\x08\x00\x00\x00My Sites'
tRp4442
asbasbasbag57
(g73
g59
NtRp4443
(dp4444
g62
(dp4445
sg71
g4426
sg64
(lp4446
g57
(g78
g59
NtRp4447
(dp4448
g62
(dp4449
sg71
g4443
sg64
(lp4450
g57
(g58
g59
NtRp4451
(dp4452
g62
(dp4453
g70
I1
ssg71
g4447
sg64
(lp4454
I00
asbasbasbag57
(g73
g59
NtRp4455
(dp4456
g62
(dp4457
sg71
g4426
sg64
(lp4458
g57
(g78
g59
NtRp4459
(dp4460
g62
(dp4461
sg71
g4455
sg64
(lp4462
g57
(g58
g59
NtRp4463
(dp4464
g62
(dp4465
g70
I1
ssg71
g4459
sg64
(lp4466
S'/admin/default/site'
p4467
asbasbasbasbasbasbasbag57
(g73
g59
NtRp4468
(dp4469
g62
(dp4470
sg71
g4410
sg64
(lp4471
g57
(g78
g59
NtRp4472
(dp4473
g62
(dp4474
sg71
g4468
sg64
(lp4475
g57
(g58
g59
NtRp4476
(dp4477
g62
(dp4478
g70
I2
ssg71
g4472
sg64
(lp4479
g57
(g66
g59
NtRp4480
(dp4481
g62
(dp4482
g70
I1
ssg71
Nsg64
(lp4483
g57
(g73
g59
NtRp4484
(dp4485
g62
(dp4486
sg71
g4480
sg64
(lp4487
g57
(g78
g59
NtRp4488
(dp4489
g62
(dp4490
sg71
g4484
sg64
(lp4491
g57
(g58
g59
NtRp4492
(dp4493
g62
(dp4494
g70
I1
ssg71
g4488
sg64
(lp4495
g4297
(S's\x08\x00\x00\x00This App'
tRp4496
asbasbasbag57
(g73
g59
NtRp4497
(dp4498
g62
(dp4499
sg71
g4480
sg64
(lp4500
g57
(g78
g59
NtRp4501
(dp4502
g62
(dp4503
sg71
g4497
sg64
(lp4504
g57
(g58
g59
NtRp4505
(dp4506
g62
(dp4507
g70
I1
ssg71
g4501
sg64
(lp4508
I00
asbasbasbag57
(g73
g59
NtRp4509
(dp4510
g62
(dp4511
sg71
g4480
sg64
(lp4512
g57
(g78
g59
NtRp4513
(dp4514
g62
(dp4515
sg71
g4509
sg64
(lp4516
g57
(g58
g59
NtRp4517
(dp4518
g62
(dp4519
g70
I1
ssg71
g4513
sg64
(lp4520
S'/admin/default/design/assignmen3'
p4521
asbasbasbag57
(g73
g59
NtRp4522
(dp4523
g62
(dp4524
sg71
g4480
sg64
(lp4525
g57
(g78
g59
NtRp4526
(dp4527
g62
(dp4528
sg71
g4522
sg64
(lp4529
g57
(g58
g59
NtRp4530
(dp4531
g62
(dp4532
g70
I1
ssg71
g4526
sg64
(lp4533
(lp4534
(g4297
(S's\n\x00\x00\x00Controller'
tRp4535
I00
S'/admin/default/edit/assignmen3/controllers/default.py'
tp4536
a(g4297
(S's\x04\x00\x00\x00View'
tRp4537
I00
S'/admin/default/edit/assignmen3/views/default/like.html'
tp4538
a(g4297
(S's\x06\x00\x00\x00Layout'
tRp4539
I00
S'/admin/default/edit/assignmen3/views/layout.html'
tp4540
a(g4297
(S's\n\x00\x00\x00Stylesheet'
tRp4541
I00
S'/admin/default/edit/assignmen3/static/css/web2py.css'
tp4542
a(g4297
(S's\x08\x00\x00\x00DB Model'
tRp4543
I00
S'/admin/default/edit/assignmen3/models/db.py'
tp4544
a(g4297
(S's\n\x00\x00\x00Menu Model'
tRp4545
I00
S'/admin/default/edit/assignmen3/models/menu.py'
tp4546
a(g4297
(S's\x08\x00\x00\x00Database'
tRp4547
I00
S'/assignmen3/appadmin/index'
tp4548
a(g4297
(S's\x06\x00\x00\x00Errors'
tRp4549
I00
S'/admin/default/errors/assignmen3'
tp4550
a(g4297
(S's\x05\x00\x00\x00About'
tRp4551
I00
S'/admin/default/about/assignmen3'
tp4552
aasbasbasbasbasbasbasbag57
(g73
g59
NtRp4553
(dp4554
g62
(dp4555
sg71
g4410
sg64
(lp4556
g57
(g78
g59
NtRp4557
(dp4558
g62
(dp4559
sg71
g4553
sg64
(lp4560
g57
(g58
g59
NtRp4561
(dp4562
g62
(dp4563
g70
I2
ssg71
g4557
sg64
(lp4564
g57
(g66
g59
NtRp4565
(dp4566
g62
(dp4567
g70
I1
ssg71
Nsg64
(lp4568
g57
(g73
g59
NtRp4569
(dp4570
g62
(dp4571
sg71
g4565
sg64
(lp4572
g57
(g78
g59
NtRp4573
(dp4574
g62
(dp4575
sg71
g4569
sg64
(lp4576
g57
(g58
g59
NtRp4577
(dp4578
g62
(dp4579
g70
I1
ssg71
g4573
sg64
(lp4580
S'web2py.com'
p4581
asbasbasbag57
(g73
g59
NtRp4582
(dp4583
g62
(dp4584
sg71
g4565
sg64
(lp4585
g57
(g78
g59
NtRp4586
(dp4587
g62
(dp4588
sg71
g4582
sg64
(lp4589
g57
(g58
g59
NtRp4590
(dp4591
g62
(dp4592
g70
I1
ssg71
g4586
sg64
(lp4593
I00
asbasbasbag57
(g73
g59
NtRp4594
(dp4595
g62
(dp4596
sg71
g4565
sg64
(lp4597
g57
(g78
g59
NtRp4598
(dp4599
g62
(dp4600
sg71
g4594
sg64
(lp4601
g57
(g58
g59
NtRp4602
(dp4603
g62
(dp4604
g70
I1
ssg71
g4598
sg64
(lp4605
S'http://www.web2py.com'
p4606
asbasbasbag57
(g73
g59
NtRp4607
(dp4608
g62
(dp4609
sg71
g4565
sg64
(lp4610
g57
(g78
g59
NtRp4611
(dp4612
g62
(dp4613
sg71
g4607
sg64
(lp4614
g57
(g58
g59
NtRp4615
(dp4616
g62
(dp4617
g70
I1
ssg71
g4611
sg64
(lp4618
(lp4619
(g4297
(S's\x08\x00\x00\x00Download'
tRp4620
I00
S'http://www.web2py.com/examples/default/download'
p4621
tp4622
a(g4297
(S's\x07\x00\x00\x00Support'
tRp4623
I00
S'http://www.web2py.com/examples/default/support'
p4624
tp4625
a(g4297
(S's\x04\x00\x00\x00Demo'
tRp4626
I00
S'http://web2py.com/demo_admin'
p4627
tp4628
a(g4297
(S's\x0e\x00\x00\x00Quick Examples'
tRp4629
I00
S'http://web2py.com/examples/default/examples'
p4630
tp4631
a(g4297
(S's\x03\x00\x00\x00FAQ'
tRp4632
I00
S'http://web2py.com/AlterEgo'
p4633
tp4634
a(g4297
(S's\x06\x00\x00\x00Videos'
tRp4635
I00
S'http://www.web2py.com/examples/default/videos/'
p4636
tp4637
a(g4297
(S's\x11\x00\x00\x00Free Applications'
tRp4638
I00
S'http://web2py.com/appliances'
p4639
tp4640
a(g4297
(S's\x07\x00\x00\x00Plugins'
tRp4641
I00
S'http://web2py.com/plugins'
p4642
tp4643
a(g4297
(S's\x07\x00\x00\x00Layouts'
tRp4644
I00
S'http://web2py.com/layouts'
p4645
tp4646
a(g4297
(S's\x07\x00\x00\x00Recipes'
tRp4647
I00
S'http://web2pyslices.com/'
p4648
tp4649
a(g4297
(S's\x08\x00\x00\x00Semantic'
tRp4650
I00
S'http://web2py.com/semantic'
p4651
tp4652
aasbasbasbasbasbasbasbag57
(g73
g59
NtRp4653
(dp4654
g62
(dp4655
sg71
g4410
sg64
(lp4656
g57
(g78
g59
NtRp4657
(dp4658
g62
(dp4659
sg71
g4653
sg64
(lp4660
g57
(g58
g59
NtRp4661
(dp4662
g62
(dp4663
g70
I2
ssg71
g4657
sg64
(lp4664
g57
(g66
g59
NtRp4665
(dp4666
g62
(dp4667
g70
I1
ssg71
Nsg64
(lp4668
g57
(g73
g59
NtRp4669
(dp4670
g62
(dp4671
sg71
g4665
sg64
(lp4672
g57
(g78
g59
NtRp4673
(dp4674
g62
(dp4675
sg71
g4669
sg64
(lp4676
g57
(g58
g59
NtRp4677
(dp4678
g62
(dp4679
g70
I1
ssg71
g4673
sg64
(lp4680
g4297
(S's\r\x00\x00\x00Documentation'
tRp4681
asbasbasbag57
(g73
g59
NtRp4682
(dp4683
g62
(dp4684
sg71
g4665
sg64
(lp4685
g57
(g78
g59
NtRp4686
(dp4687
g62
(dp4688
sg71
g4682
sg64
(lp4689
g57
(g58
g59
NtRp4690
(dp4691
g62
(dp4692
g70
I1
ssg71
g4686
sg64
(lp4693
I00
asbasbasbag57
(g73
g59
NtRp4694
(dp4695
g62
(dp4696
sg71
g4665
sg64
(lp4697
g57
(g78
g59
NtRp4698
(dp4699
g62
(dp4700
sg71
g4694
sg64
(lp4701
g57
(g58
g59
NtRp4702
(dp4703
g62
(dp4704
g70
I1
ssg71
g4698
sg64
(lp4705
S'http://www.web2py.com/book'
p4706
asbasbasbag57
(g73
g59
NtRp4707
(dp4708
g62
(dp4709
sg71
g4665
sg64
(lp4710
g57
(g78
g59
NtRp4711
(dp4712
g62
(dp4713
sg71
g4707
sg64
(lp4714
g57
(g58
g59
NtRp4715
(dp4716
g62
(dp4717
g70
I1
ssg71
g4711
sg64
(lp4718
(lp4719
(g4297
(S's\x07\x00\x00\x00Preface'
tRp4720
I00
S'http://www.web2py.com/book/default/chapter/00'
p4721
tp4722
a(g4297
(S's\x0c\x00\x00\x00Introduction'
tRp4723
I00
S'http://www.web2py.com/book/default/chapter/01'
p4724
tp4725
a(g4297
(S's\x06\x00\x00\x00Python'
tRp4726
I00
S'http://www.web2py.com/book/default/chapter/02'
p4727
tp4728
a(g4297
(S's\x08\x00\x00\x00Overview'
tRp4729
I00
S'http://www.web2py.com/book/default/chapter/03'
p4730
tp4731
a(g4297
(S's\x08\x00\x00\x00The Core'
tRp4732
I00
S'http://www.web2py.com/book/default/chapter/04'
p4733
tp4734
a(g4297
(S's\t\x00\x00\x00The Views'
tRp4735
I00
S'http://www.web2py.com/book/default/chapter/05'
p4736
tp4737
a(g4297
(S's\x08\x00\x00\x00Database'
tRp4738
I00
S'http://www.web2py.com/book/default/chapter/06'
p4739
tp4740
a(g4297
(S's\x14\x00\x00\x00Forms and Validators'
tRp4741
I00
S'http://www.web2py.com/book/default/chapter/07'
p4742
tp4743
a(g4297
(S's\r\x00\x00\x00Email and SMS'
tRp4744
I00
S'http://www.web2py.com/book/default/chapter/08'
p4745
tp4746
a(g4297
(S's\x0e\x00\x00\x00Access Control'
tRp4747
I00
S'http://www.web2py.com/book/default/chapter/09'
p4748
tp4749
a(g4297
(S's\x08\x00\x00\x00Services'
tRp4750
I00
S'http://www.web2py.com/book/default/chapter/10'
p4751
tp4752
a(g4297
(S's\x0c\x00\x00\x00Ajax Recipes'
tRp4753
I00
S'http://www.web2py.com/book/default/chapter/11'
p4754
tp4755
a(g4297
(S's\x16\x00\x00\x00Components and Plugins'
tRp4756
I00
S'http://www.web2py.com/book/default/chapter/12'
p4757
tp4758
a(g4297
(S's\x12\x00\x00\x00Deployment Recipes'
tRp4759
I00
S'http://www.web2py.com/book/default/chapter/13'
p4760
tp4761
a(g4297
(S's\r\x00\x00\x00Other Recipes'
tRp4762
I00
S'http://www.web2py.com/book/default/chapter/14'
p4763
tp4764
a(g4297
(S's\r\x00\x00\x00Buy this book'
tRp4765
I00
S'http://stores.lulu.com/web2py'
p4766
tp4767
aasbasbasbasbasbasbasbag57
(g73
g59
NtRp4768
(dp4769
g62
(dp4770
sg71
g4410
sg64
(lp4771
g57
(g78
g59
NtRp4772
(dp4773
g62
(dp4774
sg71
g4768
sg64
(lp4775
g57
(g58
g59
NtRp4776
(dp4777
g62
(dp4778
g70
I2
ssg71
g4772
sg64
(lp4779
g57
(g66
g59
NtRp4780
(dp4781
g62
(dp4782
g70
I1
ssg71
Nsg64
(lp4783
g57
(g73
g59
NtRp4784
(dp4785
g62
(dp4786
sg71
g4780
sg64
(lp4787
g57
(g78
g59
NtRp4788
(dp4789
g62
(dp4790
sg71
g4784
sg64
(lp4791
g57
(g58
g59
NtRp4792
(dp4793
g62
(dp4794
g70
I1
ssg71
g4788
sg64
(lp4795
g4297
(S's\t\x00\x00\x00Community'
tRp4796
asbasbasbag57
(g73
g59
NtRp4797
(dp4798
g62
(dp4799
sg71
g4780
sg64
(lp4800
g57
(g78
g59
NtRp4801
(dp4802
g62
(dp4803
sg71
g4797
sg64
(lp4804
g57
(g58
g59
NtRp4805
(dp4806
g62
(dp4807
g70
I1
ssg71
g4801
sg64
(lp4808
I00
asbasbasbag57
(g73
g59
NtRp4809
(dp4810
g62
(dp4811
sg71
g4780
sg64
(lp4812
g57
(g78
g59
NtRp4813
(dp4814
g62
(dp4815
sg71
g4809
sg64
(lp4816
g57
(g58
g59
NtRp4817
(dp4818
g62
(dp4819
g70
I1
ssg71
g4813
sg64
(lp4820
Nasbasbasbag57
(g73
g59
NtRp4821
(dp4822
g62
(dp4823
sg71
g4780
sg64
(lp4824
g57
(g78
g59
NtRp4825
(dp4826
g62
(dp4827
sg71
g4821
sg64
(lp4828
g57
(g58
g59
NtRp4829
(dp4830
g62
(dp4831
g70
I1
ssg71
g4825
sg64
(lp4832
(lp4833
(g4297
(S's\x06\x00\x00\x00Groups'
tRp4834
I00
S'http://www.web2py.com/examples/default/usergroups'
p4835
tp4836
a(g4297
(S's\x07\x00\x00\x00Twitter'
tRp4837
I00
S'http://twitter.com/web2py'
p4838
tp4839
a(g4297
(S's\t\x00\x00\x00Live Chat'
tRp4840
I00
S'http://webchat.freenode.net/?channels=web2py'
p4841
tp4842
aasbasbasbasbasbasbasbag57
(g73
g59
NtRp4843
(dp4844
g62
(dp4845
sg71
g4410
sg64
(lp4846
g57
(g78
g59
NtRp4847
(dp4848
g62
(dp4849
sg71
g4843
sg64
(lp4850
g57
(g58
g59
NtRp4851
(dp4852
g62
(dp4853
g70
I2
ssg71
g4847
sg64
(lp4854
g57
(g66
g59
NtRp4855
(dp4856
g62
(dp4857
g70
I1
ssg71
Nsg64
(lp4858
g57
(g73
g59
NtRp4859
(dp4860
g62
(dp4861
sg71
g4855
sg64
(lp4862
g57
(g78
g59
NtRp4863
(dp4864
g62
(dp4865
sg71
g4859
sg64
(lp4866
g57
(g58
g59
NtRp4867
(dp4868
g62
(dp4869
g70
I1
ssg71
g4863
sg64
(lp4870
g4297
(S's\x07\x00\x00\x00Plugins'
tRp4871
asbasbasbag57
(g73
g59
NtRp4872
(dp4873
g62
(dp4874
sg71
g4855
sg64
(lp4875
g57
(g78
g59
NtRp4876
(dp4877
g62
(dp4878
sg71
g4872
sg64
(lp4879
g57
(g58
g59
NtRp4880
(dp4881
g62
(dp4882
g70
I1
ssg71
g4876
sg64
(lp4883
I00
asbasbasbag57
(g73
g59
NtRp4884
(dp4885
g62
(dp4886
sg71
g4855
sg64
(lp4887
g57
(g78
g59
NtRp4888
(dp4889
g62
(dp4890
sg71
g4884
sg64
(lp4891
g57
(g58
g59
NtRp4892
(dp4893
g62
(dp4894
g70
I1
ssg71
g4888
sg64
(lp4895
Nasbasbasbag57
(g73
g59
NtRp4896
(dp4897
g62
(dp4898
sg71
g4855
sg64
(lp4899
g57
(g78
g59
NtRp4900
(dp4901
g62
(dp4902
sg71
g4896
sg64
(lp4903
g57
(g58
g59
NtRp4904
(dp4905
g62
(dp4906
g70
I1
ssg71
g4900
sg64
(lp4907
(lp4908
(S'plugin_wiki'
p4909
I00
S'http://web2py.com/examples/default/download'
p4910
tp4911
a(g4297
(S's\r\x00\x00\x00Other Plugins'
tRp4912
I00
g4642
tp4913
a(g4297
(S's\x0e\x00\x00\x00Layout Plugins'
tRp4914
I00
g4645
tp4915
aasbasbasbasbasbasbasbasbasbasbasbasbasbasbasbasbasbasbasbag57
(g73
g59
NtRp4916
(dp4917
g62
(dp4918
sg71
g3763
sg64
(lp4919
g57
(g78
g59
NtRp4920
(dp4921
g62
(dp4922
g82
g83
ssg71
g4916
sg64
(lp4923
S'meta'
p4924
asbag57
(g78
g59
NtRp4925
(dp4926
g62
(dp4927
g89
g90
ssg71
g4916
sg64
(lp4928
S':'
asbag57
(g78
g59
NtRp4929
(dp4930
g62
(dp4931
sg71
g4916
sg64
(lp4932
g57
(g58
g59
NtRp4933
(dp4934
g62
(dp4935
g70
I5
ssg71
g4929
sg64
(lp4936
g57
(g66
g59
NtRp4937
(dp4938
g62
(dp4939
g70
I4
ssg71
Nsg64
(lp4940
g57
(g73
g59
NtRp4941
(dp4942
g62
(dp4943
sg71
g4937
sg64
(lp4944
g57
(g78
g59
NtRp4945
(dp4946
g62
(dp4947
g82
g83
ssg71
g4941
sg64
(lp4948
S'author'
p4949
asbag57
(g78
g59
NtRp4950
(dp4951
g62
(dp4952
g89
g90
ssg71
g4941
sg64
(lp4953
S':'
asbag57
(g78
g59
NtRp4954
(dp4955
g62
(dp4956
sg71
g4941
sg64
(lp4957
g57
(g58
g59
NtRp4958
(dp4959
g62
(dp4960
g70
I4
ssg71
g4954
sg64
(lp4961
S'Your Name <you@example.com>'
p4962
asbasbasbag57
(g73
g59
NtRp4963
(dp4964
g62
(dp4965
sg71
g4937
sg64
(lp4966
g57
(g78
g59
NtRp4967
(dp4968
g62
(dp4969
g82
g83
ssg71
g4963
sg64
(lp4970
S'description'
p4971
asbag57
(g78
g59
NtRp4972
(dp4973
g62
(dp4974
g89
g90
ssg71
g4963
sg64
(lp4975
S':'
asbag57
(g78
g59
NtRp4976
(dp4977
g62
(dp4978
sg71
g4963
sg64
(lp4979
g57
(g58
g59
NtRp4980
(dp4981
g62
(dp4982
g70
I4
ssg71
g4976
sg64
(lp4983
S'a cool new app'
p4984
asbasbasbag57
(g73
g59
NtRp4985
(dp4986
g62
(dp4987
sg71
g4937
sg64
(lp4988
g57
(g78
g59
NtRp4989
(dp4990
g62
(dp4991
g82
g83
ssg71
g4985
sg64
(lp4992
S'generator'
p4993
asbag57
(g78
g59
NtRp4994
(dp4995
g62
(dp4996
g89
g90
ssg71
g4985
sg64
(lp4997
S':'
asbag57
(g78
g59
NtRp4998
(dp4999
g62
(dp5000
sg71
g4985
sg64
(lp5001
g57
(g58
g59
NtRp5002
(dp5003
g62
(dp5004
g70
I4
ssg71
g4998
sg64
(lp5005
S'Web2py Web Framework'
p5006
asbasbasbag57
(g73
g59
NtRp5007
(dp5008
g62
(dp5009
sg71
g4937
sg64
(lp5010
g57
(g78
g59
NtRp5011
(dp5012
g62
(dp5013
g82
g83
ssg71
g5007
sg64
(lp5014
S'keywords'
p5015
asbag57
(g78
g59
NtRp5016
(dp5017
g62
(dp5018
g89
g90
ssg71
g5007
sg64
(lp5019
S':'
asbag57
(g78
g59
NtRp5020
(dp5021
g62
(dp5022
sg71
g5007
sg64
(lp5023
g57
(g58
g59
NtRp5024
(dp5025
g62
(dp5026
g70
I4
ssg71
g5020
sg64
(lp5027
S'web2py, python, framework'
p5028
asbasbasbasbasbasbasbag57
(g73
g59
NtRp5029
(dp5030
g62
(dp5031
sg71
g3763
sg64
(lp5032
g57
(g78
g59
NtRp5033
(dp5034
g62
(dp5035
g82
g83
ssg71
g5029
sg64
(lp5036
S'models_to_run'
p5037
asbag57
(g78
g59
NtRp5038
(dp5039
g62
(dp5040
g89
g90
ssg71
g5029
sg64
(lp5041
S':'
asbag57
(g78
g59
NtRp5042
(dp5043
g62
(dp5044
sg71
g5029
sg64
(lp5045
g57
(g58
g59
NtRp5046
(dp5047
g62
(dp5048
g70
I5
ssg71
g5042
sg64
(lp5049
g57
(g66
g59
NtRp5050
(dp5051
g62
(dp5052
g70
I4
ssg71
Nsg64
(lp5053
g57
(g73
g59
NtRp5054
(dp5055
g62
(dp5056
sg71
g5050
sg64
(lp5057
g57
(g78
g59
NtRp5058
(dp5059
g62
(dp5060
sg71
g5054
sg64
(lp5061
g57
(g58
g59
NtRp5062
(dp5063
g62
(dp5064
g70
I4
ssg71
g5058
sg64
(lp5065
S'^\\w+\\.py$'
p5066
asbasbasbag57
(g73
g59
NtRp5067
(dp5068
g62
(dp5069
sg71
g5050
sg64
(lp5070
g57
(g78
g59
NtRp5071
(dp5072
g62
(dp5073
sg71
g5067
sg64
(lp5074
g57
(g58
g59
NtRp5075
(dp5076
g62
(dp5077
g70
I4
ssg71
g5071
sg64
(lp5078
S'^default/\\w+\\.py$'
p5079
asbasbasbag57
(g73
g59
NtRp5080
(dp5081
g62
(dp5082
sg71
g5050
sg64
(lp5083
g57
(g78
g59
NtRp5084
(dp5085
g62
(dp5086
sg71
g5080
sg64
(lp5087
g57
(g58
g59
NtRp5088
(dp5089
g62
(dp5090
g70
I4
ssg71
g5084
sg64
(lp5091
S'^default/like/\\w+\\.py$'
p5092
asbasbasbasbasbasbasbag57
(g73
g59
NtRp5093
(dp5094
g62
(dp5095
sg71
g3763
sg64
(lp5096
g57
(g78
g59
NtRp5097
(dp5098
g62
(dp5099
g82
g83
ssg71
g5093
sg64
(lp5100
S'postprocessing'
p5101
asbag57
(g78
g59
NtRp5102
(dp5103
g62
(dp5104
g89
g90
ssg71
g5093
sg64
(lp5105
S':'
asbag57
(g78
g59
NtRp5106
(dp5107
g62
(dp5108
sg71
g5093
sg64
(lp5109
g57
(g58
g59
NtRp5110
(dp5111
g62
(dp5112
g70
I5
ssg71
g5106
sg64
(lp5113
g57
(g66
g59
NtRp5114
(dp5115
g62
(dp5116
g70
I4
ssg71
Nsg64
(lp5117
sbasbasbasbag57
(g73
g59
NtRp5118
(dp5119
g62
(dp5120
sg71
g3763
sg64
(lp5121
g57
(g78
g59
NtRp5122
(dp5123
g62
(dp5124
g82
g83
ssg71
g5118
sg64
(lp5125
S'session_cookie_expires'
p5126
asbag57
(g78
g59
NtRp5127
(dp5128
g62
(dp5129
g89
g90
ssg71
g5118
sg64
(lp5130
S':'
asbag57
(g78
g59
NtRp5131
(dp5132
g62
(dp5133
sg71
g5118
sg64
(lp5134
g57
(g58
g59
NtRp5135
(dp5136
g62
(dp5137
g70
I5
ssg71
g5131
sg64
(lp5138
S'None'
p5139
asbasbasbag57
(g73
g59
NtRp5140
(dp5141
g62
(dp5142
sg71
g3763
sg64
(lp5143
g57
(g78
g59
NtRp5144
(dp5145
g62
(dp5146
g82
g83
ssg71
g5140
sg64
(lp5147
S'session_data_name'
p5148
asbag57
(g78
g59
NtRp5149
(dp5150
g62
(dp5151
g89
g90
ssg71
g5140
sg64
(lp5152
S':'
asbag57
(g78
g59
NtRp5153
(dp5154
g62
(dp5155
sg71
g5140
sg64
(lp5156
g57
(g58
g59
NtRp5157
(dp5158
g62
(dp5159
g70
I5
ssg71
g5153
sg64
(lp5160
S'session_data_assignmen3'
p5161
asbasbasbag57
(g73
g59
NtRp5162
(dp5163
g62
(dp5164
sg71
g3763
sg64
(lp5165
g57
(g78
g59
NtRp5166
(dp5167
g62
(dp5168
g82
g83
ssg71
g5162
sg64
(lp5169
S'session_file'
p5170
asbag57
(g78
g59
NtRp5171
(dp5172
g62
(dp5173
g89
g90
ssg71
g5162
sg64
(lp5174
S':'
asbag57
(g78
g59
NtRp5175
(dp5176
g62
(dp5177
sg71
g5162
sg64
(lp5178
g57
(g58
g59
NtRp5179
(dp5180
g62
(dp5181
g70
I5
ssg71
g5175
sg64
(lp5182
S"<open file '/home/umang/web2py/applications/assignmen3/sessions/127.0.0.1-29d2a057-a0f4-454d-a27a-8e10f33a428a', mode 'rb+' at 0x7fb38c3588a0>"
p5183
asbasbasbag57
(g73
g59
NtRp5184
(dp5185
g62
(dp5186
sg71
g3763
sg64
(lp5187
g57
(g78
g59
NtRp5188
(dp5189
g62
(dp5190
g82
g83
ssg71
g5184
sg64
(lp5191
S'session_filename'
p5192
asbag57
(g78
g59
NtRp5193
(dp5194
g62
(dp5195
g89
g90
ssg71
g5184
sg64
(lp5196
S':'
asbag57
(g78
g59
NtRp5197
(dp5198
g62
(dp5199
sg71
g5184
sg64
(lp5200
g57
(g58
g59
NtRp5201
(dp5202
g62
(dp5203
g70
I5
ssg71
g5197
sg64
(lp5204
S'/home/umang/web2py/applications/assignmen3/sessions/127.0.0.1-29d2a057-a0f4-454d-a27a-8e10f33a428a'
p5205
asbasbasbag57
(g73
g59
NtRp5206
(dp5207
g62
(dp5208
sg71
g3763
sg64
(lp5209
g57
(g78
g59
NtRp5210
(dp5211
g62
(dp5212
g82
g83
ssg71
g5206
sg64
(lp5213
S'session_id'
p5214
asbag57
(g78
g59
NtRp5215
(dp5216
g62
(dp5217
g89
g90
ssg71
g5206
sg64
(lp5218
S':'
asbag57
(g78
g59
NtRp5219
(dp5220
g62
(dp5221
sg71
g5206
sg64
(lp5222
g57
(g58
g59
NtRp5223
(dp5224
g62
(dp5225
g70
I5
ssg71
g5219
sg64
(lp5226
g499
asbasbasbag57
(g73
g59
NtRp5227
(dp5228
g62
(dp5229
sg71
g3763
sg64
(lp5230
g57
(g78
g59
NtRp5231
(dp5232
g62
(dp5233
g82
g83
ssg71
g5227
sg64
(lp5234
S'session_id_name'
p5235
asbag57
(g78
g59
NtRp5236
(dp5237
g62
(dp5238
g89
g90
ssg71
g5227
sg64
(lp5239
S':'
asbag57
(g78
g59
NtRp5240
(dp5241
g62
(dp5242
sg71
g5227
sg64
(lp5243
g57
(g58
g59
NtRp5244
(dp5245
g62
(dp5246
g70
I5
ssg71
g5240
sg64
(lp5247
g3820
asbasbasbag57
(g73
g59
NtRp5248
(dp5249
g62
(dp5250
sg71
g3763
sg64
(lp5251
g57
(g78
g59
NtRp5252
(dp5253
g62
(dp5254
g82
g83
ssg71
g5248
sg64
(lp5255
S'session_locked'
p5256
asbag57
(g78
g59
NtRp5257
(dp5258
g62
(dp5259
g89
g90
ssg71
g5248
sg64
(lp5260
S':'
asbag57
(g78
g59
NtRp5261
(dp5262
g62
(dp5263
sg71
g5248
sg64
(lp5264
g57
(g58
g59
NtRp5265
(dp5266
g62
(dp5267
g70
I5
ssg71
g5261
sg64
(lp5268
g1815
asbasbasbag57
(g73
g59
NtRp5269
(dp5270
g62
(dp5271
sg71
g3763
sg64
(lp5272
g57
(g78
g59
NtRp5273
(dp5274
g62
(dp5275
g82
g83
ssg71
g5269
sg64
(lp5276
S'session_new'
p5277
asbag57
(g78
g59
NtRp5278
(dp5279
g62
(dp5280
g89
g90
ssg71
g5269
sg64
(lp5281
S':'
asbag57
(g78
g59
NtRp5282
(dp5283
g62
(dp5284
sg71
g5269
sg64
(lp5285
g57
(g58
g59
NtRp5286
(dp5287
g62
(dp5288
g70
I5
ssg71
g5282
sg64
(lp5289
g100
asbasbasbag57
(g73
g59
NtRp5290
(dp5291
g62
(dp5292
sg71
g3763
sg64
(lp5293
g57
(g78
g59
NtRp5294
(dp5295
g62
(dp5296
g82
g83
ssg71
g5290
sg64
(lp5297
S'session_storage_type'
p5298
asbag57
(g78
g59
NtRp5299
(dp5300
g62
(dp5301
g89
g90
ssg71
g5290
sg64
(lp5302
S':'
asbag57
(g78
g59
NtRp5303
(dp5304
g62
(dp5305
sg71
g5290
sg64
(lp5306
g57
(g58
g59
NtRp5307
(dp5308
g62
(dp5309
g70
I5
ssg71
g5303
sg64
(lp5310
g3268
asbasbasbag57
(g73
g59
NtRp5311
(dp5312
g62
(dp5313
sg71
g3763
sg64
(lp5314
g57
(g78
g59
NtRp5315
(dp5316
g62
(dp5317
g82
g83
ssg71
g5311
sg64
(lp5318
S'status'
p5319
asbag57
(g78
g59
NtRp5320
(dp5321
g62
(dp5322
g89
g90
ssg71
g5311
sg64
(lp5323
S':'
asbag57
(g78
g59
NtRp5324
(dp5325
g62
(dp5326
sg71
g5311
sg64
(lp5327
g57
(g58
g59
NtRp5328
(dp5329
g62
(dp5330
g70
I5
ssg71
g5324
sg64
(lp5331
S'200'
p5332
asbasbasbag57
(g73
g59
NtRp5333
(dp5334
g62
(dp5335
sg71
g3763
sg64
(lp5336
g57
(g78
g59
NtRp5337
(dp5338
g62
(dp5339
g82
g83
ssg71
g5333
sg64
(lp5340
S'subtitle'
p5341
asbag57
(g78
g59
NtRp5342
(dp5343
g62
(dp5344
g89
g90
ssg71
g5333
sg64
(lp5345
S':'
asbag57
(g78
g59
NtRp5346
(dp5347
g62
(dp5348
sg71
g5333
sg64
(lp5349
g57
(g58
g59
NtRp5350
(dp5351
g62
(dp5352
g70
I5
ssg71
g5346
sg64
(lp5353
g4297
(S's\r\x00\x00\x00customize me!'
tRp5354
asbasbasbag57
(g73
g59
NtRp5355
(dp5356
g62
(dp5357
sg71
g3763
sg64
(lp5358
g57
(g78
g59
NtRp5359
(dp5360
g62
(dp5361
g82
g83
ssg71
g5355
sg64
(lp5362
S'title'
p5363
asbag57
(g78
g59
NtRp5364
(dp5365
g62
(dp5366
g89
g90
ssg71
g5355
sg64
(lp5367
S':'
asbag57
(g78
g59
NtRp5368
(dp5369
g62
(dp5370
sg71
g5355
sg64
(lp5371
g57
(g58
g59
NtRp5372
(dp5373
g62
(dp5374
g70
I5
ssg71
g5368
sg64
(lp5375
S'Assignmen3'
p5376
asbasbasbag57
(g73
g59
NtRp5377
(dp5378
g62
(dp5379
sg71
g3763
sg64
(lp5380
g57
(g78
g59
NtRp5381
(dp5382
g62
(dp5383
g82
g83
ssg71
g5377
sg64
(lp5384
S'view'
p5385
asbag57
(g78
g59
NtRp5386
(dp5387
g62
(dp5388
g89
g90
ssg71
g5377
sg64
(lp5389
S':'
asbag57
(g78
g59
NtRp5390
(dp5391
g62
(dp5392
sg71
g5377
sg64
(lp5393
g57
(g58
g59
NtRp5394
(dp5395
g62
(dp5396
g70
I5
ssg71
g5390
sg64
(lp5397
S'default/like.html'
p5398
asbasbasbasbasbsS'locals'
p5399
(dp5400
S'news_id'
p5401
S'1'
sS'query'
p5402
S'<Rows (0)>'
p5403
sS'ar'
p5404
S'<Rows (1)>'
p5405
sS'catg'
p5406
S'2'
sssS'traceback'
p5407
S'Traceback (most recent call last):\n  File "/home/umang/web2py/gluon/restricted.py", line 212, in restricted\n    exec ccode in environment\n  File "/home/umang/web2py/applications/assignmen3/controllers/default.py", line 169, in <module>\n  File "/home/umang/web2py/gluon/globals.py", line 193, in <lambda>\n    self._caller = lambda f: f()\n  File "/home/umang/web2py/gluon/tools.py", line 2929, in f\n    return action(*a, **b)\n  File "/home/umang/web2py/applications/assignmen3/controllers/default.py", line 89, in like\n    if(len(query==0)):\nTypeError: object of type \'bool\' has no len()\n'
p5408
s.