(dp1
S'output'
p2
S"<type 'exceptions.SyntaxError'> keyword can't be an expression (default.py, line 188)"
p3
sS'layer'
p4
S'/home/umang/web2py/applications/assignmen3/controllers/default.py'
p5
sS'code'
p6
S'# -*- coding: utf-8 -*-\n# this file is released under public domain and you can use without limitations\n\n#########################################################################\n## This is a samples controller\n## - index is the default action of any application\n## - user is required for authentication and authorization\n## - download is for downloading files uploaded in the db (does streaming)\n## - call exposes all registered services (none by default)\n#########################################################################\nimport datetime\n\ndef index():\n    """\n    example action using the internationalization operator T and flash\n    rendered by views/default/index.html or views/generic.html\n\n    if you need a simple wiki simple replace the two lines below with:\n    return auth.wiki()\n    """\n    redirect(URL(r=request,f=\'no_catg\'))\n    #query=db(db.category.name==\'New\').select(db.category.id)\n    #redirect(URL(r=request, f=\'first_page\',args=[int(query[0].id)]))\n\n@auth.requires_login()\ndef login_to_account():\n\tar=db((db.auth_membership.user_id==auth.user_id) & (db.auth_group.id==db.auth_membership.group_id)).select(db.auth_group.role)\n\tif(len(ar)==0):\n\t\tredirect(URL(r=request,f=\'user\'))\n\telif(len(ar)==1):\n\t\tx=db(db.auth_group.role==\'normal\').select(db.auth_group.id)\n\t\tdb.auth_membership.insert(user_id=auth.user_id,group_id=x[0][\'id\'])\n    \t\tquery=db(db.category.name==\'New\').select(db.category.id)\n    \t\tredirect(URL(r=request, f=\'login_normal\',args=[int(query[0].id)]))\n\telif(ar[1][\'role\']==\'normal\'):\n    \t\tquery=db(db.category.name==\'New\').select(db.category.id)\n    \t\tredirect(URL(r=request, f=\'login_normal\',args=[int(query[0].id)]))\n\telif(ar[1][\'role\']==\'admin\'):\n    \t\tquery=db(db.category.name==\'New\').select(db.category.id)\n    \t\tredirect(URL(r=request, f=\'login_admin\',args=[int(query[0].id)]))\n\ndef login_normal():\n\tquery=int(request.args(0))\n\tdisp=db((db.news.user_id==auth.user_id) & (db.news.category_id==query)).select(db.news.id,db.news.heading,db.news.url,db.news.category_id,db.news.ntype,db.news.rating,db.news.pres_time,orderby=~db.news.rating)\n\tq_comment=db((db.news.category_id==query) & (db.comments.news_id==db.news.id)).select(db.comments.ALL)\n\tcatg=db(db.category.id>0).select(db.category.name,db.category.id)\n\tpres_catg=db(db.category.id==query).select(db.category.name)\n\treturn dict(disp=disp,q_comment=q_comment,catg=catg,pres_catg=pres_catg,query=query)\t\n\ndef login_admin():\n\tquery=int(request.args(0))\n\tdisp=db(db.news.category_id==query).select(db.news.id,db.news.user_name,db.news.heading,db.news.url,db.news.category_id,db.news.ntype,db.news.rating,db.news.pres_time,orderby=~db.news.rating)\n\tq_comment=db((db.news.category_id==query) & (db.comments.news_id==db.news.id)).select(db.comments.ALL)\n\tcatg=db(db.category.id>0).select(db.category.name,db.category.id)\n\tpres_catg=db(db.category.id==query).select(db.category.name)\n\treturn dict(disp=disp,q_comment=q_comment,catg=catg,pres_catg=pres_catg,query=query)\t\n\ndef add_category():\n\tform=SQLFORM(db.category,submit_button="Add",labels={\'name\':\'Enter Category\'})\n\tif form.process().accepted:\n\t\tsession.flash=T(\'Category Added\')\n\t\tredirect(URL(r=request, f=\'login_to_account\'))\n    \telif form.errors:\n       \t\t response.flash=\'Some Error Occured Please Refresh\'\n\treturn dict(form=form)\n\n@auth.requires_login()\ndef edit_news_admin():\n\tnews_id=int(request.args(0))\n\tcatg=int(request.args(1))\n\tflag=int(request.args(2))\n\tform=SQLFORM.factory(\n\t db.Field(\'new_heading\',\'string\',label="Enter Heading"),\n\t db.Field(\'new_url\',\'string\',label="Enter URL",requires=IS_URL()),\n\t db.Field(\'new_type\',\'string\',label="Enter Type",requires=IS_IN_SET(["Text","Video"])),\n\t formstyle=\'divs\',\n\t buttons=[],)\n\tform[0].insert(3,DIV(INPUT(_type=\'submit\',_value=\'Edit IT\')))\n   \tif form.accepts(request.vars,session):\n\t\t# tmp_edit(form.vars.new_heading,form.vars.new_url,form.vars.new_type,news_id,catg,flag)\n\t\tdb(db.news.id==news_id).update(heading=form.vars.new_heading,url=form.vars.new_url,rating=100,ntype=form.vars.new_type)\n\t\tdb(db.rating.news_id==news_id).delete()\n\t\tredirect(URL(r=request,f=\'login_admin\',args=[(int)(catg)]))\n    \telif form.errors:\n       \t\t response.flash=\'Error Occured\'\n\treturn dict(form=form)\n\n@auth.requires_login()\ndef delete_news_admin():\n\tnews_id=int(request.args(0))\n\tcatg=int(request.args(1))\n\tflag=int(request.args(2))\n\tdb(db.news.id==news_id).delete()\n\tsession.flash=T(\'Post Deleted Successfully\')\n\tredirect(URL(r=request,f=\'login_admin\',args=[(int)(catg)]))\n\ndef first_page():\n\tquery=int(request.args(0))\n\tdisp=db(db.news.category_id==query).select(db.news.heading,db.news.url,db.news.rating,db.news.ntype,db.news.id,db.news.pres_time,db.news.user_name,orderby=~db.news.rating)\n\tq_comment=db((db.news.category_id==query) & (db.comments.news_id==db.news.id)).select(db.comments.ALL)\n\tcatg=db(db.category.id>0).select(db.category.name,db.category.id)\n\tpres_catg=db(db.category.id==query).select(db.category.name)\n\tdisp=sorted(disp,key=lambda a:-a[\'rating\'])\n\t"""\n\tform=SQLFORM.factory(\n\t db.Field(\'comm_body\',\'string\',label=""),\n\t formstyle=\'divs\',\n\t buttons=[],)\n   \tform[0].insert(1,DIV(INPUT(_type=\'submit\',_value=\'Post\')))\n   \tif form.accepts(request.vars,session):\n        \t insert_comment(form.vars.comm_body,auth.user_id,query)\n    \telif form.errors:\n        \t response.flash=\'Some Error Occured Please Refresh\'\n    \t"""\n\treturn dict(query=query,disp=disp,q_comment=q_comment,catg=catg,pres_catg=pres_catg)\n\ndef no_catg():\n\tdisp=db(db.news.id>0).select(db.news.ALL,orderby=~db.news.rating)\n\tq_comment=db(db.comments.id>0).select(db.comments.ALL)\n\tcatg=db(db.category.id>0).select(db.category.name,db.category.id)\n\treturn dict(disp=disp,q_comment=q_comment,catg=catg)\n\ndef latest():\n\tdisp=db(db.news.id>0).select(db.news.ALL,orderby=~db.news.pres_time)\n\tq_comment=db(db.comments.id>0).select(db.comments.body,db.comments.commentor)\n\tcatg=db(db.category.id>0).select(db.category.name,db.category.id)\n\treturn dict(disp=disp,q_comment=q_comment,catg=catg)\n\n@auth.requires_login()\ndef add_news():\n\tcatg=int(request.args(0))\n\tflag=int(request.args(1))\n\tname=db(db.auth_user.id==auth.user_id).select(db.auth_user.first_name,db.auth_user.last_name)\n\tdb.news.pres_time.default=datetime.datetime.now().ctime()\n\tdb.news.pres_time.readable=False\n\tdb.news.pres_time.writable=False\n\tdb.news.category_id.default=catg\n\tdb.news.category_id.readable=False\n\tdb.news.category_id.writable=False\n\tdb.news.user_id.default=auth.user_id\n\tdb.news.user_id.writable=False\n\tdb.news.user_id.readable=False\n\tdb.news.rating.default=100\n\tdb.news.rating.writable=False\n\tdb.news.rating.readable=False\n\tdb.news.user_name.default=name[0].first_name+" "+name[0].last_name\n\tdb.news.user_name.readable=False\n\tdb.news.user_name.writable=False\n\tform=SQLFORM(db.news,submit_button="Post",labels={\'ntype\':\'Post Type\'})\n\tif form.process().accepted:\n\t\tif(flag==0):\n\t\t\tsession.flash=T(\'Post Added\')\n\t        \tredirect(URL(r=request, f=\'first_page\',args=[int(catg)]))\n\t\telse :\n\t\t\tsession.flash=T(\'Post Added\')\n\t\t\tredirect(URL(r=request, f=\'login_to_account\'))\n\t\t#redirect(URL(r=request,f=\'first_page?query=%s\' % catg))\n\telif form.errors:\n\t\tresponse.flash="Error posting it"\n\treturn dict(form=form)\n\n@auth.requires_login()\ndef like():\n\tnews_id=int(request.args(0))\n\tcatg=int(request.args(1))\n\tflag=int(request.args(2))\n\tar=db(db.news.id==news_id).select(db.news.rating)\n\tquery=db((db.rating.news_id==news_id) & (db.rating.rater_id==auth.user_id)).select(db.rating.liked)\n\t"""\n\tif((len(query)==0) or (query[0].liked==0)):\n\t\tdb(db.news.id==news_id).update(rating=ar[0].rating+5)\n\t\tflag=2\n\t\tif(len(query)==0):\n\t\t\tdb.rating.insert(news_id=news_id,rater_id=auth.user_id,liked=1,disliked=0)\n\t\telse:\n\t\t\tflag=3\n\t\t\tdb((db.rating.news_id==news_id) & (db.rating.rater_id==auth.user_id)).update(liked=1)\n\t#redirect(URL(r=request, f=\'first_page\',args=[int(catg)]))\n\treturn dict(query=query,flag=flag)\n\t"""\n\tif(len(query)==0):\n\t\tdb(db.news.id==news_id).update(rating=ar[0].rating+5)\n\t\tdb.rating.insert(news_id=news_id,rater_id=auth.user_id,liked=1,disliked=0)\n\t\tsession.flash=T(\'You Voted Up\')\n\tif(len(query)!=0):\n\t\tif(int(query[0].liked)==1):\n\t\t\tdb(news.id==news_id).update(rating=ar[0].rating-5)\n\t\t\tdb((db.rating.news_id==news_id) & (db.rating.rater_id==auth.user_id)).update(rating.liked=0)\n\t\t\tsession.flash=T(\'You Unliked It\')\n\tif(flag==0):\n\t\tredirect(URL(r=request, f=\'first_page\',args=[int(catg)]))\n\telse :\n\t\tredirect(URL(r=request, f=\'login_to_account\'))\n\n\n@auth.requires_login()\ndef dislike():\n\tnews_id=int(request.args(0))\n\tcatg=int(request.args(1))\n\tflag=int(request.args(2))\n\tar=db(db.news.id==news_id).select(db.news.rating)\n\tquery=db((db.rating.news_id==news_id) & (db.rating.rater_id==auth.user_id)).select(db.rating.disliked)\n\tif(len(query)==0):\n\t\tdb(db.news.id==news_id).update(rating=ar[0].rating-3)\n\t\tdb.rating.insert(news_id=news_id,rater_id=auth.user_id,liked=0,disliked=1)\n\t\tsession.flash=T(\'You Voted Down\')\n\tif(flag==0):\n\t\tredirect(URL(r=request,f=\'first_page\',args=[(int)(catg)]))\n\telse :\n\t\tredirect(URL(r=request, f=\'login_to_account\'))\n\t#return dict(query=query)\n\n@auth.requires_login()\ndef edit_news():\n\tnews_id=int(request.args(0))\n\tcatg=int(request.args(1))\n\tflag=int(request.args(2))\n\tquery=db((db.news.id==news_id) & (db.news.user_id==auth.user_id)).select(db.news.heading)\n\tif(len(query)==0):\n\t\tredirect(URL(r=request,f=\'first_page\',args=[(int)(catg)]))\n\telse :\n\t\tform=SQLFORM.factory(\n\t\t db.Field(\'new_heading\',\'string\',label="Enter Heading"),\n\t\t db.Field(\'new_url\',\'string\',label="Enter URL",requires=IS_URL()),\n\t\t db.Field(\'new_type\',\'string\',label="Enter Type",requires=IS_IN_SET(["Text","Video"])),\n\t\t formstyle=\'divs\',\n\t\t buttons=[],)\n   \t\tform[0].insert(3,DIV(INPUT(_type=\'submit\',_value=\'Edit IT\')))\n\t   \tif form.accepts(request.vars,session):\n        \t\t tmp_edit(form.vars.new_heading,form.vars.new_url,form.vars.new_type,news_id,catg,flag)\n\t    \telif form.errors:\n        \t\t response.flash=\'Some Error Occured Please Refresh\'\n\t\treturn dict(form=form)\n\n@auth.requires_login()\ndef tmp_edit(new_heading,new_url,new_type,news_id,catg,flag):\n\tdb(db.news.id==news_id).update(heading=new_heading,url=new_url,rating=100,ntype=new_type)\n\tdb(db.rating.news_id==news_id).delete()\n\tif(flag==0):\n\t\tsession.flash=T(\'Post Edited Successfully\')\n\t\tredirect(URL(r=request,f=\'first_page\',args=[(int)(catg)]))\n\telse :\n\t\tsession.flash=T(\'Post Edited Successfully\')\n\t\tredirect(URL(r=request, f=\'login_to_account\'))\n\n@auth.requires_login()\ndef delete_news():\n\tnews_id=int(request.args(0))\n\tcatg=int(request.args(1))\n\tflag=int(request.args(2))\n\tquery=db((db.news.id==news_id) & (db.news.user_id==auth.user_id)).select(db.news.id)\n\tif(len(query)>0):\n\t\tdb((db.news.id==news_id) & (db.news.user_id==auth.user_id)).delete()\n\t\tdb(db.rating.news_id==news_id).delete()\n\t\tdb(db.comments.news_id==news_id).delete()\n\t\tsession.flash=T(\'Post Deleted Successfully\')\n\tif(flag==0):\n\t\tredirect(URL(r=request,f=\'first_page\',args=[(int)(catg)]))\n\telse :\n\t\tsession.flash=T(\'Post Deleted Successfully\')\n\t\tredirect(URL(r=request, f=\'login_to_account\'))\n\ndef delete_catg():\n\tform=SQLFORM.factory(\n\t db.Field(\'catg_id\',\'int\',label="Choose Category",requires=IS_IN_DB(db,\'category.id\',\'category.name\')),\n\t formstyle=\'divs\',\n\t buttons=[],)\n   \tform[0].insert(1,DIV(INPUT(_type=\'submit\',_value=\'Delete It\')))\n\tif form.accepts(request.vars,session):\n\t\tquery=db(db.news.category_id==form.vars.catg_id).select(db.news.id)\n\t\tfor x in query:\n\t\t\tdb(db.rating.news_id==x.id).delete()\n\t\t\tdb(db.news.id==x.id).delete()\n\t\tdb(db.category.id==form.vars.catg_id).delete()\n\t\tsession.flash=T(\'Category Deleted\')\n\t\tredirect(URL(r=request, f=\'no_catg\'))\n\t\t#tmp_edit(form.vars.new_heading,form.vars.new_url,form.vars.new_type,news_id,catg,flag)\n  \telif form.errors:\n       \t\t response.flash=\'Some Error Occured Please Refresh\'\n\treturn dict(form=form)\n\n@auth.requires_login()\ndef insert_comment():\n\tcatg_id=int(request.args(1))\n\tnews_id1=(int)(request.args(0))\n\tflag=int(request.args(2))\n\tdb.comments.comm_time.default=datetime.datetime.now().ctime()\n\tdb.comments.comm_time.readable=False\n\tdb.comments.comm_time.writable=False\n\tdb.comments.commentor.default=auth.user_id\n\tdb.comments.commentor.readable=False\n\tdb.comments.commentor.writable=False\n\tdb.comments.news_id.default=news_id1\n\tdb.comments.news_id.readable=False\n\tdb.comments.news_id.writable=False\n\tform=SQLFORM(db.comments,submit_button="Comment",labels={\'body\':\'Your Comment\'})\n\tif form.process().accepted:\n\t\tif(flag==0):\n\t\t\tsession.flash=T(\'Comment Inserted\')\n\t        \tredirect(URL(r=request, f=\'first_page\',args=[int(catg_id)]))\n\t\telse :\n\t\t\tsession.flash=T(\'Comment Inserted\')\n\t\t\tredirect(URL(r=request, f=\'login_to_account\'))\n\t\t#redirect(URL(r=request,f=\'first_page?query=%s\' % catg))\n\telif form.errors:\n\t\tresponse.flash="Error posting it"\n\treturn dict(form=form)\n\ndef delete_user():\n\tcatg_id=int(request.args(0))\n\tform=SQLFORM.factory(\n\t db.Field(\'user_id\',\'int\',label="Choose User",requires=IS_IN_DB(db,\'auth_user.id\',\'auth_user.first_name\')),\n\t formstyle=\'divs\',\n\t buttons=[],)\n   \tform[0].insert(1,DIV(INPUT(_type=\'submit\',_value=\'Delete\')))\n\tif form.accepts(request.vars,session):\n\t\tquery=db(db.rating.rater_id==form.vars.user_id).select(db.rating.ALL)\n\t\tfor y in query:\n\t\t\tif(y.liked==1):\n\t\t\t\tq2=db(db.news.id==y.news_id).select(db.news.rating)\n\t\t\t\tdb(db.news.id==y.news_id).update(rating=q2[0].rating-5)\n\t\t\tif(y.disliked==1):\n\t\t\t\tq2=db(db.news.id==y.news_id).select(db.news.rating)\n\t\t\t\tdb(db.news.id==y.news_id).update(rating=q2[0].rating+3)\n\t\tquery=db(db.news.user_id==form.vars.user_id).select(db.news.ALL)\n\t\tfor x in query:\n\t\t\tdb(db.comments.news_id==x.id).delete()\n\t\tdb(db.news.user_id==form.vars.user_id).delete()\n\t\tdb(db.auth_membership.user_id==form.vars.user_id).delete()\n\t\tdb(db.auth_user.id==form.vars.user_id).delete()\n\t\tsession.flash=T(\'User Deleted\')\n\t\tredirect(URL(r=request, f=\'login_admin\',args=[int(catg_id)]))\n\telif form.errors:\n\t\tresponse.flash="Error posting it"\n\treturn dict(form=form)\n\ndef user():\n    """\n    exposes:\n    http://..../[app]/default/user/login\n    http://..../[app]/default/user/logout\n    http://..../[app]/default/user/register\n    http://..../[app]/default/user/profile\n    http://..../[app]/default/user/retrieve_password\n    http://..../[app]/default/user/change_password\n    use @auth.requires_login()\n        @auth.requires_membership(\'group name\')\n        @auth.requires_permission(\'read\',\'table name\',record_id)\n    to decorate functions that need access control\n    """\n    return dict(form=auth())\n\n\ndef download():\n    """\n    allows downloading of uploaded files\n    http://..../[app]/default/download/[filename]\n    """\n    return response.download(request, db)\n\n\ndef call():\n    """\n    exposes services. for example:\n    http://..../[app]/default/call/jsonrpc\n    decorate with @services.jsonrpc the functions to expose\n    supports xml, json, xmlrpc, jsonrpc, amfrpc, rss, csv\n    """\n    return service()\n\n\n@auth.requires_signature()\ndef data():\n    """\n    http://..../[app]/default/data/tables\n    http://..../[app]/default/data/create/[table]\n    http://..../[app]/default/data/read/[table]/[id]\n    http://..../[app]/default/data/update/[table]/[id]\n    http://..../[app]/default/data/delete/[table]/[id]\n    http://..../[app]/default/data/select/[table]\n    http://..../[app]/default/data/search/[table]\n    but URLs must be signed, i.e. linked with\n      A(\'table\',_href=URL(\'data/tables\',user_signature=True))\n    or with the signed load operator\n      LOAD(\'default\',\'data.load\',args=\'tables\',ajax=True,user_signature=True)\n    """\n    return dict(form=crud())\n\nresponse._vars=response._caller(login_admin)\n'
p7
sS'snapshot'
p8
(dp9
S'exception'
p10
(dp11
S'__getslice__'
p12
S"<method-wrapper '__getslice__' of exceptions.SyntaxError object>"
p13
sS'text'
p14
S"'db((db.rating.news_id==news_id) & (db.rating.rater_id==auth.user_id)).update(rating.liked=0)\\n'"
p15
sS'__str__'
p16
S"<method-wrapper '__str__' of exceptions.SyntaxError object>"
p17
sS'__reduce__'
p18
S'<built-in method __reduce__ of exceptions.SyntaxError object>'
p19
sS'__dict__'
p20
S'{}'
p21
sS'__sizeof__'
p22
S'<built-in method __sizeof__ of exceptions.SyntaxError object>'
p23
sS'__init__'
p24
S"<method-wrapper '__init__' of exceptions.SyntaxError object>"
p25
sS'__setattr__'
p26
S"<method-wrapper '__setattr__' of exceptions.SyntaxError object>"
p27
sS'__reduce_ex__'
p28
S'<built-in method __reduce_ex__ of exceptions.SyntaxError object>'
p29
sS'__new__'
p30
S'<built-in method __new__ of type object>'
p31
sS'__format__'
p32
S'<built-in method __format__ of exceptions.SyntaxError object>'
p33
sS'__class__'
p34
S"<type 'exceptions.SyntaxError'>"
p35
sS'filename'
p36
S"'/home/umang/web2py/applications/assignmen3/controllers/default.py'"
p37
sS'lineno'
p38
S'188'
p39
sS'msg'
p40
S'"keyword can\'t be an expression"'
p41
sS'__doc__'
p42
S"'Invalid syntax.'"
p43
sS'__getitem__'
p44
S"<method-wrapper '__getitem__' of exceptions.SyntaxError object>"
p45
sS'__setstate__'
p46
S'<built-in method __setstate__ of exceptions.SyntaxError object>'
p47
sS'__getattribute__'
p48
S"<method-wrapper '__getattribute__' of exceptions.SyntaxError object>"
p49
sS'print_file_and_line'
p50
S'None'
p51
sS'args'
p52
S'("keyword can\'t be an expression", (\'/home/umang/web2py/applications/assignmen3/controllers/default.py\', 188, None, \'db((db.rating.news_id==news_id) & (db.rating.rater_id==auth.user_id)).update(rating.liked=0)\\n\'))'
p53
sS'__subclasshook__'
p54
S'<built-in method __subclasshook__ of type object>'
p55
sS'offset'
p56
S'None'
p57
sS'__unicode__'
p58
S'<built-in method __unicode__ of exceptions.SyntaxError object>'
p59
sS'__delattr__'
p60
S"<method-wrapper '__delattr__' of exceptions.SyntaxError object>"
p61
sS'__repr__'
p62
S"<method-wrapper '__repr__' of exceptions.SyntaxError object>"
p63
sS'__hash__'
p64
S"<method-wrapper '__hash__' of exceptions.SyntaxError object>"
p65
ssS'evalue'
p66
S"keyword can't be an expression (default.py, line 188)"
p67
sS'request'
p68
ccopy_reg
_reconstructor
p69
(cgluon.html
BEAUTIFY
p70
c__builtin__
object
p71
NtRp72
(dp73
S'attributes'
p74
(dp75
sS'components'
p76
(lp77
g69
(cgluon.html
TABLE
p78
g71
NtRp79
(dp80
g74
(dp81
S'level'
p82
I5
ssS'parent'
p83
Nsg76
(lp84
g69
(cgluon.html
TR
p85
g71
NtRp86
(dp87
g74
(dp88
sg83
g79
sg76
(lp89
g69
(cgluon.html
TD
p90
g71
NtRp91
(dp92
g74
(dp93
S'_style'
p94
S'font-weight:bold;vertical-align:top'
p95
ssg83
g86
sg76
(lp96
S'ajax'
p97
asbag69
(g90
g71
NtRp98
(dp99
g74
(dp100
S'_valign'
p101
S'top'
p102
ssg83
g86
sg76
(lp103
S':'
asbag69
(g90
g71
NtRp104
(dp105
g74
(dp106
sg83
g86
sg76
(lp107
g69
(g70
g71
NtRp108
(dp109
g74
(dp110
g82
I5
ssg83
g104
sg76
(lp111
S'False'
p112
asbasbasbag69
(g85
g71
NtRp113
(dp114
g74
(dp115
sg83
g79
sg76
(lp116
g69
(g90
g71
NtRp117
(dp118
g74
(dp119
g94
g95
ssg83
g113
sg76
(lp120
S'application'
p121
asbag69
(g90
g71
NtRp122
(dp123
g74
(dp124
g101
g102
ssg83
g113
sg76
(lp125
S':'
asbag69
(g90
g71
NtRp126
(dp127
g74
(dp128
sg83
g113
sg76
(lp129
g69
(g70
g71
NtRp130
(dp131
g74
(dp132
g82
I5
ssg83
g126
sg76
(lp133
S'assignmen3'
p134
asbasbasbag69
(g85
g71
NtRp135
(dp136
g74
(dp137
sg83
g79
sg76
(lp138
g69
(g90
g71
NtRp139
(dp140
g74
(dp141
g94
g95
ssg83
g135
sg76
(lp142
g52
asbag69
(g90
g71
NtRp143
(dp144
g74
(dp145
g101
g102
ssg83
g135
sg76
(lp146
S':'
asbag69
(g90
g71
NtRp147
(dp148
g74
(dp149
sg83
g135
sg76
(lp150
g69
(g70
g71
NtRp151
(dp152
g74
(dp153
g82
I5
ssg83
g147
sg76
(lp154
g69
(g78
g71
NtRp155
(dp156
g74
(dp157
g82
I4
ssg83
Nsg76
(lp158
g69
(g85
g71
NtRp159
(dp160
g74
(dp161
sg83
g155
sg76
(lp162
g69
(g90
g71
NtRp163
(dp164
g74
(dp165
sg83
g159
sg76
(lp166
g69
(g70
g71
NtRp167
(dp168
g74
(dp169
g82
I4
ssg83
g163
sg76
(lp170
S'2'
asbasbasbasbasbasbasbag69
(g85
g71
NtRp171
(dp172
g74
(dp173
sg83
g79
sg76
(lp174
g69
(g90
g71
NtRp175
(dp176
g74
(dp177
g94
g95
ssg83
g171
sg76
(lp178
S'body'
p179
asbag69
(g90
g71
NtRp180
(dp181
g74
(dp182
g101
g102
ssg83
g171
sg76
(lp183
S':'
asbag69
(g90
g71
NtRp184
(dp185
g74
(dp186
sg83
g171
sg76
(lp187
g69
(g70
g71
NtRp188
(dp189
g74
(dp190
g82
I5
ssg83
g184
sg76
(lp191
S'<cStringIO.StringO object at 0x7fe314515df8>'
p192
asbasbasbag69
(g85
g71
NtRp193
(dp194
g74
(dp195
sg83
g79
sg76
(lp196
g69
(g90
g71
NtRp197
(dp198
g74
(dp199
g94
g95
ssg83
g193
sg76
(lp200
S'cid'
p201
asbag69
(g90
g71
NtRp202
(dp203
g74
(dp204
g101
g102
ssg83
g193
sg76
(lp205
S':'
asbag69
(g90
g71
NtRp206
(dp207
g74
(dp208
sg83
g193
sg76
(lp209
g69
(g70
g71
NtRp210
(dp211
g74
(dp212
g82
I5
ssg83
g206
sg76
(lp213
S'None'
p214
asbasbasbag69
(g85
g71
NtRp215
(dp216
g74
(dp217
sg83
g79
sg76
(lp218
g69
(g90
g71
NtRp219
(dp220
g74
(dp221
g94
g95
ssg83
g215
sg76
(lp222
S'client'
p223
asbag69
(g90
g71
NtRp224
(dp225
g74
(dp226
g101
g102
ssg83
g215
sg76
(lp227
S':'
asbag69
(g90
g71
NtRp228
(dp229
g74
(dp230
sg83
g215
sg76
(lp231
g69
(g70
g71
NtRp232
(dp233
g74
(dp234
g82
I5
ssg83
g228
sg76
(lp235
S'127.0.0.1'
p236
asbasbasbag69
(g85
g71
NtRp237
(dp238
g74
(dp239
sg83
g79
sg76
(lp240
g69
(g90
g71
NtRp241
(dp242
g74
(dp243
g94
g95
ssg83
g237
sg76
(lp244
S'controller'
p245
asbag69
(g90
g71
NtRp246
(dp247
g74
(dp248
g101
g102
ssg83
g237
sg76
(lp249
S':'
asbag69
(g90
g71
NtRp250
(dp251
g74
(dp252
sg83
g237
sg76
(lp253
g69
(g70
g71
NtRp254
(dp255
g74
(dp256
g82
I5
ssg83
g250
sg76
(lp257
S'default'
p258
asbasbasbag69
(g85
g71
NtRp259
(dp260
g74
(dp261
sg83
g79
sg76
(lp262
g69
(g90
g71
NtRp263
(dp264
g74
(dp265
g94
g95
ssg83
g259
sg76
(lp266
S'cookies'
p267
asbag69
(g90
g71
NtRp268
(dp269
g74
(dp270
g101
g102
ssg83
g259
sg76
(lp271
S':'
asbag69
(g90
g71
NtRp272
(dp273
g74
(dp274
sg83
g259
sg76
(lp275
g69
(g70
g71
NtRp276
(dp277
g74
(dp278
g82
I5
ssg83
g272
sg76
(lp279
g69
(g78
g71
NtRp280
(dp281
g74
(dp282
g82
I4
ssg83
Nsg76
(lp283
g69
(g85
g71
NtRp284
(dp285
g74
(dp286
sg83
g280
sg76
(lp287
g69
(g90
g71
NtRp288
(dp289
g74
(dp290
g94
g95
ssg83
g284
sg76
(lp291
S'session_id_admin'
p292
asbag69
(g90
g71
NtRp293
(dp294
g74
(dp295
g101
g102
ssg83
g284
sg76
(lp296
S':'
asbag69
(g90
g71
NtRp297
(dp298
g74
(dp299
sg83
g284
sg76
(lp300
g69
(g70
g71
NtRp301
(dp302
g74
(dp303
g82
I4
ssg83
g297
sg76
(lp304
S'127.0.0.1-41c36d9d-031a-44e8-8102-234630b26a7b'
p305
ag69
(g78
g71
NtRp306
(dp307
g74
(dp308
g82
I3
ssg83
Nsg76
(lp309
g69
(g85
g71
NtRp310
(dp311
g74
(dp312
sg83
g306
sg76
(lp313
g69
(g90
g71
NtRp314
(dp315
g74
(dp316
g94
g95
ssg83
g310
sg76
(lp317
S'comment'
p318
asbag69
(g90
g71
NtRp319
(dp320
g74
(dp321
g101
g102
ssg83
g310
sg76
(lp322
S':'
asbag69
(g90
g71
NtRp323
(dp324
g74
(dp325
sg83
g310
sg76
(lp326
g69
(g70
g71
NtRp327
(dp328
g74
(dp329
g82
I3
ssg83
g323
sg76
(lp330
S''
asbasbasbag69
(g85
g71
NtRp331
(dp332
g74
(dp333
sg83
g306
sg76
(lp334
g69
(g90
g71
NtRp335
(dp336
g74
(dp337
g94
g95
ssg83
g331
sg76
(lp338
S'domain'
p339
asbag69
(g90
g71
NtRp340
(dp341
g74
(dp342
g101
g102
ssg83
g331
sg76
(lp343
S':'
asbag69
(g90
g71
NtRp344
(dp345
g74
(dp346
sg83
g331
sg76
(lp347
g69
(g70
g71
NtRp348
(dp349
g74
(dp350
g82
I3
ssg83
g344
sg76
(lp351
S''
asbasbasbag69
(g85
g71
NtRp352
(dp353
g74
(dp354
sg83
g306
sg76
(lp355
g69
(g90
g71
NtRp356
(dp357
g74
(dp358
g94
g95
ssg83
g352
sg76
(lp359
S'expires'
p360
asbag69
(g90
g71
NtRp361
(dp362
g74
(dp363
g101
g102
ssg83
g352
sg76
(lp364
S':'
asbag69
(g90
g71
NtRp365
(dp366
g74
(dp367
sg83
g352
sg76
(lp368
g69
(g70
g71
NtRp369
(dp370
g74
(dp371
g82
I3
ssg83
g365
sg76
(lp372
S''
asbasbasbag69
(g85
g71
NtRp373
(dp374
g74
(dp375
sg83
g306
sg76
(lp376
g69
(g90
g71
NtRp377
(dp378
g74
(dp379
g94
g95
ssg83
g373
sg76
(lp380
S'httponly'
p381
asbag69
(g90
g71
NtRp382
(dp383
g74
(dp384
g101
g102
ssg83
g373
sg76
(lp385
S':'
asbag69
(g90
g71
NtRp386
(dp387
g74
(dp388
sg83
g373
sg76
(lp389
g69
(g70
g71
NtRp390
(dp391
g74
(dp392
g82
I3
ssg83
g386
sg76
(lp393
S''
asbasbasbag69
(g85
g71
NtRp394
(dp395
g74
(dp396
sg83
g306
sg76
(lp397
g69
(g90
g71
NtRp398
(dp399
g74
(dp400
g94
g95
ssg83
g394
sg76
(lp401
S'max-age'
p402
asbag69
(g90
g71
NtRp403
(dp404
g74
(dp405
g101
g102
ssg83
g394
sg76
(lp406
S':'
asbag69
(g90
g71
NtRp407
(dp408
g74
(dp409
sg83
g394
sg76
(lp410
g69
(g70
g71
NtRp411
(dp412
g74
(dp413
g82
I3
ssg83
g407
sg76
(lp414
S''
asbasbasbag69
(g85
g71
NtRp415
(dp416
g74
(dp417
sg83
g306
sg76
(lp418
g69
(g90
g71
NtRp419
(dp420
g74
(dp421
g94
g95
ssg83
g415
sg76
(lp422
S'path'
p423
asbag69
(g90
g71
NtRp424
(dp425
g74
(dp426
g101
g102
ssg83
g415
sg76
(lp427
S':'
asbag69
(g90
g71
NtRp428
(dp429
g74
(dp430
sg83
g415
sg76
(lp431
g69
(g70
g71
NtRp432
(dp433
g74
(dp434
g82
I3
ssg83
g428
sg76
(lp435
S''
asbasbasbag69
(g85
g71
NtRp436
(dp437
g74
(dp438
sg83
g306
sg76
(lp439
g69
(g90
g71
NtRp440
(dp441
g74
(dp442
g94
g95
ssg83
g436
sg76
(lp443
S'secure'
p444
asbag69
(g90
g71
NtRp445
(dp446
g74
(dp447
g101
g102
ssg83
g436
sg76
(lp448
S':'
asbag69
(g90
g71
NtRp449
(dp450
g74
(dp451
sg83
g436
sg76
(lp452
g69
(g70
g71
NtRp453
(dp454
g74
(dp455
g82
I3
ssg83
g449
sg76
(lp456
S''
asbasbasbag69
(g85
g71
NtRp457
(dp458
g74
(dp459
sg83
g306
sg76
(lp460
g69
(g90
g71
NtRp461
(dp462
g74
(dp463
g94
g95
ssg83
g457
sg76
(lp464
S'version'
p465
asbag69
(g90
g71
NtRp466
(dp467
g74
(dp468
g101
g102
ssg83
g457
sg76
(lp469
S':'
asbag69
(g90
g71
NtRp470
(dp471
g74
(dp472
sg83
g457
sg76
(lp473
g69
(g70
g71
NtRp474
(dp475
g74
(dp476
g82
I3
ssg83
g470
sg76
(lp477
S''
asbasbasbasbasbasbasbag69
(g85
g71
NtRp478
(dp479
g74
(dp480
sg83
g280
sg76
(lp481
g69
(g90
g71
NtRp482
(dp483
g74
(dp484
g94
g95
ssg83
g478
sg76
(lp485
S'session_id_assignmen3'
p486
asbag69
(g90
g71
NtRp487
(dp488
g74
(dp489
g101
g102
ssg83
g478
sg76
(lp490
S':'
asbag69
(g90
g71
NtRp491
(dp492
g74
(dp493
sg83
g478
sg76
(lp494
g69
(g70
g71
NtRp495
(dp496
g74
(dp497
g82
I4
ssg83
g491
sg76
(lp498
S'127.0.0.1-280551a1-c43a-433e-9359-4399b67c1e4b'
p499
ag69
(g78
g71
NtRp500
(dp501
g74
(dp502
g82
I3
ssg83
Nsg76
(lp503
g69
(g85
g71
NtRp504
(dp505
g74
(dp506
sg83
g500
sg76
(lp507
g69
(g90
g71
NtRp508
(dp509
g74
(dp510
g94
g95
ssg83
g504
sg76
(lp511
g318
asbag69
(g90
g71
NtRp512
(dp513
g74
(dp514
g101
g102
ssg83
g504
sg76
(lp515
S':'
asbag69
(g90
g71
NtRp516
(dp517
g74
(dp518
sg83
g504
sg76
(lp519
g69
(g70
g71
NtRp520
(dp521
g74
(dp522
g82
I3
ssg83
g516
sg76
(lp523
S''
asbasbasbag69
(g85
g71
NtRp524
(dp525
g74
(dp526
sg83
g500
sg76
(lp527
g69
(g90
g71
NtRp528
(dp529
g74
(dp530
g94
g95
ssg83
g524
sg76
(lp531
g339
asbag69
(g90
g71
NtRp532
(dp533
g74
(dp534
g101
g102
ssg83
g524
sg76
(lp535
S':'
asbag69
(g90
g71
NtRp536
(dp537
g74
(dp538
sg83
g524
sg76
(lp539
g69
(g70
g71
NtRp540
(dp541
g74
(dp542
g82
I3
ssg83
g536
sg76
(lp543
S''
asbasbasbag69
(g85
g71
NtRp544
(dp545
g74
(dp546
sg83
g500
sg76
(lp547
g69
(g90
g71
NtRp548
(dp549
g74
(dp550
g94
g95
ssg83
g544
sg76
(lp551
g360
asbag69
(g90
g71
NtRp552
(dp553
g74
(dp554
g101
g102
ssg83
g544
sg76
(lp555
S':'
asbag69
(g90
g71
NtRp556
(dp557
g74
(dp558
sg83
g544
sg76
(lp559
g69
(g70
g71
NtRp560
(dp561
g74
(dp562
g82
I3
ssg83
g556
sg76
(lp563
S''
asbasbasbag69
(g85
g71
NtRp564
(dp565
g74
(dp566
sg83
g500
sg76
(lp567
g69
(g90
g71
NtRp568
(dp569
g74
(dp570
g94
g95
ssg83
g564
sg76
(lp571
g381
asbag69
(g90
g71
NtRp572
(dp573
g74
(dp574
g101
g102
ssg83
g564
sg76
(lp575
S':'
asbag69
(g90
g71
NtRp576
(dp577
g74
(dp578
sg83
g564
sg76
(lp579
g69
(g70
g71
NtRp580
(dp581
g74
(dp582
g82
I3
ssg83
g576
sg76
(lp583
S''
asbasbasbag69
(g85
g71
NtRp584
(dp585
g74
(dp586
sg83
g500
sg76
(lp587
g69
(g90
g71
NtRp588
(dp589
g74
(dp590
g94
g95
ssg83
g584
sg76
(lp591
g402
asbag69
(g90
g71
NtRp592
(dp593
g74
(dp594
g101
g102
ssg83
g584
sg76
(lp595
S':'
asbag69
(g90
g71
NtRp596
(dp597
g74
(dp598
sg83
g584
sg76
(lp599
g69
(g70
g71
NtRp600
(dp601
g74
(dp602
g82
I3
ssg83
g596
sg76
(lp603
S''
asbasbasbag69
(g85
g71
NtRp604
(dp605
g74
(dp606
sg83
g500
sg76
(lp607
g69
(g90
g71
NtRp608
(dp609
g74
(dp610
g94
g95
ssg83
g604
sg76
(lp611
g423
asbag69
(g90
g71
NtRp612
(dp613
g74
(dp614
g101
g102
ssg83
g604
sg76
(lp615
S':'
asbag69
(g90
g71
NtRp616
(dp617
g74
(dp618
sg83
g604
sg76
(lp619
g69
(g70
g71
NtRp620
(dp621
g74
(dp622
g82
I3
ssg83
g616
sg76
(lp623
S''
asbasbasbag69
(g85
g71
NtRp624
(dp625
g74
(dp626
sg83
g500
sg76
(lp627
g69
(g90
g71
NtRp628
(dp629
g74
(dp630
g94
g95
ssg83
g624
sg76
(lp631
g444
asbag69
(g90
g71
NtRp632
(dp633
g74
(dp634
g101
g102
ssg83
g624
sg76
(lp635
S':'
asbag69
(g90
g71
NtRp636
(dp637
g74
(dp638
sg83
g624
sg76
(lp639
g69
(g70
g71
NtRp640
(dp641
g74
(dp642
g82
I3
ssg83
g636
sg76
(lp643
S''
asbasbasbag69
(g85
g71
NtRp644
(dp645
g74
(dp646
sg83
g500
sg76
(lp647
g69
(g90
g71
NtRp648
(dp649
g74
(dp650
g94
g95
ssg83
g644
sg76
(lp651
g465
asbag69
(g90
g71
NtRp652
(dp653
g74
(dp654
g101
g102
ssg83
g644
sg76
(lp655
S':'
asbag69
(g90
g71
NtRp656
(dp657
g74
(dp658
sg83
g644
sg76
(lp659
g69
(g70
g71
NtRp660
(dp661
g74
(dp662
g82
I3
ssg83
g656
sg76
(lp663
S''
asbasbasbasbasbasbasbag69
(g85
g71
NtRp664
(dp665
g74
(dp666
sg83
g280
sg76
(lp667
g69
(g90
g71
NtRp668
(dp669
g74
(dp670
g94
g95
ssg83
g664
sg76
(lp671
S'session_id_welcome'
p672
asbag69
(g90
g71
NtRp673
(dp674
g74
(dp675
g101
g102
ssg83
g664
sg76
(lp676
S':'
asbag69
(g90
g71
NtRp677
(dp678
g74
(dp679
sg83
g664
sg76
(lp680
g69
(g70
g71
NtRp681
(dp682
g74
(dp683
g82
I4
ssg83
g677
sg76
(lp684
S'127.0.0.1-1dbe701a-e138-4363-9780-6c3aff01f428'
p685
ag69
(g78
g71
NtRp686
(dp687
g74
(dp688
g82
I3
ssg83
Nsg76
(lp689
g69
(g85
g71
NtRp690
(dp691
g74
(dp692
sg83
g686
sg76
(lp693
g69
(g90
g71
NtRp694
(dp695
g74
(dp696
g94
g95
ssg83
g690
sg76
(lp697
g318
asbag69
(g90
g71
NtRp698
(dp699
g74
(dp700
g101
g102
ssg83
g690
sg76
(lp701
S':'
asbag69
(g90
g71
NtRp702
(dp703
g74
(dp704
sg83
g690
sg76
(lp705
g69
(g70
g71
NtRp706
(dp707
g74
(dp708
g82
I3
ssg83
g702
sg76
(lp709
S''
asbasbasbag69
(g85
g71
NtRp710
(dp711
g74
(dp712
sg83
g686
sg76
(lp713
g69
(g90
g71
NtRp714
(dp715
g74
(dp716
g94
g95
ssg83
g710
sg76
(lp717
g339
asbag69
(g90
g71
NtRp718
(dp719
g74
(dp720
g101
g102
ssg83
g710
sg76
(lp721
S':'
asbag69
(g90
g71
NtRp722
(dp723
g74
(dp724
sg83
g710
sg76
(lp725
g69
(g70
g71
NtRp726
(dp727
g74
(dp728
g82
I3
ssg83
g722
sg76
(lp729
S''
asbasbasbag69
(g85
g71
NtRp730
(dp731
g74
(dp732
sg83
g686
sg76
(lp733
g69
(g90
g71
NtRp734
(dp735
g74
(dp736
g94
g95
ssg83
g730
sg76
(lp737
g360
asbag69
(g90
g71
NtRp738
(dp739
g74
(dp740
g101
g102
ssg83
g730
sg76
(lp741
S':'
asbag69
(g90
g71
NtRp742
(dp743
g74
(dp744
sg83
g730
sg76
(lp745
g69
(g70
g71
NtRp746
(dp747
g74
(dp748
g82
I3
ssg83
g742
sg76
(lp749
S''
asbasbasbag69
(g85
g71
NtRp750
(dp751
g74
(dp752
sg83
g686
sg76
(lp753
g69
(g90
g71
NtRp754
(dp755
g74
(dp756
g94
g95
ssg83
g750
sg76
(lp757
g381
asbag69
(g90
g71
NtRp758
(dp759
g74
(dp760
g101
g102
ssg83
g750
sg76
(lp761
S':'
asbag69
(g90
g71
NtRp762
(dp763
g74
(dp764
sg83
g750
sg76
(lp765
g69
(g70
g71
NtRp766
(dp767
g74
(dp768
g82
I3
ssg83
g762
sg76
(lp769
S''
asbasbasbag69
(g85
g71
NtRp770
(dp771
g74
(dp772
sg83
g686
sg76
(lp773
g69
(g90
g71
NtRp774
(dp775
g74
(dp776
g94
g95
ssg83
g770
sg76
(lp777
g402
asbag69
(g90
g71
NtRp778
(dp779
g74
(dp780
g101
g102
ssg83
g770
sg76
(lp781
S':'
asbag69
(g90
g71
NtRp782
(dp783
g74
(dp784
sg83
g770
sg76
(lp785
g69
(g70
g71
NtRp786
(dp787
g74
(dp788
g82
I3
ssg83
g782
sg76
(lp789
S''
asbasbasbag69
(g85
g71
NtRp790
(dp791
g74
(dp792
sg83
g686
sg76
(lp793
g69
(g90
g71
NtRp794
(dp795
g74
(dp796
g94
g95
ssg83
g790
sg76
(lp797
g423
asbag69
(g90
g71
NtRp798
(dp799
g74
(dp800
g101
g102
ssg83
g790
sg76
(lp801
S':'
asbag69
(g90
g71
NtRp802
(dp803
g74
(dp804
sg83
g790
sg76
(lp805
g69
(g70
g71
NtRp806
(dp807
g74
(dp808
g82
I3
ssg83
g802
sg76
(lp809
S''
asbasbasbag69
(g85
g71
NtRp810
(dp811
g74
(dp812
sg83
g686
sg76
(lp813
g69
(g90
g71
NtRp814
(dp815
g74
(dp816
g94
g95
ssg83
g810
sg76
(lp817
g444
asbag69
(g90
g71
NtRp818
(dp819
g74
(dp820
g101
g102
ssg83
g810
sg76
(lp821
S':'
asbag69
(g90
g71
NtRp822
(dp823
g74
(dp824
sg83
g810
sg76
(lp825
g69
(g70
g71
NtRp826
(dp827
g74
(dp828
g82
I3
ssg83
g822
sg76
(lp829
S''
asbasbasbag69
(g85
g71
NtRp830
(dp831
g74
(dp832
sg83
g686
sg76
(lp833
g69
(g90
g71
NtRp834
(dp835
g74
(dp836
g94
g95
ssg83
g830
sg76
(lp837
g465
asbag69
(g90
g71
NtRp838
(dp839
g74
(dp840
g101
g102
ssg83
g830
sg76
(lp841
S':'
asbag69
(g90
g71
NtRp842
(dp843
g74
(dp844
sg83
g830
sg76
(lp845
g69
(g70
g71
NtRp846
(dp847
g74
(dp848
g82
I3
ssg83
g842
sg76
(lp849
S''
asbasbasbasbasbasbasbasbasbasbasbag69
(g85
g71
NtRp850
(dp851
g74
(dp852
sg83
g79
sg76
(lp853
g69
(g90
g71
NtRp854
(dp855
g74
(dp856
g94
g95
ssg83
g850
sg76
(lp857
S'env'
p858
asbag69
(g90
g71
NtRp859
(dp860
g74
(dp861
g101
g102
ssg83
g850
sg76
(lp862
S':'
asbag69
(g90
g71
NtRp863
(dp864
g74
(dp865
sg83
g850
sg76
(lp866
g69
(g70
g71
NtRp867
(dp868
g74
(dp869
g82
I5
ssg83
g863
sg76
(lp870
g69
(g78
g71
NtRp871
(dp872
g74
(dp873
g82
I4
ssg83
Nsg76
(lp874
g69
(g85
g71
NtRp875
(dp876
g74
(dp877
sg83
g871
sg76
(lp878
g69
(g90
g71
NtRp879
(dp880
g74
(dp881
g94
g95
ssg83
g875
sg76
(lp882
S'app_folders'
p883
asbag69
(g90
g71
NtRp884
(dp885
g74
(dp886
g101
g102
ssg83
g875
sg76
(lp887
S':'
asbag69
(g90
g71
NtRp888
(dp889
g74
(dp890
sg83
g875
sg76
(lp891
g69
(g70
g71
NtRp892
(dp893
g74
(dp894
g82
I4
ssg83
g888
sg76
(lp895
S"set(['/home/umang/web2py/applications/admin/', '/home/umang/web2py/applications/assignmen3/', '/home/umang/web2py/applications/welcome/'])"
p896
asbasbasbag69
(g85
g71
NtRp897
(dp898
g74
(dp899
sg83
g871
sg76
(lp900
g69
(g90
g71
NtRp901
(dp902
g74
(dp903
g94
g95
ssg83
g897
sg76
(lp904
S'applications_parent'
p905
asbag69
(g90
g71
NtRp906
(dp907
g74
(dp908
g101
g102
ssg83
g897
sg76
(lp909
S':'
asbag69
(g90
g71
NtRp910
(dp911
g74
(dp912
sg83
g897
sg76
(lp913
g69
(g70
g71
NtRp914
(dp915
g74
(dp916
g82
I4
ssg83
g910
sg76
(lp917
S'/home/umang/web2py'
p918
asbasbasbag69
(g85
g71
NtRp919
(dp920
g74
(dp921
sg83
g871
sg76
(lp922
g69
(g90
g71
NtRp923
(dp924
g74
(dp925
g94
g95
ssg83
g919
sg76
(lp926
S'cmd_args'
p927
asbag69
(g90
g71
NtRp928
(dp929
g74
(dp930
g101
g102
ssg83
g919
sg76
(lp931
S':'
asbag69
(g90
g71
NtRp932
(dp933
g74
(dp934
sg83
g919
sg76
(lp935
g69
(g70
g71
NtRp936
(dp937
g74
(dp938
g82
I4
ssg83
g932
sg76
(lp939
g69
(g78
g71
NtRp940
(dp941
g74
(dp942
g82
I3
ssg83
Nsg76
(lp943
sbasbasbasbag69
(g85
g71
NtRp944
(dp945
g74
(dp946
sg83
g871
sg76
(lp947
g69
(g90
g71
NtRp948
(dp949
g74
(dp950
g94
g95
ssg83
g944
sg76
(lp951
S'cmd_options'
p952
asbag69
(g90
g71
NtRp953
(dp954
g74
(dp955
g101
g102
ssg83
g944
sg76
(lp956
S':'
asbag69
(g90
g71
NtRp957
(dp958
g74
(dp959
sg83
g944
sg76
(lp960
g69
(g70
g71
NtRp961
(dp962
g74
(dp963
g82
I4
ssg83
g957
sg76
(lp964
S"<Values at 0x199b200: {'verbose': False, 'ip': '127.0.0.1', 'with_scheduler': False, 'ips': [], 'shutdown_timeout': 5, 'taskbar': False, 'port': 8000, 'maxthreads': None, 'softcron': False, 'server_name': 'umang-HP-Pavilion-g6-Notebook-PC', 'bpython': False, 'nogui': False, 'pid_filename': 'httpserver.pid', 'extcron': False, 'runcron': False, 'run_system_tests': False, 'test': None, 'folder': '/home/umang/web2py', 'config': '', 'minthreads': None, 'winservice': '', 'shell': None, 'run': '', 'log_filename': 'httpserver.log', 'debuglevel': 30, 'args': [''], 'socket_timeout': 5, 'ssl_ca_certificate': None, 'scheduler': None, 'profiler_filename': None, 'ssl_private_key': '', 'scheduler_groups': None, 'password': '<ask>', 'request_queue_size': 5, 'ssl_certificate': '', 'cronjob': False, 'numthreads': None, 'quiet': False, 'interfaces': None, 'import_models': False, 'timeout': 10, 'plain': False, 'nobanner': False}>"
p965
asbasbasbag69
(g85
g71
NtRp966
(dp967
g74
(dp968
sg83
g871
sg76
(lp969
g69
(g90
g71
NtRp970
(dp971
g74
(dp972
g94
g95
ssg83
g966
sg76
(lp973
S'db_sessions'
p974
asbag69
(g90
g71
NtRp975
(dp976
g74
(dp977
g101
g102
ssg83
g966
sg76
(lp978
S':'
asbag69
(g90
g71
NtRp979
(dp980
g74
(dp981
sg83
g966
sg76
(lp982
g69
(g70
g71
NtRp983
(dp984
g74
(dp985
g82
I4
ssg83
g979
sg76
(lp986
S'set([])'
p987
asbasbasbag69
(g85
g71
NtRp988
(dp989
g74
(dp990
sg83
g871
sg76
(lp991
g69
(g90
g71
NtRp992
(dp993
g74
(dp994
g94
g95
ssg83
g988
sg76
(lp995
S'debugging'
p996
asbag69
(g90
g71
NtRp997
(dp998
g74
(dp999
g101
g102
ssg83
g988
sg76
(lp1000
S':'
asbag69
(g90
g71
NtRp1001
(dp1002
g74
(dp1003
sg83
g988
sg76
(lp1004
g69
(g70
g71
NtRp1005
(dp1006
g74
(dp1007
g82
I4
ssg83
g1001
sg76
(lp1008
g112
asbasbasbag69
(g85
g71
NtRp1009
(dp1010
g74
(dp1011
sg83
g871
sg76
(lp1012
g69
(g90
g71
NtRp1013
(dp1014
g74
(dp1015
g94
g95
ssg83
g1009
sg76
(lp1016
S'gluon_parent'
p1017
asbag69
(g90
g71
NtRp1018
(dp1019
g74
(dp1020
g101
g102
ssg83
g1009
sg76
(lp1021
S':'
asbag69
(g90
g71
NtRp1022
(dp1023
g74
(dp1024
sg83
g1009
sg76
(lp1025
g69
(g70
g71
NtRp1026
(dp1027
g74
(dp1028
g82
I4
ssg83
g1022
sg76
(lp1029
S'/home/umang/web2py'
p1030
asbasbasbag69
(g85
g71
NtRp1031
(dp1032
g74
(dp1033
sg83
g871
sg76
(lp1034
g69
(g90
g71
NtRp1035
(dp1036
g74
(dp1037
g94
g95
ssg83
g1031
sg76
(lp1038
S'http_accept'
p1039
asbag69
(g90
g71
NtRp1040
(dp1041
g74
(dp1042
g101
g102
ssg83
g1031
sg76
(lp1043
S':'
asbag69
(g90
g71
NtRp1044
(dp1045
g74
(dp1046
sg83
g1031
sg76
(lp1047
g69
(g70
g71
NtRp1048
(dp1049
g74
(dp1050
g82
I4
ssg83
g1044
sg76
(lp1051
S'text/html,application/xhtml+xml,application/xml;q=0.9,*/*;q=0.8'
p1052
asbasbasbag69
(g85
g71
NtRp1053
(dp1054
g74
(dp1055
sg83
g871
sg76
(lp1056
g69
(g90
g71
NtRp1057
(dp1058
g74
(dp1059
g94
g95
ssg83
g1053
sg76
(lp1060
S'http_accept_encoding'
p1061
asbag69
(g90
g71
NtRp1062
(dp1063
g74
(dp1064
g101
g102
ssg83
g1053
sg76
(lp1065
S':'
asbag69
(g90
g71
NtRp1066
(dp1067
g74
(dp1068
sg83
g1053
sg76
(lp1069
g69
(g70
g71
NtRp1070
(dp1071
g74
(dp1072
g82
I4
ssg83
g1066
sg76
(lp1073
S'gzip, deflate'
p1074
asbasbasbag69
(g85
g71
NtRp1075
(dp1076
g74
(dp1077
sg83
g871
sg76
(lp1078
g69
(g90
g71
NtRp1079
(dp1080
g74
(dp1081
g94
g95
ssg83
g1075
sg76
(lp1082
S'http_accept_language'
p1083
asbag69
(g90
g71
NtRp1084
(dp1085
g74
(dp1086
g101
g102
ssg83
g1075
sg76
(lp1087
S':'
asbag69
(g90
g71
NtRp1088
(dp1089
g74
(dp1090
sg83
g1075
sg76
(lp1091
g69
(g70
g71
NtRp1092
(dp1093
g74
(dp1094
g82
I4
ssg83
g1088
sg76
(lp1095
S'en-us,en;q=0.5'
p1096
asbasbasbag69
(g85
g71
NtRp1097
(dp1098
g74
(dp1099
sg83
g871
sg76
(lp1100
g69
(g90
g71
NtRp1101
(dp1102
g74
(dp1103
g94
g95
ssg83
g1097
sg76
(lp1104
S'http_cache_control'
p1105
asbag69
(g90
g71
NtRp1106
(dp1107
g74
(dp1108
g101
g102
ssg83
g1097
sg76
(lp1109
S':'
asbag69
(g90
g71
NtRp1110
(dp1111
g74
(dp1112
sg83
g1097
sg76
(lp1113
g69
(g70
g71
NtRp1114
(dp1115
g74
(dp1116
g82
I4
ssg83
g1110
sg76
(lp1117
S'max-age=0'
p1118
asbasbasbag69
(g85
g71
NtRp1119
(dp1120
g74
(dp1121
sg83
g871
sg76
(lp1122
g69
(g90
g71
NtRp1123
(dp1124
g74
(dp1125
g94
g95
ssg83
g1119
sg76
(lp1126
S'http_connection'
p1127
asbag69
(g90
g71
NtRp1128
(dp1129
g74
(dp1130
g101
g102
ssg83
g1119
sg76
(lp1131
S':'
asbag69
(g90
g71
NtRp1132
(dp1133
g74
(dp1134
sg83
g1119
sg76
(lp1135
g69
(g70
g71
NtRp1136
(dp1137
g74
(dp1138
g82
I4
ssg83
g1132
sg76
(lp1139
S'keep-alive'
p1140
asbasbasbag69
(g85
g71
NtRp1141
(dp1142
g74
(dp1143
sg83
g871
sg76
(lp1144
g69
(g90
g71
NtRp1145
(dp1146
g74
(dp1147
g94
g95
ssg83
g1141
sg76
(lp1148
S'http_cookie'
p1149
asbag69
(g90
g71
NtRp1150
(dp1151
g74
(dp1152
g101
g102
ssg83
g1141
sg76
(lp1153
S':'
asbag69
(g90
g71
NtRp1154
(dp1155
g74
(dp1156
sg83
g1141
sg76
(lp1157
g69
(g70
g71
NtRp1158
(dp1159
g74
(dp1160
g82
I4
ssg83
g1154
sg76
(lp1161
S'session_id_welcome=127.0.0.1-1dbe701a-e138-4363-9780-6c3aff01f428; session_id_admin=127.0.0.1-41c36d9d-031a-44e8-8102-234630b26a7b; session_id_assignmen3=127.0.0.1-280551a1-c43a-433e-9359-4399b67c1e4b'
p1162
asbasbasbag69
(g85
g71
NtRp1163
(dp1164
g74
(dp1165
sg83
g871
sg76
(lp1166
g69
(g90
g71
NtRp1167
(dp1168
g74
(dp1169
g94
g95
ssg83
g1163
sg76
(lp1170
S'http_host'
p1171
asbag69
(g90
g71
NtRp1172
(dp1173
g74
(dp1174
g101
g102
ssg83
g1163
sg76
(lp1175
S':'
asbag69
(g90
g71
NtRp1176
(dp1177
g74
(dp1178
sg83
g1163
sg76
(lp1179
g69
(g70
g71
NtRp1180
(dp1181
g74
(dp1182
g82
I4
ssg83
g1176
sg76
(lp1183
S'127.0.0.1:8000'
p1184
asbasbasbag69
(g85
g71
NtRp1185
(dp1186
g74
(dp1187
sg83
g871
sg76
(lp1188
g69
(g90
g71
NtRp1189
(dp1190
g74
(dp1191
g94
g95
ssg83
g1185
sg76
(lp1192
S'http_referer'
p1193
asbag69
(g90
g71
NtRp1194
(dp1195
g74
(dp1196
g101
g102
ssg83
g1185
sg76
(lp1197
S':'
asbag69
(g90
g71
NtRp1198
(dp1199
g74
(dp1200
sg83
g1185
sg76
(lp1201
g69
(g70
g71
NtRp1202
(dp1203
g74
(dp1204
g82
I4
ssg83
g1198
sg76
(lp1205
S'http://127.0.0.1:8000/assignmen3/default/first_page/2'
p1206
asbasbasbag69
(g85
g71
NtRp1207
(dp1208
g74
(dp1209
sg83
g871
sg76
(lp1210
g69
(g90
g71
NtRp1211
(dp1212
g74
(dp1213
g94
g95
ssg83
g1207
sg76
(lp1214
S'http_user_agent'
p1215
asbag69
(g90
g71
NtRp1216
(dp1217
g74
(dp1218
g101
g102
ssg83
g1207
sg76
(lp1219
S':'
asbag69
(g90
g71
NtRp1220
(dp1221
g74
(dp1222
sg83
g1207
sg76
(lp1223
g69
(g70
g71
NtRp1224
(dp1225
g74
(dp1226
g82
I4
ssg83
g1220
sg76
(lp1227
S'Mozilla/5.0 (X11; Ubuntu; Linux x86_64; rv:11.0) Gecko/20100101 Firefox/11.0'
p1228
asbasbasbag69
(g85
g71
NtRp1229
(dp1230
g74
(dp1231
sg83
g871
sg76
(lp1232
g69
(g90
g71
NtRp1233
(dp1234
g74
(dp1235
g94
g95
ssg83
g1229
sg76
(lp1236
S'is_jython'
p1237
asbag69
(g90
g71
NtRp1238
(dp1239
g74
(dp1240
g101
g102
ssg83
g1229
sg76
(lp1241
S':'
asbag69
(g90
g71
NtRp1242
(dp1243
g74
(dp1244
sg83
g1229
sg76
(lp1245
g69
(g70
g71
NtRp1246
(dp1247
g74
(dp1248
g82
I4
ssg83
g1242
sg76
(lp1249
g112
asbasbasbag69
(g85
g71
NtRp1250
(dp1251
g74
(dp1252
sg83
g871
sg76
(lp1253
g69
(g90
g71
NtRp1254
(dp1255
g74
(dp1256
g94
g95
ssg83
g1250
sg76
(lp1257
S'is_pypy'
p1258
asbag69
(g90
g71
NtRp1259
(dp1260
g74
(dp1261
g101
g102
ssg83
g1250
sg76
(lp1262
S':'
asbag69
(g90
g71
NtRp1263
(dp1264
g74
(dp1265
sg83
g1250
sg76
(lp1266
g69
(g70
g71
NtRp1267
(dp1268
g74
(dp1269
g82
I4
ssg83
g1263
sg76
(lp1270
g112
asbasbasbag69
(g85
g71
NtRp1271
(dp1272
g74
(dp1273
sg83
g871
sg76
(lp1274
g69
(g90
g71
NtRp1275
(dp1276
g74
(dp1277
g94
g95
ssg83
g1271
sg76
(lp1278
S'local_hosts'
p1279
asbag69
(g90
g71
NtRp1280
(dp1281
g74
(dp1282
g101
g102
ssg83
g1271
sg76
(lp1283
S':'
asbag69
(g90
g71
NtRp1284
(dp1285
g74
(dp1286
sg83
g1271
sg76
(lp1287
g69
(g70
g71
NtRp1288
(dp1289
g74
(dp1290
g82
I4
ssg83
g1284
sg76
(lp1291
g69
(g78
g71
NtRp1292
(dp1293
g74
(dp1294
g82
I3
ssg83
Nsg76
(lp1295
g69
(g85
g71
NtRp1296
(dp1297
g74
(dp1298
sg83
g1292
sg76
(lp1299
g69
(g90
g71
NtRp1300
(dp1301
g74
(dp1302
sg83
g1296
sg76
(lp1303
g69
(g70
g71
NtRp1304
(dp1305
g74
(dp1306
g82
I3
ssg83
g1300
sg76
(lp1307
S'::1'
p1308
asbasbasbag69
(g85
g71
NtRp1309
(dp1310
g74
(dp1311
sg83
g1292
sg76
(lp1312
g69
(g90
g71
NtRp1313
(dp1314
g74
(dp1315
sg83
g1309
sg76
(lp1316
g69
(g70
g71
NtRp1317
(dp1318
g74
(dp1319
g82
I3
ssg83
g1313
sg76
(lp1320
S'127.0.1.1'
p1321
asbasbasbag69
(g85
g71
NtRp1322
(dp1323
g74
(dp1324
sg83
g1292
sg76
(lp1325
g69
(g90
g71
NtRp1326
(dp1327
g74
(dp1328
sg83
g1322
sg76
(lp1329
g69
(g70
g71
NtRp1330
(dp1331
g74
(dp1332
g82
I3
ssg83
g1326
sg76
(lp1333
S'::ffff:127.0.0.1'
p1334
asbasbasbag69
(g85
g71
NtRp1335
(dp1336
g74
(dp1337
sg83
g1292
sg76
(lp1338
g69
(g90
g71
NtRp1339
(dp1340
g74
(dp1341
sg83
g1335
sg76
(lp1342
g69
(g70
g71
NtRp1343
(dp1344
g74
(dp1345
g82
I3
ssg83
g1339
sg76
(lp1346
S'127.0.0.1'
p1347
asbasbasbag69
(g85
g71
NtRp1348
(dp1349
g74
(dp1350
sg83
g1292
sg76
(lp1351
g69
(g90
g71
NtRp1352
(dp1353
g74
(dp1354
sg83
g1348
sg76
(lp1355
g69
(g70
g71
NtRp1356
(dp1357
g74
(dp1358
g82
I3
ssg83
g1352
sg76
(lp1359
S'umang-HP-Pavilion-g6-Notebook-PC'
p1360
asbasbasbasbasbasbasbag69
(g85
g71
NtRp1361
(dp1362
g74
(dp1363
sg83
g871
sg76
(lp1364
g69
(g90
g71
NtRp1365
(dp1366
g74
(dp1367
g94
g95
ssg83
g1361
sg76
(lp1368
S'path_info'
p1369
asbag69
(g90
g71
NtRp1370
(dp1371
g74
(dp1372
g101
g102
ssg83
g1361
sg76
(lp1373
S':'
asbag69
(g90
g71
NtRp1374
(dp1375
g74
(dp1376
sg83
g1361
sg76
(lp1377
g69
(g70
g71
NtRp1378
(dp1379
g74
(dp1380
g82
I4
ssg83
g1374
sg76
(lp1381
S'/assignmen3/default/login_admin/2'
p1382
asbasbasbag69
(g85
g71
NtRp1383
(dp1384
g74
(dp1385
sg83
g871
sg76
(lp1386
g69
(g90
g71
NtRp1387
(dp1388
g74
(dp1389
g94
g95
ssg83
g1383
sg76
(lp1390
S'query_string'
p1391
asbag69
(g90
g71
NtRp1392
(dp1393
g74
(dp1394
g101
g102
ssg83
g1383
sg76
(lp1395
S':'
asbag69
(g90
g71
NtRp1396
(dp1397
g74
(dp1398
sg83
g1383
sg76
(lp1399
g69
(g70
g71
NtRp1400
(dp1401
g74
(dp1402
g82
I4
ssg83
g1396
sg76
(lp1403
S''
asbasbasbag69
(g85
g71
NtRp1404
(dp1405
g74
(dp1406
sg83
g871
sg76
(lp1407
g69
(g90
g71
NtRp1408
(dp1409
g74
(dp1410
g94
g95
ssg83
g1404
sg76
(lp1411
S'remote_addr'
p1412
asbag69
(g90
g71
NtRp1413
(dp1414
g74
(dp1415
g101
g102
ssg83
g1404
sg76
(lp1416
S':'
asbag69
(g90
g71
NtRp1417
(dp1418
g74
(dp1419
sg83
g1404
sg76
(lp1420
g69
(g70
g71
NtRp1421
(dp1422
g74
(dp1423
g82
I4
ssg83
g1417
sg76
(lp1424
g236
asbasbasbag69
(g85
g71
NtRp1425
(dp1426
g74
(dp1427
sg83
g871
sg76
(lp1428
g69
(g90
g71
NtRp1429
(dp1430
g74
(dp1431
g94
g95
ssg83
g1425
sg76
(lp1432
S'remote_port'
p1433
asbag69
(g90
g71
NtRp1434
(dp1435
g74
(dp1436
g101
g102
ssg83
g1425
sg76
(lp1437
S':'
asbag69
(g90
g71
NtRp1438
(dp1439
g74
(dp1440
sg83
g1425
sg76
(lp1441
g69
(g70
g71
NtRp1442
(dp1443
g74
(dp1444
g82
I4
ssg83
g1438
sg76
(lp1445
S'58731'
p1446
asbasbasbag69
(g85
g71
NtRp1447
(dp1448
g74
(dp1449
sg83
g871
sg76
(lp1450
g69
(g90
g71
NtRp1451
(dp1452
g74
(dp1453
g94
g95
ssg83
g1447
sg76
(lp1454
S'request_method'
p1455
asbag69
(g90
g71
NtRp1456
(dp1457
g74
(dp1458
g101
g102
ssg83
g1447
sg76
(lp1459
S':'
asbag69
(g90
g71
NtRp1460
(dp1461
g74
(dp1462
sg83
g1447
sg76
(lp1463
g69
(g70
g71
NtRp1464
(dp1465
g74
(dp1466
g82
I4
ssg83
g1460
sg76
(lp1467
S'GET'
p1468
asbasbasbag69
(g85
g71
NtRp1469
(dp1470
g74
(dp1471
sg83
g871
sg76
(lp1472
g69
(g90
g71
NtRp1473
(dp1474
g74
(dp1475
g94
g95
ssg83
g1469
sg76
(lp1476
S'request_uri'
p1477
asbag69
(g90
g71
NtRp1478
(dp1479
g74
(dp1480
g101
g102
ssg83
g1469
sg76
(lp1481
S':'
asbag69
(g90
g71
NtRp1482
(dp1483
g74
(dp1484
sg83
g1469
sg76
(lp1485
g69
(g70
g71
NtRp1486
(dp1487
g74
(dp1488
g82
I4
ssg83
g1482
sg76
(lp1489
g1382
asbasbasbag69
(g85
g71
NtRp1490
(dp1491
g74
(dp1492
sg83
g871
sg76
(lp1493
g69
(g90
g71
NtRp1494
(dp1495
g74
(dp1496
g94
g95
ssg83
g1490
sg76
(lp1497
S'script_name'
p1498
asbag69
(g90
g71
NtRp1499
(dp1500
g74
(dp1501
g101
g102
ssg83
g1490
sg76
(lp1502
S':'
asbag69
(g90
g71
NtRp1503
(dp1504
g74
(dp1505
sg83
g1490
sg76
(lp1506
g69
(g70
g71
NtRp1507
(dp1508
g74
(dp1509
g82
I4
ssg83
g1503
sg76
(lp1510
S''
asbasbasbag69
(g85
g71
NtRp1511
(dp1512
g74
(dp1513
sg83
g871
sg76
(lp1514
g69
(g90
g71
NtRp1515
(dp1516
g74
(dp1517
g94
g95
ssg83
g1511
sg76
(lp1518
S'server_name'
p1519
asbag69
(g90
g71
NtRp1520
(dp1521
g74
(dp1522
g101
g102
ssg83
g1511
sg76
(lp1523
S':'
asbag69
(g90
g71
NtRp1524
(dp1525
g74
(dp1526
sg83
g1511
sg76
(lp1527
g69
(g70
g71
NtRp1528
(dp1529
g74
(dp1530
g82
I4
ssg83
g1524
sg76
(lp1531
S'umang-HP-Pavilion-g6-Notebook-PC'
p1532
asbasbasbag69
(g85
g71
NtRp1533
(dp1534
g74
(dp1535
sg83
g871
sg76
(lp1536
g69
(g90
g71
NtRp1537
(dp1538
g74
(dp1539
g94
g95
ssg83
g1533
sg76
(lp1540
S'server_port'
p1541
asbag69
(g90
g71
NtRp1542
(dp1543
g74
(dp1544
g101
g102
ssg83
g1533
sg76
(lp1545
S':'
asbag69
(g90
g71
NtRp1546
(dp1547
g74
(dp1548
sg83
g1533
sg76
(lp1549
g69
(g70
g71
NtRp1550
(dp1551
g74
(dp1552
g82
I4
ssg83
g1546
sg76
(lp1553
S'8000'
p1554
asbasbasbag69
(g85
g71
NtRp1555
(dp1556
g74
(dp1557
sg83
g871
sg76
(lp1558
g69
(g90
g71
NtRp1559
(dp1560
g74
(dp1561
g94
g95
ssg83
g1555
sg76
(lp1562
S'server_protocol'
p1563
asbag69
(g90
g71
NtRp1564
(dp1565
g74
(dp1566
g101
g102
ssg83
g1555
sg76
(lp1567
S':'
asbag69
(g90
g71
NtRp1568
(dp1569
g74
(dp1570
sg83
g1555
sg76
(lp1571
g69
(g70
g71
NtRp1572
(dp1573
g74
(dp1574
g82
I4
ssg83
g1568
sg76
(lp1575
S'HTTP/1.1'
p1576
asbasbasbag69
(g85
g71
NtRp1577
(dp1578
g74
(dp1579
sg83
g871
sg76
(lp1580
g69
(g90
g71
NtRp1581
(dp1582
g74
(dp1583
g94
g95
ssg83
g1577
sg76
(lp1584
S'server_software'
p1585
asbag69
(g90
g71
NtRp1586
(dp1587
g74
(dp1588
g101
g102
ssg83
g1577
sg76
(lp1589
S':'
asbag69
(g90
g71
NtRp1590
(dp1591
g74
(dp1592
sg83
g1577
sg76
(lp1593
g69
(g70
g71
NtRp1594
(dp1595
g74
(dp1596
g82
I4
ssg83
g1590
sg76
(lp1597
S'Rocket 1.2.6'
p1598
asbasbasbag69
(g85
g71
NtRp1599
(dp1600
g74
(dp1601
sg83
g871
sg76
(lp1602
g69
(g90
g71
NtRp1603
(dp1604
g74
(dp1605
g94
g95
ssg83
g1599
sg76
(lp1606
S'web2py_path'
p1607
asbag69
(g90
g71
NtRp1608
(dp1609
g74
(dp1610
g101
g102
ssg83
g1599
sg76
(lp1611
S':'
asbag69
(g90
g71
NtRp1612
(dp1613
g74
(dp1614
sg83
g1599
sg76
(lp1615
g69
(g70
g71
NtRp1616
(dp1617
g74
(dp1618
g82
I4
ssg83
g1612
sg76
(lp1619
g918
asbasbasbag69
(g85
g71
NtRp1620
(dp1621
g74
(dp1622
sg83
g871
sg76
(lp1623
g69
(g90
g71
NtRp1624
(dp1625
g74
(dp1626
g94
g95
ssg83
g1620
sg76
(lp1627
S'web2py_version'
p1628
asbag69
(g90
g71
NtRp1629
(dp1630
g74
(dp1631
g101
g102
ssg83
g1620
sg76
(lp1632
S':'
asbag69
(g90
g71
NtRp1633
(dp1634
g74
(dp1635
sg83
g1620
sg76
(lp1636
g69
(g70
g71
NtRp1637
(dp1638
g74
(dp1639
g82
I4
ssg83
g1633
sg76
(lp1640
g69
(g78
g71
NtRp1641
(dp1642
g74
(dp1643
g82
I3
ssg83
Nsg76
(lp1644
g69
(g85
g71
NtRp1645
(dp1646
g74
(dp1647
sg83
g1641
sg76
(lp1648
g69
(g90
g71
NtRp1649
(dp1650
g74
(dp1651
sg83
g1645
sg76
(lp1652
g69
(g70
g71
NtRp1653
(dp1654
g74
(dp1655
g82
I3
ssg83
g1649
sg76
(lp1656
S'2'
asbasbasbag69
(g85
g71
NtRp1657
(dp1658
g74
(dp1659
sg83
g1641
sg76
(lp1660
g69
(g90
g71
NtRp1661
(dp1662
g74
(dp1663
sg83
g1657
sg76
(lp1664
g69
(g70
g71
NtRp1665
(dp1666
g74
(dp1667
g82
I3
ssg83
g1661
sg76
(lp1668
S'3'
asbasbasbag69
(g85
g71
NtRp1669
(dp1670
g74
(dp1671
sg83
g1641
sg76
(lp1672
g69
(g90
g71
NtRp1673
(dp1674
g74
(dp1675
sg83
g1669
sg76
(lp1676
g69
(g70
g71
NtRp1677
(dp1678
g74
(dp1679
g82
I3
ssg83
g1673
sg76
(lp1680
S'2'
asbasbasbag69
(g85
g71
NtRp1681
(dp1682
g74
(dp1683
sg83
g1641
sg76
(lp1684
g69
(g90
g71
NtRp1685
(dp1686
g74
(dp1687
sg83
g1681
sg76
(lp1688
g69
(g70
g71
NtRp1689
(dp1690
g74
(dp1691
g82
I3
ssg83
g1685
sg76
(lp1692
S'datetime.datetime(2012, 12, 17, 15, 3, 30)'
p1693
asbasbasbag69
(g85
g71
NtRp1694
(dp1695
g74
(dp1696
sg83
g1641
sg76
(lp1697
g69
(g90
g71
NtRp1698
(dp1699
g74
(dp1700
sg83
g1694
sg76
(lp1701
g69
(g70
g71
NtRp1702
(dp1703
g74
(dp1704
g82
I3
ssg83
g1698
sg76
(lp1705
S'stable'
p1706
asbasbasbasbasbasbasbag69
(g85
g71
NtRp1707
(dp1708
g74
(dp1709
sg83
g871
sg76
(lp1710
g69
(g90
g71
NtRp1711
(dp1712
g74
(dp1713
g94
g95
ssg83
g1707
sg76
(lp1714
S'wsgi_errors'
p1715
asbag69
(g90
g71
NtRp1716
(dp1717
g74
(dp1718
g101
g102
ssg83
g1707
sg76
(lp1719
S':'
asbag69
(g90
g71
NtRp1720
(dp1721
g74
(dp1722
sg83
g1707
sg76
(lp1723
g69
(g70
g71
NtRp1724
(dp1725
g74
(dp1726
g82
I4
ssg83
g1720
sg76
(lp1727
S"<open file '<stderr>', mode 'w' at 0x7fe333a04270>"
p1728
asbasbasbag69
(g85
g71
NtRp1729
(dp1730
g74
(dp1731
sg83
g871
sg76
(lp1732
g69
(g90
g71
NtRp1733
(dp1734
g74
(dp1735
g94
g95
ssg83
g1729
sg76
(lp1736
S'wsgi_file_wrapper'
p1737
asbag69
(g90
g71
NtRp1738
(dp1739
g74
(dp1740
g101
g102
ssg83
g1729
sg76
(lp1741
S':'
asbag69
(g90
g71
NtRp1742
(dp1743
g74
(dp1744
sg83
g1729
sg76
(lp1745
g69
(g70
g71
NtRp1746
(dp1747
g74
(dp1748
g82
I4
ssg83
g1742
sg76
(lp1749
S'<class wsgiref.util.FileWrapper at 0x1904b48>'
p1750
asbasbasbag69
(g85
g71
NtRp1751
(dp1752
g74
(dp1753
sg83
g871
sg76
(lp1754
g69
(g90
g71
NtRp1755
(dp1756
g74
(dp1757
g94
g95
ssg83
g1751
sg76
(lp1758
S'wsgi_input'
p1759
asbag69
(g90
g71
NtRp1760
(dp1761
g74
(dp1762
g101
g102
ssg83
g1751
sg76
(lp1763
S':'
asbag69
(g90
g71
NtRp1764
(dp1765
g74
(dp1766
sg83
g1751
sg76
(lp1767
g69
(g70
g71
NtRp1768
(dp1769
g74
(dp1770
g82
I4
ssg83
g1764
sg76
(lp1771
S'<socket._fileobject object at 0x7fe3201ed650>'
p1772
asbasbasbag69
(g85
g71
NtRp1773
(dp1774
g74
(dp1775
sg83
g871
sg76
(lp1776
g69
(g90
g71
NtRp1777
(dp1778
g74
(dp1779
g94
g95
ssg83
g1773
sg76
(lp1780
S'wsgi_multiprocess'
p1781
asbag69
(g90
g71
NtRp1782
(dp1783
g74
(dp1784
g101
g102
ssg83
g1773
sg76
(lp1785
S':'
asbag69
(g90
g71
NtRp1786
(dp1787
g74
(dp1788
sg83
g1773
sg76
(lp1789
g69
(g70
g71
NtRp1790
(dp1791
g74
(dp1792
g82
I4
ssg83
g1786
sg76
(lp1793
g112
asbasbasbag69
(g85
g71
NtRp1794
(dp1795
g74
(dp1796
sg83
g871
sg76
(lp1797
g69
(g90
g71
NtRp1798
(dp1799
g74
(dp1800
g94
g95
ssg83
g1794
sg76
(lp1801
S'wsgi_multithread'
p1802
asbag69
(g90
g71
NtRp1803
(dp1804
g74
(dp1805
g101
g102
ssg83
g1794
sg76
(lp1806
S':'
asbag69
(g90
g71
NtRp1807
(dp1808
g74
(dp1809
sg83
g1794
sg76
(lp1810
g69
(g70
g71
NtRp1811
(dp1812
g74
(dp1813
g82
I4
ssg83
g1807
sg76
(lp1814
S'True'
p1815
asbasbasbag69
(g85
g71
NtRp1816
(dp1817
g74
(dp1818
sg83
g871
sg76
(lp1819
g69
(g90
g71
NtRp1820
(dp1821
g74
(dp1822
g94
g95
ssg83
g1816
sg76
(lp1823
S'wsgi_run_once'
p1824
asbag69
(g90
g71
NtRp1825
(dp1826
g74
(dp1827
g101
g102
ssg83
g1816
sg76
(lp1828
S':'
asbag69
(g90
g71
NtRp1829
(dp1830
g74
(dp1831
sg83
g1816
sg76
(lp1832
g69
(g70
g71
NtRp1833
(dp1834
g74
(dp1835
g82
I4
ssg83
g1829
sg76
(lp1836
g112
asbasbasbag69
(g85
g71
NtRp1837
(dp1838
g74
(dp1839
sg83
g871
sg76
(lp1840
g69
(g90
g71
NtRp1841
(dp1842
g74
(dp1843
g94
g95
ssg83
g1837
sg76
(lp1844
S'wsgi_url_scheme'
p1845
asbag69
(g90
g71
NtRp1846
(dp1847
g74
(dp1848
g101
g102
ssg83
g1837
sg76
(lp1849
S':'
asbag69
(g90
g71
NtRp1850
(dp1851
g74
(dp1852
sg83
g1837
sg76
(lp1853
g69
(g70
g71
NtRp1854
(dp1855
g74
(dp1856
g82
I4
ssg83
g1850
sg76
(lp1857
S'http'
p1858
asbasbasbag69
(g85
g71
NtRp1859
(dp1860
g74
(dp1861
sg83
g871
sg76
(lp1862
g69
(g90
g71
NtRp1863
(dp1864
g74
(dp1865
g94
g95
ssg83
g1859
sg76
(lp1866
S'wsgi_version'
p1867
asbag69
(g90
g71
NtRp1868
(dp1869
g74
(dp1870
g101
g102
ssg83
g1859
sg76
(lp1871
S':'
asbag69
(g90
g71
NtRp1872
(dp1873
g74
(dp1874
sg83
g1859
sg76
(lp1875
g69
(g70
g71
NtRp1876
(dp1877
g74
(dp1878
g82
I4
ssg83
g1872
sg76
(lp1879
g69
(g78
g71
NtRp1880
(dp1881
g74
(dp1882
g82
I3
ssg83
Nsg76
(lp1883
g69
(g85
g71
NtRp1884
(dp1885
g74
(dp1886
sg83
g1880
sg76
(lp1887
g69
(g90
g71
NtRp1888
(dp1889
g74
(dp1890
sg83
g1884
sg76
(lp1891
g69
(g70
g71
NtRp1892
(dp1893
g74
(dp1894
g82
I3
ssg83
g1888
sg76
(lp1895
S'1'
asbasbasbag69
(g85
g71
NtRp1896
(dp1897
g74
(dp1898
sg83
g1880
sg76
(lp1899
g69
(g90
g71
NtRp1900
(dp1901
g74
(dp1902
sg83
g1896
sg76
(lp1903
g69
(g70
g71
NtRp1904
(dp1905
g74
(dp1906
g82
I3
ssg83
g1900
sg76
(lp1907
S'0'
asbasbasbasbasbasbasbasbasbasbasbag69
(g85
g71
NtRp1908
(dp1909
g74
(dp1910
sg83
g79
sg76
(lp1911
g69
(g90
g71
NtRp1912
(dp1913
g74
(dp1914
g94
g95
ssg83
g1908
sg76
(lp1915
S'extension'
p1916
asbag69
(g90
g71
NtRp1917
(dp1918
g74
(dp1919
g101
g102
ssg83
g1908
sg76
(lp1920
S':'
asbag69
(g90
g71
NtRp1921
(dp1922
g74
(dp1923
sg83
g1908
sg76
(lp1924
g69
(g70
g71
NtRp1925
(dp1926
g74
(dp1927
g82
I5
ssg83
g1921
sg76
(lp1928
S'html'
p1929
asbasbasbag69
(g85
g71
NtRp1930
(dp1931
g74
(dp1932
sg83
g79
sg76
(lp1933
g69
(g90
g71
NtRp1934
(dp1935
g74
(dp1936
g94
g95
ssg83
g1930
sg76
(lp1937
S'folder'
p1938
asbag69
(g90
g71
NtRp1939
(dp1940
g74
(dp1941
g101
g102
ssg83
g1930
sg76
(lp1942
S':'
asbag69
(g90
g71
NtRp1943
(dp1944
g74
(dp1945
sg83
g1930
sg76
(lp1946
g69
(g70
g71
NtRp1947
(dp1948
g74
(dp1949
g82
I5
ssg83
g1943
sg76
(lp1950
S'/home/umang/web2py/applications/assignmen3/'
p1951
asbasbasbag69
(g85
g71
NtRp1952
(dp1953
g74
(dp1954
sg83
g79
sg76
(lp1955
g69
(g90
g71
NtRp1956
(dp1957
g74
(dp1958
g94
g95
ssg83
g1952
sg76
(lp1959
S'function'
p1960
asbag69
(g90
g71
NtRp1961
(dp1962
g74
(dp1963
g101
g102
ssg83
g1952
sg76
(lp1964
S':'
asbag69
(g90
g71
NtRp1965
(dp1966
g74
(dp1967
sg83
g1952
sg76
(lp1968
g69
(g70
g71
NtRp1969
(dp1970
g74
(dp1971
g82
I5
ssg83
g1965
sg76
(lp1972
S'login_admin'
p1973
asbasbasbag69
(g85
g71
NtRp1974
(dp1975
g74
(dp1976
sg83
g79
sg76
(lp1977
g69
(g90
g71
NtRp1978
(dp1979
g74
(dp1980
g94
g95
ssg83
g1974
sg76
(lp1981
S'get_vars'
p1982
asbag69
(g90
g71
NtRp1983
(dp1984
g74
(dp1985
g101
g102
ssg83
g1974
sg76
(lp1986
S':'
asbag69
(g90
g71
NtRp1987
(dp1988
g74
(dp1989
sg83
g1974
sg76
(lp1990
g69
(g70
g71
NtRp1991
(dp1992
g74
(dp1993
g82
I5
ssg83
g1987
sg76
(lp1994
g69
(g78
g71
NtRp1995
(dp1996
g74
(dp1997
g82
I4
ssg83
Nsg76
(lp1998
sbasbasbasbag69
(g85
g71
NtRp1999
(dp2000
g74
(dp2001
sg83
g79
sg76
(lp2002
g69
(g90
g71
NtRp2003
(dp2004
g74
(dp2005
g94
g95
ssg83
g1999
sg76
(lp2006
S'global_settings'
p2007
asbag69
(g90
g71
NtRp2008
(dp2009
g74
(dp2010
g101
g102
ssg83
g1999
sg76
(lp2011
S':'
asbag69
(g90
g71
NtRp2012
(dp2013
g74
(dp2014
sg83
g1999
sg76
(lp2015
g69
(g70
g71
NtRp2016
(dp2017
g74
(dp2018
g82
I5
ssg83
g2012
sg76
(lp2019
g69
(g78
g71
NtRp2020
(dp2021
g74
(dp2022
g82
I4
ssg83
Nsg76
(lp2023
g69
(g85
g71
NtRp2024
(dp2025
g74
(dp2026
sg83
g2020
sg76
(lp2027
g69
(g90
g71
NtRp2028
(dp2029
g74
(dp2030
g94
g95
ssg83
g2024
sg76
(lp2031
g883
asbag69
(g90
g71
NtRp2032
(dp2033
g74
(dp2034
g101
g102
ssg83
g2024
sg76
(lp2035
S':'
asbag69
(g90
g71
NtRp2036
(dp2037
g74
(dp2038
sg83
g2024
sg76
(lp2039
g69
(g70
g71
NtRp2040
(dp2041
g74
(dp2042
g82
I4
ssg83
g2036
sg76
(lp2043
S"set(['/home/umang/web2py/applications/admin/', '/home/umang/web2py/applications/assignmen3/', '/home/umang/web2py/applications/welcome/'])"
p2044
asbasbasbag69
(g85
g71
NtRp2045
(dp2046
g74
(dp2047
sg83
g2020
sg76
(lp2048
g69
(g90
g71
NtRp2049
(dp2050
g74
(dp2051
g94
g95
ssg83
g2045
sg76
(lp2052
g905
asbag69
(g90
g71
NtRp2053
(dp2054
g74
(dp2055
g101
g102
ssg83
g2045
sg76
(lp2056
S':'
asbag69
(g90
g71
NtRp2057
(dp2058
g74
(dp2059
sg83
g2045
sg76
(lp2060
g69
(g70
g71
NtRp2061
(dp2062
g74
(dp2063
g82
I4
ssg83
g2057
sg76
(lp2064
g918
asbasbasbag69
(g85
g71
NtRp2065
(dp2066
g74
(dp2067
sg83
g2020
sg76
(lp2068
g69
(g90
g71
NtRp2069
(dp2070
g74
(dp2071
g94
g95
ssg83
g2065
sg76
(lp2072
g927
asbag69
(g90
g71
NtRp2073
(dp2074
g74
(dp2075
g101
g102
ssg83
g2065
sg76
(lp2076
S':'
asbag69
(g90
g71
NtRp2077
(dp2078
g74
(dp2079
sg83
g2065
sg76
(lp2080
g69
(g70
g71
NtRp2081
(dp2082
g74
(dp2083
g82
I4
ssg83
g2077
sg76
(lp2084
g69
(g78
g71
NtRp2085
(dp2086
g74
(dp2087
g82
I3
ssg83
Nsg76
(lp2088
sbasbasbasbag69
(g85
g71
NtRp2089
(dp2090
g74
(dp2091
sg83
g2020
sg76
(lp2092
g69
(g90
g71
NtRp2093
(dp2094
g74
(dp2095
g94
g95
ssg83
g2089
sg76
(lp2096
g952
asbag69
(g90
g71
NtRp2097
(dp2098
g74
(dp2099
g101
g102
ssg83
g2089
sg76
(lp2100
S':'
asbag69
(g90
g71
NtRp2101
(dp2102
g74
(dp2103
sg83
g2089
sg76
(lp2104
g69
(g70
g71
NtRp2105
(dp2106
g74
(dp2107
g82
I4
ssg83
g2101
sg76
(lp2108
S"<Values at 0x199b200: {'verbose': False, 'ip': '127.0.0.1', 'with_scheduler': False, 'ips': [], 'shutdown_timeout': 5, 'taskbar': False, 'port': 8000, 'maxthreads': None, 'softcron': False, 'server_name': 'umang-HP-Pavilion-g6-Notebook-PC', 'bpython': False, 'nogui': False, 'pid_filename': 'httpserver.pid', 'extcron': False, 'runcron': False, 'run_system_tests': False, 'test': None, 'folder': '/home/umang/web2py', 'config': '', 'minthreads': None, 'winservice': '', 'shell': None, 'run': '', 'log_filename': 'httpserver.log', 'debuglevel': 30, 'args': [''], 'socket_timeout': 5, 'ssl_ca_certificate': None, 'scheduler': None, 'profiler_filename': None, 'ssl_private_key': '', 'scheduler_groups': None, 'password': '<ask>', 'request_queue_size': 5, 'ssl_certificate': '', 'cronjob': False, 'numthreads': None, 'quiet': False, 'interfaces': None, 'import_models': False, 'timeout': 10, 'plain': False, 'nobanner': False}>"
p2109
asbasbasbag69
(g85
g71
NtRp2110
(dp2111
g74
(dp2112
sg83
g2020
sg76
(lp2113
g69
(g90
g71
NtRp2114
(dp2115
g74
(dp2116
g94
g95
ssg83
g2110
sg76
(lp2117
g974
asbag69
(g90
g71
NtRp2118
(dp2119
g74
(dp2120
g101
g102
ssg83
g2110
sg76
(lp2121
S':'
asbag69
(g90
g71
NtRp2122
(dp2123
g74
(dp2124
sg83
g2110
sg76
(lp2125
g69
(g70
g71
NtRp2126
(dp2127
g74
(dp2128
g82
I4
ssg83
g2122
sg76
(lp2129
S'set([])'
p2130
asbasbasbag69
(g85
g71
NtRp2131
(dp2132
g74
(dp2133
sg83
g2020
sg76
(lp2134
g69
(g90
g71
NtRp2135
(dp2136
g74
(dp2137
g94
g95
ssg83
g2131
sg76
(lp2138
g996
asbag69
(g90
g71
NtRp2139
(dp2140
g74
(dp2141
g101
g102
ssg83
g2131
sg76
(lp2142
S':'
asbag69
(g90
g71
NtRp2143
(dp2144
g74
(dp2145
sg83
g2131
sg76
(lp2146
g69
(g70
g71
NtRp2147
(dp2148
g74
(dp2149
g82
I4
ssg83
g2143
sg76
(lp2150
g112
asbasbasbag69
(g85
g71
NtRp2151
(dp2152
g74
(dp2153
sg83
g2020
sg76
(lp2154
g69
(g90
g71
NtRp2155
(dp2156
g74
(dp2157
g94
g95
ssg83
g2151
sg76
(lp2158
g1017
asbag69
(g90
g71
NtRp2159
(dp2160
g74
(dp2161
g101
g102
ssg83
g2151
sg76
(lp2162
S':'
asbag69
(g90
g71
NtRp2163
(dp2164
g74
(dp2165
sg83
g2151
sg76
(lp2166
g69
(g70
g71
NtRp2167
(dp2168
g74
(dp2169
g82
I4
ssg83
g2163
sg76
(lp2170
g1030
asbasbasbag69
(g85
g71
NtRp2171
(dp2172
g74
(dp2173
sg83
g2020
sg76
(lp2174
g69
(g90
g71
NtRp2175
(dp2176
g74
(dp2177
g94
g95
ssg83
g2171
sg76
(lp2178
g1237
asbag69
(g90
g71
NtRp2179
(dp2180
g74
(dp2181
g101
g102
ssg83
g2171
sg76
(lp2182
S':'
asbag69
(g90
g71
NtRp2183
(dp2184
g74
(dp2185
sg83
g2171
sg76
(lp2186
g69
(g70
g71
NtRp2187
(dp2188
g74
(dp2189
g82
I4
ssg83
g2183
sg76
(lp2190
g112
asbasbasbag69
(g85
g71
NtRp2191
(dp2192
g74
(dp2193
sg83
g2020
sg76
(lp2194
g69
(g90
g71
NtRp2195
(dp2196
g74
(dp2197
g94
g95
ssg83
g2191
sg76
(lp2198
g1258
asbag69
(g90
g71
NtRp2199
(dp2200
g74
(dp2201
g101
g102
ssg83
g2191
sg76
(lp2202
S':'
asbag69
(g90
g71
NtRp2203
(dp2204
g74
(dp2205
sg83
g2191
sg76
(lp2206
g69
(g70
g71
NtRp2207
(dp2208
g74
(dp2209
g82
I4
ssg83
g2203
sg76
(lp2210
g112
asbasbasbag69
(g85
g71
NtRp2211
(dp2212
g74
(dp2213
sg83
g2020
sg76
(lp2214
g69
(g90
g71
NtRp2215
(dp2216
g74
(dp2217
g94
g95
ssg83
g2211
sg76
(lp2218
g1279
asbag69
(g90
g71
NtRp2219
(dp2220
g74
(dp2221
g101
g102
ssg83
g2211
sg76
(lp2222
S':'
asbag69
(g90
g71
NtRp2223
(dp2224
g74
(dp2225
sg83
g2211
sg76
(lp2226
g69
(g70
g71
NtRp2227
(dp2228
g74
(dp2229
g82
I4
ssg83
g2223
sg76
(lp2230
g69
(g78
g71
NtRp2231
(dp2232
g74
(dp2233
g82
I3
ssg83
Nsg76
(lp2234
g69
(g85
g71
NtRp2235
(dp2236
g74
(dp2237
sg83
g2231
sg76
(lp2238
g69
(g90
g71
NtRp2239
(dp2240
g74
(dp2241
sg83
g2235
sg76
(lp2242
g69
(g70
g71
NtRp2243
(dp2244
g74
(dp2245
g82
I3
ssg83
g2239
sg76
(lp2246
g1308
asbasbasbag69
(g85
g71
NtRp2247
(dp2248
g74
(dp2249
sg83
g2231
sg76
(lp2250
g69
(g90
g71
NtRp2251
(dp2252
g74
(dp2253
sg83
g2247
sg76
(lp2254
g69
(g70
g71
NtRp2255
(dp2256
g74
(dp2257
g82
I3
ssg83
g2251
sg76
(lp2258
g1321
asbasbasbag69
(g85
g71
NtRp2259
(dp2260
g74
(dp2261
sg83
g2231
sg76
(lp2262
g69
(g90
g71
NtRp2263
(dp2264
g74
(dp2265
sg83
g2259
sg76
(lp2266
g69
(g70
g71
NtRp2267
(dp2268
g74
(dp2269
g82
I3
ssg83
g2263
sg76
(lp2270
g1334
asbasbasbag69
(g85
g71
NtRp2271
(dp2272
g74
(dp2273
sg83
g2231
sg76
(lp2274
g69
(g90
g71
NtRp2275
(dp2276
g74
(dp2277
sg83
g2271
sg76
(lp2278
g69
(g70
g71
NtRp2279
(dp2280
g74
(dp2281
g82
I3
ssg83
g2275
sg76
(lp2282
g1347
asbasbasbag69
(g85
g71
NtRp2283
(dp2284
g74
(dp2285
sg83
g2231
sg76
(lp2286
g69
(g90
g71
NtRp2287
(dp2288
g74
(dp2289
sg83
g2283
sg76
(lp2290
g69
(g70
g71
NtRp2291
(dp2292
g74
(dp2293
g82
I3
ssg83
g2287
sg76
(lp2294
g1360
asbasbasbasbasbasbasbag69
(g85
g71
NtRp2295
(dp2296
g74
(dp2297
sg83
g2020
sg76
(lp2298
g69
(g90
g71
NtRp2299
(dp2300
g74
(dp2301
g94
g95
ssg83
g2295
sg76
(lp2302
g1628
asbag69
(g90
g71
NtRp2303
(dp2304
g74
(dp2305
g101
g102
ssg83
g2295
sg76
(lp2306
S':'
asbag69
(g90
g71
NtRp2307
(dp2308
g74
(dp2309
sg83
g2295
sg76
(lp2310
g69
(g70
g71
NtRp2311
(dp2312
g74
(dp2313
g82
I4
ssg83
g2307
sg76
(lp2314
g69
(g78
g71
NtRp2315
(dp2316
g74
(dp2317
g82
I3
ssg83
Nsg76
(lp2318
g69
(g85
g71
NtRp2319
(dp2320
g74
(dp2321
sg83
g2315
sg76
(lp2322
g69
(g90
g71
NtRp2323
(dp2324
g74
(dp2325
sg83
g2319
sg76
(lp2326
g69
(g70
g71
NtRp2327
(dp2328
g74
(dp2329
g82
I3
ssg83
g2323
sg76
(lp2330
S'2'
asbasbasbag69
(g85
g71
NtRp2331
(dp2332
g74
(dp2333
sg83
g2315
sg76
(lp2334
g69
(g90
g71
NtRp2335
(dp2336
g74
(dp2337
sg83
g2331
sg76
(lp2338
g69
(g70
g71
NtRp2339
(dp2340
g74
(dp2341
g82
I3
ssg83
g2335
sg76
(lp2342
S'3'
asbasbasbag69
(g85
g71
NtRp2343
(dp2344
g74
(dp2345
sg83
g2315
sg76
(lp2346
g69
(g90
g71
NtRp2347
(dp2348
g74
(dp2349
sg83
g2343
sg76
(lp2350
g69
(g70
g71
NtRp2351
(dp2352
g74
(dp2353
g82
I3
ssg83
g2347
sg76
(lp2354
S'2'
asbasbasbag69
(g85
g71
NtRp2355
(dp2356
g74
(dp2357
sg83
g2315
sg76
(lp2358
g69
(g90
g71
NtRp2359
(dp2360
g74
(dp2361
sg83
g2355
sg76
(lp2362
g69
(g70
g71
NtRp2363
(dp2364
g74
(dp2365
g82
I3
ssg83
g2359
sg76
(lp2366
S'datetime.datetime(2012, 12, 17, 15, 3, 30)'
p2367
asbasbasbag69
(g85
g71
NtRp2368
(dp2369
g74
(dp2370
sg83
g2315
sg76
(lp2371
g69
(g90
g71
NtRp2372
(dp2373
g74
(dp2374
sg83
g2368
sg76
(lp2375
g69
(g70
g71
NtRp2376
(dp2377
g74
(dp2378
g82
I3
ssg83
g2372
sg76
(lp2379
g1706
asbasbasbasbasbasbasbasbasbasbasbag69
(g85
g71
NtRp2380
(dp2381
g74
(dp2382
sg83
g79
sg76
(lp2383
g69
(g90
g71
NtRp2384
(dp2385
g74
(dp2386
g94
g95
ssg83
g2380
sg76
(lp2387
S'is_https'
p2388
asbag69
(g90
g71
NtRp2389
(dp2390
g74
(dp2391
g101
g102
ssg83
g2380
sg76
(lp2392
S':'
asbag69
(g90
g71
NtRp2393
(dp2394
g74
(dp2395
sg83
g2380
sg76
(lp2396
g69
(g70
g71
NtRp2397
(dp2398
g74
(dp2399
g82
I5
ssg83
g2393
sg76
(lp2400
g112
asbasbasbag69
(g85
g71
NtRp2401
(dp2402
g74
(dp2403
sg83
g79
sg76
(lp2404
g69
(g90
g71
NtRp2405
(dp2406
g74
(dp2407
g94
g95
ssg83
g2401
sg76
(lp2408
S'is_local'
p2409
asbag69
(g90
g71
NtRp2410
(dp2411
g74
(dp2412
g101
g102
ssg83
g2401
sg76
(lp2413
S':'
asbag69
(g90
g71
NtRp2414
(dp2415
g74
(dp2416
sg83
g2401
sg76
(lp2417
g69
(g70
g71
NtRp2418
(dp2419
g74
(dp2420
g82
I5
ssg83
g2414
sg76
(lp2421
g1815
asbasbasbag69
(g85
g71
NtRp2422
(dp2423
g74
(dp2424
sg83
g79
sg76
(lp2425
g69
(g90
g71
NtRp2426
(dp2427
g74
(dp2428
g94
g95
ssg83
g2422
sg76
(lp2429
S'is_restful'
p2430
asbag69
(g90
g71
NtRp2431
(dp2432
g74
(dp2433
g101
g102
ssg83
g2422
sg76
(lp2434
S':'
asbag69
(g90
g71
NtRp2435
(dp2436
g74
(dp2437
sg83
g2422
sg76
(lp2438
g69
(g70
g71
NtRp2439
(dp2440
g74
(dp2441
g82
I5
ssg83
g2435
sg76
(lp2442
g112
asbasbasbag69
(g85
g71
NtRp2443
(dp2444
g74
(dp2445
sg83
g79
sg76
(lp2446
g69
(g90
g71
NtRp2447
(dp2448
g74
(dp2449
g94
g95
ssg83
g2443
sg76
(lp2450
S'now'
p2451
asbag69
(g90
g71
NtRp2452
(dp2453
g74
(dp2454
g101
g102
ssg83
g2443
sg76
(lp2455
S':'
asbag69
(g90
g71
NtRp2456
(dp2457
g74
(dp2458
sg83
g2443
sg76
(lp2459
g69
(g70
g71
NtRp2460
(dp2461
g74
(dp2462
g82
I5
ssg83
g2456
sg76
(lp2463
S'datetime.datetime(2013, 8, 28, 23, 33, 47, 455717)'
p2464
asbasbasbag69
(g85
g71
NtRp2465
(dp2466
g74
(dp2467
sg83
g79
sg76
(lp2468
g69
(g90
g71
NtRp2469
(dp2470
g74
(dp2471
g94
g95
ssg83
g2465
sg76
(lp2472
S'post_vars'
p2473
asbag69
(g90
g71
NtRp2474
(dp2475
g74
(dp2476
g101
g102
ssg83
g2465
sg76
(lp2477
S':'
asbag69
(g90
g71
NtRp2478
(dp2479
g74
(dp2480
sg83
g2465
sg76
(lp2481
g69
(g70
g71
NtRp2482
(dp2483
g74
(dp2484
g82
I5
ssg83
g2478
sg76
(lp2485
g69
(g78
g71
NtRp2486
(dp2487
g74
(dp2488
g82
I4
ssg83
Nsg76
(lp2489
sbasbasbasbag69
(g85
g71
NtRp2490
(dp2491
g74
(dp2492
sg83
g79
sg76
(lp2493
g69
(g90
g71
NtRp2494
(dp2495
g74
(dp2496
g94
g95
ssg83
g2490
sg76
(lp2497
S'raw_args'
p2498
asbag69
(g90
g71
NtRp2499
(dp2500
g74
(dp2501
g101
g102
ssg83
g2490
sg76
(lp2502
S':'
asbag69
(g90
g71
NtRp2503
(dp2504
g74
(dp2505
sg83
g2490
sg76
(lp2506
g69
(g70
g71
NtRp2507
(dp2508
g74
(dp2509
g82
I5
ssg83
g2503
sg76
(lp2510
S'2'
asbasbasbag69
(g85
g71
NtRp2511
(dp2512
g74
(dp2513
sg83
g79
sg76
(lp2514
g69
(g90
g71
NtRp2515
(dp2516
g74
(dp2517
g94
g95
ssg83
g2511
sg76
(lp2518
S'raw_extension'
p2519
asbag69
(g90
g71
NtRp2520
(dp2521
g74
(dp2522
g101
g102
ssg83
g2511
sg76
(lp2523
S':'
asbag69
(g90
g71
NtRp2524
(dp2525
g74
(dp2526
sg83
g2511
sg76
(lp2527
g69
(g70
g71
NtRp2528
(dp2529
g74
(dp2530
g82
I5
ssg83
g2524
sg76
(lp2531
S'None'
p2532
asbasbasbag69
(g85
g71
NtRp2533
(dp2534
g74
(dp2535
sg83
g79
sg76
(lp2536
g69
(g90
g71
NtRp2537
(dp2538
g74
(dp2539
g94
g95
ssg83
g2533
sg76
(lp2540
S'url'
p2541
asbag69
(g90
g71
NtRp2542
(dp2543
g74
(dp2544
g101
g102
ssg83
g2533
sg76
(lp2545
S':'
asbag69
(g90
g71
NtRp2546
(dp2547
g74
(dp2548
sg83
g2533
sg76
(lp2549
g69
(g70
g71
NtRp2550
(dp2551
g74
(dp2552
g82
I5
ssg83
g2546
sg76
(lp2553
g1382
asbasbasbag69
(g85
g71
NtRp2554
(dp2555
g74
(dp2556
sg83
g79
sg76
(lp2557
g69
(g90
g71
NtRp2558
(dp2559
g74
(dp2560
g94
g95
ssg83
g2554
sg76
(lp2561
S'utcnow'
p2562
asbag69
(g90
g71
NtRp2563
(dp2564
g74
(dp2565
g101
g102
ssg83
g2554
sg76
(lp2566
S':'
asbag69
(g90
g71
NtRp2567
(dp2568
g74
(dp2569
sg83
g2554
sg76
(lp2570
g69
(g70
g71
NtRp2571
(dp2572
g74
(dp2573
g82
I5
ssg83
g2567
sg76
(lp2574
S'datetime.datetime(2013, 8, 28, 18, 3, 47, 455748)'
p2575
asbasbasbag69
(g85
g71
NtRp2576
(dp2577
g74
(dp2578
sg83
g79
sg76
(lp2579
g69
(g90
g71
NtRp2580
(dp2581
g74
(dp2582
g94
g95
ssg83
g2576
sg76
(lp2583
S'uuid'
p2584
asbag69
(g90
g71
NtRp2585
(dp2586
g74
(dp2587
g101
g102
ssg83
g2576
sg76
(lp2588
S':'
asbag69
(g90
g71
NtRp2589
(dp2590
g74
(dp2591
sg83
g2576
sg76
(lp2592
g69
(g70
g71
NtRp2593
(dp2594
g74
(dp2595
g82
I5
ssg83
g2589
sg76
(lp2596
S'assignmen3/127.0.0.1.2013-08-28.23-33-47.1cd80f51-ce21-4aaa-a018-ebcc6b004a56'
p2597
asbasbasbag69
(g85
g71
NtRp2598
(dp2599
g74
(dp2600
sg83
g79
sg76
(lp2601
g69
(g90
g71
NtRp2602
(dp2603
g74
(dp2604
g94
g95
ssg83
g2598
sg76
(lp2605
S'vars'
p2606
asbag69
(g90
g71
NtRp2607
(dp2608
g74
(dp2609
g101
g102
ssg83
g2598
sg76
(lp2610
S':'
asbag69
(g90
g71
NtRp2611
(dp2612
g74
(dp2613
sg83
g2598
sg76
(lp2614
g69
(g70
g71
NtRp2615
(dp2616
g74
(dp2617
g82
I5
ssg83
g2611
sg76
(lp2618
g69
(g78
g71
NtRp2619
(dp2620
g74
(dp2621
g82
I4
ssg83
Nsg76
(lp2622
sbasbasbasbag69
(g85
g71
NtRp2623
(dp2624
g74
(dp2625
sg83
g79
sg76
(lp2626
g69
(g90
g71
NtRp2627
(dp2628
g74
(dp2629
g94
g95
ssg83
g2623
sg76
(lp2630
S'wsgi'
p2631
asbag69
(g90
g71
NtRp2632
(dp2633
g74
(dp2634
g101
g102
ssg83
g2623
sg76
(lp2635
S':'
asbag69
(g90
g71
NtRp2636
(dp2637
g74
(dp2638
sg83
g2623
sg76
(lp2639
g69
(g70
g71
NtRp2640
(dp2641
g74
(dp2642
g82
I5
ssg83
g2636
sg76
(lp2643
g69
(g78
g71
NtRp2644
(dp2645
g74
(dp2646
g82
I4
ssg83
Nsg76
(lp2647
g69
(g85
g71
NtRp2648
(dp2649
g74
(dp2650
sg83
g2644
sg76
(lp2651
g69
(g90
g71
NtRp2652
(dp2653
g74
(dp2654
g94
g95
ssg83
g2648
sg76
(lp2655
S'environ'
p2656
asbag69
(g90
g71
NtRp2657
(dp2658
g74
(dp2659
g101
g102
ssg83
g2648
sg76
(lp2660
S':'
asbag69
(g90
g71
NtRp2661
(dp2662
g74
(dp2663
sg83
g2648
sg76
(lp2664
g69
(g70
g71
NtRp2665
(dp2666
g74
(dp2667
g82
I4
ssg83
g2661
sg76
(lp2668
g69
(g78
g71
NtRp2669
(dp2670
g74
(dp2671
g82
I3
ssg83
Nsg76
(lp2672
g69
(g85
g71
NtRp2673
(dp2674
g74
(dp2675
sg83
g2669
sg76
(lp2676
g69
(g90
g71
NtRp2677
(dp2678
g74
(dp2679
g94
g95
ssg83
g2673
sg76
(lp2680
S'HTTP_ACCEPT'
p2681
asbag69
(g90
g71
NtRp2682
(dp2683
g74
(dp2684
g101
g102
ssg83
g2673
sg76
(lp2685
S':'
asbag69
(g90
g71
NtRp2686
(dp2687
g74
(dp2688
sg83
g2673
sg76
(lp2689
g69
(g70
g71
NtRp2690
(dp2691
g74
(dp2692
g82
I3
ssg83
g2686
sg76
(lp2693
g1052
asbasbasbag69
(g85
g71
NtRp2694
(dp2695
g74
(dp2696
sg83
g2669
sg76
(lp2697
g69
(g90
g71
NtRp2698
(dp2699
g74
(dp2700
g94
g95
ssg83
g2694
sg76
(lp2701
S'HTTP_ACCEPT_ENCODING'
p2702
asbag69
(g90
g71
NtRp2703
(dp2704
g74
(dp2705
g101
g102
ssg83
g2694
sg76
(lp2706
S':'
asbag69
(g90
g71
NtRp2707
(dp2708
g74
(dp2709
sg83
g2694
sg76
(lp2710
g69
(g70
g71
NtRp2711
(dp2712
g74
(dp2713
g82
I3
ssg83
g2707
sg76
(lp2714
g1074
asbasbasbag69
(g85
g71
NtRp2715
(dp2716
g74
(dp2717
sg83
g2669
sg76
(lp2718
g69
(g90
g71
NtRp2719
(dp2720
g74
(dp2721
g94
g95
ssg83
g2715
sg76
(lp2722
S'HTTP_ACCEPT_LANGUAGE'
p2723
asbag69
(g90
g71
NtRp2724
(dp2725
g74
(dp2726
g101
g102
ssg83
g2715
sg76
(lp2727
S':'
asbag69
(g90
g71
NtRp2728
(dp2729
g74
(dp2730
sg83
g2715
sg76
(lp2731
g69
(g70
g71
NtRp2732
(dp2733
g74
(dp2734
g82
I3
ssg83
g2728
sg76
(lp2735
g1096
asbasbasbag69
(g85
g71
NtRp2736
(dp2737
g74
(dp2738
sg83
g2669
sg76
(lp2739
g69
(g90
g71
NtRp2740
(dp2741
g74
(dp2742
g94
g95
ssg83
g2736
sg76
(lp2743
S'HTTP_CACHE_CONTROL'
p2744
asbag69
(g90
g71
NtRp2745
(dp2746
g74
(dp2747
g101
g102
ssg83
g2736
sg76
(lp2748
S':'
asbag69
(g90
g71
NtRp2749
(dp2750
g74
(dp2751
sg83
g2736
sg76
(lp2752
g69
(g70
g71
NtRp2753
(dp2754
g74
(dp2755
g82
I3
ssg83
g2749
sg76
(lp2756
g1118
asbasbasbag69
(g85
g71
NtRp2757
(dp2758
g74
(dp2759
sg83
g2669
sg76
(lp2760
g69
(g90
g71
NtRp2761
(dp2762
g74
(dp2763
g94
g95
ssg83
g2757
sg76
(lp2764
S'HTTP_CONNECTION'
p2765
asbag69
(g90
g71
NtRp2766
(dp2767
g74
(dp2768
g101
g102
ssg83
g2757
sg76
(lp2769
S':'
asbag69
(g90
g71
NtRp2770
(dp2771
g74
(dp2772
sg83
g2757
sg76
(lp2773
g69
(g70
g71
NtRp2774
(dp2775
g74
(dp2776
g82
I3
ssg83
g2770
sg76
(lp2777
g1140
asbasbasbag69
(g85
g71
NtRp2778
(dp2779
g74
(dp2780
sg83
g2669
sg76
(lp2781
g69
(g90
g71
NtRp2782
(dp2783
g74
(dp2784
g94
g95
ssg83
g2778
sg76
(lp2785
S'HTTP_COOKIE'
p2786
asbag69
(g90
g71
NtRp2787
(dp2788
g74
(dp2789
g101
g102
ssg83
g2778
sg76
(lp2790
S':'
asbag69
(g90
g71
NtRp2791
(dp2792
g74
(dp2793
sg83
g2778
sg76
(lp2794
g69
(g70
g71
NtRp2795
(dp2796
g74
(dp2797
g82
I3
ssg83
g2791
sg76
(lp2798
g1162
asbasbasbag69
(g85
g71
NtRp2799
(dp2800
g74
(dp2801
sg83
g2669
sg76
(lp2802
g69
(g90
g71
NtRp2803
(dp2804
g74
(dp2805
g94
g95
ssg83
g2799
sg76
(lp2806
S'HTTP_HOST'
p2807
asbag69
(g90
g71
NtRp2808
(dp2809
g74
(dp2810
g101
g102
ssg83
g2799
sg76
(lp2811
S':'
asbag69
(g90
g71
NtRp2812
(dp2813
g74
(dp2814
sg83
g2799
sg76
(lp2815
g69
(g70
g71
NtRp2816
(dp2817
g74
(dp2818
g82
I3
ssg83
g2812
sg76
(lp2819
g1184
asbasbasbag69
(g85
g71
NtRp2820
(dp2821
g74
(dp2822
sg83
g2669
sg76
(lp2823
g69
(g90
g71
NtRp2824
(dp2825
g74
(dp2826
g94
g95
ssg83
g2820
sg76
(lp2827
S'HTTP_REFERER'
p2828
asbag69
(g90
g71
NtRp2829
(dp2830
g74
(dp2831
g101
g102
ssg83
g2820
sg76
(lp2832
S':'
asbag69
(g90
g71
NtRp2833
(dp2834
g74
(dp2835
sg83
g2820
sg76
(lp2836
g69
(g70
g71
NtRp2837
(dp2838
g74
(dp2839
g82
I3
ssg83
g2833
sg76
(lp2840
g1206
asbasbasbag69
(g85
g71
NtRp2841
(dp2842
g74
(dp2843
sg83
g2669
sg76
(lp2844
g69
(g90
g71
NtRp2845
(dp2846
g74
(dp2847
g94
g95
ssg83
g2841
sg76
(lp2848
S'HTTP_USER_AGENT'
p2849
asbag69
(g90
g71
NtRp2850
(dp2851
g74
(dp2852
g101
g102
ssg83
g2841
sg76
(lp2853
S':'
asbag69
(g90
g71
NtRp2854
(dp2855
g74
(dp2856
sg83
g2841
sg76
(lp2857
g69
(g70
g71
NtRp2858
(dp2859
g74
(dp2860
g82
I3
ssg83
g2854
sg76
(lp2861
g1228
asbasbasbag69
(g85
g71
NtRp2862
(dp2863
g74
(dp2864
sg83
g2669
sg76
(lp2865
g69
(g90
g71
NtRp2866
(dp2867
g74
(dp2868
g94
g95
ssg83
g2862
sg76
(lp2869
S'PATH_INFO'
p2870
asbag69
(g90
g71
NtRp2871
(dp2872
g74
(dp2873
g101
g102
ssg83
g2862
sg76
(lp2874
S':'
asbag69
(g90
g71
NtRp2875
(dp2876
g74
(dp2877
sg83
g2862
sg76
(lp2878
g69
(g70
g71
NtRp2879
(dp2880
g74
(dp2881
g82
I3
ssg83
g2875
sg76
(lp2882
g1382
asbasbasbag69
(g85
g71
NtRp2883
(dp2884
g74
(dp2885
sg83
g2669
sg76
(lp2886
g69
(g90
g71
NtRp2887
(dp2888
g74
(dp2889
g94
g95
ssg83
g2883
sg76
(lp2890
S'QUERY_STRING'
p2891
asbag69
(g90
g71
NtRp2892
(dp2893
g74
(dp2894
g101
g102
ssg83
g2883
sg76
(lp2895
S':'
asbag69
(g90
g71
NtRp2896
(dp2897
g74
(dp2898
sg83
g2883
sg76
(lp2899
g69
(g70
g71
NtRp2900
(dp2901
g74
(dp2902
g82
I3
ssg83
g2896
sg76
(lp2903
S''
asbasbasbag69
(g85
g71
NtRp2904
(dp2905
g74
(dp2906
sg83
g2669
sg76
(lp2907
g69
(g90
g71
NtRp2908
(dp2909
g74
(dp2910
g94
g95
ssg83
g2904
sg76
(lp2911
S'REMOTE_ADDR'
p2912
asbag69
(g90
g71
NtRp2913
(dp2914
g74
(dp2915
g101
g102
ssg83
g2904
sg76
(lp2916
S':'
asbag69
(g90
g71
NtRp2917
(dp2918
g74
(dp2919
sg83
g2904
sg76
(lp2920
g69
(g70
g71
NtRp2921
(dp2922
g74
(dp2923
g82
I3
ssg83
g2917
sg76
(lp2924
g236
asbasbasbag69
(g85
g71
NtRp2925
(dp2926
g74
(dp2927
sg83
g2669
sg76
(lp2928
g69
(g90
g71
NtRp2929
(dp2930
g74
(dp2931
g94
g95
ssg83
g2925
sg76
(lp2932
S'REMOTE_PORT'
p2933
asbag69
(g90
g71
NtRp2934
(dp2935
g74
(dp2936
g101
g102
ssg83
g2925
sg76
(lp2937
S':'
asbag69
(g90
g71
NtRp2938
(dp2939
g74
(dp2940
sg83
g2925
sg76
(lp2941
g69
(g70
g71
NtRp2942
(dp2943
g74
(dp2944
g82
I3
ssg83
g2938
sg76
(lp2945
g1446
asbasbasbag69
(g85
g71
NtRp2946
(dp2947
g74
(dp2948
sg83
g2669
sg76
(lp2949
g69
(g90
g71
NtRp2950
(dp2951
g74
(dp2952
g94
g95
ssg83
g2946
sg76
(lp2953
S'REQUEST_METHOD'
p2954
asbag69
(g90
g71
NtRp2955
(dp2956
g74
(dp2957
g101
g102
ssg83
g2946
sg76
(lp2958
S':'
asbag69
(g90
g71
NtRp2959
(dp2960
g74
(dp2961
sg83
g2946
sg76
(lp2962
g69
(g70
g71
NtRp2963
(dp2964
g74
(dp2965
g82
I3
ssg83
g2959
sg76
(lp2966
g1468
asbasbasbag69
(g85
g71
NtRp2967
(dp2968
g74
(dp2969
sg83
g2669
sg76
(lp2970
g69
(g90
g71
NtRp2971
(dp2972
g74
(dp2973
g94
g95
ssg83
g2967
sg76
(lp2974
S'REQUEST_URI'
p2975
asbag69
(g90
g71
NtRp2976
(dp2977
g74
(dp2978
g101
g102
ssg83
g2967
sg76
(lp2979
S':'
asbag69
(g90
g71
NtRp2980
(dp2981
g74
(dp2982
sg83
g2967
sg76
(lp2983
g69
(g70
g71
NtRp2984
(dp2985
g74
(dp2986
g82
I3
ssg83
g2980
sg76
(lp2987
g1382
asbasbasbag69
(g85
g71
NtRp2988
(dp2989
g74
(dp2990
sg83
g2669
sg76
(lp2991
g69
(g90
g71
NtRp2992
(dp2993
g74
(dp2994
g94
g95
ssg83
g2988
sg76
(lp2995
S'SCRIPT_NAME'
p2996
asbag69
(g90
g71
NtRp2997
(dp2998
g74
(dp2999
g101
g102
ssg83
g2988
sg76
(lp3000
S':'
asbag69
(g90
g71
NtRp3001
(dp3002
g74
(dp3003
sg83
g2988
sg76
(lp3004
g69
(g70
g71
NtRp3005
(dp3006
g74
(dp3007
g82
I3
ssg83
g3001
sg76
(lp3008
S''
asbasbasbag69
(g85
g71
NtRp3009
(dp3010
g74
(dp3011
sg83
g2669
sg76
(lp3012
g69
(g90
g71
NtRp3013
(dp3014
g74
(dp3015
g94
g95
ssg83
g3009
sg76
(lp3016
S'SERVER_NAME'
p3017
asbag69
(g90
g71
NtRp3018
(dp3019
g74
(dp3020
g101
g102
ssg83
g3009
sg76
(lp3021
S':'
asbag69
(g90
g71
NtRp3022
(dp3023
g74
(dp3024
sg83
g3009
sg76
(lp3025
g69
(g70
g71
NtRp3026
(dp3027
g74
(dp3028
g82
I3
ssg83
g3022
sg76
(lp3029
g1532
asbasbasbag69
(g85
g71
NtRp3030
(dp3031
g74
(dp3032
sg83
g2669
sg76
(lp3033
g69
(g90
g71
NtRp3034
(dp3035
g74
(dp3036
g94
g95
ssg83
g3030
sg76
(lp3037
S'SERVER_PORT'
p3038
asbag69
(g90
g71
NtRp3039
(dp3040
g74
(dp3041
g101
g102
ssg83
g3030
sg76
(lp3042
S':'
asbag69
(g90
g71
NtRp3043
(dp3044
g74
(dp3045
sg83
g3030
sg76
(lp3046
g69
(g70
g71
NtRp3047
(dp3048
g74
(dp3049
g82
I3
ssg83
g3043
sg76
(lp3050
g1554
asbasbasbag69
(g85
g71
NtRp3051
(dp3052
g74
(dp3053
sg83
g2669
sg76
(lp3054
g69
(g90
g71
NtRp3055
(dp3056
g74
(dp3057
g94
g95
ssg83
g3051
sg76
(lp3058
S'SERVER_PROTOCOL'
p3059
asbag69
(g90
g71
NtRp3060
(dp3061
g74
(dp3062
g101
g102
ssg83
g3051
sg76
(lp3063
S':'
asbag69
(g90
g71
NtRp3064
(dp3065
g74
(dp3066
sg83
g3051
sg76
(lp3067
g69
(g70
g71
NtRp3068
(dp3069
g74
(dp3070
g82
I3
ssg83
g3064
sg76
(lp3071
g1576
asbasbasbag69
(g85
g71
NtRp3072
(dp3073
g74
(dp3074
sg83
g2669
sg76
(lp3075
g69
(g90
g71
NtRp3076
(dp3077
g74
(dp3078
g94
g95
ssg83
g3072
sg76
(lp3079
S'SERVER_SOFTWARE'
p3080
asbag69
(g90
g71
NtRp3081
(dp3082
g74
(dp3083
g101
g102
ssg83
g3072
sg76
(lp3084
S':'
asbag69
(g90
g71
NtRp3085
(dp3086
g74
(dp3087
sg83
g3072
sg76
(lp3088
g69
(g70
g71
NtRp3089
(dp3090
g74
(dp3091
g82
I3
ssg83
g3085
sg76
(lp3092
g1598
asbasbasbag69
(g85
g71
NtRp3093
(dp3094
g74
(dp3095
sg83
g2669
sg76
(lp3096
g69
(g90
g71
NtRp3097
(dp3098
g74
(dp3099
g94
g95
ssg83
g3093
sg76
(lp3100
S'wsgi.errors'
p3101
asbag69
(g90
g71
NtRp3102
(dp3103
g74
(dp3104
g101
g102
ssg83
g3093
sg76
(lp3105
S':'
asbag69
(g90
g71
NtRp3106
(dp3107
g74
(dp3108
sg83
g3093
sg76
(lp3109
g69
(g70
g71
NtRp3110
(dp3111
g74
(dp3112
g82
I3
ssg83
g3106
sg76
(lp3113
S"<open file '<stderr>', mode 'w' at 0x7fe333a04270>"
p3114
asbasbasbag69
(g85
g71
NtRp3115
(dp3116
g74
(dp3117
sg83
g2669
sg76
(lp3118
g69
(g90
g71
NtRp3119
(dp3120
g74
(dp3121
g94
g95
ssg83
g3115
sg76
(lp3122
S'wsgi.file_wrapper'
p3123
asbag69
(g90
g71
NtRp3124
(dp3125
g74
(dp3126
g101
g102
ssg83
g3115
sg76
(lp3127
S':'
asbag69
(g90
g71
NtRp3128
(dp3129
g74
(dp3130
sg83
g3115
sg76
(lp3131
g69
(g70
g71
NtRp3132
(dp3133
g74
(dp3134
g82
I3
ssg83
g3128
sg76
(lp3135
S'<class wsgiref.util.FileWrapper at 0x1904b48>'
p3136
asbasbasbag69
(g85
g71
NtRp3137
(dp3138
g74
(dp3139
sg83
g2669
sg76
(lp3140
g69
(g90
g71
NtRp3141
(dp3142
g74
(dp3143
g94
g95
ssg83
g3137
sg76
(lp3144
S'wsgi.input'
p3145
asbag69
(g90
g71
NtRp3146
(dp3147
g74
(dp3148
g101
g102
ssg83
g3137
sg76
(lp3149
S':'
asbag69
(g90
g71
NtRp3150
(dp3151
g74
(dp3152
sg83
g3137
sg76
(lp3153
g69
(g70
g71
NtRp3154
(dp3155
g74
(dp3156
g82
I3
ssg83
g3150
sg76
(lp3157
S'<cStringIO.StringO object at 0x7fe314515df8>'
p3158
asbasbasbag69
(g85
g71
NtRp3159
(dp3160
g74
(dp3161
sg83
g2669
sg76
(lp3162
g69
(g90
g71
NtRp3163
(dp3164
g74
(dp3165
g94
g95
ssg83
g3159
sg76
(lp3166
S'wsgi.multiprocess'
p3167
asbag69
(g90
g71
NtRp3168
(dp3169
g74
(dp3170
g101
g102
ssg83
g3159
sg76
(lp3171
S':'
asbag69
(g90
g71
NtRp3172
(dp3173
g74
(dp3174
sg83
g3159
sg76
(lp3175
g69
(g70
g71
NtRp3176
(dp3177
g74
(dp3178
g82
I3
ssg83
g3172
sg76
(lp3179
g112
asbasbasbag69
(g85
g71
NtRp3180
(dp3181
g74
(dp3182
sg83
g2669
sg76
(lp3183
g69
(g90
g71
NtRp3184
(dp3185
g74
(dp3186
g94
g95
ssg83
g3180
sg76
(lp3187
S'wsgi.multithread'
p3188
asbag69
(g90
g71
NtRp3189
(dp3190
g74
(dp3191
g101
g102
ssg83
g3180
sg76
(lp3192
S':'
asbag69
(g90
g71
NtRp3193
(dp3194
g74
(dp3195
sg83
g3180
sg76
(lp3196
g69
(g70
g71
NtRp3197
(dp3198
g74
(dp3199
g82
I3
ssg83
g3193
sg76
(lp3200
g1815
asbasbasbag69
(g85
g71
NtRp3201
(dp3202
g74
(dp3203
sg83
g2669
sg76
(lp3204
g69
(g90
g71
NtRp3205
(dp3206
g74
(dp3207
g94
g95
ssg83
g3201
sg76
(lp3208
S'wsgi.run_once'
p3209
asbag69
(g90
g71
NtRp3210
(dp3211
g74
(dp3212
g101
g102
ssg83
g3201
sg76
(lp3213
S':'
asbag69
(g90
g71
NtRp3214
(dp3215
g74
(dp3216
sg83
g3201
sg76
(lp3217
g69
(g70
g71
NtRp3218
(dp3219
g74
(dp3220
g82
I3
ssg83
g3214
sg76
(lp3221
g112
asbasbasbag69
(g85
g71
NtRp3222
(dp3223
g74
(dp3224
sg83
g2669
sg76
(lp3225
g69
(g90
g71
NtRp3226
(dp3227
g74
(dp3228
g94
g95
ssg83
g3222
sg76
(lp3229
S'wsgi.url_scheme'
p3230
asbag69
(g90
g71
NtRp3231
(dp3232
g74
(dp3233
g101
g102
ssg83
g3222
sg76
(lp3234
S':'
asbag69
(g90
g71
NtRp3235
(dp3236
g74
(dp3237
sg83
g3222
sg76
(lp3238
g69
(g70
g71
NtRp3239
(dp3240
g74
(dp3241
g82
I3
ssg83
g3235
sg76
(lp3242
g1858
asbasbasbag69
(g85
g71
NtRp3243
(dp3244
g74
(dp3245
sg83
g2669
sg76
(lp3246
g69
(g90
g71
NtRp3247
(dp3248
g74
(dp3249
g94
g95
ssg83
g3243
sg76
(lp3250
S'wsgi.version'
p3251
asbag69
(g90
g71
NtRp3252
(dp3253
g74
(dp3254
g101
g102
ssg83
g3243
sg76
(lp3255
S':'
asbag69
(g90
g71
NtRp3256
(dp3257
g74
(dp3258
sg83
g3243
sg76
(lp3259
g69
(g70
g71
NtRp3260
(dp3261
g74
(dp3262
g82
I3
ssg83
g3256
sg76
(lp3263
S'1'
asbasbasbasbasbasbasbasbasbasbasbasbasbsS'frames'
p3264
(lp3265
(dp3266
S'file'
p3267
S'/home/umang/web2py/gluon/restricted.py'
p3268
sS'dump'
p3269
(dp3270
S'code'
p3271
S"'# -*- coding: utf-8 -*-\\n# this file is released ...))\\n\\nresponse._vars=response._caller(login_admin)\\n'"
p3272
sS'layer'
p3273
S"'/home/umang/web2py/applications/assignmen3/controllers/default.py'"
p3274
sS'global compile2'
p3275
S'<function compile2>'
p3276
sS'ccode'
p3277
S'undefined'
p3278
ssS'lnum'
p3279
I211
sS'lines'
p3280
(dp3281
I206
S"    environment['__name__'] = '__restricted__'"
p3282
sI207
S'    try:'
p3283
sI208
S'        if isinstance(code, types.CodeType):'
p3284
sI209
S'            ccode = code'
p3285
sI210
S'        else:'
p3286
sI211
S'            ccode = compile2(code, layer)'
p3287
sI212
S'        exec ccode in environment'
p3288
sI213
S'    except HTTP:'
p3289
sI214
S'        raise'
p3290
sI215
S'    except RestrictedError:'
p3291
ssS'call'
p3292
S"(code='# -*- coding: utf-8 -*-\\n# this file is released ...))\\n\\nresponse._vars=response._caller(login_admin)\\n', environment={'A': <class 'gluon.html.A'>, 'Auth': <class 'gluon.tools.Auth'>, 'B': <class 'gluon.html.B'>, 'BEAUTIFY': <class 'gluon.html.BEAUTIFY'>, 'BODY': <class 'gluon.html.BODY'>, 'BR': <class 'gluon.html.BR'>, 'BUTTON': <class 'gluon.html.BUTTON'>, 'CAT': <class 'gluon.html.CAT'>, 'CENTER': <class 'gluon.html.CENTER'>, 'CLEANUP': <class 'gluon.validators.CLEANUP'>, ...}, layer='/home/umang/web2py/applications/assignmen3/controllers/default.py')"
p3293
sS'func'
p3294
S'restricted'
p3295
sa(dp3296
g3267
S'/home/umang/web2py/gluon/restricted.py'
p3297
sg3269
(dp3298
S'builtincompile'
p3299
S'<built-in function compile>'
p3300
sS'code'
p3301
S"'# -*- coding: utf-8 -*-\\n# this file is released ...))\\n\\nresponse._vars=response._caller(login_admin)\\n'"
p3302
sS'code.rstrip'
p3303
S'<built-in method rstrip of str object>'
p3304
sS').replace'
p3305
g3278
sS'layer'
p3306
S"'/home/umang/web2py/applications/assignmen3/controllers/default.py'"
p3307
ssg3279
I194
sg3280
(dp3308
I192
S"    The +'\\n' is necessary else compile fails when code ends in a comment."
p3309
sI193
S'    """'
p3310
sI194
S"    return compile(code.rstrip().replace('\\r\\n', '\\n') + '\\n', layer, 'exec')"
p3311
sI195
S''
sI196
S''
sI197
S"def restricted(code, environment=None, layer='Unknown'):"
p3312
sI198
S'    """'
p3313
sI189
S''
sI190
S'def compile2(code, layer):'
p3314
sI191
S'    """'
p3315
ssg3292
S"(code='# -*- coding: utf-8 -*-\\n# this file is released ...))\\n\\nresponse._vars=response._caller(login_admin)\\n', layer='/home/umang/web2py/applications/assignmen3/controllers/default.py')"
p3316
sg3294
S'compile2'
p3317
sasS'pyver'
p3318
S'Python 2.7.3: /usr/bin/python'
p3319
sS'session'
p3320
g69
(g70
g71
NtRp3321
(dp3322
g74
(dp3323
sg76
(lp3324
g69
(g78
g71
NtRp3325
(dp3326
g74
(dp3327
g82
I5
ssg83
Nsg76
(lp3328
g69
(g85
g71
NtRp3329
(dp3330
g74
(dp3331
sg83
g3325
sg76
(lp3332
g69
(g90
g71
NtRp3333
(dp3334
g74
(dp3335
g94
g95
ssg83
g3329
sg76
(lp3336
S'auth'
p3337
asbag69
(g90
g71
NtRp3338
(dp3339
g74
(dp3340
g101
g102
ssg83
g3329
sg76
(lp3341
S':'
asbag69
(g90
g71
NtRp3342
(dp3343
g74
(dp3344
sg83
g3329
sg76
(lp3345
g69
(g70
g71
NtRp3346
(dp3347
g74
(dp3348
g82
I5
ssg83
g3342
sg76
(lp3349
g69
(g78
g71
NtRp3350
(dp3351
g74
(dp3352
g82
I4
ssg83
Nsg76
(lp3353
g69
(g85
g71
NtRp3354
(dp3355
g74
(dp3356
sg83
g3350
sg76
(lp3357
g69
(g90
g71
NtRp3358
(dp3359
g74
(dp3360
g94
g95
ssg83
g3354
sg76
(lp3361
S'expiration'
p3362
asbag69
(g90
g71
NtRp3363
(dp3364
g74
(dp3365
g101
g102
ssg83
g3354
sg76
(lp3366
S':'
asbag69
(g90
g71
NtRp3367
(dp3368
g74
(dp3369
sg83
g3354
sg76
(lp3370
g69
(g70
g71
NtRp3371
(dp3372
g74
(dp3373
g82
I4
ssg83
g3367
sg76
(lp3374
S'3600'
p3375
asbasbasbag69
(g85
g71
NtRp3376
(dp3377
g74
(dp3378
sg83
g3350
sg76
(lp3379
g69
(g90
g71
NtRp3380
(dp3381
g74
(dp3382
g94
g95
ssg83
g3376
sg76
(lp3383
S'hmac_key'
p3384
asbag69
(g90
g71
NtRp3385
(dp3386
g74
(dp3387
g101
g102
ssg83
g3376
sg76
(lp3388
S':'
asbag69
(g90
g71
NtRp3389
(dp3390
g74
(dp3391
sg83
g3376
sg76
(lp3392
g69
(g70
g71
NtRp3393
(dp3394
g74
(dp3395
g82
I4
ssg83
g3389
sg76
(lp3396
S'e684c725-4023-4121-b6e9-1d0635c835d4'
p3397
asbasbasbag69
(g85
g71
NtRp3398
(dp3399
g74
(dp3400
sg83
g3350
sg76
(lp3401
g69
(g90
g71
NtRp3402
(dp3403
g74
(dp3404
g94
g95
ssg83
g3398
sg76
(lp3405
S'last_visit'
p3406
asbag69
(g90
g71
NtRp3407
(dp3408
g74
(dp3409
g101
g102
ssg83
g3398
sg76
(lp3410
S':'
asbag69
(g90
g71
NtRp3411
(dp3412
g74
(dp3413
sg83
g3398
sg76
(lp3414
g69
(g70
g71
NtRp3415
(dp3416
g74
(dp3417
g82
I4
ssg83
g3411
sg76
(lp3418
S'datetime.datetime(2013, 8, 28, 23, 33, 47, 455717)'
p3419
asbasbasbag69
(g85
g71
NtRp3420
(dp3421
g74
(dp3422
sg83
g3350
sg76
(lp3423
g69
(g90
g71
NtRp3424
(dp3425
g74
(dp3426
g94
g95
ssg83
g3420
sg76
(lp3427
S'remember'
p3428
asbag69
(g90
g71
NtRp3429
(dp3430
g74
(dp3431
g101
g102
ssg83
g3420
sg76
(lp3432
S':'
asbag69
(g90
g71
NtRp3433
(dp3434
g74
(dp3435
sg83
g3420
sg76
(lp3436
g69
(g70
g71
NtRp3437
(dp3438
g74
(dp3439
g82
I4
ssg83
g3433
sg76
(lp3440
g112
asbasbasbag69
(g85
g71
NtRp3441
(dp3442
g74
(dp3443
sg83
g3350
sg76
(lp3444
g69
(g90
g71
NtRp3445
(dp3446
g74
(dp3447
g94
g95
ssg83
g3441
sg76
(lp3448
S'user'
p3449
asbag69
(g90
g71
NtRp3450
(dp3451
g74
(dp3452
g101
g102
ssg83
g3441
sg76
(lp3453
S':'
asbag69
(g90
g71
NtRp3454
(dp3455
g74
(dp3456
sg83
g3441
sg76
(lp3457
g69
(g70
g71
NtRp3458
(dp3459
g74
(dp3460
g82
I4
ssg83
g3454
sg76
(lp3461
g69
(g78
g71
NtRp3462
(dp3463
g74
(dp3464
g82
I3
ssg83
Nsg76
(lp3465
g69
(g85
g71
NtRp3466
(dp3467
g74
(dp3468
sg83
g3462
sg76
(lp3469
g69
(g90
g71
NtRp3470
(dp3471
g74
(dp3472
g94
g95
ssg83
g3466
sg76
(lp3473
S'email'
p3474
asbag69
(g90
g71
NtRp3475
(dp3476
g74
(dp3477
g101
g102
ssg83
g3466
sg76
(lp3478
S':'
asbag69
(g90
g71
NtRp3479
(dp3480
g74
(dp3481
sg83
g3466
sg76
(lp3482
g69
(g70
g71
NtRp3483
(dp3484
g74
(dp3485
g82
I3
ssg83
g3479
sg76
(lp3486
S'umang.goel@students.iiit.ac.in'
p3487
asbasbasbag69
(g85
g71
NtRp3488
(dp3489
g74
(dp3490
sg83
g3462
sg76
(lp3491
g69
(g90
g71
NtRp3492
(dp3493
g74
(dp3494
g94
g95
ssg83
g3488
sg76
(lp3495
S'first_name'
p3496
asbag69
(g90
g71
NtRp3497
(dp3498
g74
(dp3499
g101
g102
ssg83
g3488
sg76
(lp3500
S':'
asbag69
(g90
g71
NtRp3501
(dp3502
g74
(dp3503
sg83
g3488
sg76
(lp3504
g69
(g70
g71
NtRp3505
(dp3506
g74
(dp3507
g82
I3
ssg83
g3501
sg76
(lp3508
S'Umang'
p3509
asbasbasbag69
(g85
g71
NtRp3510
(dp3511
g74
(dp3512
sg83
g3462
sg76
(lp3513
g69
(g90
g71
NtRp3514
(dp3515
g74
(dp3516
g94
g95
ssg83
g3510
sg76
(lp3517
S'id'
p3518
asbag69
(g90
g71
NtRp3519
(dp3520
g74
(dp3521
g101
g102
ssg83
g3510
sg76
(lp3522
S':'
asbag69
(g90
g71
NtRp3523
(dp3524
g74
(dp3525
sg83
g3510
sg76
(lp3526
g69
(g70
g71
NtRp3527
(dp3528
g74
(dp3529
g82
I3
ssg83
g3523
sg76
(lp3530
S'1'
asbasbasbag69
(g85
g71
NtRp3531
(dp3532
g74
(dp3533
sg83
g3462
sg76
(lp3534
g69
(g90
g71
NtRp3535
(dp3536
g74
(dp3537
g94
g95
ssg83
g3531
sg76
(lp3538
S'last_name'
p3539
asbag69
(g90
g71
NtRp3540
(dp3541
g74
(dp3542
g101
g102
ssg83
g3531
sg76
(lp3543
S':'
asbag69
(g90
g71
NtRp3544
(dp3545
g74
(dp3546
sg83
g3531
sg76
(lp3547
g69
(g70
g71
NtRp3548
(dp3549
g74
(dp3550
g82
I3
ssg83
g3544
sg76
(lp3551
S'Goel'
p3552
asbasbasbag69
(g85
g71
NtRp3553
(dp3554
g74
(dp3555
sg83
g3462
sg76
(lp3556
g69
(g90
g71
NtRp3557
(dp3558
g74
(dp3559
g94
g95
ssg83
g3553
sg76
(lp3560
S'registration_id'
p3561
asbag69
(g90
g71
NtRp3562
(dp3563
g74
(dp3564
g101
g102
ssg83
g3553
sg76
(lp3565
S':'
asbag69
(g90
g71
NtRp3566
(dp3567
g74
(dp3568
sg83
g3553
sg76
(lp3569
g69
(g70
g71
NtRp3570
(dp3571
g74
(dp3572
g82
I3
ssg83
g3566
sg76
(lp3573
S''
asbasbasbag69
(g85
g71
NtRp3574
(dp3575
g74
(dp3576
sg83
g3462
sg76
(lp3577
g69
(g90
g71
NtRp3578
(dp3579
g74
(dp3580
g94
g95
ssg83
g3574
sg76
(lp3581
S'registration_key'
p3582
asbag69
(g90
g71
NtRp3583
(dp3584
g74
(dp3585
g101
g102
ssg83
g3574
sg76
(lp3586
S':'
asbag69
(g90
g71
NtRp3587
(dp3588
g74
(dp3589
sg83
g3574
sg76
(lp3590
g69
(g70
g71
NtRp3591
(dp3592
g74
(dp3593
g82
I3
ssg83
g3587
sg76
(lp3594
S''
asbasbasbag69
(g85
g71
NtRp3595
(dp3596
g74
(dp3597
sg83
g3462
sg76
(lp3598
g69
(g90
g71
NtRp3599
(dp3600
g74
(dp3601
g94
g95
ssg83
g3595
sg76
(lp3602
S'reset_password_key'
p3603
asbag69
(g90
g71
NtRp3604
(dp3605
g74
(dp3606
g101
g102
ssg83
g3595
sg76
(lp3607
S':'
asbag69
(g90
g71
NtRp3608
(dp3609
g74
(dp3610
sg83
g3595
sg76
(lp3611
g69
(g70
g71
NtRp3612
(dp3613
g74
(dp3614
g82
I3
ssg83
g3608
sg76
(lp3615
S''
asbasbasbasbasbasbasbag69
(g85
g71
NtRp3616
(dp3617
g74
(dp3618
sg83
g3350
sg76
(lp3619
g69
(g90
g71
NtRp3620
(dp3621
g74
(dp3622
g94
g95
ssg83
g3616
sg76
(lp3623
S'user_groups'
p3624
asbag69
(g90
g71
NtRp3625
(dp3626
g74
(dp3627
g101
g102
ssg83
g3616
sg76
(lp3628
S':'
asbag69
(g90
g71
NtRp3629
(dp3630
g74
(dp3631
sg83
g3616
sg76
(lp3632
g69
(g70
g71
NtRp3633
(dp3634
g74
(dp3635
g82
I4
ssg83
g3629
sg76
(lp3636
g69
(g78
g71
NtRp3637
(dp3638
g74
(dp3639
g82
I3
ssg83
Nsg76
(lp3640
g69
(g85
g71
NtRp3641
(dp3642
g74
(dp3643
sg83
g3637
sg76
(lp3644
g69
(g90
g71
NtRp3645
(dp3646
g74
(dp3647
g94
g95
ssg83
g3641
sg76
(lp3648
S'1'
asbag69
(g90
g71
NtRp3649
(dp3650
g74
(dp3651
g101
g102
ssg83
g3641
sg76
(lp3652
S':'
asbag69
(g90
g71
NtRp3653
(dp3654
g74
(dp3655
sg83
g3641
sg76
(lp3656
g69
(g70
g71
NtRp3657
(dp3658
g74
(dp3659
g82
I3
ssg83
g3653
sg76
(lp3660
S'user_1'
p3661
asbasbasbag69
(g85
g71
NtRp3662
(dp3663
g74
(dp3664
sg83
g3637
sg76
(lp3665
g69
(g90
g71
NtRp3666
(dp3667
g74
(dp3668
g94
g95
ssg83
g3662
sg76
(lp3669
S'4'
asbag69
(g90
g71
NtRp3670
(dp3671
g74
(dp3672
g101
g102
ssg83
g3662
sg76
(lp3673
S':'
asbag69
(g90
g71
NtRp3674
(dp3675
g74
(dp3676
sg83
g3662
sg76
(lp3677
g69
(g70
g71
NtRp3678
(dp3679
g74
(dp3680
g82
I3
ssg83
g3674
sg76
(lp3681
S'admin'
p3682
asbasbasbasbasbasbasbasbasbasbasbag69
(g85
g71
NtRp3683
(dp3684
g74
(dp3685
sg83
g3325
sg76
(lp3686
g69
(g90
g71
NtRp3687
(dp3688
g74
(dp3689
g94
g95
ssg83
g3683
sg76
(lp3690
S'flash'
p3691
asbag69
(g90
g71
NtRp3692
(dp3693
g74
(dp3694
g101
g102
ssg83
g3683
sg76
(lp3695
S':'
asbag69
(g90
g71
NtRp3696
(dp3697
g74
(dp3698
sg83
g3683
sg76
(lp3699
g69
(g70
g71
NtRp3700
(dp3701
g74
(dp3702
g82
I5
ssg83
g3696
sg76
(lp3703
S'None'
p3704
asbasbasbag69
(g85
g71
NtRp3705
(dp3706
g74
(dp3707
sg83
g3325
sg76
(lp3708
g69
(g90
g71
NtRp3709
(dp3710
g74
(dp3711
g94
g95
ssg83
g3705
sg76
(lp3712
S'last_orderby'
p3713
asbag69
(g90
g71
NtRp3714
(dp3715
g74
(dp3716
g101
g102
ssg83
g3705
sg76
(lp3717
S':'
asbag69
(g90
g71
NtRp3718
(dp3719
g74
(dp3720
sg83
g3705
sg76
(lp3721
g69
(g70
g71
NtRp3722
(dp3723
g74
(dp3724
g82
I5
ssg83
g3718
sg76
(lp3725
S'None'
p3726
asbasbasbag69
(g85
g71
NtRp3727
(dp3728
g74
(dp3729
sg83
g3325
sg76
(lp3730
g69
(g90
g71
NtRp3731
(dp3732
g74
(dp3733
g94
g95
ssg83
g3727
sg76
(lp3734
S'last_query'
p3735
asbag69
(g90
g71
NtRp3736
(dp3737
g74
(dp3738
g101
g102
ssg83
g3727
sg76
(lp3739
S':'
asbag69
(g90
g71
NtRp3740
(dp3741
g74
(dp3742
sg83
g3727
sg76
(lp3743
g69
(g70
g71
NtRp3744
(dp3745
g74
(dp3746
g82
I5
ssg83
g3740
sg76
(lp3747
S'db.auth_membership.id>0'
p3748
asbasbasbasbasbsS'etype'
p3749
S"<type 'exceptions.SyntaxError'>"
p3750
sS'date'
p3751
S'Wed Aug 28 23:33:47 2013'
p3752
sS'response'
p3753
g69
(g70
g71
NtRp3754
(dp3755
g74
(dp3756
sg76
(lp3757
g69
(g78
g71
NtRp3758
(dp3759
g74
(dp3760
g82
I5
ssg83
Nsg76
(lp3761
g69
(g85
g71
NtRp3762
(dp3763
g74
(dp3764
sg83
g3758
sg76
(lp3765
g69
(g90
g71
NtRp3766
(dp3767
g74
(dp3768
g94
g95
ssg83
g3762
sg76
(lp3769
g179
asbag69
(g90
g71
NtRp3770
(dp3771
g74
(dp3772
g101
g102
ssg83
g3762
sg76
(lp3773
S':'
asbag69
(g90
g71
NtRp3774
(dp3775
g74
(dp3776
sg83
g3762
sg76
(lp3777
g69
(g70
g71
NtRp3778
(dp3779
g74
(dp3780
g82
I5
ssg83
g3774
sg76
(lp3781
S'<cStringIO.StringO object at 0x1d012d0>'
p3782
asbasbasbag69
(g85
g71
NtRp3783
(dp3784
g74
(dp3785
sg83
g3758
sg76
(lp3786
g69
(g90
g71
NtRp3787
(dp3788
g74
(dp3789
g94
g95
ssg83
g3783
sg76
(lp3790
g267
asbag69
(g90
g71
NtRp3791
(dp3792
g74
(dp3793
g101
g102
ssg83
g3783
sg76
(lp3794
S':'
asbag69
(g90
g71
NtRp3795
(dp3796
g74
(dp3797
sg83
g3783
sg76
(lp3798
g69
(g70
g71
NtRp3799
(dp3800
g74
(dp3801
g82
I5
ssg83
g3795
sg76
(lp3802
g69
(g78
g71
NtRp3803
(dp3804
g74
(dp3805
g82
I4
ssg83
Nsg76
(lp3806
g69
(g85
g71
NtRp3807
(dp3808
g74
(dp3809
sg83
g3803
sg76
(lp3810
g69
(g90
g71
NtRp3811
(dp3812
g74
(dp3813
g94
g95
ssg83
g3807
sg76
(lp3814
S'session_id_assignmen3'
p3815
asbag69
(g90
g71
NtRp3816
(dp3817
g74
(dp3818
g101
g102
ssg83
g3807
sg76
(lp3819
S':'
asbag69
(g90
g71
NtRp3820
(dp3821
g74
(dp3822
sg83
g3807
sg76
(lp3823
g69
(g70
g71
NtRp3824
(dp3825
g74
(dp3826
g82
I4
ssg83
g3820
sg76
(lp3827
g499
ag69
(g78
g71
NtRp3828
(dp3829
g74
(dp3830
g82
I3
ssg83
Nsg76
(lp3831
g69
(g85
g71
NtRp3832
(dp3833
g74
(dp3834
sg83
g3828
sg76
(lp3835
g69
(g90
g71
NtRp3836
(dp3837
g74
(dp3838
g94
g95
ssg83
g3832
sg76
(lp3839
g318
asbag69
(g90
g71
NtRp3840
(dp3841
g74
(dp3842
g101
g102
ssg83
g3832
sg76
(lp3843
S':'
asbag69
(g90
g71
NtRp3844
(dp3845
g74
(dp3846
sg83
g3832
sg76
(lp3847
g69
(g70
g71
NtRp3848
(dp3849
g74
(dp3850
g82
I3
ssg83
g3844
sg76
(lp3851
S''
asbasbasbag69
(g85
g71
NtRp3852
(dp3853
g74
(dp3854
sg83
g3828
sg76
(lp3855
g69
(g90
g71
NtRp3856
(dp3857
g74
(dp3858
g94
g95
ssg83
g3852
sg76
(lp3859
g339
asbag69
(g90
g71
NtRp3860
(dp3861
g74
(dp3862
g101
g102
ssg83
g3852
sg76
(lp3863
S':'
asbag69
(g90
g71
NtRp3864
(dp3865
g74
(dp3866
sg83
g3852
sg76
(lp3867
g69
(g70
g71
NtRp3868
(dp3869
g74
(dp3870
g82
I3
ssg83
g3864
sg76
(lp3871
S''
asbasbasbag69
(g85
g71
NtRp3872
(dp3873
g74
(dp3874
sg83
g3828
sg76
(lp3875
g69
(g90
g71
NtRp3876
(dp3877
g74
(dp3878
g94
g95
ssg83
g3872
sg76
(lp3879
g360
asbag69
(g90
g71
NtRp3880
(dp3881
g74
(dp3882
g101
g102
ssg83
g3872
sg76
(lp3883
S':'
asbag69
(g90
g71
NtRp3884
(dp3885
g74
(dp3886
sg83
g3872
sg76
(lp3887
g69
(g70
g71
NtRp3888
(dp3889
g74
(dp3890
g82
I3
ssg83
g3884
sg76
(lp3891
S''
asbasbasbag69
(g85
g71
NtRp3892
(dp3893
g74
(dp3894
sg83
g3828
sg76
(lp3895
g69
(g90
g71
NtRp3896
(dp3897
g74
(dp3898
g94
g95
ssg83
g3892
sg76
(lp3899
g381
asbag69
(g90
g71
NtRp3900
(dp3901
g74
(dp3902
g101
g102
ssg83
g3892
sg76
(lp3903
S':'
asbag69
(g90
g71
NtRp3904
(dp3905
g74
(dp3906
sg83
g3892
sg76
(lp3907
g69
(g70
g71
NtRp3908
(dp3909
g74
(dp3910
g82
I3
ssg83
g3904
sg76
(lp3911
S''
asbasbasbag69
(g85
g71
NtRp3912
(dp3913
g74
(dp3914
sg83
g3828
sg76
(lp3915
g69
(g90
g71
NtRp3916
(dp3917
g74
(dp3918
g94
g95
ssg83
g3912
sg76
(lp3919
g402
asbag69
(g90
g71
NtRp3920
(dp3921
g74
(dp3922
g101
g102
ssg83
g3912
sg76
(lp3923
S':'
asbag69
(g90
g71
NtRp3924
(dp3925
g74
(dp3926
sg83
g3912
sg76
(lp3927
g69
(g70
g71
NtRp3928
(dp3929
g74
(dp3930
g82
I3
ssg83
g3924
sg76
(lp3931
S''
asbasbasbag69
(g85
g71
NtRp3932
(dp3933
g74
(dp3934
sg83
g3828
sg76
(lp3935
g69
(g90
g71
NtRp3936
(dp3937
g74
(dp3938
g94
g95
ssg83
g3932
sg76
(lp3939
g423
asbag69
(g90
g71
NtRp3940
(dp3941
g74
(dp3942
g101
g102
ssg83
g3932
sg76
(lp3943
S':'
asbag69
(g90
g71
NtRp3944
(dp3945
g74
(dp3946
sg83
g3932
sg76
(lp3947
g69
(g70
g71
NtRp3948
(dp3949
g74
(dp3950
g82
I3
ssg83
g3944
sg76
(lp3951
S'/'
asbasbasbag69
(g85
g71
NtRp3952
(dp3953
g74
(dp3954
sg83
g3828
sg76
(lp3955
g69
(g90
g71
NtRp3956
(dp3957
g74
(dp3958
g94
g95
ssg83
g3952
sg76
(lp3959
g444
asbag69
(g90
g71
NtRp3960
(dp3961
g74
(dp3962
g101
g102
ssg83
g3952
sg76
(lp3963
S':'
asbag69
(g90
g71
NtRp3964
(dp3965
g74
(dp3966
sg83
g3952
sg76
(lp3967
g69
(g70
g71
NtRp3968
(dp3969
g74
(dp3970
g82
I3
ssg83
g3964
sg76
(lp3971
S''
asbasbasbag69
(g85
g71
NtRp3972
(dp3973
g74
(dp3974
sg83
g3828
sg76
(lp3975
g69
(g90
g71
NtRp3976
(dp3977
g74
(dp3978
g94
g95
ssg83
g3972
sg76
(lp3979
g465
asbag69
(g90
g71
NtRp3980
(dp3981
g74
(dp3982
g101
g102
ssg83
g3972
sg76
(lp3983
S':'
asbag69
(g90
g71
NtRp3984
(dp3985
g74
(dp3986
sg83
g3972
sg76
(lp3987
g69
(g70
g71
NtRp3988
(dp3989
g74
(dp3990
g82
I3
ssg83
g3984
sg76
(lp3991
S''
asbasbasbasbasbasbasbasbasbasbasbag69
(g85
g71
NtRp3992
(dp3993
g74
(dp3994
sg83
g3758
sg76
(lp3995
g69
(g90
g71
NtRp3996
(dp3997
g74
(dp3998
g94
g95
ssg83
g3992
sg76
(lp3999
S'delimiters'
p4000
asbag69
(g90
g71
NtRp4001
(dp4002
g74
(dp4003
g101
g102
ssg83
g3992
sg76
(lp4004
S':'
asbag69
(g90
g71
NtRp4005
(dp4006
g74
(dp4007
sg83
g3992
sg76
(lp4008
g69
(g70
g71
NtRp4009
(dp4010
g74
(dp4011
g82
I5
ssg83
g4005
sg76
(lp4012
g69
(g78
g71
NtRp4013
(dp4014
g74
(dp4015
g82
I4
ssg83
Nsg76
(lp4016
g69
(g85
g71
NtRp4017
(dp4018
g74
(dp4019
sg83
g4013
sg76
(lp4020
g69
(g90
g71
NtRp4021
(dp4022
g74
(dp4023
sg83
g4017
sg76
(lp4024
g69
(g70
g71
NtRp4025
(dp4026
g74
(dp4027
g82
I4
ssg83
g4021
sg76
(lp4028
S'{{'
p4029
asbasbasbag69
(g85
g71
NtRp4030
(dp4031
g74
(dp4032
sg83
g4013
sg76
(lp4033
g69
(g90
g71
NtRp4034
(dp4035
g74
(dp4036
sg83
g4030
sg76
(lp4037
g69
(g70
g71
NtRp4038
(dp4039
g74
(dp4040
g82
I4
ssg83
g4034
sg76
(lp4041
S'}}'
p4042
asbasbasbasbasbasbasbag69
(g85
g71
NtRp4043
(dp4044
g74
(dp4045
sg83
g3758
sg76
(lp4046
g69
(g90
g71
NtRp4047
(dp4048
g74
(dp4049
g94
g95
ssg83
g4043
sg76
(lp4050
S'files'
p4051
asbag69
(g90
g71
NtRp4052
(dp4053
g74
(dp4054
g101
g102
ssg83
g4043
sg76
(lp4055
S':'
asbag69
(g90
g71
NtRp4056
(dp4057
g74
(dp4058
sg83
g4043
sg76
(lp4059
g69
(g70
g71
NtRp4060
(dp4061
g74
(dp4062
g82
I5
ssg83
g4056
sg76
(lp4063
g69
(g78
g71
NtRp4064
(dp4065
g74
(dp4066
g82
I4
ssg83
Nsg76
(lp4067
sbasbasbasbag69
(g85
g71
NtRp4068
(dp4069
g74
(dp4070
sg83
g3758
sg76
(lp4071
g69
(g90
g71
NtRp4072
(dp4073
g74
(dp4074
g94
g95
ssg83
g4068
sg76
(lp4075
S'flash'
p4076
asbag69
(g90
g71
NtRp4077
(dp4078
g74
(dp4079
g101
g102
ssg83
g4068
sg76
(lp4080
S':'
asbag69
(g90
g71
NtRp4081
(dp4082
g74
(dp4083
sg83
g4068
sg76
(lp4084
g69
(g70
g71
NtRp4085
(dp4086
g74
(dp4087
g82
I5
ssg83
g4081
sg76
(lp4088
S''
asbasbasbag69
(g85
g71
NtRp4089
(dp4090
g74
(dp4091
sg83
g3758
sg76
(lp4092
g69
(g90
g71
NtRp4093
(dp4094
g74
(dp4095
g94
g95
ssg83
g4089
sg76
(lp4096
S'generic_patterns'
p4097
asbag69
(g90
g71
NtRp4098
(dp4099
g74
(dp4100
g101
g102
ssg83
g4089
sg76
(lp4101
S':'
asbag69
(g90
g71
NtRp4102
(dp4103
g74
(dp4104
sg83
g4089
sg76
(lp4105
g69
(g70
g71
NtRp4106
(dp4107
g74
(dp4108
g82
I5
ssg83
g4102
sg76
(lp4109
g69
(g78
g71
NtRp4110
(dp4111
g74
(dp4112
g82
I4
ssg83
Nsg76
(lp4113
g69
(g85
g71
NtRp4114
(dp4115
g74
(dp4116
sg83
g4110
sg76
(lp4117
g69
(g90
g71
NtRp4118
(dp4119
g74
(dp4120
sg83
g4114
sg76
(lp4121
g69
(g70
g71
NtRp4122
(dp4123
g74
(dp4124
g82
I4
ssg83
g4118
sg76
(lp4125
S'*'
asbasbasbasbasbasbasbag69
(g85
g71
NtRp4126
(dp4127
g74
(dp4128
sg83
g3758
sg76
(lp4129
g69
(g90
g71
NtRp4130
(dp4131
g74
(dp4132
g94
g95
ssg83
g4126
sg76
(lp4133
S'google_analytics_id'
p4134
asbag69
(g90
g71
NtRp4135
(dp4136
g74
(dp4137
g101
g102
ssg83
g4126
sg76
(lp4138
S':'
asbag69
(g90
g71
NtRp4139
(dp4140
g74
(dp4141
sg83
g4126
sg76
(lp4142
g69
(g70
g71
NtRp4143
(dp4144
g74
(dp4145
g82
I5
ssg83
g4139
sg76
(lp4146
S'None'
p4147
asbasbasbag69
(g85
g71
NtRp4148
(dp4149
g74
(dp4150
sg83
g3758
sg76
(lp4151
g69
(g90
g71
NtRp4152
(dp4153
g74
(dp4154
g94
g95
ssg83
g4148
sg76
(lp4155
S'headers'
p4156
asbag69
(g90
g71
NtRp4157
(dp4158
g74
(dp4159
g101
g102
ssg83
g4148
sg76
(lp4160
S':'
asbag69
(g90
g71
NtRp4161
(dp4162
g74
(dp4163
sg83
g4148
sg76
(lp4164
g69
(g70
g71
NtRp4165
(dp4166
g74
(dp4167
g82
I5
ssg83
g4161
sg76
(lp4168
g69
(g78
g71
NtRp4169
(dp4170
g74
(dp4171
g82
I4
ssg83
Nsg76
(lp4172
g69
(g85
g71
NtRp4173
(dp4174
g74
(dp4175
sg83
g4169
sg76
(lp4176
g69
(g90
g71
NtRp4177
(dp4178
g74
(dp4179
g94
g95
ssg83
g4173
sg76
(lp4180
S'X-Powered-By'
p4181
asbag69
(g90
g71
NtRp4182
(dp4183
g74
(dp4184
g101
g102
ssg83
g4173
sg76
(lp4185
S':'
asbag69
(g90
g71
NtRp4186
(dp4187
g74
(dp4188
sg83
g4173
sg76
(lp4189
g69
(g70
g71
NtRp4190
(dp4191
g74
(dp4192
g82
I4
ssg83
g4186
sg76
(lp4193
S'web2py'
p4194
asbasbasbasbasbasbasbag69
(g85
g71
NtRp4195
(dp4196
g74
(dp4197
sg83
g3758
sg76
(lp4198
g69
(g90
g71
NtRp4199
(dp4200
g74
(dp4201
g94
g95
ssg83
g4195
sg76
(lp4202
S'logo'
p4203
asbag69
(g90
g71
NtRp4204
(dp4205
g74
(dp4206
g101
g102
ssg83
g4195
sg76
(lp4207
S':'
asbag69
(g90
g71
NtRp4208
(dp4209
g74
(dp4210
sg83
g4195
sg76
(lp4211
g69
(g70
g71
NtRp4212
(dp4213
g74
(dp4214
g82
I5
ssg83
g4208
sg76
(lp4215
g69
(cgluon.html
A
p4216
g71
NtRp4217
(dp4218
g74
(dp4219
S'_class'
p4220
S'brand'
p4221
sS'_href'
p4222
S'http://www.web2py.com/'
p4223
ssg83
Nsg76
(lp4224
g69
(cgluon.html
B
p4225
g71
NtRp4226
(dp4227
g74
(dp4228
sg83
g4217
sg76
(lp4229
S'web'
p4230
ag69
(cgluon.html
SPAN
p4231
g71
NtRp4232
(dp4233
g74
(dp4234
sg83
g4226
sg76
(lp4235
I2
asbaS'py'
p4236
asbacgluon.html
XML_unpickle
p4237
(S's\r\x00\x00\x00&trade;&nbsp;'
tRp4238
asbasbasbasbag69
(g85
g71
NtRp4239
(dp4240
g74
(dp4241
sg83
g3758
sg76
(lp4242
g69
(g90
g71
NtRp4243
(dp4244
g74
(dp4245
g94
g95
ssg83
g4239
sg76
(lp4246
S'menu'
p4247
asbag69
(g90
g71
NtRp4248
(dp4249
g74
(dp4250
g101
g102
ssg83
g4239
sg76
(lp4251
S':'
asbag69
(g90
g71
NtRp4252
(dp4253
g74
(dp4254
sg83
g4239
sg76
(lp4255
g69
(g70
g71
NtRp4256
(dp4257
g74
(dp4258
g82
I5
ssg83
g4252
sg76
(lp4259
g69
(g78
g71
NtRp4260
(dp4261
g74
(dp4262
g82
I4
ssg83
Nsg76
(lp4263
g69
(g85
g71
NtRp4264
(dp4265
g74
(dp4266
sg83
g4260
sg76
(lp4267
g69
(g90
g71
NtRp4268
(dp4269
g74
(dp4270
sg83
g4264
sg76
(lp4271
g69
(g70
g71
NtRp4272
(dp4273
g74
(dp4274
g82
I4
ssg83
g4268
sg76
(lp4275
g69
(g78
g71
NtRp4276
(dp4277
g74
(dp4278
g82
I3
ssg83
Nsg76
(lp4279
g69
(g85
g71
NtRp4280
(dp4281
g74
(dp4282
sg83
g4276
sg76
(lp4283
g69
(g90
g71
NtRp4284
(dp4285
g74
(dp4286
sg83
g4280
sg76
(lp4287
g69
(g70
g71
NtRp4288
(dp4289
g74
(dp4290
g82
I3
ssg83
g4284
sg76
(lp4291
cgluon.languages
lazyT_unpickle
p4292
(S's\x04\x00\x00\x00Home'
tRp4293
asbasbasbag69
(g85
g71
NtRp4294
(dp4295
g74
(dp4296
sg83
g4276
sg76
(lp4297
g69
(g90
g71
NtRp4298
(dp4299
g74
(dp4300
sg83
g4294
sg76
(lp4301
g69
(g70
g71
NtRp4302
(dp4303
g74
(dp4304
g82
I3
ssg83
g4298
sg76
(lp4305
g112
asbasbasbag69
(g85
g71
NtRp4306
(dp4307
g74
(dp4308
sg83
g4276
sg76
(lp4309
g69
(g90
g71
NtRp4310
(dp4311
g74
(dp4312
sg83
g4306
sg76
(lp4313
g69
(g70
g71
NtRp4314
(dp4315
g74
(dp4316
g82
I3
ssg83
g4310
sg76
(lp4317
S'/assignmen3/default/index'
p4318
asbasbasbag69
(g85
g71
NtRp4319
(dp4320
g74
(dp4321
sg83
g4276
sg76
(lp4322
g69
(g90
g71
NtRp4323
(dp4324
g74
(dp4325
sg83
g4319
sg76
(lp4326
g69
(g70
g71
NtRp4327
(dp4328
g74
(dp4329
g82
I3
ssg83
g4323
sg76
(lp4330
g69
(g78
g71
NtRp4331
(dp4332
g74
(dp4333
g82
I2
ssg83
Nsg76
(lp4334
sbasbasbasbasbasbasbasbag69
(g85
g71
NtRp4335
(dp4336
g74
(dp4337
sg83
g4260
sg76
(lp4338
g69
(g90
g71
NtRp4339
(dp4340
g74
(dp4341
sg83
g4335
sg76
(lp4342
g69
(g70
g71
NtRp4343
(dp4344
g74
(dp4345
g82
I4
ssg83
g4339
sg76
(lp4346
g69
(g78
g71
NtRp4347
(dp4348
g74
(dp4349
g82
I3
ssg83
Nsg76
(lp4350
g69
(g85
g71
NtRp4351
(dp4352
g74
(dp4353
sg83
g4347
sg76
(lp4354
g69
(g90
g71
NtRp4355
(dp4356
g74
(dp4357
sg83
g4351
sg76
(lp4358
g69
(g70
g71
NtRp4359
(dp4360
g74
(dp4361
g82
I3
ssg83
g4355
sg76
(lp4362
g4292
(S't\x07\x00\x00\x00Account'
tRp4363
asbasbasbag69
(g85
g71
NtRp4364
(dp4365
g74
(dp4366
sg83
g4347
sg76
(lp4367
g69
(g90
g71
NtRp4368
(dp4369
g74
(dp4370
sg83
g4364
sg76
(lp4371
g69
(g70
g71
NtRp4372
(dp4373
g74
(dp4374
g82
I3
ssg83
g4368
sg76
(lp4375
g112
asbasbasbag69
(g85
g71
NtRp4376
(dp4377
g74
(dp4378
sg83
g4347
sg76
(lp4379
g69
(g90
g71
NtRp4380
(dp4381
g74
(dp4382
sg83
g4376
sg76
(lp4383
g69
(g70
g71
NtRp4384
(dp4385
g74
(dp4386
g82
I3
ssg83
g4380
sg76
(lp4387
S'/assignmen3/default/login_to_account'
p4388
asbasbasbag69
(g85
g71
NtRp4389
(dp4390
g74
(dp4391
sg83
g4347
sg76
(lp4392
g69
(g90
g71
NtRp4393
(dp4394
g74
(dp4395
sg83
g4389
sg76
(lp4396
g69
(g70
g71
NtRp4397
(dp4398
g74
(dp4399
g82
I3
ssg83
g4393
sg76
(lp4400
g69
(g78
g71
NtRp4401
(dp4402
g74
(dp4403
g82
I2
ssg83
Nsg76
(lp4404
sbasbasbasbasbasbasbasbag69
(g85
g71
NtRp4405
(dp4406
g74
(dp4407
sg83
g4260
sg76
(lp4408
g69
(g90
g71
NtRp4409
(dp4410
g74
(dp4411
sg83
g4405
sg76
(lp4412
g69
(g70
g71
NtRp4413
(dp4414
g74
(dp4415
g82
I4
ssg83
g4409
sg76
(lp4416
g69
(g78
g71
NtRp4417
(dp4418
g74
(dp4419
g82
I3
ssg83
Nsg76
(lp4420
g69
(g85
g71
NtRp4421
(dp4422
g74
(dp4423
sg83
g4417
sg76
(lp4424
g69
(g90
g71
NtRp4425
(dp4426
g74
(dp4427
sg83
g4421
sg76
(lp4428
g69
(g70
g71
NtRp4429
(dp4430
g74
(dp4431
g82
I3
ssg83
g4425
sg76
(lp4432
g69
(g4231
g71
NtRp4433
(dp4434
g74
(dp4435
g4220
S'highlighted'
p4436
ssg83
Nsg76
(lp4437
g4194
asbasbasbasbag69
(g85
g71
NtRp4438
(dp4439
g74
(dp4440
sg83
g4417
sg76
(lp4441
g69
(g90
g71
NtRp4442
(dp4443
g74
(dp4444
sg83
g4438
sg76
(lp4445
g69
(g70
g71
NtRp4446
(dp4447
g74
(dp4448
g82
I3
ssg83
g4442
sg76
(lp4449
g112
asbasbasbag69
(g85
g71
NtRp4450
(dp4451
g74
(dp4452
sg83
g4417
sg76
(lp4453
g69
(g90
g71
NtRp4454
(dp4455
g74
(dp4456
sg83
g4450
sg76
(lp4457
g69
(g70
g71
NtRp4458
(dp4459
g74
(dp4460
g82
I3
ssg83
g4454
sg76
(lp4461
S'http://web2py.com'
p4462
asbasbasbag69
(g85
g71
NtRp4463
(dp4464
g74
(dp4465
sg83
g4417
sg76
(lp4466
g69
(g90
g71
NtRp4467
(dp4468
g74
(dp4469
sg83
g4463
sg76
(lp4470
g69
(g70
g71
NtRp4471
(dp4472
g74
(dp4473
g82
I3
ssg83
g4467
sg76
(lp4474
g69
(g78
g71
NtRp4475
(dp4476
g74
(dp4477
g82
I2
ssg83
Nsg76
(lp4478
g69
(g85
g71
NtRp4479
(dp4480
g74
(dp4481
sg83
g4475
sg76
(lp4482
g69
(g90
g71
NtRp4483
(dp4484
g74
(dp4485
sg83
g4479
sg76
(lp4486
g69
(g70
g71
NtRp4487
(dp4488
g74
(dp4489
g82
I2
ssg83
g4483
sg76
(lp4490
g69
(g78
g71
NtRp4491
(dp4492
g74
(dp4493
g82
I1
ssg83
Nsg76
(lp4494
g69
(g85
g71
NtRp4495
(dp4496
g74
(dp4497
sg83
g4491
sg76
(lp4498
g69
(g90
g71
NtRp4499
(dp4500
g74
(dp4501
sg83
g4495
sg76
(lp4502
g69
(g70
g71
NtRp4503
(dp4504
g74
(dp4505
g82
I1
ssg83
g4499
sg76
(lp4506
g4292
(S's\x08\x00\x00\x00My Sites'
tRp4507
asbasbasbag69
(g85
g71
NtRp4508
(dp4509
g74
(dp4510
sg83
g4491
sg76
(lp4511
g69
(g90
g71
NtRp4512
(dp4513
g74
(dp4514
sg83
g4508
sg76
(lp4515
g69
(g70
g71
NtRp4516
(dp4517
g74
(dp4518
g82
I1
ssg83
g4512
sg76
(lp4519
I00
asbasbasbag69
(g85
g71
NtRp4520
(dp4521
g74
(dp4522
sg83
g4491
sg76
(lp4523
g69
(g90
g71
NtRp4524
(dp4525
g74
(dp4526
sg83
g4520
sg76
(lp4527
g69
(g70
g71
NtRp4528
(dp4529
g74
(dp4530
g82
I1
ssg83
g4524
sg76
(lp4531
S'/admin/default/site'
p4532
asbasbasbasbasbasbasbag69
(g85
g71
NtRp4533
(dp4534
g74
(dp4535
sg83
g4475
sg76
(lp4536
g69
(g90
g71
NtRp4537
(dp4538
g74
(dp4539
sg83
g4533
sg76
(lp4540
g69
(g70
g71
NtRp4541
(dp4542
g74
(dp4543
g82
I2
ssg83
g4537
sg76
(lp4544
g69
(g78
g71
NtRp4545
(dp4546
g74
(dp4547
g82
I1
ssg83
Nsg76
(lp4548
g69
(g85
g71
NtRp4549
(dp4550
g74
(dp4551
sg83
g4545
sg76
(lp4552
g69
(g90
g71
NtRp4553
(dp4554
g74
(dp4555
sg83
g4549
sg76
(lp4556
g69
(g70
g71
NtRp4557
(dp4558
g74
(dp4559
g82
I1
ssg83
g4553
sg76
(lp4560
g4292
(S's\x08\x00\x00\x00This App'
tRp4561
asbasbasbag69
(g85
g71
NtRp4562
(dp4563
g74
(dp4564
sg83
g4545
sg76
(lp4565
g69
(g90
g71
NtRp4566
(dp4567
g74
(dp4568
sg83
g4562
sg76
(lp4569
g69
(g70
g71
NtRp4570
(dp4571
g74
(dp4572
g82
I1
ssg83
g4566
sg76
(lp4573
I00
asbasbasbag69
(g85
g71
NtRp4574
(dp4575
g74
(dp4576
sg83
g4545
sg76
(lp4577
g69
(g90
g71
NtRp4578
(dp4579
g74
(dp4580
sg83
g4574
sg76
(lp4581
g69
(g70
g71
NtRp4582
(dp4583
g74
(dp4584
g82
I1
ssg83
g4578
sg76
(lp4585
S'/admin/default/design/assignmen3'
p4586
asbasbasbag69
(g85
g71
NtRp4587
(dp4588
g74
(dp4589
sg83
g4545
sg76
(lp4590
g69
(g90
g71
NtRp4591
(dp4592
g74
(dp4593
sg83
g4587
sg76
(lp4594
g69
(g70
g71
NtRp4595
(dp4596
g74
(dp4597
g82
I1
ssg83
g4591
sg76
(lp4598
(lp4599
(g4292
(S's\n\x00\x00\x00Controller'
tRp4600
I00
S'/admin/default/edit/assignmen3/controllers/default.py'
tp4601
a(g4292
(S's\x04\x00\x00\x00View'
tRp4602
I00
S'/admin/default/edit/assignmen3/views/default/login_admin.html'
tp4603
a(g4292
(S's\x06\x00\x00\x00Layout'
tRp4604
I00
S'/admin/default/edit/assignmen3/views/layout.html'
tp4605
a(g4292
(S's\n\x00\x00\x00Stylesheet'
tRp4606
I00
S'/admin/default/edit/assignmen3/static/css/web2py.css'
tp4607
a(g4292
(S's\x08\x00\x00\x00DB Model'
tRp4608
I00
S'/admin/default/edit/assignmen3/models/db.py'
tp4609
a(g4292
(S's\n\x00\x00\x00Menu Model'
tRp4610
I00
S'/admin/default/edit/assignmen3/models/menu.py'
tp4611
a(g4292
(S's\x08\x00\x00\x00Database'
tRp4612
I00
S'/assignmen3/appadmin/index'
tp4613
a(g4292
(S's\x06\x00\x00\x00Errors'
tRp4614
I00
S'/admin/default/errors/assignmen3'
tp4615
a(g4292
(S's\x05\x00\x00\x00About'
tRp4616
I00
S'/admin/default/about/assignmen3'
tp4617
aasbasbasbasbasbasbasbag69
(g85
g71
NtRp4618
(dp4619
g74
(dp4620
sg83
g4475
sg76
(lp4621
g69
(g90
g71
NtRp4622
(dp4623
g74
(dp4624
sg83
g4618
sg76
(lp4625
g69
(g70
g71
NtRp4626
(dp4627
g74
(dp4628
g82
I2
ssg83
g4622
sg76
(lp4629
g69
(g78
g71
NtRp4630
(dp4631
g74
(dp4632
g82
I1
ssg83
Nsg76
(lp4633
g69
(g85
g71
NtRp4634
(dp4635
g74
(dp4636
sg83
g4630
sg76
(lp4637
g69
(g90
g71
NtRp4638
(dp4639
g74
(dp4640
sg83
g4634
sg76
(lp4641
g69
(g70
g71
NtRp4642
(dp4643
g74
(dp4644
g82
I1
ssg83
g4638
sg76
(lp4645
S'web2py.com'
p4646
asbasbasbag69
(g85
g71
NtRp4647
(dp4648
g74
(dp4649
sg83
g4630
sg76
(lp4650
g69
(g90
g71
NtRp4651
(dp4652
g74
(dp4653
sg83
g4647
sg76
(lp4654
g69
(g70
g71
NtRp4655
(dp4656
g74
(dp4657
g82
I1
ssg83
g4651
sg76
(lp4658
I00
asbasbasbag69
(g85
g71
NtRp4659
(dp4660
g74
(dp4661
sg83
g4630
sg76
(lp4662
g69
(g90
g71
NtRp4663
(dp4664
g74
(dp4665
sg83
g4659
sg76
(lp4666
g69
(g70
g71
NtRp4667
(dp4668
g74
(dp4669
g82
I1
ssg83
g4663
sg76
(lp4670
S'http://www.web2py.com'
p4671
asbasbasbag69
(g85
g71
NtRp4672
(dp4673
g74
(dp4674
sg83
g4630
sg76
(lp4675
g69
(g90
g71
NtRp4676
(dp4677
g74
(dp4678
sg83
g4672
sg76
(lp4679
g69
(g70
g71
NtRp4680
(dp4681
g74
(dp4682
g82
I1
ssg83
g4676
sg76
(lp4683
(lp4684
(g4292
(S's\x08\x00\x00\x00Download'
tRp4685
I00
S'http://www.web2py.com/examples/default/download'
p4686
tp4687
a(g4292
(S's\x07\x00\x00\x00Support'
tRp4688
I00
S'http://www.web2py.com/examples/default/support'
p4689
tp4690
a(g4292
(S's\x04\x00\x00\x00Demo'
tRp4691
I00
S'http://web2py.com/demo_admin'
p4692
tp4693
a(g4292
(S's\x0e\x00\x00\x00Quick Examples'
tRp4694
I00
S'http://web2py.com/examples/default/examples'
p4695
tp4696
a(g4292
(S's\x03\x00\x00\x00FAQ'
tRp4697
I00
S'http://web2py.com/AlterEgo'
p4698
tp4699
a(g4292
(S's\x06\x00\x00\x00Videos'
tRp4700
I00
S'http://www.web2py.com/examples/default/videos/'
p4701
tp4702
a(g4292
(S's\x11\x00\x00\x00Free Applications'
tRp4703
I00
S'http://web2py.com/appliances'
p4704
tp4705
a(g4292
(S's\x07\x00\x00\x00Plugins'
tRp4706
I00
S'http://web2py.com/plugins'
p4707
tp4708
a(g4292
(S's\x07\x00\x00\x00Layouts'
tRp4709
I00
S'http://web2py.com/layouts'
p4710
tp4711
a(g4292
(S's\x07\x00\x00\x00Recipes'
tRp4712
I00
S'http://web2pyslices.com/'
p4713
tp4714
a(g4292
(S's\x08\x00\x00\x00Semantic'
tRp4715
I00
S'http://web2py.com/semantic'
p4716
tp4717
aasbasbasbasbasbasbasbag69
(g85
g71
NtRp4718
(dp4719
g74
(dp4720
sg83
g4475
sg76
(lp4721
g69
(g90
g71
NtRp4722
(dp4723
g74
(dp4724
sg83
g4718
sg76
(lp4725
g69
(g70
g71
NtRp4726
(dp4727
g74
(dp4728
g82
I2
ssg83
g4722
sg76
(lp4729
g69
(g78
g71
NtRp4730
(dp4731
g74
(dp4732
g82
I1
ssg83
Nsg76
(lp4733
g69
(g85
g71
NtRp4734
(dp4735
g74
(dp4736
sg83
g4730
sg76
(lp4737
g69
(g90
g71
NtRp4738
(dp4739
g74
(dp4740
sg83
g4734
sg76
(lp4741
g69
(g70
g71
NtRp4742
(dp4743
g74
(dp4744
g82
I1
ssg83
g4738
sg76
(lp4745
g4292
(S's\r\x00\x00\x00Documentation'
tRp4746
asbasbasbag69
(g85
g71
NtRp4747
(dp4748
g74
(dp4749
sg83
g4730
sg76
(lp4750
g69
(g90
g71
NtRp4751
(dp4752
g74
(dp4753
sg83
g4747
sg76
(lp4754
g69
(g70
g71
NtRp4755
(dp4756
g74
(dp4757
g82
I1
ssg83
g4751
sg76
(lp4758
I00
asbasbasbag69
(g85
g71
NtRp4759
(dp4760
g74
(dp4761
sg83
g4730
sg76
(lp4762
g69
(g90
g71
NtRp4763
(dp4764
g74
(dp4765
sg83
g4759
sg76
(lp4766
g69
(g70
g71
NtRp4767
(dp4768
g74
(dp4769
g82
I1
ssg83
g4763
sg76
(lp4770
S'http://www.web2py.com/book'
p4771
asbasbasbag69
(g85
g71
NtRp4772
(dp4773
g74
(dp4774
sg83
g4730
sg76
(lp4775
g69
(g90
g71
NtRp4776
(dp4777
g74
(dp4778
sg83
g4772
sg76
(lp4779
g69
(g70
g71
NtRp4780
(dp4781
g74
(dp4782
g82
I1
ssg83
g4776
sg76
(lp4783
(lp4784
(g4292
(S's\x07\x00\x00\x00Preface'
tRp4785
I00
S'http://www.web2py.com/book/default/chapter/00'
p4786
tp4787
a(g4292
(S's\x0c\x00\x00\x00Introduction'
tRp4788
I00
S'http://www.web2py.com/book/default/chapter/01'
p4789
tp4790
a(g4292
(S's\x06\x00\x00\x00Python'
tRp4791
I00
S'http://www.web2py.com/book/default/chapter/02'
p4792
tp4793
a(g4292
(S's\x08\x00\x00\x00Overview'
tRp4794
I00
S'http://www.web2py.com/book/default/chapter/03'
p4795
tp4796
a(g4292
(S's\x08\x00\x00\x00The Core'
tRp4797
I00
S'http://www.web2py.com/book/default/chapter/04'
p4798
tp4799
a(g4292
(S's\t\x00\x00\x00The Views'
tRp4800
I00
S'http://www.web2py.com/book/default/chapter/05'
p4801
tp4802
a(g4292
(S's\x08\x00\x00\x00Database'
tRp4803
I00
S'http://www.web2py.com/book/default/chapter/06'
p4804
tp4805
a(g4292
(S's\x14\x00\x00\x00Forms and Validators'
tRp4806
I00
S'http://www.web2py.com/book/default/chapter/07'
p4807
tp4808
a(g4292
(S's\r\x00\x00\x00Email and SMS'
tRp4809
I00
S'http://www.web2py.com/book/default/chapter/08'
p4810
tp4811
a(g4292
(S's\x0e\x00\x00\x00Access Control'
tRp4812
I00
S'http://www.web2py.com/book/default/chapter/09'
p4813
tp4814
a(g4292
(S's\x08\x00\x00\x00Services'
tRp4815
I00
S'http://www.web2py.com/book/default/chapter/10'
p4816
tp4817
a(g4292
(S's\x0c\x00\x00\x00Ajax Recipes'
tRp4818
I00
S'http://www.web2py.com/book/default/chapter/11'
p4819
tp4820
a(g4292
(S's\x16\x00\x00\x00Components and Plugins'
tRp4821
I00
S'http://www.web2py.com/book/default/chapter/12'
p4822
tp4823
a(g4292
(S's\x12\x00\x00\x00Deployment Recipes'
tRp4824
I00
S'http://www.web2py.com/book/default/chapter/13'
p4825
tp4826
a(g4292
(S's\r\x00\x00\x00Other Recipes'
tRp4827
I00
S'http://www.web2py.com/book/default/chapter/14'
p4828
tp4829
a(g4292
(S's\r\x00\x00\x00Buy this book'
tRp4830
I00
S'http://stores.lulu.com/web2py'
p4831
tp4832
aasbasbasbasbasbasbasbag69
(g85
g71
NtRp4833
(dp4834
g74
(dp4835
sg83
g4475
sg76
(lp4836
g69
(g90
g71
NtRp4837
(dp4838
g74
(dp4839
sg83
g4833
sg76
(lp4840
g69
(g70
g71
NtRp4841
(dp4842
g74
(dp4843
g82
I2
ssg83
g4837
sg76
(lp4844
g69
(g78
g71
NtRp4845
(dp4846
g74
(dp4847
g82
I1
ssg83
Nsg76
(lp4848
g69
(g85
g71
NtRp4849
(dp4850
g74
(dp4851
sg83
g4845
sg76
(lp4852
g69
(g90
g71
NtRp4853
(dp4854
g74
(dp4855
sg83
g4849
sg76
(lp4856
g69
(g70
g71
NtRp4857
(dp4858
g74
(dp4859
g82
I1
ssg83
g4853
sg76
(lp4860
g4292
(S's\t\x00\x00\x00Community'
tRp4861
asbasbasbag69
(g85
g71
NtRp4862
(dp4863
g74
(dp4864
sg83
g4845
sg76
(lp4865
g69
(g90
g71
NtRp4866
(dp4867
g74
(dp4868
sg83
g4862
sg76
(lp4869
g69
(g70
g71
NtRp4870
(dp4871
g74
(dp4872
g82
I1
ssg83
g4866
sg76
(lp4873
I00
asbasbasbag69
(g85
g71
NtRp4874
(dp4875
g74
(dp4876
sg83
g4845
sg76
(lp4877
g69
(g90
g71
NtRp4878
(dp4879
g74
(dp4880
sg83
g4874
sg76
(lp4881
g69
(g70
g71
NtRp4882
(dp4883
g74
(dp4884
g82
I1
ssg83
g4878
sg76
(lp4885
Nasbasbasbag69
(g85
g71
NtRp4886
(dp4887
g74
(dp4888
sg83
g4845
sg76
(lp4889
g69
(g90
g71
NtRp4890
(dp4891
g74
(dp4892
sg83
g4886
sg76
(lp4893
g69
(g70
g71
NtRp4894
(dp4895
g74
(dp4896
g82
I1
ssg83
g4890
sg76
(lp4897
(lp4898
(g4292
(S's\x06\x00\x00\x00Groups'
tRp4899
I00
S'http://www.web2py.com/examples/default/usergroups'
p4900
tp4901
a(g4292
(S's\x07\x00\x00\x00Twitter'
tRp4902
I00
S'http://twitter.com/web2py'
p4903
tp4904
a(g4292
(S's\t\x00\x00\x00Live Chat'
tRp4905
I00
S'http://webchat.freenode.net/?channels=web2py'
p4906
tp4907
aasbasbasbasbasbasbasbag69
(g85
g71
NtRp4908
(dp4909
g74
(dp4910
sg83
g4475
sg76
(lp4911
g69
(g90
g71
NtRp4912
(dp4913
g74
(dp4914
sg83
g4908
sg76
(lp4915
g69
(g70
g71
NtRp4916
(dp4917
g74
(dp4918
g82
I2
ssg83
g4912
sg76
(lp4919
g69
(g78
g71
NtRp4920
(dp4921
g74
(dp4922
g82
I1
ssg83
Nsg76
(lp4923
g69
(g85
g71
NtRp4924
(dp4925
g74
(dp4926
sg83
g4920
sg76
(lp4927
g69
(g90
g71
NtRp4928
(dp4929
g74
(dp4930
sg83
g4924
sg76
(lp4931
g69
(g70
g71
NtRp4932
(dp4933
g74
(dp4934
g82
I1
ssg83
g4928
sg76
(lp4935
g4292
(S's\x07\x00\x00\x00Plugins'
tRp4936
asbasbasbag69
(g85
g71
NtRp4937
(dp4938
g74
(dp4939
sg83
g4920
sg76
(lp4940
g69
(g90
g71
NtRp4941
(dp4942
g74
(dp4943
sg83
g4937
sg76
(lp4944
g69
(g70
g71
NtRp4945
(dp4946
g74
(dp4947
g82
I1
ssg83
g4941
sg76
(lp4948
I00
asbasbasbag69
(g85
g71
NtRp4949
(dp4950
g74
(dp4951
sg83
g4920
sg76
(lp4952
g69
(g90
g71
NtRp4953
(dp4954
g74
(dp4955
sg83
g4949
sg76
(lp4956
g69
(g70
g71
NtRp4957
(dp4958
g74
(dp4959
g82
I1
ssg83
g4953
sg76
(lp4960
Nasbasbasbag69
(g85
g71
NtRp4961
(dp4962
g74
(dp4963
sg83
g4920
sg76
(lp4964
g69
(g90
g71
NtRp4965
(dp4966
g74
(dp4967
sg83
g4961
sg76
(lp4968
g69
(g70
g71
NtRp4969
(dp4970
g74
(dp4971
g82
I1
ssg83
g4965
sg76
(lp4972
(lp4973
(S'plugin_wiki'
p4974
I00
S'http://web2py.com/examples/default/download'
p4975
tp4976
a(g4292
(S's\r\x00\x00\x00Other Plugins'
tRp4977
I00
g4707
tp4978
a(g4292
(S's\x0e\x00\x00\x00Layout Plugins'
tRp4979
I00
g4710
tp4980
aasbasbasbasbasbasbasbasbasbasbasbasbasbasbasbasbasbasbasbag69
(g85
g71
NtRp4981
(dp4982
g74
(dp4983
sg83
g3758
sg76
(lp4984
g69
(g90
g71
NtRp4985
(dp4986
g74
(dp4987
g94
g95
ssg83
g4981
sg76
(lp4988
S'meta'
p4989
asbag69
(g90
g71
NtRp4990
(dp4991
g74
(dp4992
g101
g102
ssg83
g4981
sg76
(lp4993
S':'
asbag69
(g90
g71
NtRp4994
(dp4995
g74
(dp4996
sg83
g4981
sg76
(lp4997
g69
(g70
g71
NtRp4998
(dp4999
g74
(dp5000
g82
I5
ssg83
g4994
sg76
(lp5001
g69
(g78
g71
NtRp5002
(dp5003
g74
(dp5004
g82
I4
ssg83
Nsg76
(lp5005
g69
(g85
g71
NtRp5006
(dp5007
g74
(dp5008
sg83
g5002
sg76
(lp5009
g69
(g90
g71
NtRp5010
(dp5011
g74
(dp5012
g94
g95
ssg83
g5006
sg76
(lp5013
S'author'
p5014
asbag69
(g90
g71
NtRp5015
(dp5016
g74
(dp5017
g101
g102
ssg83
g5006
sg76
(lp5018
S':'
asbag69
(g90
g71
NtRp5019
(dp5020
g74
(dp5021
sg83
g5006
sg76
(lp5022
g69
(g70
g71
NtRp5023
(dp5024
g74
(dp5025
g82
I4
ssg83
g5019
sg76
(lp5026
S'Your Name <you@example.com>'
p5027
asbasbasbag69
(g85
g71
NtRp5028
(dp5029
g74
(dp5030
sg83
g5002
sg76
(lp5031
g69
(g90
g71
NtRp5032
(dp5033
g74
(dp5034
g94
g95
ssg83
g5028
sg76
(lp5035
S'description'
p5036
asbag69
(g90
g71
NtRp5037
(dp5038
g74
(dp5039
g101
g102
ssg83
g5028
sg76
(lp5040
S':'
asbag69
(g90
g71
NtRp5041
(dp5042
g74
(dp5043
sg83
g5028
sg76
(lp5044
g69
(g70
g71
NtRp5045
(dp5046
g74
(dp5047
g82
I4
ssg83
g5041
sg76
(lp5048
S'a cool new app'
p5049
asbasbasbag69
(g85
g71
NtRp5050
(dp5051
g74
(dp5052
sg83
g5002
sg76
(lp5053
g69
(g90
g71
NtRp5054
(dp5055
g74
(dp5056
g94
g95
ssg83
g5050
sg76
(lp5057
S'generator'
p5058
asbag69
(g90
g71
NtRp5059
(dp5060
g74
(dp5061
g101
g102
ssg83
g5050
sg76
(lp5062
S':'
asbag69
(g90
g71
NtRp5063
(dp5064
g74
(dp5065
sg83
g5050
sg76
(lp5066
g69
(g70
g71
NtRp5067
(dp5068
g74
(dp5069
g82
I4
ssg83
g5063
sg76
(lp5070
S'Web2py Web Framework'
p5071
asbasbasbag69
(g85
g71
NtRp5072
(dp5073
g74
(dp5074
sg83
g5002
sg76
(lp5075
g69
(g90
g71
NtRp5076
(dp5077
g74
(dp5078
g94
g95
ssg83
g5072
sg76
(lp5079
S'keywords'
p5080
asbag69
(g90
g71
NtRp5081
(dp5082
g74
(dp5083
g101
g102
ssg83
g5072
sg76
(lp5084
S':'
asbag69
(g90
g71
NtRp5085
(dp5086
g74
(dp5087
sg83
g5072
sg76
(lp5088
g69
(g70
g71
NtRp5089
(dp5090
g74
(dp5091
g82
I4
ssg83
g5085
sg76
(lp5092
S'web2py, python, framework'
p5093
asbasbasbasbasbasbasbag69
(g85
g71
NtRp5094
(dp5095
g74
(dp5096
sg83
g3758
sg76
(lp5097
g69
(g90
g71
NtRp5098
(dp5099
g74
(dp5100
g94
g95
ssg83
g5094
sg76
(lp5101
S'models_to_run'
p5102
asbag69
(g90
g71
NtRp5103
(dp5104
g74
(dp5105
g101
g102
ssg83
g5094
sg76
(lp5106
S':'
asbag69
(g90
g71
NtRp5107
(dp5108
g74
(dp5109
sg83
g5094
sg76
(lp5110
g69
(g70
g71
NtRp5111
(dp5112
g74
(dp5113
g82
I5
ssg83
g5107
sg76
(lp5114
g69
(g78
g71
NtRp5115
(dp5116
g74
(dp5117
g82
I4
ssg83
Nsg76
(lp5118
g69
(g85
g71
NtRp5119
(dp5120
g74
(dp5121
sg83
g5115
sg76
(lp5122
g69
(g90
g71
NtRp5123
(dp5124
g74
(dp5125
sg83
g5119
sg76
(lp5126
g69
(g70
g71
NtRp5127
(dp5128
g74
(dp5129
g82
I4
ssg83
g5123
sg76
(lp5130
S'^\\w+\\.py$'
p5131
asbasbasbag69
(g85
g71
NtRp5132
(dp5133
g74
(dp5134
sg83
g5115
sg76
(lp5135
g69
(g90
g71
NtRp5136
(dp5137
g74
(dp5138
sg83
g5132
sg76
(lp5139
g69
(g70
g71
NtRp5140
(dp5141
g74
(dp5142
g82
I4
ssg83
g5136
sg76
(lp5143
S'^default/\\w+\\.py$'
p5144
asbasbasbag69
(g85
g71
NtRp5145
(dp5146
g74
(dp5147
sg83
g5115
sg76
(lp5148
g69
(g90
g71
NtRp5149
(dp5150
g74
(dp5151
sg83
g5145
sg76
(lp5152
g69
(g70
g71
NtRp5153
(dp5154
g74
(dp5155
g82
I4
ssg83
g5149
sg76
(lp5156
S'^default/login_admin/\\w+\\.py$'
p5157
asbasbasbasbasbasbasbag69
(g85
g71
NtRp5158
(dp5159
g74
(dp5160
sg83
g3758
sg76
(lp5161
g69
(g90
g71
NtRp5162
(dp5163
g74
(dp5164
g94
g95
ssg83
g5158
sg76
(lp5165
S'postprocessing'
p5166
asbag69
(g90
g71
NtRp5167
(dp5168
g74
(dp5169
g101
g102
ssg83
g5158
sg76
(lp5170
S':'
asbag69
(g90
g71
NtRp5171
(dp5172
g74
(dp5173
sg83
g5158
sg76
(lp5174
g69
(g70
g71
NtRp5175
(dp5176
g74
(dp5177
g82
I5
ssg83
g5171
sg76
(lp5178
g69
(g78
g71
NtRp5179
(dp5180
g74
(dp5181
g82
I4
ssg83
Nsg76
(lp5182
sbasbasbasbag69
(g85
g71
NtRp5183
(dp5184
g74
(dp5185
sg83
g3758
sg76
(lp5186
g69
(g90
g71
NtRp5187
(dp5188
g74
(dp5189
g94
g95
ssg83
g5183
sg76
(lp5190
S'session_cookie_expires'
p5191
asbag69
(g90
g71
NtRp5192
(dp5193
g74
(dp5194
g101
g102
ssg83
g5183
sg76
(lp5195
S':'
asbag69
(g90
g71
NtRp5196
(dp5197
g74
(dp5198
sg83
g5183
sg76
(lp5199
g69
(g70
g71
NtRp5200
(dp5201
g74
(dp5202
g82
I5
ssg83
g5196
sg76
(lp5203
S'None'
p5204
asbasbasbag69
(g85
g71
NtRp5205
(dp5206
g74
(dp5207
sg83
g3758
sg76
(lp5208
g69
(g90
g71
NtRp5209
(dp5210
g74
(dp5211
g94
g95
ssg83
g5205
sg76
(lp5212
S'session_data_name'
p5213
asbag69
(g90
g71
NtRp5214
(dp5215
g74
(dp5216
g101
g102
ssg83
g5205
sg76
(lp5217
S':'
asbag69
(g90
g71
NtRp5218
(dp5219
g74
(dp5220
sg83
g5205
sg76
(lp5221
g69
(g70
g71
NtRp5222
(dp5223
g74
(dp5224
g82
I5
ssg83
g5218
sg76
(lp5225
S'session_data_assignmen3'
p5226
asbasbasbag69
(g85
g71
NtRp5227
(dp5228
g74
(dp5229
sg83
g3758
sg76
(lp5230
g69
(g90
g71
NtRp5231
(dp5232
g74
(dp5233
g94
g95
ssg83
g5227
sg76
(lp5234
S'session_file'
p5235
asbag69
(g90
g71
NtRp5236
(dp5237
g74
(dp5238
g101
g102
ssg83
g5227
sg76
(lp5239
S':'
asbag69
(g90
g71
NtRp5240
(dp5241
g74
(dp5242
sg83
g5227
sg76
(lp5243
g69
(g70
g71
NtRp5244
(dp5245
g74
(dp5246
g82
I5
ssg83
g5240
sg76
(lp5247
S"<open file '/home/umang/web2py/applications/assignmen3/sessions/127.0.0.1-280551a1-c43a-433e-9359-4399b67c1e4b', mode 'rb+' at 0x7fe31441fa50>"
p5248
asbasbasbag69
(g85
g71
NtRp5249
(dp5250
g74
(dp5251
sg83
g3758
sg76
(lp5252
g69
(g90
g71
NtRp5253
(dp5254
g74
(dp5255
g94
g95
ssg83
g5249
sg76
(lp5256
S'session_filename'
p5257
asbag69
(g90
g71
NtRp5258
(dp5259
g74
(dp5260
g101
g102
ssg83
g5249
sg76
(lp5261
S':'
asbag69
(g90
g71
NtRp5262
(dp5263
g74
(dp5264
sg83
g5249
sg76
(lp5265
g69
(g70
g71
NtRp5266
(dp5267
g74
(dp5268
g82
I5
ssg83
g5262
sg76
(lp5269
S'/home/umang/web2py/applications/assignmen3/sessions/127.0.0.1-280551a1-c43a-433e-9359-4399b67c1e4b'
p5270
asbasbasbag69
(g85
g71
NtRp5271
(dp5272
g74
(dp5273
sg83
g3758
sg76
(lp5274
g69
(g90
g71
NtRp5275
(dp5276
g74
(dp5277
g94
g95
ssg83
g5271
sg76
(lp5278
S'session_id'
p5279
asbag69
(g90
g71
NtRp5280
(dp5281
g74
(dp5282
g101
g102
ssg83
g5271
sg76
(lp5283
S':'
asbag69
(g90
g71
NtRp5284
(dp5285
g74
(dp5286
sg83
g5271
sg76
(lp5287
g69
(g70
g71
NtRp5288
(dp5289
g74
(dp5290
g82
I5
ssg83
g5284
sg76
(lp5291
g499
asbasbasbag69
(g85
g71
NtRp5292
(dp5293
g74
(dp5294
sg83
g3758
sg76
(lp5295
g69
(g90
g71
NtRp5296
(dp5297
g74
(dp5298
g94
g95
ssg83
g5292
sg76
(lp5299
S'session_id_name'
p5300
asbag69
(g90
g71
NtRp5301
(dp5302
g74
(dp5303
g101
g102
ssg83
g5292
sg76
(lp5304
S':'
asbag69
(g90
g71
NtRp5305
(dp5306
g74
(dp5307
sg83
g5292
sg76
(lp5308
g69
(g70
g71
NtRp5309
(dp5310
g74
(dp5311
g82
I5
ssg83
g5305
sg76
(lp5312
g3815
asbasbasbag69
(g85
g71
NtRp5313
(dp5314
g74
(dp5315
sg83
g3758
sg76
(lp5316
g69
(g90
g71
NtRp5317
(dp5318
g74
(dp5319
g94
g95
ssg83
g5313
sg76
(lp5320
S'session_locked'
p5321
asbag69
(g90
g71
NtRp5322
(dp5323
g74
(dp5324
g101
g102
ssg83
g5313
sg76
(lp5325
S':'
asbag69
(g90
g71
NtRp5326
(dp5327
g74
(dp5328
sg83
g5313
sg76
(lp5329
g69
(g70
g71
NtRp5330
(dp5331
g74
(dp5332
g82
I5
ssg83
g5326
sg76
(lp5333
g1815
asbasbasbag69
(g85
g71
NtRp5334
(dp5335
g74
(dp5336
sg83
g3758
sg76
(lp5337
g69
(g90
g71
NtRp5338
(dp5339
g74
(dp5340
g94
g95
ssg83
g5334
sg76
(lp5341
S'session_new'
p5342
asbag69
(g90
g71
NtRp5343
(dp5344
g74
(dp5345
g101
g102
ssg83
g5334
sg76
(lp5346
S':'
asbag69
(g90
g71
NtRp5347
(dp5348
g74
(dp5349
sg83
g5334
sg76
(lp5350
g69
(g70
g71
NtRp5351
(dp5352
g74
(dp5353
g82
I5
ssg83
g5347
sg76
(lp5354
g112
asbasbasbag69
(g85
g71
NtRp5355
(dp5356
g74
(dp5357
sg83
g3758
sg76
(lp5358
g69
(g90
g71
NtRp5359
(dp5360
g74
(dp5361
g94
g95
ssg83
g5355
sg76
(lp5362
S'session_storage_type'
p5363
asbag69
(g90
g71
NtRp5364
(dp5365
g74
(dp5366
g101
g102
ssg83
g5355
sg76
(lp5367
S':'
asbag69
(g90
g71
NtRp5368
(dp5369
g74
(dp5370
sg83
g5355
sg76
(lp5371
g69
(g70
g71
NtRp5372
(dp5373
g74
(dp5374
g82
I5
ssg83
g5368
sg76
(lp5375
g3267
asbasbasbag69
(g85
g71
NtRp5376
(dp5377
g74
(dp5378
sg83
g3758
sg76
(lp5379
g69
(g90
g71
NtRp5380
(dp5381
g74
(dp5382
g94
g95
ssg83
g5376
sg76
(lp5383
S'status'
p5384
asbag69
(g90
g71
NtRp5385
(dp5386
g74
(dp5387
g101
g102
ssg83
g5376
sg76
(lp5388
S':'
asbag69
(g90
g71
NtRp5389
(dp5390
g74
(dp5391
sg83
g5376
sg76
(lp5392
g69
(g70
g71
NtRp5393
(dp5394
g74
(dp5395
g82
I5
ssg83
g5389
sg76
(lp5396
S'200'
p5397
asbasbasbag69
(g85
g71
NtRp5398
(dp5399
g74
(dp5400
sg83
g3758
sg76
(lp5401
g69
(g90
g71
NtRp5402
(dp5403
g74
(dp5404
g94
g95
ssg83
g5398
sg76
(lp5405
S'subtitle'
p5406
asbag69
(g90
g71
NtRp5407
(dp5408
g74
(dp5409
g101
g102
ssg83
g5398
sg76
(lp5410
S':'
asbag69
(g90
g71
NtRp5411
(dp5412
g74
(dp5413
sg83
g5398
sg76
(lp5414
g69
(g70
g71
NtRp5415
(dp5416
g74
(dp5417
g82
I5
ssg83
g5411
sg76
(lp5418
g4292
(S's\r\x00\x00\x00customize me!'
tRp5419
asbasbasbag69
(g85
g71
NtRp5420
(dp5421
g74
(dp5422
sg83
g3758
sg76
(lp5423
g69
(g90
g71
NtRp5424
(dp5425
g74
(dp5426
g94
g95
ssg83
g5420
sg76
(lp5427
S'title'
p5428
asbag69
(g90
g71
NtRp5429
(dp5430
g74
(dp5431
g101
g102
ssg83
g5420
sg76
(lp5432
S':'
asbag69
(g90
g71
NtRp5433
(dp5434
g74
(dp5435
sg83
g5420
sg76
(lp5436
g69
(g70
g71
NtRp5437
(dp5438
g74
(dp5439
g82
I5
ssg83
g5433
sg76
(lp5440
S'Assignmen3'
p5441
asbasbasbag69
(g85
g71
NtRp5442
(dp5443
g74
(dp5444
sg83
g3758
sg76
(lp5445
g69
(g90
g71
NtRp5446
(dp5447
g74
(dp5448
g94
g95
ssg83
g5442
sg76
(lp5449
S'view'
p5450
asbag69
(g90
g71
NtRp5451
(dp5452
g74
(dp5453
g101
g102
ssg83
g5442
sg76
(lp5454
S':'
asbag69
(g90
g71
NtRp5455
(dp5456
g74
(dp5457
sg83
g5442
sg76
(lp5458
g69
(g70
g71
NtRp5459
(dp5460
g74
(dp5461
g82
I5
ssg83
g5455
sg76
(lp5462
S'default/login_admin.html'
p5463
asbasbasbasbasbsS'locals'
p5464
(dp5465
g4
S"'/home/umang/web2py/applications/assignmen3/controllers/default.py'"
p5466
sg6
S"'# -*- coding: utf-8 -*-\\n# this file is released ...))\\n\\nresponse._vars=response._caller(login_admin)\\n'"
p5467
sssS'traceback'
p5468
S'Traceback (most recent call last):\n  File "/home/umang/web2py/gluon/restricted.py", line 211, in restricted\n    ccode = compile2(code, layer)\n  File "/home/umang/web2py/gluon/restricted.py", line 194, in compile2\n    return compile(code.rstrip().replace(\'\\r\\n\', \'\\n\') + \'\\n\', layer, \'exec\')\n  File "/home/umang/web2py/applications/assignmen3/controllers/default.py", line 188\n    db((db.rating.news_id==news_id) & (db.rating.rater_id==auth.user_id)).update(rating.liked=0)\nSyntaxError: keyword can\'t be an expression\n'
p5469
s.