(dp1
S'output'
p2
S"<type 'exceptions.SyntaxError'> invalid syntax (default.py, line 45)"
p3
sS'layer'
p4
S'/home/umang/web2py/applications/assignmen3/controllers/default.py'
p5
sS'code'
p6
S'# -*- coding: utf-8 -*-\n# this file is released under public domain and you can use without limitations\n\n#########################################################################\n## This is a samples controller\n## - index is the default action of any application\n## - user is required for authentication and authorization\n## - download is for downloading files uploaded in the db (does streaming)\n## - call exposes all registered services (none by default)\n#########################################################################\nimport datetime\n\ndef index():\n    """\n    example action using the internationalization operator T and flash\n    rendered by views/default/index.html or views/generic.html\n\n    if you need a simple wiki simple replace the two lines below with:\n    return auth.wiki()\n    """\n    #redirect(URL(r=request,f=\'first_page?query=new\'))\n    query=db(db.category.name==\'New\').select(db.category.id)\n    redirect(URL(r=request, f=\'first_page\',args=[int(query[0].id)]))\n\n@auth.requires_login()\ndef login_to_account():\n\tar=db((db.auth_membership.user_id==auth.user_id) & (db.auth_group.id==db.auth_membership.group_id)).select(db.auth_group.role)\n\tif(len(ar)==0):\n\t\tredirect(URL(r=request,f=\'user\'))\n\telif(len(ar)==1):\n\t\tx=db(db.auth_group.role==\'normal\').select(db.auth_group.id)\n\t\tdb.auth_membership.insert(user_id=auth.user_id,group_id=x[0][\'id\'])\n\t\tredirect(URL(r=request,f=\'login_normal\'))\n\telif(ar[1][\'role\']==\'normal\'):\n\t\tredirect(URL(r=request,f=\'login_normal\'))\n\telif(ar[1][\'role\']==\'admin\'):\n\t\tredirect(URL(r=request,f=\'login_admin\'))\n\ndef login_normal():\n\tdisp=db(db.news.user_id==auth.user_id).select(db.news.heading,db.news.url,db.news.category,db.news.ntype)\n\treturn dict(disp=disp)\t\n\ndef first_page():\n\tquery=int(request.args(0))\n\tdisp=db(db.news.category_id==query).select(db.news.heading,db.news.url,db.news.rating,db.news.ntype,db.news.id db.news.pres_time,orderby=db.news.rating)\n\tq_comment=db((db.news.category_id==query) & (db.comments.news_id==db.news.id)).select(db.comments.body,db.comments.commentor)\n\tcatg=db(db.category.id>0).select(db.category.name,db.category.id)\n\tpres_catg=db(db.category.id==query).select(db.category.name)\n\tdisp=sorted(disp,key=lambda a:-a[\'rating\'])\n\tform=SQLFORM.factory(\n\t db.Field(\'comm_body\',\'string\',label=""),\n\t formstyle=\'divs\',\n\t buttons=[],)\n   \tform[0].insert(1,DIV(INPUT(_type=\'submit\',_value=\'Post\')))\n   \tif form.accepts(request.vars,session):\n        \t insert_comment(form.vars.comm_body,auth.user_id,query)\n    \telif form.errors:\n        \t response.flash=\'Some Error Occured Please Refresh\'\n    \t\n\treturn dict(query=query,disp=disp,q_comment=q_comment,catg=catg,pres_catg=pres_catg)\n\n@auth.requires_login()\ndef add_news():\n\tcatg=int(request.args(0))\n\tdb.news.pres_time.default=datetime.datetime.now().ctime()\n\tdb.news.pres_time.readable=False\n\tdb.news.pres_time.writable=False\n\tdb.news.category_id.default=catg\n\tdb.news.category_id.readable=False\n\tdb.news.category_id.writable=False\n\tdb.news.user_id.default=auth.user_id\n\tdb.news.user_id.writable=False\n\tdb.news.user_id.readable=False\n\tdb.news.rating.default=100\n\tdb.news.rating.writable=False\n\tdb.news.rating.readable=False\n\tform=SQLFORM(db.news,submit_button="Post",labels={\'ntype\':\'Post Type\'})\n\tif form.process().accepted:\n        \tredirect(URL(r=request, f=\'first_page\',args=[int(catg)]))\n\t\t#redirect(URL(r=request,f=\'first_page?query=%s\' % catg))\n\telif form.errors:\n\t\tresponse.flash="Error posting it"\n\treturn dict(form=form)\n\n@auth.requires_login()\ndef like():\n\tnews_id=int(request.args(0))\n\tcatg=int(request.args(1))\n\tar=db(db.news.id==news_id).select(db.news.rating)\n\tquery=db((db.rating.news_id==news_id) & (db.rating.rater_id==auth.user_id)).select(db.rating.liked)\n\tflag=1\n\t"""\n\tif((len(query)==0) or (query[0].liked==0)):\n\t\tdb(db.news.id==news_id).update(rating=ar[0].rating+5)\n\t\tflag=2\n\t\tif(len(query)==0):\n\t\t\tdb.rating.insert(news_id=news_id,rater_id=auth.user_id,liked=1,disliked=0)\n\t\telse:\n\t\t\tflag=3\n\t\t\tdb((db.rating.news_id==news_id) & (db.rating.rater_id==auth.user_id)).update(liked=1)\n\t#redirect(URL(r=request, f=\'first_page\',args=[int(catg)]))\n\treturn dict(query=query,flag=flag)\n\t"""\n\tif(len(query)==0):\n\t\tdb(db.news.id==news_id).update(rating=ar[0].rating+5)\n\t\tdb.rating.insert(news_id=news_id,rater_id=auth.user_id,liked=1,disliked=0)\n\tredirect(URL(r=request, f=\'first_page\',args=[int(catg)]))\n\n@auth.requires_login()\ndef dislike():\n\tnews_id=int(request.args(0))\n\tcatg=int(request.args(1))\n\tar=db(db.news.id==news_id).select(db.news.rating)\n\tquery=db((db.rating.news_id==news_id) & (db.rating.rater_id==auth.user_id)).select(db.rating.disliked)\n\tif(len(query)==0):\n\t\tdb(db.news.id==news_id).update(rating=ar[0].rating-3)\n\t\tdb.rating.insert(news_id=news_id,rater_id=auth.user_id,liked=0,disliked=1)\n\tredirect(URL(r=request,f=\'first_page\',args=[(int)(catg)]))\n\t#return dict(query=query)\n\n@auth.requires_login()\ndef edit_news():\n\tnews_id=int(request.args(0))\n\tcatg=int(request.args(1))\n\tquery=db((db.news.id==news_id) & (db.news.user_id==auth.user_id)).select(db.news.heading)\n\tif(len(query)==0):\n\t\tredirect(URL(r=request,f=\'first_page\',args=[(int)(catg)]))\n\telse :\n\t\tform=SQLFORM.factory(\n\t\t db.Field(\'new_heading\',\'string\',label="Enter Heading"),\n\t\t db.Field(\'new_url\',\'string\',label="Enter URL",requires=IS_URL()),\n\t\t db.Field(\'new_type\',\'string\',label="Enter Type",requires=IS_IN_SET(["Text","Video"])),\n\t\t formstyle=\'divs\',\n\t\t buttons=[],)\n   \t\tform[0].insert(3,DIV(INPUT(_type=\'submit\',_value=\'Edit IT\')))\n\t   \tif form.accepts(request.vars,session):\n        \t\t tmp_edit(form.vars.new_heading,form.vars.new_url,form.vars.new_type,news_id,catg)\n\t    \telif form.errors:\n        \t\t response.flash=\'Some Error Occured Please Refresh\'\n\t\treturn dict(form=form)\n\n@auth.requires_login()\ndef tmp_edit(new_heading,new_url,new_type,news_id,catg):\n\tdb(db.news.id==news_id).update(heading=new_heading,url=new_url,rating=100,ntype=new_type)\n\tdb(db.rating.news_id==news_id).delete()\n\tredirect(URL(r=request,f=\'first_page\',args=[(int)(catg)]))\n\n@auth.requires_login()\ndef delete_news():\n\tnews_id=int(request.args(0))\n\tcatg=int(request.args(1))\n\tdb((db.news.id==news_id) & (db.news.user_id==auth.user_id)).delete()\n\tredirect(URL(r=request,f=\'first_page\',args=[(int)(catg)]))\n\n@auth.requires_login()\ndef insert_comment(c_body,rec,query):\n\tdb.comments.insert(body=c_body,sender_id=auth.user_id,receiver=int(rec))\n        query=db(db.coment.id>0).select(db.coment.id,db.coment.receiver)\n        redirect(URL(r=request, f=\'first_page\',args=[int(query)]))\n\n\n\ndef user():\n    """\n    exposes:\n    http://..../[app]/default/user/login\n    http://..../[app]/default/user/logout\n    http://..../[app]/default/user/register\n    http://..../[app]/default/user/profile\n    http://..../[app]/default/user/retrieve_password\n    http://..../[app]/default/user/change_password\n    use @auth.requires_login()\n        @auth.requires_membership(\'group name\')\n        @auth.requires_permission(\'read\',\'table name\',record_id)\n    to decorate functions that need access control\n    """\n    return dict(form=auth())\n\n\ndef download():\n    """\n    allows downloading of uploaded files\n    http://..../[app]/default/download/[filename]\n    """\n    return response.download(request, db)\n\n\ndef call():\n    """\n    exposes services. for example:\n    http://..../[app]/default/call/jsonrpc\n    decorate with @services.jsonrpc the functions to expose\n    supports xml, json, xmlrpc, jsonrpc, amfrpc, rss, csv\n    """\n    return service()\n\n\n@auth.requires_signature()\ndef data():\n    """\n    http://..../[app]/default/data/tables\n    http://..../[app]/default/data/create/[table]\n    http://..../[app]/default/data/read/[table]/[id]\n    http://..../[app]/default/data/update/[table]/[id]\n    http://..../[app]/default/data/delete/[table]/[id]\n    http://..../[app]/default/data/select/[table]\n    http://..../[app]/default/data/search/[table]\n    but URLs must be signed, i.e. linked with\n      A(\'table\',_href=URL(\'data/tables\',user_signature=True))\n    or with the signed load operator\n      LOAD(\'default\',\'data.load\',args=\'tables\',ajax=True,user_signature=True)\n    """\n    return dict(form=crud())\n\nresponse._vars=response._caller(edit_news)\n'
p7
sS'snapshot'
p8
(dp9
S'exception'
p10
(dp11
S'__getslice__'
p12
S"<method-wrapper '__getslice__' of exceptions.SyntaxError object>"
p13
sS'text'
p14
S"'\\tdisp=db(db.news.category_id==query).select(db.n...ews.id db.news.pres_time,orderby=db.news.rating)\\n'"
p15
sS'__str__'
p16
S"<method-wrapper '__str__' of exceptions.SyntaxError object>"
p17
sS'__reduce__'
p18
S'<built-in method __reduce__ of exceptions.SyntaxError object>'
p19
sS'__dict__'
p20
S'{}'
p21
sS'__sizeof__'
p22
S'<built-in method __sizeof__ of exceptions.SyntaxError object>'
p23
sS'__init__'
p24
S"<method-wrapper '__init__' of exceptions.SyntaxError object>"
p25
sS'__setattr__'
p26
S"<method-wrapper '__setattr__' of exceptions.SyntaxError object>"
p27
sS'__reduce_ex__'
p28
S'<built-in method __reduce_ex__ of exceptions.SyntaxError object>'
p29
sS'__new__'
p30
S'<built-in method __new__ of type object>'
p31
sS'__format__'
p32
S'<built-in method __format__ of exceptions.SyntaxError object>'
p33
sS'__class__'
p34
S"<type 'exceptions.SyntaxError'>"
p35
sS'filename'
p36
S"'/home/umang/web2py/applications/assignmen3/controllers/default.py'"
p37
sS'lineno'
p38
S'45'
p39
sS'msg'
p40
S"'invalid syntax'"
p41
sS'__doc__'
p42
S"'Invalid syntax.'"
p43
sS'__getitem__'
p44
S"<method-wrapper '__getitem__' of exceptions.SyntaxError object>"
p45
sS'__setstate__'
p46
S'<built-in method __setstate__ of exceptions.SyntaxError object>'
p47
sS'__getattribute__'
p48
S"<method-wrapper '__getattribute__' of exceptions.SyntaxError object>"
p49
sS'print_file_and_line'
p50
S'None'
p51
sS'args'
p52
S"('invalid syntax', ('/home/umang/web2py/applications/assignmen3/controllers/default.py', 45, 114, '\\tdisp=db(db.news.category_id==query).select(db.n...ews.id db.news.pres_time,orderby=db.news.rating)\\n'))"
p53
sS'__subclasshook__'
p54
S'<built-in method __subclasshook__ of type object>'
p55
sS'offset'
p56
S'114'
p57
sS'__unicode__'
p58
S'<built-in method __unicode__ of exceptions.SyntaxError object>'
p59
sS'__delattr__'
p60
S"<method-wrapper '__delattr__' of exceptions.SyntaxError object>"
p61
sS'__repr__'
p62
S"<method-wrapper '__repr__' of exceptions.SyntaxError object>"
p63
sS'__hash__'
p64
S"<method-wrapper '__hash__' of exceptions.SyntaxError object>"
p65
ssS'evalue'
p66
S'invalid syntax (default.py, line 45)'
p67
sS'request'
p68
ccopy_reg
_reconstructor
p69
(cgluon.html
BEAUTIFY
p70
c__builtin__
object
p71
NtRp72
(dp73
S'attributes'
p74
(dp75
sS'components'
p76
(lp77
g69
(cgluon.html
TABLE
p78
g71
NtRp79
(dp80
g74
(dp81
S'level'
p82
I5
ssS'parent'
p83
Nsg76
(lp84
g69
(cgluon.html
TR
p85
g71
NtRp86
(dp87
g74
(dp88
sg83
g79
sg76
(lp89
g69
(cgluon.html
TD
p90
g71
NtRp91
(dp92
g74
(dp93
S'_style'
p94
S'font-weight:bold;vertical-align:top'
p95
ssg83
g86
sg76
(lp96
S'ajax'
p97
asbag69
(g90
g71
NtRp98
(dp99
g74
(dp100
S'_valign'
p101
S'top'
p102
ssg83
g86
sg76
(lp103
S':'
asbag69
(g90
g71
NtRp104
(dp105
g74
(dp106
sg83
g86
sg76
(lp107
g69
(g70
g71
NtRp108
(dp109
g74
(dp110
g82
I5
ssg83
g104
sg76
(lp111
S'False'
p112
asbasbasbag69
(g85
g71
NtRp113
(dp114
g74
(dp115
sg83
g79
sg76
(lp116
g69
(g90
g71
NtRp117
(dp118
g74
(dp119
g94
g95
ssg83
g113
sg76
(lp120
S'application'
p121
asbag69
(g90
g71
NtRp122
(dp123
g74
(dp124
g101
g102
ssg83
g113
sg76
(lp125
S':'
asbag69
(g90
g71
NtRp126
(dp127
g74
(dp128
sg83
g113
sg76
(lp129
g69
(g70
g71
NtRp130
(dp131
g74
(dp132
g82
I5
ssg83
g126
sg76
(lp133
S'assignmen3'
p134
asbasbasbag69
(g85
g71
NtRp135
(dp136
g74
(dp137
sg83
g79
sg76
(lp138
g69
(g90
g71
NtRp139
(dp140
g74
(dp141
g94
g95
ssg83
g135
sg76
(lp142
g52
asbag69
(g90
g71
NtRp143
(dp144
g74
(dp145
g101
g102
ssg83
g135
sg76
(lp146
S':'
asbag69
(g90
g71
NtRp147
(dp148
g74
(dp149
sg83
g135
sg76
(lp150
g69
(g70
g71
NtRp151
(dp152
g74
(dp153
g82
I5
ssg83
g147
sg76
(lp154
g69
(g78
g71
NtRp155
(dp156
g74
(dp157
g82
I4
ssg83
Nsg76
(lp158
g69
(g85
g71
NtRp159
(dp160
g74
(dp161
sg83
g155
sg76
(lp162
g69
(g90
g71
NtRp163
(dp164
g74
(dp165
sg83
g159
sg76
(lp166
g69
(g70
g71
NtRp167
(dp168
g74
(dp169
g82
I4
ssg83
g163
sg76
(lp170
S'3'
asbasbasbag69
(g85
g71
NtRp171
(dp172
g74
(dp173
sg83
g155
sg76
(lp174
g69
(g90
g71
NtRp175
(dp176
g74
(dp177
sg83
g171
sg76
(lp178
g69
(g70
g71
NtRp179
(dp180
g74
(dp181
g82
I4
ssg83
g175
sg76
(lp182
S'2'
asbasbasbasbasbasbasbag69
(g85
g71
NtRp183
(dp184
g74
(dp185
sg83
g79
sg76
(lp186
g69
(g90
g71
NtRp187
(dp188
g74
(dp189
g94
g95
ssg83
g183
sg76
(lp190
S'body'
p191
asbag69
(g90
g71
NtRp192
(dp193
g74
(dp194
g101
g102
ssg83
g183
sg76
(lp195
S':'
asbag69
(g90
g71
NtRp196
(dp197
g74
(dp198
sg83
g183
sg76
(lp199
g69
(g70
g71
NtRp200
(dp201
g74
(dp202
g82
I5
ssg83
g196
sg76
(lp203
S'<cStringIO.StringO object at 0x7f94f8061b20>'
p204
asbasbasbag69
(g85
g71
NtRp205
(dp206
g74
(dp207
sg83
g79
sg76
(lp208
g69
(g90
g71
NtRp209
(dp210
g74
(dp211
g94
g95
ssg83
g205
sg76
(lp212
S'cid'
p213
asbag69
(g90
g71
NtRp214
(dp215
g74
(dp216
g101
g102
ssg83
g205
sg76
(lp217
S':'
asbag69
(g90
g71
NtRp218
(dp219
g74
(dp220
sg83
g205
sg76
(lp221
g69
(g70
g71
NtRp222
(dp223
g74
(dp224
g82
I5
ssg83
g218
sg76
(lp225
S'None'
p226
asbasbasbag69
(g85
g71
NtRp227
(dp228
g74
(dp229
sg83
g79
sg76
(lp230
g69
(g90
g71
NtRp231
(dp232
g74
(dp233
g94
g95
ssg83
g227
sg76
(lp234
S'client'
p235
asbag69
(g90
g71
NtRp236
(dp237
g74
(dp238
g101
g102
ssg83
g227
sg76
(lp239
S':'
asbag69
(g90
g71
NtRp240
(dp241
g74
(dp242
sg83
g227
sg76
(lp243
g69
(g70
g71
NtRp244
(dp245
g74
(dp246
g82
I5
ssg83
g240
sg76
(lp247
S'127.0.0.1'
p248
asbasbasbag69
(g85
g71
NtRp249
(dp250
g74
(dp251
sg83
g79
sg76
(lp252
g69
(g90
g71
NtRp253
(dp254
g74
(dp255
g94
g95
ssg83
g249
sg76
(lp256
S'controller'
p257
asbag69
(g90
g71
NtRp258
(dp259
g74
(dp260
g101
g102
ssg83
g249
sg76
(lp261
S':'
asbag69
(g90
g71
NtRp262
(dp263
g74
(dp264
sg83
g249
sg76
(lp265
g69
(g70
g71
NtRp266
(dp267
g74
(dp268
g82
I5
ssg83
g262
sg76
(lp269
S'default'
p270
asbasbasbag69
(g85
g71
NtRp271
(dp272
g74
(dp273
sg83
g79
sg76
(lp274
g69
(g90
g71
NtRp275
(dp276
g74
(dp277
g94
g95
ssg83
g271
sg76
(lp278
S'cookies'
p279
asbag69
(g90
g71
NtRp280
(dp281
g74
(dp282
g101
g102
ssg83
g271
sg76
(lp283
S':'
asbag69
(g90
g71
NtRp284
(dp285
g74
(dp286
sg83
g271
sg76
(lp287
g69
(g70
g71
NtRp288
(dp289
g74
(dp290
g82
I5
ssg83
g284
sg76
(lp291
g69
(g78
g71
NtRp292
(dp293
g74
(dp294
g82
I4
ssg83
Nsg76
(lp295
g69
(g85
g71
NtRp296
(dp297
g74
(dp298
sg83
g292
sg76
(lp299
g69
(g90
g71
NtRp300
(dp301
g74
(dp302
g94
g95
ssg83
g296
sg76
(lp303
S'session_id_admin'
p304
asbag69
(g90
g71
NtRp305
(dp306
g74
(dp307
g101
g102
ssg83
g296
sg76
(lp308
S':'
asbag69
(g90
g71
NtRp309
(dp310
g74
(dp311
sg83
g296
sg76
(lp312
g69
(g70
g71
NtRp313
(dp314
g74
(dp315
g82
I4
ssg83
g309
sg76
(lp316
S'127.0.0.1-d509f0cc-4c80-4380-be27-aebf7c06a1e6'
p317
ag69
(g78
g71
NtRp318
(dp319
g74
(dp320
g82
I3
ssg83
Nsg76
(lp321
g69
(g85
g71
NtRp322
(dp323
g74
(dp324
sg83
g318
sg76
(lp325
g69
(g90
g71
NtRp326
(dp327
g74
(dp328
g94
g95
ssg83
g322
sg76
(lp329
S'comment'
p330
asbag69
(g90
g71
NtRp331
(dp332
g74
(dp333
g101
g102
ssg83
g322
sg76
(lp334
S':'
asbag69
(g90
g71
NtRp335
(dp336
g74
(dp337
sg83
g322
sg76
(lp338
g69
(g70
g71
NtRp339
(dp340
g74
(dp341
g82
I3
ssg83
g335
sg76
(lp342
S''
asbasbasbag69
(g85
g71
NtRp343
(dp344
g74
(dp345
sg83
g318
sg76
(lp346
g69
(g90
g71
NtRp347
(dp348
g74
(dp349
g94
g95
ssg83
g343
sg76
(lp350
S'domain'
p351
asbag69
(g90
g71
NtRp352
(dp353
g74
(dp354
g101
g102
ssg83
g343
sg76
(lp355
S':'
asbag69
(g90
g71
NtRp356
(dp357
g74
(dp358
sg83
g343
sg76
(lp359
g69
(g70
g71
NtRp360
(dp361
g74
(dp362
g82
I3
ssg83
g356
sg76
(lp363
S''
asbasbasbag69
(g85
g71
NtRp364
(dp365
g74
(dp366
sg83
g318
sg76
(lp367
g69
(g90
g71
NtRp368
(dp369
g74
(dp370
g94
g95
ssg83
g364
sg76
(lp371
S'expires'
p372
asbag69
(g90
g71
NtRp373
(dp374
g74
(dp375
g101
g102
ssg83
g364
sg76
(lp376
S':'
asbag69
(g90
g71
NtRp377
(dp378
g74
(dp379
sg83
g364
sg76
(lp380
g69
(g70
g71
NtRp381
(dp382
g74
(dp383
g82
I3
ssg83
g377
sg76
(lp384
S''
asbasbasbag69
(g85
g71
NtRp385
(dp386
g74
(dp387
sg83
g318
sg76
(lp388
g69
(g90
g71
NtRp389
(dp390
g74
(dp391
g94
g95
ssg83
g385
sg76
(lp392
S'httponly'
p393
asbag69
(g90
g71
NtRp394
(dp395
g74
(dp396
g101
g102
ssg83
g385
sg76
(lp397
S':'
asbag69
(g90
g71
NtRp398
(dp399
g74
(dp400
sg83
g385
sg76
(lp401
g69
(g70
g71
NtRp402
(dp403
g74
(dp404
g82
I3
ssg83
g398
sg76
(lp405
S''
asbasbasbag69
(g85
g71
NtRp406
(dp407
g74
(dp408
sg83
g318
sg76
(lp409
g69
(g90
g71
NtRp410
(dp411
g74
(dp412
g94
g95
ssg83
g406
sg76
(lp413
S'max-age'
p414
asbag69
(g90
g71
NtRp415
(dp416
g74
(dp417
g101
g102
ssg83
g406
sg76
(lp418
S':'
asbag69
(g90
g71
NtRp419
(dp420
g74
(dp421
sg83
g406
sg76
(lp422
g69
(g70
g71
NtRp423
(dp424
g74
(dp425
g82
I3
ssg83
g419
sg76
(lp426
S''
asbasbasbag69
(g85
g71
NtRp427
(dp428
g74
(dp429
sg83
g318
sg76
(lp430
g69
(g90
g71
NtRp431
(dp432
g74
(dp433
g94
g95
ssg83
g427
sg76
(lp434
S'path'
p435
asbag69
(g90
g71
NtRp436
(dp437
g74
(dp438
g101
g102
ssg83
g427
sg76
(lp439
S':'
asbag69
(g90
g71
NtRp440
(dp441
g74
(dp442
sg83
g427
sg76
(lp443
g69
(g70
g71
NtRp444
(dp445
g74
(dp446
g82
I3
ssg83
g440
sg76
(lp447
S''
asbasbasbag69
(g85
g71
NtRp448
(dp449
g74
(dp450
sg83
g318
sg76
(lp451
g69
(g90
g71
NtRp452
(dp453
g74
(dp454
g94
g95
ssg83
g448
sg76
(lp455
S'secure'
p456
asbag69
(g90
g71
NtRp457
(dp458
g74
(dp459
g101
g102
ssg83
g448
sg76
(lp460
S':'
asbag69
(g90
g71
NtRp461
(dp462
g74
(dp463
sg83
g448
sg76
(lp464
g69
(g70
g71
NtRp465
(dp466
g74
(dp467
g82
I3
ssg83
g461
sg76
(lp468
S''
asbasbasbag69
(g85
g71
NtRp469
(dp470
g74
(dp471
sg83
g318
sg76
(lp472
g69
(g90
g71
NtRp473
(dp474
g74
(dp475
g94
g95
ssg83
g469
sg76
(lp476
S'version'
p477
asbag69
(g90
g71
NtRp478
(dp479
g74
(dp480
g101
g102
ssg83
g469
sg76
(lp481
S':'
asbag69
(g90
g71
NtRp482
(dp483
g74
(dp484
sg83
g469
sg76
(lp485
g69
(g70
g71
NtRp486
(dp487
g74
(dp488
g82
I3
ssg83
g482
sg76
(lp489
S''
asbasbasbasbasbasbasbag69
(g85
g71
NtRp490
(dp491
g74
(dp492
sg83
g292
sg76
(lp493
g69
(g90
g71
NtRp494
(dp495
g74
(dp496
g94
g95
ssg83
g490
sg76
(lp497
S'session_id_assignmen3'
p498
asbag69
(g90
g71
NtRp499
(dp500
g74
(dp501
g101
g102
ssg83
g490
sg76
(lp502
S':'
asbag69
(g90
g71
NtRp503
(dp504
g74
(dp505
sg83
g490
sg76
(lp506
g69
(g70
g71
NtRp507
(dp508
g74
(dp509
g82
I4
ssg83
g503
sg76
(lp510
S'127.0.0.1-f78a0883-b419-4f1b-8802-d13ae89341f4'
p511
ag69
(g78
g71
NtRp512
(dp513
g74
(dp514
g82
I3
ssg83
Nsg76
(lp515
g69
(g85
g71
NtRp516
(dp517
g74
(dp518
sg83
g512
sg76
(lp519
g69
(g90
g71
NtRp520
(dp521
g74
(dp522
g94
g95
ssg83
g516
sg76
(lp523
g330
asbag69
(g90
g71
NtRp524
(dp525
g74
(dp526
g101
g102
ssg83
g516
sg76
(lp527
S':'
asbag69
(g90
g71
NtRp528
(dp529
g74
(dp530
sg83
g516
sg76
(lp531
g69
(g70
g71
NtRp532
(dp533
g74
(dp534
g82
I3
ssg83
g528
sg76
(lp535
S''
asbasbasbag69
(g85
g71
NtRp536
(dp537
g74
(dp538
sg83
g512
sg76
(lp539
g69
(g90
g71
NtRp540
(dp541
g74
(dp542
g94
g95
ssg83
g536
sg76
(lp543
g351
asbag69
(g90
g71
NtRp544
(dp545
g74
(dp546
g101
g102
ssg83
g536
sg76
(lp547
S':'
asbag69
(g90
g71
NtRp548
(dp549
g74
(dp550
sg83
g536
sg76
(lp551
g69
(g70
g71
NtRp552
(dp553
g74
(dp554
g82
I3
ssg83
g548
sg76
(lp555
S''
asbasbasbag69
(g85
g71
NtRp556
(dp557
g74
(dp558
sg83
g512
sg76
(lp559
g69
(g90
g71
NtRp560
(dp561
g74
(dp562
g94
g95
ssg83
g556
sg76
(lp563
g372
asbag69
(g90
g71
NtRp564
(dp565
g74
(dp566
g101
g102
ssg83
g556
sg76
(lp567
S':'
asbag69
(g90
g71
NtRp568
(dp569
g74
(dp570
sg83
g556
sg76
(lp571
g69
(g70
g71
NtRp572
(dp573
g74
(dp574
g82
I3
ssg83
g568
sg76
(lp575
S''
asbasbasbag69
(g85
g71
NtRp576
(dp577
g74
(dp578
sg83
g512
sg76
(lp579
g69
(g90
g71
NtRp580
(dp581
g74
(dp582
g94
g95
ssg83
g576
sg76
(lp583
g393
asbag69
(g90
g71
NtRp584
(dp585
g74
(dp586
g101
g102
ssg83
g576
sg76
(lp587
S':'
asbag69
(g90
g71
NtRp588
(dp589
g74
(dp590
sg83
g576
sg76
(lp591
g69
(g70
g71
NtRp592
(dp593
g74
(dp594
g82
I3
ssg83
g588
sg76
(lp595
S''
asbasbasbag69
(g85
g71
NtRp596
(dp597
g74
(dp598
sg83
g512
sg76
(lp599
g69
(g90
g71
NtRp600
(dp601
g74
(dp602
g94
g95
ssg83
g596
sg76
(lp603
g414
asbag69
(g90
g71
NtRp604
(dp605
g74
(dp606
g101
g102
ssg83
g596
sg76
(lp607
S':'
asbag69
(g90
g71
NtRp608
(dp609
g74
(dp610
sg83
g596
sg76
(lp611
g69
(g70
g71
NtRp612
(dp613
g74
(dp614
g82
I3
ssg83
g608
sg76
(lp615
S''
asbasbasbag69
(g85
g71
NtRp616
(dp617
g74
(dp618
sg83
g512
sg76
(lp619
g69
(g90
g71
NtRp620
(dp621
g74
(dp622
g94
g95
ssg83
g616
sg76
(lp623
g435
asbag69
(g90
g71
NtRp624
(dp625
g74
(dp626
g101
g102
ssg83
g616
sg76
(lp627
S':'
asbag69
(g90
g71
NtRp628
(dp629
g74
(dp630
sg83
g616
sg76
(lp631
g69
(g70
g71
NtRp632
(dp633
g74
(dp634
g82
I3
ssg83
g628
sg76
(lp635
S''
asbasbasbag69
(g85
g71
NtRp636
(dp637
g74
(dp638
sg83
g512
sg76
(lp639
g69
(g90
g71
NtRp640
(dp641
g74
(dp642
g94
g95
ssg83
g636
sg76
(lp643
g456
asbag69
(g90
g71
NtRp644
(dp645
g74
(dp646
g101
g102
ssg83
g636
sg76
(lp647
S':'
asbag69
(g90
g71
NtRp648
(dp649
g74
(dp650
sg83
g636
sg76
(lp651
g69
(g70
g71
NtRp652
(dp653
g74
(dp654
g82
I3
ssg83
g648
sg76
(lp655
S''
asbasbasbag69
(g85
g71
NtRp656
(dp657
g74
(dp658
sg83
g512
sg76
(lp659
g69
(g90
g71
NtRp660
(dp661
g74
(dp662
g94
g95
ssg83
g656
sg76
(lp663
g477
asbag69
(g90
g71
NtRp664
(dp665
g74
(dp666
g101
g102
ssg83
g656
sg76
(lp667
S':'
asbag69
(g90
g71
NtRp668
(dp669
g74
(dp670
sg83
g656
sg76
(lp671
g69
(g70
g71
NtRp672
(dp673
g74
(dp674
g82
I3
ssg83
g668
sg76
(lp675
S''
asbasbasbasbasbasbasbag69
(g85
g71
NtRp676
(dp677
g74
(dp678
sg83
g292
sg76
(lp679
g69
(g90
g71
NtRp680
(dp681
g74
(dp682
g94
g95
ssg83
g676
sg76
(lp683
S'session_id_welcome'
p684
asbag69
(g90
g71
NtRp685
(dp686
g74
(dp687
g101
g102
ssg83
g676
sg76
(lp688
S':'
asbag69
(g90
g71
NtRp689
(dp690
g74
(dp691
sg83
g676
sg76
(lp692
g69
(g70
g71
NtRp693
(dp694
g74
(dp695
g82
I4
ssg83
g689
sg76
(lp696
S'127.0.0.1-a2b1b4d6-eba7-4458-9892-ba028024c0c4'
p697
ag69
(g78
g71
NtRp698
(dp699
g74
(dp700
g82
I3
ssg83
Nsg76
(lp701
g69
(g85
g71
NtRp702
(dp703
g74
(dp704
sg83
g698
sg76
(lp705
g69
(g90
g71
NtRp706
(dp707
g74
(dp708
g94
g95
ssg83
g702
sg76
(lp709
g330
asbag69
(g90
g71
NtRp710
(dp711
g74
(dp712
g101
g102
ssg83
g702
sg76
(lp713
S':'
asbag69
(g90
g71
NtRp714
(dp715
g74
(dp716
sg83
g702
sg76
(lp717
g69
(g70
g71
NtRp718
(dp719
g74
(dp720
g82
I3
ssg83
g714
sg76
(lp721
S''
asbasbasbag69
(g85
g71
NtRp722
(dp723
g74
(dp724
sg83
g698
sg76
(lp725
g69
(g90
g71
NtRp726
(dp727
g74
(dp728
g94
g95
ssg83
g722
sg76
(lp729
g351
asbag69
(g90
g71
NtRp730
(dp731
g74
(dp732
g101
g102
ssg83
g722
sg76
(lp733
S':'
asbag69
(g90
g71
NtRp734
(dp735
g74
(dp736
sg83
g722
sg76
(lp737
g69
(g70
g71
NtRp738
(dp739
g74
(dp740
g82
I3
ssg83
g734
sg76
(lp741
S''
asbasbasbag69
(g85
g71
NtRp742
(dp743
g74
(dp744
sg83
g698
sg76
(lp745
g69
(g90
g71
NtRp746
(dp747
g74
(dp748
g94
g95
ssg83
g742
sg76
(lp749
g372
asbag69
(g90
g71
NtRp750
(dp751
g74
(dp752
g101
g102
ssg83
g742
sg76
(lp753
S':'
asbag69
(g90
g71
NtRp754
(dp755
g74
(dp756
sg83
g742
sg76
(lp757
g69
(g70
g71
NtRp758
(dp759
g74
(dp760
g82
I3
ssg83
g754
sg76
(lp761
S''
asbasbasbag69
(g85
g71
NtRp762
(dp763
g74
(dp764
sg83
g698
sg76
(lp765
g69
(g90
g71
NtRp766
(dp767
g74
(dp768
g94
g95
ssg83
g762
sg76
(lp769
g393
asbag69
(g90
g71
NtRp770
(dp771
g74
(dp772
g101
g102
ssg83
g762
sg76
(lp773
S':'
asbag69
(g90
g71
NtRp774
(dp775
g74
(dp776
sg83
g762
sg76
(lp777
g69
(g70
g71
NtRp778
(dp779
g74
(dp780
g82
I3
ssg83
g774
sg76
(lp781
S''
asbasbasbag69
(g85
g71
NtRp782
(dp783
g74
(dp784
sg83
g698
sg76
(lp785
g69
(g90
g71
NtRp786
(dp787
g74
(dp788
g94
g95
ssg83
g782
sg76
(lp789
g414
asbag69
(g90
g71
NtRp790
(dp791
g74
(dp792
g101
g102
ssg83
g782
sg76
(lp793
S':'
asbag69
(g90
g71
NtRp794
(dp795
g74
(dp796
sg83
g782
sg76
(lp797
g69
(g70
g71
NtRp798
(dp799
g74
(dp800
g82
I3
ssg83
g794
sg76
(lp801
S''
asbasbasbag69
(g85
g71
NtRp802
(dp803
g74
(dp804
sg83
g698
sg76
(lp805
g69
(g90
g71
NtRp806
(dp807
g74
(dp808
g94
g95
ssg83
g802
sg76
(lp809
g435
asbag69
(g90
g71
NtRp810
(dp811
g74
(dp812
g101
g102
ssg83
g802
sg76
(lp813
S':'
asbag69
(g90
g71
NtRp814
(dp815
g74
(dp816
sg83
g802
sg76
(lp817
g69
(g70
g71
NtRp818
(dp819
g74
(dp820
g82
I3
ssg83
g814
sg76
(lp821
S''
asbasbasbag69
(g85
g71
NtRp822
(dp823
g74
(dp824
sg83
g698
sg76
(lp825
g69
(g90
g71
NtRp826
(dp827
g74
(dp828
g94
g95
ssg83
g822
sg76
(lp829
g456
asbag69
(g90
g71
NtRp830
(dp831
g74
(dp832
g101
g102
ssg83
g822
sg76
(lp833
S':'
asbag69
(g90
g71
NtRp834
(dp835
g74
(dp836
sg83
g822
sg76
(lp837
g69
(g70
g71
NtRp838
(dp839
g74
(dp840
g82
I3
ssg83
g834
sg76
(lp841
S''
asbasbasbag69
(g85
g71
NtRp842
(dp843
g74
(dp844
sg83
g698
sg76
(lp845
g69
(g90
g71
NtRp846
(dp847
g74
(dp848
g94
g95
ssg83
g842
sg76
(lp849
g477
asbag69
(g90
g71
NtRp850
(dp851
g74
(dp852
g101
g102
ssg83
g842
sg76
(lp853
S':'
asbag69
(g90
g71
NtRp854
(dp855
g74
(dp856
sg83
g842
sg76
(lp857
g69
(g70
g71
NtRp858
(dp859
g74
(dp860
g82
I3
ssg83
g854
sg76
(lp861
S''
asbasbasbasbasbasbasbasbasbasbasbag69
(g85
g71
NtRp862
(dp863
g74
(dp864
sg83
g79
sg76
(lp865
g69
(g90
g71
NtRp866
(dp867
g74
(dp868
g94
g95
ssg83
g862
sg76
(lp869
S'env'
p870
asbag69
(g90
g71
NtRp871
(dp872
g74
(dp873
g101
g102
ssg83
g862
sg76
(lp874
S':'
asbag69
(g90
g71
NtRp875
(dp876
g74
(dp877
sg83
g862
sg76
(lp878
g69
(g70
g71
NtRp879
(dp880
g74
(dp881
g82
I5
ssg83
g875
sg76
(lp882
g69
(g78
g71
NtRp883
(dp884
g74
(dp885
g82
I4
ssg83
Nsg76
(lp886
g69
(g85
g71
NtRp887
(dp888
g74
(dp889
sg83
g883
sg76
(lp890
g69
(g90
g71
NtRp891
(dp892
g74
(dp893
g94
g95
ssg83
g887
sg76
(lp894
S'app_folders'
p895
asbag69
(g90
g71
NtRp896
(dp897
g74
(dp898
g101
g102
ssg83
g887
sg76
(lp899
S':'
asbag69
(g90
g71
NtRp900
(dp901
g74
(dp902
sg83
g887
sg76
(lp903
g69
(g70
g71
NtRp904
(dp905
g74
(dp906
g82
I4
ssg83
g900
sg76
(lp907
S"set(['/home/umang/web2py/applications/admin/', '/home/umang/web2py/applications/assignmen3/', '/home/umang/web2py/applications/welcome/'])"
p908
asbasbasbag69
(g85
g71
NtRp909
(dp910
g74
(dp911
sg83
g883
sg76
(lp912
g69
(g90
g71
NtRp913
(dp914
g74
(dp915
g94
g95
ssg83
g909
sg76
(lp916
S'applications_parent'
p917
asbag69
(g90
g71
NtRp918
(dp919
g74
(dp920
g101
g102
ssg83
g909
sg76
(lp921
S':'
asbag69
(g90
g71
NtRp922
(dp923
g74
(dp924
sg83
g909
sg76
(lp925
g69
(g70
g71
NtRp926
(dp927
g74
(dp928
g82
I4
ssg83
g922
sg76
(lp929
S'/home/umang/web2py'
p930
asbasbasbag69
(g85
g71
NtRp931
(dp932
g74
(dp933
sg83
g883
sg76
(lp934
g69
(g90
g71
NtRp935
(dp936
g74
(dp937
g94
g95
ssg83
g931
sg76
(lp938
S'cmd_args'
p939
asbag69
(g90
g71
NtRp940
(dp941
g74
(dp942
g101
g102
ssg83
g931
sg76
(lp943
S':'
asbag69
(g90
g71
NtRp944
(dp945
g74
(dp946
sg83
g931
sg76
(lp947
g69
(g70
g71
NtRp948
(dp949
g74
(dp950
g82
I4
ssg83
g944
sg76
(lp951
g69
(g78
g71
NtRp952
(dp953
g74
(dp954
g82
I3
ssg83
Nsg76
(lp955
sbasbasbasbag69
(g85
g71
NtRp956
(dp957
g74
(dp958
sg83
g883
sg76
(lp959
g69
(g90
g71
NtRp960
(dp961
g74
(dp962
g94
g95
ssg83
g956
sg76
(lp963
S'cmd_options'
p964
asbag69
(g90
g71
NtRp965
(dp966
g74
(dp967
g101
g102
ssg83
g956
sg76
(lp968
S':'
asbag69
(g90
g71
NtRp969
(dp970
g74
(dp971
sg83
g956
sg76
(lp972
g69
(g70
g71
NtRp973
(dp974
g74
(dp975
g82
I4
ssg83
g969
sg76
(lp976
S"<Values at 0x1698200: {'verbose': False, 'ip': '127.0.0.1', 'with_scheduler': False, 'ips': [], 'shutdown_timeout': 5, 'taskbar': False, 'port': 8000, 'maxthreads': None, 'softcron': False, 'server_name': 'umang-HP-Pavilion-g6-Notebook-PC', 'bpython': False, 'nogui': False, 'pid_filename': 'httpserver.pid', 'extcron': False, 'runcron': False, 'run_system_tests': False, 'test': None, 'folder': '/home/umang/web2py', 'config': '', 'minthreads': None, 'winservice': '', 'shell': None, 'run': '', 'log_filename': 'httpserver.log', 'debuglevel': 30, 'args': [''], 'socket_timeout': 5, 'ssl_ca_certificate': None, 'scheduler': None, 'profiler_filename': None, 'ssl_private_key': '', 'scheduler_groups': None, 'password': '<ask>', 'request_queue_size': 5, 'ssl_certificate': '', 'cronjob': False, 'numthreads': None, 'quiet': False, 'interfaces': None, 'import_models': False, 'timeout': 10, 'plain': False, 'nobanner': False}>"
p977
asbasbasbag69
(g85
g71
NtRp978
(dp979
g74
(dp980
sg83
g883
sg76
(lp981
g69
(g90
g71
NtRp982
(dp983
g74
(dp984
g94
g95
ssg83
g978
sg76
(lp985
S'db_sessions'
p986
asbag69
(g90
g71
NtRp987
(dp988
g74
(dp989
g101
g102
ssg83
g978
sg76
(lp990
S':'
asbag69
(g90
g71
NtRp991
(dp992
g74
(dp993
sg83
g978
sg76
(lp994
g69
(g70
g71
NtRp995
(dp996
g74
(dp997
g82
I4
ssg83
g991
sg76
(lp998
S'set([])'
p999
asbasbasbag69
(g85
g71
NtRp1000
(dp1001
g74
(dp1002
sg83
g883
sg76
(lp1003
g69
(g90
g71
NtRp1004
(dp1005
g74
(dp1006
g94
g95
ssg83
g1000
sg76
(lp1007
S'debugging'
p1008
asbag69
(g90
g71
NtRp1009
(dp1010
g74
(dp1011
g101
g102
ssg83
g1000
sg76
(lp1012
S':'
asbag69
(g90
g71
NtRp1013
(dp1014
g74
(dp1015
sg83
g1000
sg76
(lp1016
g69
(g70
g71
NtRp1017
(dp1018
g74
(dp1019
g82
I4
ssg83
g1013
sg76
(lp1020
g112
asbasbasbag69
(g85
g71
NtRp1021
(dp1022
g74
(dp1023
sg83
g883
sg76
(lp1024
g69
(g90
g71
NtRp1025
(dp1026
g74
(dp1027
g94
g95
ssg83
g1021
sg76
(lp1028
S'gluon_parent'
p1029
asbag69
(g90
g71
NtRp1030
(dp1031
g74
(dp1032
g101
g102
ssg83
g1021
sg76
(lp1033
S':'
asbag69
(g90
g71
NtRp1034
(dp1035
g74
(dp1036
sg83
g1021
sg76
(lp1037
g69
(g70
g71
NtRp1038
(dp1039
g74
(dp1040
g82
I4
ssg83
g1034
sg76
(lp1041
S'/home/umang/web2py'
p1042
asbasbasbag69
(g85
g71
NtRp1043
(dp1044
g74
(dp1045
sg83
g883
sg76
(lp1046
g69
(g90
g71
NtRp1047
(dp1048
g74
(dp1049
g94
g95
ssg83
g1043
sg76
(lp1050
S'http_accept'
p1051
asbag69
(g90
g71
NtRp1052
(dp1053
g74
(dp1054
g101
g102
ssg83
g1043
sg76
(lp1055
S':'
asbag69
(g90
g71
NtRp1056
(dp1057
g74
(dp1058
sg83
g1043
sg76
(lp1059
g69
(g70
g71
NtRp1060
(dp1061
g74
(dp1062
g82
I4
ssg83
g1056
sg76
(lp1063
S'text/html,application/xhtml+xml,application/xml;q=0.9,*/*;q=0.8'
p1064
asbasbasbag69
(g85
g71
NtRp1065
(dp1066
g74
(dp1067
sg83
g883
sg76
(lp1068
g69
(g90
g71
NtRp1069
(dp1070
g74
(dp1071
g94
g95
ssg83
g1065
sg76
(lp1072
S'http_accept_encoding'
p1073
asbag69
(g90
g71
NtRp1074
(dp1075
g74
(dp1076
g101
g102
ssg83
g1065
sg76
(lp1077
S':'
asbag69
(g90
g71
NtRp1078
(dp1079
g74
(dp1080
sg83
g1065
sg76
(lp1081
g69
(g70
g71
NtRp1082
(dp1083
g74
(dp1084
g82
I4
ssg83
g1078
sg76
(lp1085
S'gzip, deflate'
p1086
asbasbasbag69
(g85
g71
NtRp1087
(dp1088
g74
(dp1089
sg83
g883
sg76
(lp1090
g69
(g90
g71
NtRp1091
(dp1092
g74
(dp1093
g94
g95
ssg83
g1087
sg76
(lp1094
S'http_accept_language'
p1095
asbag69
(g90
g71
NtRp1096
(dp1097
g74
(dp1098
g101
g102
ssg83
g1087
sg76
(lp1099
S':'
asbag69
(g90
g71
NtRp1100
(dp1101
g74
(dp1102
sg83
g1087
sg76
(lp1103
g69
(g70
g71
NtRp1104
(dp1105
g74
(dp1106
g82
I4
ssg83
g1100
sg76
(lp1107
S'en-us,en;q=0.5'
p1108
asbasbasbag69
(g85
g71
NtRp1109
(dp1110
g74
(dp1111
sg83
g883
sg76
(lp1112
g69
(g90
g71
NtRp1113
(dp1114
g74
(dp1115
g94
g95
ssg83
g1109
sg76
(lp1116
S'http_connection'
p1117
asbag69
(g90
g71
NtRp1118
(dp1119
g74
(dp1120
g101
g102
ssg83
g1109
sg76
(lp1121
S':'
asbag69
(g90
g71
NtRp1122
(dp1123
g74
(dp1124
sg83
g1109
sg76
(lp1125
g69
(g70
g71
NtRp1126
(dp1127
g74
(dp1128
g82
I4
ssg83
g1122
sg76
(lp1129
S'keep-alive'
p1130
asbasbasbag69
(g85
g71
NtRp1131
(dp1132
g74
(dp1133
sg83
g883
sg76
(lp1134
g69
(g90
g71
NtRp1135
(dp1136
g74
(dp1137
g94
g95
ssg83
g1131
sg76
(lp1138
S'http_cookie'
p1139
asbag69
(g90
g71
NtRp1140
(dp1141
g74
(dp1142
g101
g102
ssg83
g1131
sg76
(lp1143
S':'
asbag69
(g90
g71
NtRp1144
(dp1145
g74
(dp1146
sg83
g1131
sg76
(lp1147
g69
(g70
g71
NtRp1148
(dp1149
g74
(dp1150
g82
I4
ssg83
g1144
sg76
(lp1151
S'session_id_welcome=127.0.0.1-a2b1b4d6-eba7-4458-9892-ba028024c0c4; session_id_admin=127.0.0.1-d509f0cc-4c80-4380-be27-aebf7c06a1e6; session_id_assignmen3=127.0.0.1-f78a0883-b419-4f1b-8802-d13ae89341f4'
p1152
asbasbasbag69
(g85
g71
NtRp1153
(dp1154
g74
(dp1155
sg83
g883
sg76
(lp1156
g69
(g90
g71
NtRp1157
(dp1158
g74
(dp1159
g94
g95
ssg83
g1153
sg76
(lp1160
S'http_host'
p1161
asbag69
(g90
g71
NtRp1162
(dp1163
g74
(dp1164
g101
g102
ssg83
g1153
sg76
(lp1165
S':'
asbag69
(g90
g71
NtRp1166
(dp1167
g74
(dp1168
sg83
g1153
sg76
(lp1169
g69
(g70
g71
NtRp1170
(dp1171
g74
(dp1172
g82
I4
ssg83
g1166
sg76
(lp1173
S'127.0.0.1:8000'
p1174
asbasbasbag69
(g85
g71
NtRp1175
(dp1176
g74
(dp1177
sg83
g883
sg76
(lp1178
g69
(g90
g71
NtRp1179
(dp1180
g74
(dp1181
g94
g95
ssg83
g1175
sg76
(lp1182
S'http_user_agent'
p1183
asbag69
(g90
g71
NtRp1184
(dp1185
g74
(dp1186
g101
g102
ssg83
g1175
sg76
(lp1187
S':'
asbag69
(g90
g71
NtRp1188
(dp1189
g74
(dp1190
sg83
g1175
sg76
(lp1191
g69
(g70
g71
NtRp1192
(dp1193
g74
(dp1194
g82
I4
ssg83
g1188
sg76
(lp1195
S'Mozilla/5.0 (X11; Ubuntu; Linux x86_64; rv:11.0) Gecko/20100101 Firefox/11.0'
p1196
asbasbasbag69
(g85
g71
NtRp1197
(dp1198
g74
(dp1199
sg83
g883
sg76
(lp1200
g69
(g90
g71
NtRp1201
(dp1202
g74
(dp1203
g94
g95
ssg83
g1197
sg76
(lp1204
S'is_jython'
p1205
asbag69
(g90
g71
NtRp1206
(dp1207
g74
(dp1208
g101
g102
ssg83
g1197
sg76
(lp1209
S':'
asbag69
(g90
g71
NtRp1210
(dp1211
g74
(dp1212
sg83
g1197
sg76
(lp1213
g69
(g70
g71
NtRp1214
(dp1215
g74
(dp1216
g82
I4
ssg83
g1210
sg76
(lp1217
g112
asbasbasbag69
(g85
g71
NtRp1218
(dp1219
g74
(dp1220
sg83
g883
sg76
(lp1221
g69
(g90
g71
NtRp1222
(dp1223
g74
(dp1224
g94
g95
ssg83
g1218
sg76
(lp1225
S'is_pypy'
p1226
asbag69
(g90
g71
NtRp1227
(dp1228
g74
(dp1229
g101
g102
ssg83
g1218
sg76
(lp1230
S':'
asbag69
(g90
g71
NtRp1231
(dp1232
g74
(dp1233
sg83
g1218
sg76
(lp1234
g69
(g70
g71
NtRp1235
(dp1236
g74
(dp1237
g82
I4
ssg83
g1231
sg76
(lp1238
g112
asbasbasbag69
(g85
g71
NtRp1239
(dp1240
g74
(dp1241
sg83
g883
sg76
(lp1242
g69
(g90
g71
NtRp1243
(dp1244
g74
(dp1245
g94
g95
ssg83
g1239
sg76
(lp1246
S'local_hosts'
p1247
asbag69
(g90
g71
NtRp1248
(dp1249
g74
(dp1250
g101
g102
ssg83
g1239
sg76
(lp1251
S':'
asbag69
(g90
g71
NtRp1252
(dp1253
g74
(dp1254
sg83
g1239
sg76
(lp1255
g69
(g70
g71
NtRp1256
(dp1257
g74
(dp1258
g82
I4
ssg83
g1252
sg76
(lp1259
g69
(g78
g71
NtRp1260
(dp1261
g74
(dp1262
g82
I3
ssg83
Nsg76
(lp1263
g69
(g85
g71
NtRp1264
(dp1265
g74
(dp1266
sg83
g1260
sg76
(lp1267
g69
(g90
g71
NtRp1268
(dp1269
g74
(dp1270
sg83
g1264
sg76
(lp1271
g69
(g70
g71
NtRp1272
(dp1273
g74
(dp1274
g82
I3
ssg83
g1268
sg76
(lp1275
S'::1'
p1276
asbasbasbag69
(g85
g71
NtRp1277
(dp1278
g74
(dp1279
sg83
g1260
sg76
(lp1280
g69
(g90
g71
NtRp1281
(dp1282
g74
(dp1283
sg83
g1277
sg76
(lp1284
g69
(g70
g71
NtRp1285
(dp1286
g74
(dp1287
g82
I3
ssg83
g1281
sg76
(lp1288
S'127.0.1.1'
p1289
asbasbasbag69
(g85
g71
NtRp1290
(dp1291
g74
(dp1292
sg83
g1260
sg76
(lp1293
g69
(g90
g71
NtRp1294
(dp1295
g74
(dp1296
sg83
g1290
sg76
(lp1297
g69
(g70
g71
NtRp1298
(dp1299
g74
(dp1300
g82
I3
ssg83
g1294
sg76
(lp1301
S'::ffff:127.0.0.1'
p1302
asbasbasbag69
(g85
g71
NtRp1303
(dp1304
g74
(dp1305
sg83
g1260
sg76
(lp1306
g69
(g90
g71
NtRp1307
(dp1308
g74
(dp1309
sg83
g1303
sg76
(lp1310
g69
(g70
g71
NtRp1311
(dp1312
g74
(dp1313
g82
I3
ssg83
g1307
sg76
(lp1314
S'127.0.0.1'
p1315
asbasbasbag69
(g85
g71
NtRp1316
(dp1317
g74
(dp1318
sg83
g1260
sg76
(lp1319
g69
(g90
g71
NtRp1320
(dp1321
g74
(dp1322
sg83
g1316
sg76
(lp1323
g69
(g70
g71
NtRp1324
(dp1325
g74
(dp1326
g82
I3
ssg83
g1320
sg76
(lp1327
S'umang-HP-Pavilion-g6-Notebook-PC'
p1328
asbasbasbasbasbasbasbag69
(g85
g71
NtRp1329
(dp1330
g74
(dp1331
sg83
g883
sg76
(lp1332
g69
(g90
g71
NtRp1333
(dp1334
g74
(dp1335
g94
g95
ssg83
g1329
sg76
(lp1336
S'path_info'
p1337
asbag69
(g90
g71
NtRp1338
(dp1339
g74
(dp1340
g101
g102
ssg83
g1329
sg76
(lp1341
S':'
asbag69
(g90
g71
NtRp1342
(dp1343
g74
(dp1344
sg83
g1329
sg76
(lp1345
g69
(g70
g71
NtRp1346
(dp1347
g74
(dp1348
g82
I4
ssg83
g1342
sg76
(lp1349
S'/assignmen3/default/edit_news/3/2'
p1350
asbasbasbag69
(g85
g71
NtRp1351
(dp1352
g74
(dp1353
sg83
g883
sg76
(lp1354
g69
(g90
g71
NtRp1355
(dp1356
g74
(dp1357
g94
g95
ssg83
g1351
sg76
(lp1358
S'query_string'
p1359
asbag69
(g90
g71
NtRp1360
(dp1361
g74
(dp1362
g101
g102
ssg83
g1351
sg76
(lp1363
S':'
asbag69
(g90
g71
NtRp1364
(dp1365
g74
(dp1366
sg83
g1351
sg76
(lp1367
g69
(g70
g71
NtRp1368
(dp1369
g74
(dp1370
g82
I4
ssg83
g1364
sg76
(lp1371
S''
asbasbasbag69
(g85
g71
NtRp1372
(dp1373
g74
(dp1374
sg83
g883
sg76
(lp1375
g69
(g90
g71
NtRp1376
(dp1377
g74
(dp1378
g94
g95
ssg83
g1372
sg76
(lp1379
S'remote_addr'
p1380
asbag69
(g90
g71
NtRp1381
(dp1382
g74
(dp1383
g101
g102
ssg83
g1372
sg76
(lp1384
S':'
asbag69
(g90
g71
NtRp1385
(dp1386
g74
(dp1387
sg83
g1372
sg76
(lp1388
g69
(g70
g71
NtRp1389
(dp1390
g74
(dp1391
g82
I4
ssg83
g1385
sg76
(lp1392
g248
asbasbasbag69
(g85
g71
NtRp1393
(dp1394
g74
(dp1395
sg83
g883
sg76
(lp1396
g69
(g90
g71
NtRp1397
(dp1398
g74
(dp1399
g94
g95
ssg83
g1393
sg76
(lp1400
S'remote_port'
p1401
asbag69
(g90
g71
NtRp1402
(dp1403
g74
(dp1404
g101
g102
ssg83
g1393
sg76
(lp1405
S':'
asbag69
(g90
g71
NtRp1406
(dp1407
g74
(dp1408
sg83
g1393
sg76
(lp1409
g69
(g70
g71
NtRp1410
(dp1411
g74
(dp1412
g82
I4
ssg83
g1406
sg76
(lp1413
S'33856'
p1414
asbasbasbag69
(g85
g71
NtRp1415
(dp1416
g74
(dp1417
sg83
g883
sg76
(lp1418
g69
(g90
g71
NtRp1419
(dp1420
g74
(dp1421
g94
g95
ssg83
g1415
sg76
(lp1422
S'request_method'
p1423
asbag69
(g90
g71
NtRp1424
(dp1425
g74
(dp1426
g101
g102
ssg83
g1415
sg76
(lp1427
S':'
asbag69
(g90
g71
NtRp1428
(dp1429
g74
(dp1430
sg83
g1415
sg76
(lp1431
g69
(g70
g71
NtRp1432
(dp1433
g74
(dp1434
g82
I4
ssg83
g1428
sg76
(lp1435
S'GET'
p1436
asbasbasbag69
(g85
g71
NtRp1437
(dp1438
g74
(dp1439
sg83
g883
sg76
(lp1440
g69
(g90
g71
NtRp1441
(dp1442
g74
(dp1443
g94
g95
ssg83
g1437
sg76
(lp1444
S'request_uri'
p1445
asbag69
(g90
g71
NtRp1446
(dp1447
g74
(dp1448
g101
g102
ssg83
g1437
sg76
(lp1449
S':'
asbag69
(g90
g71
NtRp1450
(dp1451
g74
(dp1452
sg83
g1437
sg76
(lp1453
g69
(g70
g71
NtRp1454
(dp1455
g74
(dp1456
g82
I4
ssg83
g1450
sg76
(lp1457
g1350
asbasbasbag69
(g85
g71
NtRp1458
(dp1459
g74
(dp1460
sg83
g883
sg76
(lp1461
g69
(g90
g71
NtRp1462
(dp1463
g74
(dp1464
g94
g95
ssg83
g1458
sg76
(lp1465
S'script_name'
p1466
asbag69
(g90
g71
NtRp1467
(dp1468
g74
(dp1469
g101
g102
ssg83
g1458
sg76
(lp1470
S':'
asbag69
(g90
g71
NtRp1471
(dp1472
g74
(dp1473
sg83
g1458
sg76
(lp1474
g69
(g70
g71
NtRp1475
(dp1476
g74
(dp1477
g82
I4
ssg83
g1471
sg76
(lp1478
S''
asbasbasbag69
(g85
g71
NtRp1479
(dp1480
g74
(dp1481
sg83
g883
sg76
(lp1482
g69
(g90
g71
NtRp1483
(dp1484
g74
(dp1485
g94
g95
ssg83
g1479
sg76
(lp1486
S'server_name'
p1487
asbag69
(g90
g71
NtRp1488
(dp1489
g74
(dp1490
g101
g102
ssg83
g1479
sg76
(lp1491
S':'
asbag69
(g90
g71
NtRp1492
(dp1493
g74
(dp1494
sg83
g1479
sg76
(lp1495
g69
(g70
g71
NtRp1496
(dp1497
g74
(dp1498
g82
I4
ssg83
g1492
sg76
(lp1499
S'umang-HP-Pavilion-g6-Notebook-PC'
p1500
asbasbasbag69
(g85
g71
NtRp1501
(dp1502
g74
(dp1503
sg83
g883
sg76
(lp1504
g69
(g90
g71
NtRp1505
(dp1506
g74
(dp1507
g94
g95
ssg83
g1501
sg76
(lp1508
S'server_port'
p1509
asbag69
(g90
g71
NtRp1510
(dp1511
g74
(dp1512
g101
g102
ssg83
g1501
sg76
(lp1513
S':'
asbag69
(g90
g71
NtRp1514
(dp1515
g74
(dp1516
sg83
g1501
sg76
(lp1517
g69
(g70
g71
NtRp1518
(dp1519
g74
(dp1520
g82
I4
ssg83
g1514
sg76
(lp1521
S'8000'
p1522
asbasbasbag69
(g85
g71
NtRp1523
(dp1524
g74
(dp1525
sg83
g883
sg76
(lp1526
g69
(g90
g71
NtRp1527
(dp1528
g74
(dp1529
g94
g95
ssg83
g1523
sg76
(lp1530
S'server_protocol'
p1531
asbag69
(g90
g71
NtRp1532
(dp1533
g74
(dp1534
g101
g102
ssg83
g1523
sg76
(lp1535
S':'
asbag69
(g90
g71
NtRp1536
(dp1537
g74
(dp1538
sg83
g1523
sg76
(lp1539
g69
(g70
g71
NtRp1540
(dp1541
g74
(dp1542
g82
I4
ssg83
g1536
sg76
(lp1543
S'HTTP/1.1'
p1544
asbasbasbag69
(g85
g71
NtRp1545
(dp1546
g74
(dp1547
sg83
g883
sg76
(lp1548
g69
(g90
g71
NtRp1549
(dp1550
g74
(dp1551
g94
g95
ssg83
g1545
sg76
(lp1552
S'server_software'
p1553
asbag69
(g90
g71
NtRp1554
(dp1555
g74
(dp1556
g101
g102
ssg83
g1545
sg76
(lp1557
S':'
asbag69
(g90
g71
NtRp1558
(dp1559
g74
(dp1560
sg83
g1545
sg76
(lp1561
g69
(g70
g71
NtRp1562
(dp1563
g74
(dp1564
g82
I4
ssg83
g1558
sg76
(lp1565
S'Rocket 1.2.6'
p1566
asbasbasbag69
(g85
g71
NtRp1567
(dp1568
g74
(dp1569
sg83
g883
sg76
(lp1570
g69
(g90
g71
NtRp1571
(dp1572
g74
(dp1573
g94
g95
ssg83
g1567
sg76
(lp1574
S'web2py_path'
p1575
asbag69
(g90
g71
NtRp1576
(dp1577
g74
(dp1578
g101
g102
ssg83
g1567
sg76
(lp1579
S':'
asbag69
(g90
g71
NtRp1580
(dp1581
g74
(dp1582
sg83
g1567
sg76
(lp1583
g69
(g70
g71
NtRp1584
(dp1585
g74
(dp1586
g82
I4
ssg83
g1580
sg76
(lp1587
g930
asbasbasbag69
(g85
g71
NtRp1588
(dp1589
g74
(dp1590
sg83
g883
sg76
(lp1591
g69
(g90
g71
NtRp1592
(dp1593
g74
(dp1594
g94
g95
ssg83
g1588
sg76
(lp1595
S'web2py_version'
p1596
asbag69
(g90
g71
NtRp1597
(dp1598
g74
(dp1599
g101
g102
ssg83
g1588
sg76
(lp1600
S':'
asbag69
(g90
g71
NtRp1601
(dp1602
g74
(dp1603
sg83
g1588
sg76
(lp1604
g69
(g70
g71
NtRp1605
(dp1606
g74
(dp1607
g82
I4
ssg83
g1601
sg76
(lp1608
g69
(g78
g71
NtRp1609
(dp1610
g74
(dp1611
g82
I3
ssg83
Nsg76
(lp1612
g69
(g85
g71
NtRp1613
(dp1614
g74
(dp1615
sg83
g1609
sg76
(lp1616
g69
(g90
g71
NtRp1617
(dp1618
g74
(dp1619
sg83
g1613
sg76
(lp1620
g69
(g70
g71
NtRp1621
(dp1622
g74
(dp1623
g82
I3
ssg83
g1617
sg76
(lp1624
S'2'
asbasbasbag69
(g85
g71
NtRp1625
(dp1626
g74
(dp1627
sg83
g1609
sg76
(lp1628
g69
(g90
g71
NtRp1629
(dp1630
g74
(dp1631
sg83
g1625
sg76
(lp1632
g69
(g70
g71
NtRp1633
(dp1634
g74
(dp1635
g82
I3
ssg83
g1629
sg76
(lp1636
S'3'
asbasbasbag69
(g85
g71
NtRp1637
(dp1638
g74
(dp1639
sg83
g1609
sg76
(lp1640
g69
(g90
g71
NtRp1641
(dp1642
g74
(dp1643
sg83
g1637
sg76
(lp1644
g69
(g70
g71
NtRp1645
(dp1646
g74
(dp1647
g82
I3
ssg83
g1641
sg76
(lp1648
S'2'
asbasbasbag69
(g85
g71
NtRp1649
(dp1650
g74
(dp1651
sg83
g1609
sg76
(lp1652
g69
(g90
g71
NtRp1653
(dp1654
g74
(dp1655
sg83
g1649
sg76
(lp1656
g69
(g70
g71
NtRp1657
(dp1658
g74
(dp1659
g82
I3
ssg83
g1653
sg76
(lp1660
S'datetime.datetime(2012, 12, 17, 15, 3, 30)'
p1661
asbasbasbag69
(g85
g71
NtRp1662
(dp1663
g74
(dp1664
sg83
g1609
sg76
(lp1665
g69
(g90
g71
NtRp1666
(dp1667
g74
(dp1668
sg83
g1662
sg76
(lp1669
g69
(g70
g71
NtRp1670
(dp1671
g74
(dp1672
g82
I3
ssg83
g1666
sg76
(lp1673
S'stable'
p1674
asbasbasbasbasbasbasbag69
(g85
g71
NtRp1675
(dp1676
g74
(dp1677
sg83
g883
sg76
(lp1678
g69
(g90
g71
NtRp1679
(dp1680
g74
(dp1681
g94
g95
ssg83
g1675
sg76
(lp1682
S'wsgi_errors'
p1683
asbag69
(g90
g71
NtRp1684
(dp1685
g74
(dp1686
g101
g102
ssg83
g1675
sg76
(lp1687
S':'
asbag69
(g90
g71
NtRp1688
(dp1689
g74
(dp1690
sg83
g1675
sg76
(lp1691
g69
(g70
g71
NtRp1692
(dp1693
g74
(dp1694
g82
I4
ssg83
g1688
sg76
(lp1695
S"<open file '<stderr>', mode 'w' at 0x7f953b4c2270>"
p1696
asbasbasbag69
(g85
g71
NtRp1697
(dp1698
g74
(dp1699
sg83
g883
sg76
(lp1700
g69
(g90
g71
NtRp1701
(dp1702
g74
(dp1703
g94
g95
ssg83
g1697
sg76
(lp1704
S'wsgi_file_wrapper'
p1705
asbag69
(g90
g71
NtRp1706
(dp1707
g74
(dp1708
g101
g102
ssg83
g1697
sg76
(lp1709
S':'
asbag69
(g90
g71
NtRp1710
(dp1711
g74
(dp1712
sg83
g1697
sg76
(lp1713
g69
(g70
g71
NtRp1714
(dp1715
g74
(dp1716
g82
I4
ssg83
g1710
sg76
(lp1717
S'<class wsgiref.util.FileWrapper at 0x1601b48>'
p1718
asbasbasbag69
(g85
g71
NtRp1719
(dp1720
g74
(dp1721
sg83
g883
sg76
(lp1722
g69
(g90
g71
NtRp1723
(dp1724
g74
(dp1725
g94
g95
ssg83
g1719
sg76
(lp1726
S'wsgi_input'
p1727
asbag69
(g90
g71
NtRp1728
(dp1729
g74
(dp1730
g101
g102
ssg83
g1719
sg76
(lp1731
S':'
asbag69
(g90
g71
NtRp1732
(dp1733
g74
(dp1734
sg83
g1719
sg76
(lp1735
g69
(g70
g71
NtRp1736
(dp1737
g74
(dp1738
g82
I4
ssg83
g1732
sg76
(lp1739
S'<socket._fileobject object at 0x7f951466f250>'
p1740
asbasbasbag69
(g85
g71
NtRp1741
(dp1742
g74
(dp1743
sg83
g883
sg76
(lp1744
g69
(g90
g71
NtRp1745
(dp1746
g74
(dp1747
g94
g95
ssg83
g1741
sg76
(lp1748
S'wsgi_multiprocess'
p1749
asbag69
(g90
g71
NtRp1750
(dp1751
g74
(dp1752
g101
g102
ssg83
g1741
sg76
(lp1753
S':'
asbag69
(g90
g71
NtRp1754
(dp1755
g74
(dp1756
sg83
g1741
sg76
(lp1757
g69
(g70
g71
NtRp1758
(dp1759
g74
(dp1760
g82
I4
ssg83
g1754
sg76
(lp1761
g112
asbasbasbag69
(g85
g71
NtRp1762
(dp1763
g74
(dp1764
sg83
g883
sg76
(lp1765
g69
(g90
g71
NtRp1766
(dp1767
g74
(dp1768
g94
g95
ssg83
g1762
sg76
(lp1769
S'wsgi_multithread'
p1770
asbag69
(g90
g71
NtRp1771
(dp1772
g74
(dp1773
g101
g102
ssg83
g1762
sg76
(lp1774
S':'
asbag69
(g90
g71
NtRp1775
(dp1776
g74
(dp1777
sg83
g1762
sg76
(lp1778
g69
(g70
g71
NtRp1779
(dp1780
g74
(dp1781
g82
I4
ssg83
g1775
sg76
(lp1782
S'True'
p1783
asbasbasbag69
(g85
g71
NtRp1784
(dp1785
g74
(dp1786
sg83
g883
sg76
(lp1787
g69
(g90
g71
NtRp1788
(dp1789
g74
(dp1790
g94
g95
ssg83
g1784
sg76
(lp1791
S'wsgi_run_once'
p1792
asbag69
(g90
g71
NtRp1793
(dp1794
g74
(dp1795
g101
g102
ssg83
g1784
sg76
(lp1796
S':'
asbag69
(g90
g71
NtRp1797
(dp1798
g74
(dp1799
sg83
g1784
sg76
(lp1800
g69
(g70
g71
NtRp1801
(dp1802
g74
(dp1803
g82
I4
ssg83
g1797
sg76
(lp1804
g112
asbasbasbag69
(g85
g71
NtRp1805
(dp1806
g74
(dp1807
sg83
g883
sg76
(lp1808
g69
(g90
g71
NtRp1809
(dp1810
g74
(dp1811
g94
g95
ssg83
g1805
sg76
(lp1812
S'wsgi_url_scheme'
p1813
asbag69
(g90
g71
NtRp1814
(dp1815
g74
(dp1816
g101
g102
ssg83
g1805
sg76
(lp1817
S':'
asbag69
(g90
g71
NtRp1818
(dp1819
g74
(dp1820
sg83
g1805
sg76
(lp1821
g69
(g70
g71
NtRp1822
(dp1823
g74
(dp1824
g82
I4
ssg83
g1818
sg76
(lp1825
S'http'
p1826
asbasbasbag69
(g85
g71
NtRp1827
(dp1828
g74
(dp1829
sg83
g883
sg76
(lp1830
g69
(g90
g71
NtRp1831
(dp1832
g74
(dp1833
g94
g95
ssg83
g1827
sg76
(lp1834
S'wsgi_version'
p1835
asbag69
(g90
g71
NtRp1836
(dp1837
g74
(dp1838
g101
g102
ssg83
g1827
sg76
(lp1839
S':'
asbag69
(g90
g71
NtRp1840
(dp1841
g74
(dp1842
sg83
g1827
sg76
(lp1843
g69
(g70
g71
NtRp1844
(dp1845
g74
(dp1846
g82
I4
ssg83
g1840
sg76
(lp1847
g69
(g78
g71
NtRp1848
(dp1849
g74
(dp1850
g82
I3
ssg83
Nsg76
(lp1851
g69
(g85
g71
NtRp1852
(dp1853
g74
(dp1854
sg83
g1848
sg76
(lp1855
g69
(g90
g71
NtRp1856
(dp1857
g74
(dp1858
sg83
g1852
sg76
(lp1859
g69
(g70
g71
NtRp1860
(dp1861
g74
(dp1862
g82
I3
ssg83
g1856
sg76
(lp1863
S'1'
asbasbasbag69
(g85
g71
NtRp1864
(dp1865
g74
(dp1866
sg83
g1848
sg76
(lp1867
g69
(g90
g71
NtRp1868
(dp1869
g74
(dp1870
sg83
g1864
sg76
(lp1871
g69
(g70
g71
NtRp1872
(dp1873
g74
(dp1874
g82
I3
ssg83
g1868
sg76
(lp1875
S'0'
asbasbasbasbasbasbasbasbasbasbasbag69
(g85
g71
NtRp1876
(dp1877
g74
(dp1878
sg83
g79
sg76
(lp1879
g69
(g90
g71
NtRp1880
(dp1881
g74
(dp1882
g94
g95
ssg83
g1876
sg76
(lp1883
S'extension'
p1884
asbag69
(g90
g71
NtRp1885
(dp1886
g74
(dp1887
g101
g102
ssg83
g1876
sg76
(lp1888
S':'
asbag69
(g90
g71
NtRp1889
(dp1890
g74
(dp1891
sg83
g1876
sg76
(lp1892
g69
(g70
g71
NtRp1893
(dp1894
g74
(dp1895
g82
I5
ssg83
g1889
sg76
(lp1896
S'html'
p1897
asbasbasbag69
(g85
g71
NtRp1898
(dp1899
g74
(dp1900
sg83
g79
sg76
(lp1901
g69
(g90
g71
NtRp1902
(dp1903
g74
(dp1904
g94
g95
ssg83
g1898
sg76
(lp1905
S'folder'
p1906
asbag69
(g90
g71
NtRp1907
(dp1908
g74
(dp1909
g101
g102
ssg83
g1898
sg76
(lp1910
S':'
asbag69
(g90
g71
NtRp1911
(dp1912
g74
(dp1913
sg83
g1898
sg76
(lp1914
g69
(g70
g71
NtRp1915
(dp1916
g74
(dp1917
g82
I5
ssg83
g1911
sg76
(lp1918
S'/home/umang/web2py/applications/assignmen3/'
p1919
asbasbasbag69
(g85
g71
NtRp1920
(dp1921
g74
(dp1922
sg83
g79
sg76
(lp1923
g69
(g90
g71
NtRp1924
(dp1925
g74
(dp1926
g94
g95
ssg83
g1920
sg76
(lp1927
S'function'
p1928
asbag69
(g90
g71
NtRp1929
(dp1930
g74
(dp1931
g101
g102
ssg83
g1920
sg76
(lp1932
S':'
asbag69
(g90
g71
NtRp1933
(dp1934
g74
(dp1935
sg83
g1920
sg76
(lp1936
g69
(g70
g71
NtRp1937
(dp1938
g74
(dp1939
g82
I5
ssg83
g1933
sg76
(lp1940
S'edit_news'
p1941
asbasbasbag69
(g85
g71
NtRp1942
(dp1943
g74
(dp1944
sg83
g79
sg76
(lp1945
g69
(g90
g71
NtRp1946
(dp1947
g74
(dp1948
g94
g95
ssg83
g1942
sg76
(lp1949
S'get_vars'
p1950
asbag69
(g90
g71
NtRp1951
(dp1952
g74
(dp1953
g101
g102
ssg83
g1942
sg76
(lp1954
S':'
asbag69
(g90
g71
NtRp1955
(dp1956
g74
(dp1957
sg83
g1942
sg76
(lp1958
g69
(g70
g71
NtRp1959
(dp1960
g74
(dp1961
g82
I5
ssg83
g1955
sg76
(lp1962
g69
(g78
g71
NtRp1963
(dp1964
g74
(dp1965
g82
I4
ssg83
Nsg76
(lp1966
sbasbasbasbag69
(g85
g71
NtRp1967
(dp1968
g74
(dp1969
sg83
g79
sg76
(lp1970
g69
(g90
g71
NtRp1971
(dp1972
g74
(dp1973
g94
g95
ssg83
g1967
sg76
(lp1974
S'global_settings'
p1975
asbag69
(g90
g71
NtRp1976
(dp1977
g74
(dp1978
g101
g102
ssg83
g1967
sg76
(lp1979
S':'
asbag69
(g90
g71
NtRp1980
(dp1981
g74
(dp1982
sg83
g1967
sg76
(lp1983
g69
(g70
g71
NtRp1984
(dp1985
g74
(dp1986
g82
I5
ssg83
g1980
sg76
(lp1987
g69
(g78
g71
NtRp1988
(dp1989
g74
(dp1990
g82
I4
ssg83
Nsg76
(lp1991
g69
(g85
g71
NtRp1992
(dp1993
g74
(dp1994
sg83
g1988
sg76
(lp1995
g69
(g90
g71
NtRp1996
(dp1997
g74
(dp1998
g94
g95
ssg83
g1992
sg76
(lp1999
g895
asbag69
(g90
g71
NtRp2000
(dp2001
g74
(dp2002
g101
g102
ssg83
g1992
sg76
(lp2003
S':'
asbag69
(g90
g71
NtRp2004
(dp2005
g74
(dp2006
sg83
g1992
sg76
(lp2007
g69
(g70
g71
NtRp2008
(dp2009
g74
(dp2010
g82
I4
ssg83
g2004
sg76
(lp2011
S"set(['/home/umang/web2py/applications/admin/', '/home/umang/web2py/applications/assignmen3/', '/home/umang/web2py/applications/welcome/'])"
p2012
asbasbasbag69
(g85
g71
NtRp2013
(dp2014
g74
(dp2015
sg83
g1988
sg76
(lp2016
g69
(g90
g71
NtRp2017
(dp2018
g74
(dp2019
g94
g95
ssg83
g2013
sg76
(lp2020
g917
asbag69
(g90
g71
NtRp2021
(dp2022
g74
(dp2023
g101
g102
ssg83
g2013
sg76
(lp2024
S':'
asbag69
(g90
g71
NtRp2025
(dp2026
g74
(dp2027
sg83
g2013
sg76
(lp2028
g69
(g70
g71
NtRp2029
(dp2030
g74
(dp2031
g82
I4
ssg83
g2025
sg76
(lp2032
g930
asbasbasbag69
(g85
g71
NtRp2033
(dp2034
g74
(dp2035
sg83
g1988
sg76
(lp2036
g69
(g90
g71
NtRp2037
(dp2038
g74
(dp2039
g94
g95
ssg83
g2033
sg76
(lp2040
g939
asbag69
(g90
g71
NtRp2041
(dp2042
g74
(dp2043
g101
g102
ssg83
g2033
sg76
(lp2044
S':'
asbag69
(g90
g71
NtRp2045
(dp2046
g74
(dp2047
sg83
g2033
sg76
(lp2048
g69
(g70
g71
NtRp2049
(dp2050
g74
(dp2051
g82
I4
ssg83
g2045
sg76
(lp2052
g69
(g78
g71
NtRp2053
(dp2054
g74
(dp2055
g82
I3
ssg83
Nsg76
(lp2056
sbasbasbasbag69
(g85
g71
NtRp2057
(dp2058
g74
(dp2059
sg83
g1988
sg76
(lp2060
g69
(g90
g71
NtRp2061
(dp2062
g74
(dp2063
g94
g95
ssg83
g2057
sg76
(lp2064
g964
asbag69
(g90
g71
NtRp2065
(dp2066
g74
(dp2067
g101
g102
ssg83
g2057
sg76
(lp2068
S':'
asbag69
(g90
g71
NtRp2069
(dp2070
g74
(dp2071
sg83
g2057
sg76
(lp2072
g69
(g70
g71
NtRp2073
(dp2074
g74
(dp2075
g82
I4
ssg83
g2069
sg76
(lp2076
S"<Values at 0x1698200: {'verbose': False, 'ip': '127.0.0.1', 'with_scheduler': False, 'ips': [], 'shutdown_timeout': 5, 'taskbar': False, 'port': 8000, 'maxthreads': None, 'softcron': False, 'server_name': 'umang-HP-Pavilion-g6-Notebook-PC', 'bpython': False, 'nogui': False, 'pid_filename': 'httpserver.pid', 'extcron': False, 'runcron': False, 'run_system_tests': False, 'test': None, 'folder': '/home/umang/web2py', 'config': '', 'minthreads': None, 'winservice': '', 'shell': None, 'run': '', 'log_filename': 'httpserver.log', 'debuglevel': 30, 'args': [''], 'socket_timeout': 5, 'ssl_ca_certificate': None, 'scheduler': None, 'profiler_filename': None, 'ssl_private_key': '', 'scheduler_groups': None, 'password': '<ask>', 'request_queue_size': 5, 'ssl_certificate': '', 'cronjob': False, 'numthreads': None, 'quiet': False, 'interfaces': None, 'import_models': False, 'timeout': 10, 'plain': False, 'nobanner': False}>"
p2077
asbasbasbag69
(g85
g71
NtRp2078
(dp2079
g74
(dp2080
sg83
g1988
sg76
(lp2081
g69
(g90
g71
NtRp2082
(dp2083
g74
(dp2084
g94
g95
ssg83
g2078
sg76
(lp2085
g986
asbag69
(g90
g71
NtRp2086
(dp2087
g74
(dp2088
g101
g102
ssg83
g2078
sg76
(lp2089
S':'
asbag69
(g90
g71
NtRp2090
(dp2091
g74
(dp2092
sg83
g2078
sg76
(lp2093
g69
(g70
g71
NtRp2094
(dp2095
g74
(dp2096
g82
I4
ssg83
g2090
sg76
(lp2097
S'set([])'
p2098
asbasbasbag69
(g85
g71
NtRp2099
(dp2100
g74
(dp2101
sg83
g1988
sg76
(lp2102
g69
(g90
g71
NtRp2103
(dp2104
g74
(dp2105
g94
g95
ssg83
g2099
sg76
(lp2106
g1008
asbag69
(g90
g71
NtRp2107
(dp2108
g74
(dp2109
g101
g102
ssg83
g2099
sg76
(lp2110
S':'
asbag69
(g90
g71
NtRp2111
(dp2112
g74
(dp2113
sg83
g2099
sg76
(lp2114
g69
(g70
g71
NtRp2115
(dp2116
g74
(dp2117
g82
I4
ssg83
g2111
sg76
(lp2118
g112
asbasbasbag69
(g85
g71
NtRp2119
(dp2120
g74
(dp2121
sg83
g1988
sg76
(lp2122
g69
(g90
g71
NtRp2123
(dp2124
g74
(dp2125
g94
g95
ssg83
g2119
sg76
(lp2126
g1029
asbag69
(g90
g71
NtRp2127
(dp2128
g74
(dp2129
g101
g102
ssg83
g2119
sg76
(lp2130
S':'
asbag69
(g90
g71
NtRp2131
(dp2132
g74
(dp2133
sg83
g2119
sg76
(lp2134
g69
(g70
g71
NtRp2135
(dp2136
g74
(dp2137
g82
I4
ssg83
g2131
sg76
(lp2138
g1042
asbasbasbag69
(g85
g71
NtRp2139
(dp2140
g74
(dp2141
sg83
g1988
sg76
(lp2142
g69
(g90
g71
NtRp2143
(dp2144
g74
(dp2145
g94
g95
ssg83
g2139
sg76
(lp2146
g1205
asbag69
(g90
g71
NtRp2147
(dp2148
g74
(dp2149
g101
g102
ssg83
g2139
sg76
(lp2150
S':'
asbag69
(g90
g71
NtRp2151
(dp2152
g74
(dp2153
sg83
g2139
sg76
(lp2154
g69
(g70
g71
NtRp2155
(dp2156
g74
(dp2157
g82
I4
ssg83
g2151
sg76
(lp2158
g112
asbasbasbag69
(g85
g71
NtRp2159
(dp2160
g74
(dp2161
sg83
g1988
sg76
(lp2162
g69
(g90
g71
NtRp2163
(dp2164
g74
(dp2165
g94
g95
ssg83
g2159
sg76
(lp2166
g1226
asbag69
(g90
g71
NtRp2167
(dp2168
g74
(dp2169
g101
g102
ssg83
g2159
sg76
(lp2170
S':'
asbag69
(g90
g71
NtRp2171
(dp2172
g74
(dp2173
sg83
g2159
sg76
(lp2174
g69
(g70
g71
NtRp2175
(dp2176
g74
(dp2177
g82
I4
ssg83
g2171
sg76
(lp2178
g112
asbasbasbag69
(g85
g71
NtRp2179
(dp2180
g74
(dp2181
sg83
g1988
sg76
(lp2182
g69
(g90
g71
NtRp2183
(dp2184
g74
(dp2185
g94
g95
ssg83
g2179
sg76
(lp2186
g1247
asbag69
(g90
g71
NtRp2187
(dp2188
g74
(dp2189
g101
g102
ssg83
g2179
sg76
(lp2190
S':'
asbag69
(g90
g71
NtRp2191
(dp2192
g74
(dp2193
sg83
g2179
sg76
(lp2194
g69
(g70
g71
NtRp2195
(dp2196
g74
(dp2197
g82
I4
ssg83
g2191
sg76
(lp2198
g69
(g78
g71
NtRp2199
(dp2200
g74
(dp2201
g82
I3
ssg83
Nsg76
(lp2202
g69
(g85
g71
NtRp2203
(dp2204
g74
(dp2205
sg83
g2199
sg76
(lp2206
g69
(g90
g71
NtRp2207
(dp2208
g74
(dp2209
sg83
g2203
sg76
(lp2210
g69
(g70
g71
NtRp2211
(dp2212
g74
(dp2213
g82
I3
ssg83
g2207
sg76
(lp2214
g1276
asbasbasbag69
(g85
g71
NtRp2215
(dp2216
g74
(dp2217
sg83
g2199
sg76
(lp2218
g69
(g90
g71
NtRp2219
(dp2220
g74
(dp2221
sg83
g2215
sg76
(lp2222
g69
(g70
g71
NtRp2223
(dp2224
g74
(dp2225
g82
I3
ssg83
g2219
sg76
(lp2226
g1289
asbasbasbag69
(g85
g71
NtRp2227
(dp2228
g74
(dp2229
sg83
g2199
sg76
(lp2230
g69
(g90
g71
NtRp2231
(dp2232
g74
(dp2233
sg83
g2227
sg76
(lp2234
g69
(g70
g71
NtRp2235
(dp2236
g74
(dp2237
g82
I3
ssg83
g2231
sg76
(lp2238
g1302
asbasbasbag69
(g85
g71
NtRp2239
(dp2240
g74
(dp2241
sg83
g2199
sg76
(lp2242
g69
(g90
g71
NtRp2243
(dp2244
g74
(dp2245
sg83
g2239
sg76
(lp2246
g69
(g70
g71
NtRp2247
(dp2248
g74
(dp2249
g82
I3
ssg83
g2243
sg76
(lp2250
g1315
asbasbasbag69
(g85
g71
NtRp2251
(dp2252
g74
(dp2253
sg83
g2199
sg76
(lp2254
g69
(g90
g71
NtRp2255
(dp2256
g74
(dp2257
sg83
g2251
sg76
(lp2258
g69
(g70
g71
NtRp2259
(dp2260
g74
(dp2261
g82
I3
ssg83
g2255
sg76
(lp2262
g1328
asbasbasbasbasbasbasbag69
(g85
g71
NtRp2263
(dp2264
g74
(dp2265
sg83
g1988
sg76
(lp2266
g69
(g90
g71
NtRp2267
(dp2268
g74
(dp2269
g94
g95
ssg83
g2263
sg76
(lp2270
g1596
asbag69
(g90
g71
NtRp2271
(dp2272
g74
(dp2273
g101
g102
ssg83
g2263
sg76
(lp2274
S':'
asbag69
(g90
g71
NtRp2275
(dp2276
g74
(dp2277
sg83
g2263
sg76
(lp2278
g69
(g70
g71
NtRp2279
(dp2280
g74
(dp2281
g82
I4
ssg83
g2275
sg76
(lp2282
g69
(g78
g71
NtRp2283
(dp2284
g74
(dp2285
g82
I3
ssg83
Nsg76
(lp2286
g69
(g85
g71
NtRp2287
(dp2288
g74
(dp2289
sg83
g2283
sg76
(lp2290
g69
(g90
g71
NtRp2291
(dp2292
g74
(dp2293
sg83
g2287
sg76
(lp2294
g69
(g70
g71
NtRp2295
(dp2296
g74
(dp2297
g82
I3
ssg83
g2291
sg76
(lp2298
S'2'
asbasbasbag69
(g85
g71
NtRp2299
(dp2300
g74
(dp2301
sg83
g2283
sg76
(lp2302
g69
(g90
g71
NtRp2303
(dp2304
g74
(dp2305
sg83
g2299
sg76
(lp2306
g69
(g70
g71
NtRp2307
(dp2308
g74
(dp2309
g82
I3
ssg83
g2303
sg76
(lp2310
S'3'
asbasbasbag69
(g85
g71
NtRp2311
(dp2312
g74
(dp2313
sg83
g2283
sg76
(lp2314
g69
(g90
g71
NtRp2315
(dp2316
g74
(dp2317
sg83
g2311
sg76
(lp2318
g69
(g70
g71
NtRp2319
(dp2320
g74
(dp2321
g82
I3
ssg83
g2315
sg76
(lp2322
S'2'
asbasbasbag69
(g85
g71
NtRp2323
(dp2324
g74
(dp2325
sg83
g2283
sg76
(lp2326
g69
(g90
g71
NtRp2327
(dp2328
g74
(dp2329
sg83
g2323
sg76
(lp2330
g69
(g70
g71
NtRp2331
(dp2332
g74
(dp2333
g82
I3
ssg83
g2327
sg76
(lp2334
S'datetime.datetime(2012, 12, 17, 15, 3, 30)'
p2335
asbasbasbag69
(g85
g71
NtRp2336
(dp2337
g74
(dp2338
sg83
g2283
sg76
(lp2339
g69
(g90
g71
NtRp2340
(dp2341
g74
(dp2342
sg83
g2336
sg76
(lp2343
g69
(g70
g71
NtRp2344
(dp2345
g74
(dp2346
g82
I3
ssg83
g2340
sg76
(lp2347
g1674
asbasbasbasbasbasbasbasbasbasbasbag69
(g85
g71
NtRp2348
(dp2349
g74
(dp2350
sg83
g79
sg76
(lp2351
g69
(g90
g71
NtRp2352
(dp2353
g74
(dp2354
g94
g95
ssg83
g2348
sg76
(lp2355
S'is_https'
p2356
asbag69
(g90
g71
NtRp2357
(dp2358
g74
(dp2359
g101
g102
ssg83
g2348
sg76
(lp2360
S':'
asbag69
(g90
g71
NtRp2361
(dp2362
g74
(dp2363
sg83
g2348
sg76
(lp2364
g69
(g70
g71
NtRp2365
(dp2366
g74
(dp2367
g82
I5
ssg83
g2361
sg76
(lp2368
g112
asbasbasbag69
(g85
g71
NtRp2369
(dp2370
g74
(dp2371
sg83
g79
sg76
(lp2372
g69
(g90
g71
NtRp2373
(dp2374
g74
(dp2375
g94
g95
ssg83
g2369
sg76
(lp2376
S'is_local'
p2377
asbag69
(g90
g71
NtRp2378
(dp2379
g74
(dp2380
g101
g102
ssg83
g2369
sg76
(lp2381
S':'
asbag69
(g90
g71
NtRp2382
(dp2383
g74
(dp2384
sg83
g2369
sg76
(lp2385
g69
(g70
g71
NtRp2386
(dp2387
g74
(dp2388
g82
I5
ssg83
g2382
sg76
(lp2389
g1783
asbasbasbag69
(g85
g71
NtRp2390
(dp2391
g74
(dp2392
sg83
g79
sg76
(lp2393
g69
(g90
g71
NtRp2394
(dp2395
g74
(dp2396
g94
g95
ssg83
g2390
sg76
(lp2397
S'is_restful'
p2398
asbag69
(g90
g71
NtRp2399
(dp2400
g74
(dp2401
g101
g102
ssg83
g2390
sg76
(lp2402
S':'
asbag69
(g90
g71
NtRp2403
(dp2404
g74
(dp2405
sg83
g2390
sg76
(lp2406
g69
(g70
g71
NtRp2407
(dp2408
g74
(dp2409
g82
I5
ssg83
g2403
sg76
(lp2410
g112
asbasbasbag69
(g85
g71
NtRp2411
(dp2412
g74
(dp2413
sg83
g79
sg76
(lp2414
g69
(g90
g71
NtRp2415
(dp2416
g74
(dp2417
g94
g95
ssg83
g2411
sg76
(lp2418
S'now'
p2419
asbag69
(g90
g71
NtRp2420
(dp2421
g74
(dp2422
g101
g102
ssg83
g2411
sg76
(lp2423
S':'
asbag69
(g90
g71
NtRp2424
(dp2425
g74
(dp2426
sg83
g2411
sg76
(lp2427
g69
(g70
g71
NtRp2428
(dp2429
g74
(dp2430
g82
I5
ssg83
g2424
sg76
(lp2431
S'datetime.datetime(2013, 8, 27, 21, 15, 42, 506030)'
p2432
asbasbasbag69
(g85
g71
NtRp2433
(dp2434
g74
(dp2435
sg83
g79
sg76
(lp2436
g69
(g90
g71
NtRp2437
(dp2438
g74
(dp2439
g94
g95
ssg83
g2433
sg76
(lp2440
S'post_vars'
p2441
asbag69
(g90
g71
NtRp2442
(dp2443
g74
(dp2444
g101
g102
ssg83
g2433
sg76
(lp2445
S':'
asbag69
(g90
g71
NtRp2446
(dp2447
g74
(dp2448
sg83
g2433
sg76
(lp2449
g69
(g70
g71
NtRp2450
(dp2451
g74
(dp2452
g82
I5
ssg83
g2446
sg76
(lp2453
g69
(g78
g71
NtRp2454
(dp2455
g74
(dp2456
g82
I4
ssg83
Nsg76
(lp2457
sbasbasbasbag69
(g85
g71
NtRp2458
(dp2459
g74
(dp2460
sg83
g79
sg76
(lp2461
g69
(g90
g71
NtRp2462
(dp2463
g74
(dp2464
g94
g95
ssg83
g2458
sg76
(lp2465
S'raw_args'
p2466
asbag69
(g90
g71
NtRp2467
(dp2468
g74
(dp2469
g101
g102
ssg83
g2458
sg76
(lp2470
S':'
asbag69
(g90
g71
NtRp2471
(dp2472
g74
(dp2473
sg83
g2458
sg76
(lp2474
g69
(g70
g71
NtRp2475
(dp2476
g74
(dp2477
g82
I5
ssg83
g2471
sg76
(lp2478
S'3/2'
p2479
asbasbasbag69
(g85
g71
NtRp2480
(dp2481
g74
(dp2482
sg83
g79
sg76
(lp2483
g69
(g90
g71
NtRp2484
(dp2485
g74
(dp2486
g94
g95
ssg83
g2480
sg76
(lp2487
S'raw_extension'
p2488
asbag69
(g90
g71
NtRp2489
(dp2490
g74
(dp2491
g101
g102
ssg83
g2480
sg76
(lp2492
S':'
asbag69
(g90
g71
NtRp2493
(dp2494
g74
(dp2495
sg83
g2480
sg76
(lp2496
g69
(g70
g71
NtRp2497
(dp2498
g74
(dp2499
g82
I5
ssg83
g2493
sg76
(lp2500
S'None'
p2501
asbasbasbag69
(g85
g71
NtRp2502
(dp2503
g74
(dp2504
sg83
g79
sg76
(lp2505
g69
(g90
g71
NtRp2506
(dp2507
g74
(dp2508
g94
g95
ssg83
g2502
sg76
(lp2509
S'url'
p2510
asbag69
(g90
g71
NtRp2511
(dp2512
g74
(dp2513
g101
g102
ssg83
g2502
sg76
(lp2514
S':'
asbag69
(g90
g71
NtRp2515
(dp2516
g74
(dp2517
sg83
g2502
sg76
(lp2518
g69
(g70
g71
NtRp2519
(dp2520
g74
(dp2521
g82
I5
ssg83
g2515
sg76
(lp2522
g1350
asbasbasbag69
(g85
g71
NtRp2523
(dp2524
g74
(dp2525
sg83
g79
sg76
(lp2526
g69
(g90
g71
NtRp2527
(dp2528
g74
(dp2529
g94
g95
ssg83
g2523
sg76
(lp2530
S'utcnow'
p2531
asbag69
(g90
g71
NtRp2532
(dp2533
g74
(dp2534
g101
g102
ssg83
g2523
sg76
(lp2535
S':'
asbag69
(g90
g71
NtRp2536
(dp2537
g74
(dp2538
sg83
g2523
sg76
(lp2539
g69
(g70
g71
NtRp2540
(dp2541
g74
(dp2542
g82
I5
ssg83
g2536
sg76
(lp2543
S'datetime.datetime(2013, 8, 27, 15, 45, 42, 506063)'
p2544
asbasbasbag69
(g85
g71
NtRp2545
(dp2546
g74
(dp2547
sg83
g79
sg76
(lp2548
g69
(g90
g71
NtRp2549
(dp2550
g74
(dp2551
g94
g95
ssg83
g2545
sg76
(lp2552
S'uuid'
p2553
asbag69
(g90
g71
NtRp2554
(dp2555
g74
(dp2556
g101
g102
ssg83
g2545
sg76
(lp2557
S':'
asbag69
(g90
g71
NtRp2558
(dp2559
g74
(dp2560
sg83
g2545
sg76
(lp2561
g69
(g70
g71
NtRp2562
(dp2563
g74
(dp2564
g82
I5
ssg83
g2558
sg76
(lp2565
S'assignmen3/127.0.0.1.2013-08-27.21-15-42.1d67d3ae-0a43-42e0-9c5f-81d52992d5e7'
p2566
asbasbasbag69
(g85
g71
NtRp2567
(dp2568
g74
(dp2569
sg83
g79
sg76
(lp2570
g69
(g90
g71
NtRp2571
(dp2572
g74
(dp2573
g94
g95
ssg83
g2567
sg76
(lp2574
S'vars'
p2575
asbag69
(g90
g71
NtRp2576
(dp2577
g74
(dp2578
g101
g102
ssg83
g2567
sg76
(lp2579
S':'
asbag69
(g90
g71
NtRp2580
(dp2581
g74
(dp2582
sg83
g2567
sg76
(lp2583
g69
(g70
g71
NtRp2584
(dp2585
g74
(dp2586
g82
I5
ssg83
g2580
sg76
(lp2587
g69
(g78
g71
NtRp2588
(dp2589
g74
(dp2590
g82
I4
ssg83
Nsg76
(lp2591
sbasbasbasbag69
(g85
g71
NtRp2592
(dp2593
g74
(dp2594
sg83
g79
sg76
(lp2595
g69
(g90
g71
NtRp2596
(dp2597
g74
(dp2598
g94
g95
ssg83
g2592
sg76
(lp2599
S'wsgi'
p2600
asbag69
(g90
g71
NtRp2601
(dp2602
g74
(dp2603
g101
g102
ssg83
g2592
sg76
(lp2604
S':'
asbag69
(g90
g71
NtRp2605
(dp2606
g74
(dp2607
sg83
g2592
sg76
(lp2608
g69
(g70
g71
NtRp2609
(dp2610
g74
(dp2611
g82
I5
ssg83
g2605
sg76
(lp2612
g69
(g78
g71
NtRp2613
(dp2614
g74
(dp2615
g82
I4
ssg83
Nsg76
(lp2616
g69
(g85
g71
NtRp2617
(dp2618
g74
(dp2619
sg83
g2613
sg76
(lp2620
g69
(g90
g71
NtRp2621
(dp2622
g74
(dp2623
g94
g95
ssg83
g2617
sg76
(lp2624
S'environ'
p2625
asbag69
(g90
g71
NtRp2626
(dp2627
g74
(dp2628
g101
g102
ssg83
g2617
sg76
(lp2629
S':'
asbag69
(g90
g71
NtRp2630
(dp2631
g74
(dp2632
sg83
g2617
sg76
(lp2633
g69
(g70
g71
NtRp2634
(dp2635
g74
(dp2636
g82
I4
ssg83
g2630
sg76
(lp2637
g69
(g78
g71
NtRp2638
(dp2639
g74
(dp2640
g82
I3
ssg83
Nsg76
(lp2641
g69
(g85
g71
NtRp2642
(dp2643
g74
(dp2644
sg83
g2638
sg76
(lp2645
g69
(g90
g71
NtRp2646
(dp2647
g74
(dp2648
g94
g95
ssg83
g2642
sg76
(lp2649
S'HTTP_ACCEPT'
p2650
asbag69
(g90
g71
NtRp2651
(dp2652
g74
(dp2653
g101
g102
ssg83
g2642
sg76
(lp2654
S':'
asbag69
(g90
g71
NtRp2655
(dp2656
g74
(dp2657
sg83
g2642
sg76
(lp2658
g69
(g70
g71
NtRp2659
(dp2660
g74
(dp2661
g82
I3
ssg83
g2655
sg76
(lp2662
g1064
asbasbasbag69
(g85
g71
NtRp2663
(dp2664
g74
(dp2665
sg83
g2638
sg76
(lp2666
g69
(g90
g71
NtRp2667
(dp2668
g74
(dp2669
g94
g95
ssg83
g2663
sg76
(lp2670
S'HTTP_ACCEPT_ENCODING'
p2671
asbag69
(g90
g71
NtRp2672
(dp2673
g74
(dp2674
g101
g102
ssg83
g2663
sg76
(lp2675
S':'
asbag69
(g90
g71
NtRp2676
(dp2677
g74
(dp2678
sg83
g2663
sg76
(lp2679
g69
(g70
g71
NtRp2680
(dp2681
g74
(dp2682
g82
I3
ssg83
g2676
sg76
(lp2683
g1086
asbasbasbag69
(g85
g71
NtRp2684
(dp2685
g74
(dp2686
sg83
g2638
sg76
(lp2687
g69
(g90
g71
NtRp2688
(dp2689
g74
(dp2690
g94
g95
ssg83
g2684
sg76
(lp2691
S'HTTP_ACCEPT_LANGUAGE'
p2692
asbag69
(g90
g71
NtRp2693
(dp2694
g74
(dp2695
g101
g102
ssg83
g2684
sg76
(lp2696
S':'
asbag69
(g90
g71
NtRp2697
(dp2698
g74
(dp2699
sg83
g2684
sg76
(lp2700
g69
(g70
g71
NtRp2701
(dp2702
g74
(dp2703
g82
I3
ssg83
g2697
sg76
(lp2704
g1108
asbasbasbag69
(g85
g71
NtRp2705
(dp2706
g74
(dp2707
sg83
g2638
sg76
(lp2708
g69
(g90
g71
NtRp2709
(dp2710
g74
(dp2711
g94
g95
ssg83
g2705
sg76
(lp2712
S'HTTP_CONNECTION'
p2713
asbag69
(g90
g71
NtRp2714
(dp2715
g74
(dp2716
g101
g102
ssg83
g2705
sg76
(lp2717
S':'
asbag69
(g90
g71
NtRp2718
(dp2719
g74
(dp2720
sg83
g2705
sg76
(lp2721
g69
(g70
g71
NtRp2722
(dp2723
g74
(dp2724
g82
I3
ssg83
g2718
sg76
(lp2725
g1130
asbasbasbag69
(g85
g71
NtRp2726
(dp2727
g74
(dp2728
sg83
g2638
sg76
(lp2729
g69
(g90
g71
NtRp2730
(dp2731
g74
(dp2732
g94
g95
ssg83
g2726
sg76
(lp2733
S'HTTP_COOKIE'
p2734
asbag69
(g90
g71
NtRp2735
(dp2736
g74
(dp2737
g101
g102
ssg83
g2726
sg76
(lp2738
S':'
asbag69
(g90
g71
NtRp2739
(dp2740
g74
(dp2741
sg83
g2726
sg76
(lp2742
g69
(g70
g71
NtRp2743
(dp2744
g74
(dp2745
g82
I3
ssg83
g2739
sg76
(lp2746
g1152
asbasbasbag69
(g85
g71
NtRp2747
(dp2748
g74
(dp2749
sg83
g2638
sg76
(lp2750
g69
(g90
g71
NtRp2751
(dp2752
g74
(dp2753
g94
g95
ssg83
g2747
sg76
(lp2754
S'HTTP_HOST'
p2755
asbag69
(g90
g71
NtRp2756
(dp2757
g74
(dp2758
g101
g102
ssg83
g2747
sg76
(lp2759
S':'
asbag69
(g90
g71
NtRp2760
(dp2761
g74
(dp2762
sg83
g2747
sg76
(lp2763
g69
(g70
g71
NtRp2764
(dp2765
g74
(dp2766
g82
I3
ssg83
g2760
sg76
(lp2767
g1174
asbasbasbag69
(g85
g71
NtRp2768
(dp2769
g74
(dp2770
sg83
g2638
sg76
(lp2771
g69
(g90
g71
NtRp2772
(dp2773
g74
(dp2774
g94
g95
ssg83
g2768
sg76
(lp2775
S'HTTP_USER_AGENT'
p2776
asbag69
(g90
g71
NtRp2777
(dp2778
g74
(dp2779
g101
g102
ssg83
g2768
sg76
(lp2780
S':'
asbag69
(g90
g71
NtRp2781
(dp2782
g74
(dp2783
sg83
g2768
sg76
(lp2784
g69
(g70
g71
NtRp2785
(dp2786
g74
(dp2787
g82
I3
ssg83
g2781
sg76
(lp2788
g1196
asbasbasbag69
(g85
g71
NtRp2789
(dp2790
g74
(dp2791
sg83
g2638
sg76
(lp2792
g69
(g90
g71
NtRp2793
(dp2794
g74
(dp2795
g94
g95
ssg83
g2789
sg76
(lp2796
S'PATH_INFO'
p2797
asbag69
(g90
g71
NtRp2798
(dp2799
g74
(dp2800
g101
g102
ssg83
g2789
sg76
(lp2801
S':'
asbag69
(g90
g71
NtRp2802
(dp2803
g74
(dp2804
sg83
g2789
sg76
(lp2805
g69
(g70
g71
NtRp2806
(dp2807
g74
(dp2808
g82
I3
ssg83
g2802
sg76
(lp2809
g1350
asbasbasbag69
(g85
g71
NtRp2810
(dp2811
g74
(dp2812
sg83
g2638
sg76
(lp2813
g69
(g90
g71
NtRp2814
(dp2815
g74
(dp2816
g94
g95
ssg83
g2810
sg76
(lp2817
S'QUERY_STRING'
p2818
asbag69
(g90
g71
NtRp2819
(dp2820
g74
(dp2821
g101
g102
ssg83
g2810
sg76
(lp2822
S':'
asbag69
(g90
g71
NtRp2823
(dp2824
g74
(dp2825
sg83
g2810
sg76
(lp2826
g69
(g70
g71
NtRp2827
(dp2828
g74
(dp2829
g82
I3
ssg83
g2823
sg76
(lp2830
S''
asbasbasbag69
(g85
g71
NtRp2831
(dp2832
g74
(dp2833
sg83
g2638
sg76
(lp2834
g69
(g90
g71
NtRp2835
(dp2836
g74
(dp2837
g94
g95
ssg83
g2831
sg76
(lp2838
S'REMOTE_ADDR'
p2839
asbag69
(g90
g71
NtRp2840
(dp2841
g74
(dp2842
g101
g102
ssg83
g2831
sg76
(lp2843
S':'
asbag69
(g90
g71
NtRp2844
(dp2845
g74
(dp2846
sg83
g2831
sg76
(lp2847
g69
(g70
g71
NtRp2848
(dp2849
g74
(dp2850
g82
I3
ssg83
g2844
sg76
(lp2851
g248
asbasbasbag69
(g85
g71
NtRp2852
(dp2853
g74
(dp2854
sg83
g2638
sg76
(lp2855
g69
(g90
g71
NtRp2856
(dp2857
g74
(dp2858
g94
g95
ssg83
g2852
sg76
(lp2859
S'REMOTE_PORT'
p2860
asbag69
(g90
g71
NtRp2861
(dp2862
g74
(dp2863
g101
g102
ssg83
g2852
sg76
(lp2864
S':'
asbag69
(g90
g71
NtRp2865
(dp2866
g74
(dp2867
sg83
g2852
sg76
(lp2868
g69
(g70
g71
NtRp2869
(dp2870
g74
(dp2871
g82
I3
ssg83
g2865
sg76
(lp2872
g1414
asbasbasbag69
(g85
g71
NtRp2873
(dp2874
g74
(dp2875
sg83
g2638
sg76
(lp2876
g69
(g90
g71
NtRp2877
(dp2878
g74
(dp2879
g94
g95
ssg83
g2873
sg76
(lp2880
S'REQUEST_METHOD'
p2881
asbag69
(g90
g71
NtRp2882
(dp2883
g74
(dp2884
g101
g102
ssg83
g2873
sg76
(lp2885
S':'
asbag69
(g90
g71
NtRp2886
(dp2887
g74
(dp2888
sg83
g2873
sg76
(lp2889
g69
(g70
g71
NtRp2890
(dp2891
g74
(dp2892
g82
I3
ssg83
g2886
sg76
(lp2893
g1436
asbasbasbag69
(g85
g71
NtRp2894
(dp2895
g74
(dp2896
sg83
g2638
sg76
(lp2897
g69
(g90
g71
NtRp2898
(dp2899
g74
(dp2900
g94
g95
ssg83
g2894
sg76
(lp2901
S'REQUEST_URI'
p2902
asbag69
(g90
g71
NtRp2903
(dp2904
g74
(dp2905
g101
g102
ssg83
g2894
sg76
(lp2906
S':'
asbag69
(g90
g71
NtRp2907
(dp2908
g74
(dp2909
sg83
g2894
sg76
(lp2910
g69
(g70
g71
NtRp2911
(dp2912
g74
(dp2913
g82
I3
ssg83
g2907
sg76
(lp2914
g1350
asbasbasbag69
(g85
g71
NtRp2915
(dp2916
g74
(dp2917
sg83
g2638
sg76
(lp2918
g69
(g90
g71
NtRp2919
(dp2920
g74
(dp2921
g94
g95
ssg83
g2915
sg76
(lp2922
S'SCRIPT_NAME'
p2923
asbag69
(g90
g71
NtRp2924
(dp2925
g74
(dp2926
g101
g102
ssg83
g2915
sg76
(lp2927
S':'
asbag69
(g90
g71
NtRp2928
(dp2929
g74
(dp2930
sg83
g2915
sg76
(lp2931
g69
(g70
g71
NtRp2932
(dp2933
g74
(dp2934
g82
I3
ssg83
g2928
sg76
(lp2935
S''
asbasbasbag69
(g85
g71
NtRp2936
(dp2937
g74
(dp2938
sg83
g2638
sg76
(lp2939
g69
(g90
g71
NtRp2940
(dp2941
g74
(dp2942
g94
g95
ssg83
g2936
sg76
(lp2943
S'SERVER_NAME'
p2944
asbag69
(g90
g71
NtRp2945
(dp2946
g74
(dp2947
g101
g102
ssg83
g2936
sg76
(lp2948
S':'
asbag69
(g90
g71
NtRp2949
(dp2950
g74
(dp2951
sg83
g2936
sg76
(lp2952
g69
(g70
g71
NtRp2953
(dp2954
g74
(dp2955
g82
I3
ssg83
g2949
sg76
(lp2956
g1500
asbasbasbag69
(g85
g71
NtRp2957
(dp2958
g74
(dp2959
sg83
g2638
sg76
(lp2960
g69
(g90
g71
NtRp2961
(dp2962
g74
(dp2963
g94
g95
ssg83
g2957
sg76
(lp2964
S'SERVER_PORT'
p2965
asbag69
(g90
g71
NtRp2966
(dp2967
g74
(dp2968
g101
g102
ssg83
g2957
sg76
(lp2969
S':'
asbag69
(g90
g71
NtRp2970
(dp2971
g74
(dp2972
sg83
g2957
sg76
(lp2973
g69
(g70
g71
NtRp2974
(dp2975
g74
(dp2976
g82
I3
ssg83
g2970
sg76
(lp2977
g1522
asbasbasbag69
(g85
g71
NtRp2978
(dp2979
g74
(dp2980
sg83
g2638
sg76
(lp2981
g69
(g90
g71
NtRp2982
(dp2983
g74
(dp2984
g94
g95
ssg83
g2978
sg76
(lp2985
S'SERVER_PROTOCOL'
p2986
asbag69
(g90
g71
NtRp2987
(dp2988
g74
(dp2989
g101
g102
ssg83
g2978
sg76
(lp2990
S':'
asbag69
(g90
g71
NtRp2991
(dp2992
g74
(dp2993
sg83
g2978
sg76
(lp2994
g69
(g70
g71
NtRp2995
(dp2996
g74
(dp2997
g82
I3
ssg83
g2991
sg76
(lp2998
g1544
asbasbasbag69
(g85
g71
NtRp2999
(dp3000
g74
(dp3001
sg83
g2638
sg76
(lp3002
g69
(g90
g71
NtRp3003
(dp3004
g74
(dp3005
g94
g95
ssg83
g2999
sg76
(lp3006
S'SERVER_SOFTWARE'
p3007
asbag69
(g90
g71
NtRp3008
(dp3009
g74
(dp3010
g101
g102
ssg83
g2999
sg76
(lp3011
S':'
asbag69
(g90
g71
NtRp3012
(dp3013
g74
(dp3014
sg83
g2999
sg76
(lp3015
g69
(g70
g71
NtRp3016
(dp3017
g74
(dp3018
g82
I3
ssg83
g3012
sg76
(lp3019
g1566
asbasbasbag69
(g85
g71
NtRp3020
(dp3021
g74
(dp3022
sg83
g2638
sg76
(lp3023
g69
(g90
g71
NtRp3024
(dp3025
g74
(dp3026
g94
g95
ssg83
g3020
sg76
(lp3027
S'wsgi.errors'
p3028
asbag69
(g90
g71
NtRp3029
(dp3030
g74
(dp3031
g101
g102
ssg83
g3020
sg76
(lp3032
S':'
asbag69
(g90
g71
NtRp3033
(dp3034
g74
(dp3035
sg83
g3020
sg76
(lp3036
g69
(g70
g71
NtRp3037
(dp3038
g74
(dp3039
g82
I3
ssg83
g3033
sg76
(lp3040
S"<open file '<stderr>', mode 'w' at 0x7f953b4c2270>"
p3041
asbasbasbag69
(g85
g71
NtRp3042
(dp3043
g74
(dp3044
sg83
g2638
sg76
(lp3045
g69
(g90
g71
NtRp3046
(dp3047
g74
(dp3048
g94
g95
ssg83
g3042
sg76
(lp3049
S'wsgi.file_wrapper'
p3050
asbag69
(g90
g71
NtRp3051
(dp3052
g74
(dp3053
g101
g102
ssg83
g3042
sg76
(lp3054
S':'
asbag69
(g90
g71
NtRp3055
(dp3056
g74
(dp3057
sg83
g3042
sg76
(lp3058
g69
(g70
g71
NtRp3059
(dp3060
g74
(dp3061
g82
I3
ssg83
g3055
sg76
(lp3062
S'<class wsgiref.util.FileWrapper at 0x1601b48>'
p3063
asbasbasbag69
(g85
g71
NtRp3064
(dp3065
g74
(dp3066
sg83
g2638
sg76
(lp3067
g69
(g90
g71
NtRp3068
(dp3069
g74
(dp3070
g94
g95
ssg83
g3064
sg76
(lp3071
S'wsgi.input'
p3072
asbag69
(g90
g71
NtRp3073
(dp3074
g74
(dp3075
g101
g102
ssg83
g3064
sg76
(lp3076
S':'
asbag69
(g90
g71
NtRp3077
(dp3078
g74
(dp3079
sg83
g3064
sg76
(lp3080
g69
(g70
g71
NtRp3081
(dp3082
g74
(dp3083
g82
I3
ssg83
g3077
sg76
(lp3084
S'<cStringIO.StringO object at 0x7f94f8061b20>'
p3085
asbasbasbag69
(g85
g71
NtRp3086
(dp3087
g74
(dp3088
sg83
g2638
sg76
(lp3089
g69
(g90
g71
NtRp3090
(dp3091
g74
(dp3092
g94
g95
ssg83
g3086
sg76
(lp3093
S'wsgi.multiprocess'
p3094
asbag69
(g90
g71
NtRp3095
(dp3096
g74
(dp3097
g101
g102
ssg83
g3086
sg76
(lp3098
S':'
asbag69
(g90
g71
NtRp3099
(dp3100
g74
(dp3101
sg83
g3086
sg76
(lp3102
g69
(g70
g71
NtRp3103
(dp3104
g74
(dp3105
g82
I3
ssg83
g3099
sg76
(lp3106
g112
asbasbasbag69
(g85
g71
NtRp3107
(dp3108
g74
(dp3109
sg83
g2638
sg76
(lp3110
g69
(g90
g71
NtRp3111
(dp3112
g74
(dp3113
g94
g95
ssg83
g3107
sg76
(lp3114
S'wsgi.multithread'
p3115
asbag69
(g90
g71
NtRp3116
(dp3117
g74
(dp3118
g101
g102
ssg83
g3107
sg76
(lp3119
S':'
asbag69
(g90
g71
NtRp3120
(dp3121
g74
(dp3122
sg83
g3107
sg76
(lp3123
g69
(g70
g71
NtRp3124
(dp3125
g74
(dp3126
g82
I3
ssg83
g3120
sg76
(lp3127
g1783
asbasbasbag69
(g85
g71
NtRp3128
(dp3129
g74
(dp3130
sg83
g2638
sg76
(lp3131
g69
(g90
g71
NtRp3132
(dp3133
g74
(dp3134
g94
g95
ssg83
g3128
sg76
(lp3135
S'wsgi.run_once'
p3136
asbag69
(g90
g71
NtRp3137
(dp3138
g74
(dp3139
g101
g102
ssg83
g3128
sg76
(lp3140
S':'
asbag69
(g90
g71
NtRp3141
(dp3142
g74
(dp3143
sg83
g3128
sg76
(lp3144
g69
(g70
g71
NtRp3145
(dp3146
g74
(dp3147
g82
I3
ssg83
g3141
sg76
(lp3148
g112
asbasbasbag69
(g85
g71
NtRp3149
(dp3150
g74
(dp3151
sg83
g2638
sg76
(lp3152
g69
(g90
g71
NtRp3153
(dp3154
g74
(dp3155
g94
g95
ssg83
g3149
sg76
(lp3156
S'wsgi.url_scheme'
p3157
asbag69
(g90
g71
NtRp3158
(dp3159
g74
(dp3160
g101
g102
ssg83
g3149
sg76
(lp3161
S':'
asbag69
(g90
g71
NtRp3162
(dp3163
g74
(dp3164
sg83
g3149
sg76
(lp3165
g69
(g70
g71
NtRp3166
(dp3167
g74
(dp3168
g82
I3
ssg83
g3162
sg76
(lp3169
g1826
asbasbasbag69
(g85
g71
NtRp3170
(dp3171
g74
(dp3172
sg83
g2638
sg76
(lp3173
g69
(g90
g71
NtRp3174
(dp3175
g74
(dp3176
g94
g95
ssg83
g3170
sg76
(lp3177
S'wsgi.version'
p3178
asbag69
(g90
g71
NtRp3179
(dp3180
g74
(dp3181
g101
g102
ssg83
g3170
sg76
(lp3182
S':'
asbag69
(g90
g71
NtRp3183
(dp3184
g74
(dp3185
sg83
g3170
sg76
(lp3186
g69
(g70
g71
NtRp3187
(dp3188
g74
(dp3189
g82
I3
ssg83
g3183
sg76
(lp3190
S'1'
asbasbasbasbasbasbasbasbasbasbasbasbasbsS'frames'
p3191
(lp3192
(dp3193
S'file'
p3194
S'/home/umang/web2py/gluon/restricted.py'
p3195
sS'dump'
p3196
(dp3197
S'code'
p3198
S"'# -*- coding: utf-8 -*-\\n# this file is released ...d())\\n\\nresponse._vars=response._caller(edit_news)\\n'"
p3199
sS'layer'
p3200
S"'/home/umang/web2py/applications/assignmen3/controllers/default.py'"
p3201
sS'global compile2'
p3202
S'<function compile2>'
p3203
sS'ccode'
p3204
S'undefined'
p3205
ssS'lnum'
p3206
I211
sS'lines'
p3207
(dp3208
I206
S"    environment['__name__'] = '__restricted__'"
p3209
sI207
S'    try:'
p3210
sI208
S'        if isinstance(code, types.CodeType):'
p3211
sI209
S'            ccode = code'
p3212
sI210
S'        else:'
p3213
sI211
S'            ccode = compile2(code, layer)'
p3214
sI212
S'        exec ccode in environment'
p3215
sI213
S'    except HTTP:'
p3216
sI214
S'        raise'
p3217
sI215
S'    except RestrictedError:'
p3218
ssS'call'
p3219
S"(code='# -*- coding: utf-8 -*-\\n# this file is released ...d())\\n\\nresponse._vars=response._caller(edit_news)\\n', environment={'A': <class 'gluon.html.A'>, 'Auth': <class 'gluon.tools.Auth'>, 'B': <class 'gluon.html.B'>, 'BEAUTIFY': <class 'gluon.html.BEAUTIFY'>, 'BODY': <class 'gluon.html.BODY'>, 'BR': <class 'gluon.html.BR'>, 'BUTTON': <class 'gluon.html.BUTTON'>, 'CAT': <class 'gluon.html.CAT'>, 'CENTER': <class 'gluon.html.CENTER'>, 'CLEANUP': <class 'gluon.validators.CLEANUP'>, ...}, layer='/home/umang/web2py/applications/assignmen3/controllers/default.py')"
p3220
sS'func'
p3221
S'restricted'
p3222
sa(dp3223
g3194
S'/home/umang/web2py/gluon/restricted.py'
p3224
sg3196
(dp3225
S'builtincompile'
p3226
S'<built-in function compile>'
p3227
sS'code'
p3228
S"'# -*- coding: utf-8 -*-\\n# this file is released ...d())\\n\\nresponse._vars=response._caller(edit_news)\\n'"
p3229
sS'code.rstrip'
p3230
S'<built-in method rstrip of str object>'
p3231
sS').replace'
p3232
g3205
sS'layer'
p3233
S"'/home/umang/web2py/applications/assignmen3/controllers/default.py'"
p3234
ssg3206
I194
sg3207
(dp3235
I192
S"    The +'\\n' is necessary else compile fails when code ends in a comment."
p3236
sI193
S'    """'
p3237
sI194
S"    return compile(code.rstrip().replace('\\r\\n', '\\n') + '\\n', layer, 'exec')"
p3238
sI195
S''
sI196
S''
sI197
S"def restricted(code, environment=None, layer='Unknown'):"
p3239
sI198
S'    """'
p3240
sI189
S''
sI190
S'def compile2(code, layer):'
p3241
sI191
S'    """'
p3242
ssg3219
S"(code='# -*- coding: utf-8 -*-\\n# this file is released ...d())\\n\\nresponse._vars=response._caller(edit_news)\\n', layer='/home/umang/web2py/applications/assignmen3/controllers/default.py')"
p3243
sg3221
S'compile2'
p3244
sasS'pyver'
p3245
S'Python 2.7.3: /usr/bin/python'
p3246
sS'session'
p3247
g69
(g70
g71
NtRp3248
(dp3249
g74
(dp3250
sg76
(lp3251
g69
(g78
g71
NtRp3252
(dp3253
g74
(dp3254
g82
I5
ssg83
Nsg76
(lp3255
g69
(g85
g71
NtRp3256
(dp3257
g74
(dp3258
sg83
g3252
sg76
(lp3259
g69
(g90
g71
NtRp3260
(dp3261
g74
(dp3262
g94
g95
ssg83
g3256
sg76
(lp3263
S'flash'
p3264
asbag69
(g90
g71
NtRp3265
(dp3266
g74
(dp3267
g101
g102
ssg83
g3256
sg76
(lp3268
S':'
asbag69
(g90
g71
NtRp3269
(dp3270
g74
(dp3271
sg83
g3256
sg76
(lp3272
g69
(g70
g71
NtRp3273
(dp3274
g74
(dp3275
g82
I5
ssg83
g3269
sg76
(lp3276
S'None'
p3277
asbasbasbag69
(g85
g71
NtRp3278
(dp3279
g74
(dp3280
sg83
g3252
sg76
(lp3281
g69
(g90
g71
NtRp3282
(dp3283
g74
(dp3284
g94
g95
ssg83
g3278
sg76
(lp3285
S'last_orderby'
p3286
asbag69
(g90
g71
NtRp3287
(dp3288
g74
(dp3289
g101
g102
ssg83
g3278
sg76
(lp3290
S':'
asbag69
(g90
g71
NtRp3291
(dp3292
g74
(dp3293
sg83
g3278
sg76
(lp3294
g69
(g70
g71
NtRp3295
(dp3296
g74
(dp3297
g82
I5
ssg83
g3291
sg76
(lp3298
S'None'
p3299
asbasbasbag69
(g85
g71
NtRp3300
(dp3301
g74
(dp3302
sg83
g3252
sg76
(lp3303
g69
(g90
g71
NtRp3304
(dp3305
g74
(dp3306
g94
g95
ssg83
g3300
sg76
(lp3307
S'last_query'
p3308
asbag69
(g90
g71
NtRp3309
(dp3310
g74
(dp3311
g101
g102
ssg83
g3300
sg76
(lp3312
S':'
asbag69
(g90
g71
NtRp3313
(dp3314
g74
(dp3315
sg83
g3300
sg76
(lp3316
g69
(g70
g71
NtRp3317
(dp3318
g74
(dp3319
g82
I5
ssg83
g3313
sg76
(lp3320
S'db.news.id>0'
p3321
asbasbasbasbasbsS'etype'
p3322
S"<type 'exceptions.SyntaxError'>"
p3323
sS'date'
p3324
S'Tue Aug 27 21:15:42 2013'
p3325
sS'response'
p3326
g69
(g70
g71
NtRp3327
(dp3328
g74
(dp3329
sg76
(lp3330
g69
(g78
g71
NtRp3331
(dp3332
g74
(dp3333
g82
I5
ssg83
Nsg76
(lp3334
g69
(g85
g71
NtRp3335
(dp3336
g74
(dp3337
sg83
g3331
sg76
(lp3338
g69
(g90
g71
NtRp3339
(dp3340
g74
(dp3341
g94
g95
ssg83
g3335
sg76
(lp3342
g191
asbag69
(g90
g71
NtRp3343
(dp3344
g74
(dp3345
g101
g102
ssg83
g3335
sg76
(lp3346
S':'
asbag69
(g90
g71
NtRp3347
(dp3348
g74
(dp3349
sg83
g3335
sg76
(lp3350
g69
(g70
g71
NtRp3351
(dp3352
g74
(dp3353
g82
I5
ssg83
g3347
sg76
(lp3354
S'<cStringIO.StringO object at 0x7f94f8061a78>'
p3355
asbasbasbag69
(g85
g71
NtRp3356
(dp3357
g74
(dp3358
sg83
g3331
sg76
(lp3359
g69
(g90
g71
NtRp3360
(dp3361
g74
(dp3362
g94
g95
ssg83
g3356
sg76
(lp3363
g279
asbag69
(g90
g71
NtRp3364
(dp3365
g74
(dp3366
g101
g102
ssg83
g3356
sg76
(lp3367
S':'
asbag69
(g90
g71
NtRp3368
(dp3369
g74
(dp3370
sg83
g3356
sg76
(lp3371
g69
(g70
g71
NtRp3372
(dp3373
g74
(dp3374
g82
I5
ssg83
g3368
sg76
(lp3375
g69
(g78
g71
NtRp3376
(dp3377
g74
(dp3378
g82
I4
ssg83
Nsg76
(lp3379
g69
(g85
g71
NtRp3380
(dp3381
g74
(dp3382
sg83
g3376
sg76
(lp3383
g69
(g90
g71
NtRp3384
(dp3385
g74
(dp3386
g94
g95
ssg83
g3380
sg76
(lp3387
S'session_id_assignmen3'
p3388
asbag69
(g90
g71
NtRp3389
(dp3390
g74
(dp3391
g101
g102
ssg83
g3380
sg76
(lp3392
S':'
asbag69
(g90
g71
NtRp3393
(dp3394
g74
(dp3395
sg83
g3380
sg76
(lp3396
g69
(g70
g71
NtRp3397
(dp3398
g74
(dp3399
g82
I4
ssg83
g3393
sg76
(lp3400
g511
ag69
(g78
g71
NtRp3401
(dp3402
g74
(dp3403
g82
I3
ssg83
Nsg76
(lp3404
g69
(g85
g71
NtRp3405
(dp3406
g74
(dp3407
sg83
g3401
sg76
(lp3408
g69
(g90
g71
NtRp3409
(dp3410
g74
(dp3411
g94
g95
ssg83
g3405
sg76
(lp3412
g330
asbag69
(g90
g71
NtRp3413
(dp3414
g74
(dp3415
g101
g102
ssg83
g3405
sg76
(lp3416
S':'
asbag69
(g90
g71
NtRp3417
(dp3418
g74
(dp3419
sg83
g3405
sg76
(lp3420
g69
(g70
g71
NtRp3421
(dp3422
g74
(dp3423
g82
I3
ssg83
g3417
sg76
(lp3424
S''
asbasbasbag69
(g85
g71
NtRp3425
(dp3426
g74
(dp3427
sg83
g3401
sg76
(lp3428
g69
(g90
g71
NtRp3429
(dp3430
g74
(dp3431
g94
g95
ssg83
g3425
sg76
(lp3432
g351
asbag69
(g90
g71
NtRp3433
(dp3434
g74
(dp3435
g101
g102
ssg83
g3425
sg76
(lp3436
S':'
asbag69
(g90
g71
NtRp3437
(dp3438
g74
(dp3439
sg83
g3425
sg76
(lp3440
g69
(g70
g71
NtRp3441
(dp3442
g74
(dp3443
g82
I3
ssg83
g3437
sg76
(lp3444
S''
asbasbasbag69
(g85
g71
NtRp3445
(dp3446
g74
(dp3447
sg83
g3401
sg76
(lp3448
g69
(g90
g71
NtRp3449
(dp3450
g74
(dp3451
g94
g95
ssg83
g3445
sg76
(lp3452
g372
asbag69
(g90
g71
NtRp3453
(dp3454
g74
(dp3455
g101
g102
ssg83
g3445
sg76
(lp3456
S':'
asbag69
(g90
g71
NtRp3457
(dp3458
g74
(dp3459
sg83
g3445
sg76
(lp3460
g69
(g70
g71
NtRp3461
(dp3462
g74
(dp3463
g82
I3
ssg83
g3457
sg76
(lp3464
S''
asbasbasbag69
(g85
g71
NtRp3465
(dp3466
g74
(dp3467
sg83
g3401
sg76
(lp3468
g69
(g90
g71
NtRp3469
(dp3470
g74
(dp3471
g94
g95
ssg83
g3465
sg76
(lp3472
g393
asbag69
(g90
g71
NtRp3473
(dp3474
g74
(dp3475
g101
g102
ssg83
g3465
sg76
(lp3476
S':'
asbag69
(g90
g71
NtRp3477
(dp3478
g74
(dp3479
sg83
g3465
sg76
(lp3480
g69
(g70
g71
NtRp3481
(dp3482
g74
(dp3483
g82
I3
ssg83
g3477
sg76
(lp3484
S''
asbasbasbag69
(g85
g71
NtRp3485
(dp3486
g74
(dp3487
sg83
g3401
sg76
(lp3488
g69
(g90
g71
NtRp3489
(dp3490
g74
(dp3491
g94
g95
ssg83
g3485
sg76
(lp3492
g414
asbag69
(g90
g71
NtRp3493
(dp3494
g74
(dp3495
g101
g102
ssg83
g3485
sg76
(lp3496
S':'
asbag69
(g90
g71
NtRp3497
(dp3498
g74
(dp3499
sg83
g3485
sg76
(lp3500
g69
(g70
g71
NtRp3501
(dp3502
g74
(dp3503
g82
I3
ssg83
g3497
sg76
(lp3504
S''
asbasbasbag69
(g85
g71
NtRp3505
(dp3506
g74
(dp3507
sg83
g3401
sg76
(lp3508
g69
(g90
g71
NtRp3509
(dp3510
g74
(dp3511
g94
g95
ssg83
g3505
sg76
(lp3512
g435
asbag69
(g90
g71
NtRp3513
(dp3514
g74
(dp3515
g101
g102
ssg83
g3505
sg76
(lp3516
S':'
asbag69
(g90
g71
NtRp3517
(dp3518
g74
(dp3519
sg83
g3505
sg76
(lp3520
g69
(g70
g71
NtRp3521
(dp3522
g74
(dp3523
g82
I3
ssg83
g3517
sg76
(lp3524
S'/'
asbasbasbag69
(g85
g71
NtRp3525
(dp3526
g74
(dp3527
sg83
g3401
sg76
(lp3528
g69
(g90
g71
NtRp3529
(dp3530
g74
(dp3531
g94
g95
ssg83
g3525
sg76
(lp3532
g456
asbag69
(g90
g71
NtRp3533
(dp3534
g74
(dp3535
g101
g102
ssg83
g3525
sg76
(lp3536
S':'
asbag69
(g90
g71
NtRp3537
(dp3538
g74
(dp3539
sg83
g3525
sg76
(lp3540
g69
(g70
g71
NtRp3541
(dp3542
g74
(dp3543
g82
I3
ssg83
g3537
sg76
(lp3544
S''
asbasbasbag69
(g85
g71
NtRp3545
(dp3546
g74
(dp3547
sg83
g3401
sg76
(lp3548
g69
(g90
g71
NtRp3549
(dp3550
g74
(dp3551
g94
g95
ssg83
g3545
sg76
(lp3552
g477
asbag69
(g90
g71
NtRp3553
(dp3554
g74
(dp3555
g101
g102
ssg83
g3545
sg76
(lp3556
S':'
asbag69
(g90
g71
NtRp3557
(dp3558
g74
(dp3559
sg83
g3545
sg76
(lp3560
g69
(g70
g71
NtRp3561
(dp3562
g74
(dp3563
g82
I3
ssg83
g3557
sg76
(lp3564
S''
asbasbasbasbasbasbasbasbasbasbasbag69
(g85
g71
NtRp3565
(dp3566
g74
(dp3567
sg83
g3331
sg76
(lp3568
g69
(g90
g71
NtRp3569
(dp3570
g74
(dp3571
g94
g95
ssg83
g3565
sg76
(lp3572
S'delimiters'
p3573
asbag69
(g90
g71
NtRp3574
(dp3575
g74
(dp3576
g101
g102
ssg83
g3565
sg76
(lp3577
S':'
asbag69
(g90
g71
NtRp3578
(dp3579
g74
(dp3580
sg83
g3565
sg76
(lp3581
g69
(g70
g71
NtRp3582
(dp3583
g74
(dp3584
g82
I5
ssg83
g3578
sg76
(lp3585
g69
(g78
g71
NtRp3586
(dp3587
g74
(dp3588
g82
I4
ssg83
Nsg76
(lp3589
g69
(g85
g71
NtRp3590
(dp3591
g74
(dp3592
sg83
g3586
sg76
(lp3593
g69
(g90
g71
NtRp3594
(dp3595
g74
(dp3596
sg83
g3590
sg76
(lp3597
g69
(g70
g71
NtRp3598
(dp3599
g74
(dp3600
g82
I4
ssg83
g3594
sg76
(lp3601
S'{{'
p3602
asbasbasbag69
(g85
g71
NtRp3603
(dp3604
g74
(dp3605
sg83
g3586
sg76
(lp3606
g69
(g90
g71
NtRp3607
(dp3608
g74
(dp3609
sg83
g3603
sg76
(lp3610
g69
(g70
g71
NtRp3611
(dp3612
g74
(dp3613
g82
I4
ssg83
g3607
sg76
(lp3614
S'}}'
p3615
asbasbasbasbasbasbasbag69
(g85
g71
NtRp3616
(dp3617
g74
(dp3618
sg83
g3331
sg76
(lp3619
g69
(g90
g71
NtRp3620
(dp3621
g74
(dp3622
g94
g95
ssg83
g3616
sg76
(lp3623
S'files'
p3624
asbag69
(g90
g71
NtRp3625
(dp3626
g74
(dp3627
g101
g102
ssg83
g3616
sg76
(lp3628
S':'
asbag69
(g90
g71
NtRp3629
(dp3630
g74
(dp3631
sg83
g3616
sg76
(lp3632
g69
(g70
g71
NtRp3633
(dp3634
g74
(dp3635
g82
I5
ssg83
g3629
sg76
(lp3636
g69
(g78
g71
NtRp3637
(dp3638
g74
(dp3639
g82
I4
ssg83
Nsg76
(lp3640
sbasbasbasbag69
(g85
g71
NtRp3641
(dp3642
g74
(dp3643
sg83
g3331
sg76
(lp3644
g69
(g90
g71
NtRp3645
(dp3646
g74
(dp3647
g94
g95
ssg83
g3641
sg76
(lp3648
S'flash'
p3649
asbag69
(g90
g71
NtRp3650
(dp3651
g74
(dp3652
g101
g102
ssg83
g3641
sg76
(lp3653
S':'
asbag69
(g90
g71
NtRp3654
(dp3655
g74
(dp3656
sg83
g3641
sg76
(lp3657
g69
(g70
g71
NtRp3658
(dp3659
g74
(dp3660
g82
I5
ssg83
g3654
sg76
(lp3661
S''
asbasbasbag69
(g85
g71
NtRp3662
(dp3663
g74
(dp3664
sg83
g3331
sg76
(lp3665
g69
(g90
g71
NtRp3666
(dp3667
g74
(dp3668
g94
g95
ssg83
g3662
sg76
(lp3669
S'generic_patterns'
p3670
asbag69
(g90
g71
NtRp3671
(dp3672
g74
(dp3673
g101
g102
ssg83
g3662
sg76
(lp3674
S':'
asbag69
(g90
g71
NtRp3675
(dp3676
g74
(dp3677
sg83
g3662
sg76
(lp3678
g69
(g70
g71
NtRp3679
(dp3680
g74
(dp3681
g82
I5
ssg83
g3675
sg76
(lp3682
g69
(g78
g71
NtRp3683
(dp3684
g74
(dp3685
g82
I4
ssg83
Nsg76
(lp3686
g69
(g85
g71
NtRp3687
(dp3688
g74
(dp3689
sg83
g3683
sg76
(lp3690
g69
(g90
g71
NtRp3691
(dp3692
g74
(dp3693
sg83
g3687
sg76
(lp3694
g69
(g70
g71
NtRp3695
(dp3696
g74
(dp3697
g82
I4
ssg83
g3691
sg76
(lp3698
S'*'
asbasbasbasbasbasbasbag69
(g85
g71
NtRp3699
(dp3700
g74
(dp3701
sg83
g3331
sg76
(lp3702
g69
(g90
g71
NtRp3703
(dp3704
g74
(dp3705
g94
g95
ssg83
g3699
sg76
(lp3706
S'google_analytics_id'
p3707
asbag69
(g90
g71
NtRp3708
(dp3709
g74
(dp3710
g101
g102
ssg83
g3699
sg76
(lp3711
S':'
asbag69
(g90
g71
NtRp3712
(dp3713
g74
(dp3714
sg83
g3699
sg76
(lp3715
g69
(g70
g71
NtRp3716
(dp3717
g74
(dp3718
g82
I5
ssg83
g3712
sg76
(lp3719
S'None'
p3720
asbasbasbag69
(g85
g71
NtRp3721
(dp3722
g74
(dp3723
sg83
g3331
sg76
(lp3724
g69
(g90
g71
NtRp3725
(dp3726
g74
(dp3727
g94
g95
ssg83
g3721
sg76
(lp3728
S'headers'
p3729
asbag69
(g90
g71
NtRp3730
(dp3731
g74
(dp3732
g101
g102
ssg83
g3721
sg76
(lp3733
S':'
asbag69
(g90
g71
NtRp3734
(dp3735
g74
(dp3736
sg83
g3721
sg76
(lp3737
g69
(g70
g71
NtRp3738
(dp3739
g74
(dp3740
g82
I5
ssg83
g3734
sg76
(lp3741
g69
(g78
g71
NtRp3742
(dp3743
g74
(dp3744
g82
I4
ssg83
Nsg76
(lp3745
g69
(g85
g71
NtRp3746
(dp3747
g74
(dp3748
sg83
g3742
sg76
(lp3749
g69
(g90
g71
NtRp3750
(dp3751
g74
(dp3752
g94
g95
ssg83
g3746
sg76
(lp3753
S'X-Powered-By'
p3754
asbag69
(g90
g71
NtRp3755
(dp3756
g74
(dp3757
g101
g102
ssg83
g3746
sg76
(lp3758
S':'
asbag69
(g90
g71
NtRp3759
(dp3760
g74
(dp3761
sg83
g3746
sg76
(lp3762
g69
(g70
g71
NtRp3763
(dp3764
g74
(dp3765
g82
I4
ssg83
g3759
sg76
(lp3766
S'web2py'
p3767
asbasbasbasbasbasbasbag69
(g85
g71
NtRp3768
(dp3769
g74
(dp3770
sg83
g3331
sg76
(lp3771
g69
(g90
g71
NtRp3772
(dp3773
g74
(dp3774
g94
g95
ssg83
g3768
sg76
(lp3775
S'logo'
p3776
asbag69
(g90
g71
NtRp3777
(dp3778
g74
(dp3779
g101
g102
ssg83
g3768
sg76
(lp3780
S':'
asbag69
(g90
g71
NtRp3781
(dp3782
g74
(dp3783
sg83
g3768
sg76
(lp3784
g69
(g70
g71
NtRp3785
(dp3786
g74
(dp3787
g82
I5
ssg83
g3781
sg76
(lp3788
g69
(cgluon.html
A
p3789
g71
NtRp3790
(dp3791
g74
(dp3792
S'_class'
p3793
S'brand'
p3794
sS'_href'
p3795
S'http://www.web2py.com/'
p3796
ssg83
Nsg76
(lp3797
g69
(cgluon.html
B
p3798
g71
NtRp3799
(dp3800
g74
(dp3801
sg83
g3790
sg76
(lp3802
S'web'
p3803
ag69
(cgluon.html
SPAN
p3804
g71
NtRp3805
(dp3806
g74
(dp3807
sg83
g3799
sg76
(lp3808
I2
asbaS'py'
p3809
asbacgluon.html
XML_unpickle
p3810
(S's\r\x00\x00\x00&trade;&nbsp;'
tRp3811
asbasbasbasbag69
(g85
g71
NtRp3812
(dp3813
g74
(dp3814
sg83
g3331
sg76
(lp3815
g69
(g90
g71
NtRp3816
(dp3817
g74
(dp3818
g94
g95
ssg83
g3812
sg76
(lp3819
S'menu'
p3820
asbag69
(g90
g71
NtRp3821
(dp3822
g74
(dp3823
g101
g102
ssg83
g3812
sg76
(lp3824
S':'
asbag69
(g90
g71
NtRp3825
(dp3826
g74
(dp3827
sg83
g3812
sg76
(lp3828
g69
(g70
g71
NtRp3829
(dp3830
g74
(dp3831
g82
I5
ssg83
g3825
sg76
(lp3832
g69
(g78
g71
NtRp3833
(dp3834
g74
(dp3835
g82
I4
ssg83
Nsg76
(lp3836
g69
(g85
g71
NtRp3837
(dp3838
g74
(dp3839
sg83
g3833
sg76
(lp3840
g69
(g90
g71
NtRp3841
(dp3842
g74
(dp3843
sg83
g3837
sg76
(lp3844
g69
(g70
g71
NtRp3845
(dp3846
g74
(dp3847
g82
I4
ssg83
g3841
sg76
(lp3848
g69
(g78
g71
NtRp3849
(dp3850
g74
(dp3851
g82
I3
ssg83
Nsg76
(lp3852
g69
(g85
g71
NtRp3853
(dp3854
g74
(dp3855
sg83
g3849
sg76
(lp3856
g69
(g90
g71
NtRp3857
(dp3858
g74
(dp3859
sg83
g3853
sg76
(lp3860
g69
(g70
g71
NtRp3861
(dp3862
g74
(dp3863
g82
I3
ssg83
g3857
sg76
(lp3864
cgluon.languages
lazyT_unpickle
p3865
(S's\x04\x00\x00\x00Home'
tRp3866
asbasbasbag69
(g85
g71
NtRp3867
(dp3868
g74
(dp3869
sg83
g3849
sg76
(lp3870
g69
(g90
g71
NtRp3871
(dp3872
g74
(dp3873
sg83
g3867
sg76
(lp3874
g69
(g70
g71
NtRp3875
(dp3876
g74
(dp3877
g82
I3
ssg83
g3871
sg76
(lp3878
g112
asbasbasbag69
(g85
g71
NtRp3879
(dp3880
g74
(dp3881
sg83
g3849
sg76
(lp3882
g69
(g90
g71
NtRp3883
(dp3884
g74
(dp3885
sg83
g3879
sg76
(lp3886
g69
(g70
g71
NtRp3887
(dp3888
g74
(dp3889
g82
I3
ssg83
g3883
sg76
(lp3890
S'/assignmen3/default/index'
p3891
asbasbasbag69
(g85
g71
NtRp3892
(dp3893
g74
(dp3894
sg83
g3849
sg76
(lp3895
g69
(g90
g71
NtRp3896
(dp3897
g74
(dp3898
sg83
g3892
sg76
(lp3899
g69
(g70
g71
NtRp3900
(dp3901
g74
(dp3902
g82
I3
ssg83
g3896
sg76
(lp3903
g69
(g78
g71
NtRp3904
(dp3905
g74
(dp3906
g82
I2
ssg83
Nsg76
(lp3907
sbasbasbasbasbasbasbasbag69
(g85
g71
NtRp3908
(dp3909
g74
(dp3910
sg83
g3833
sg76
(lp3911
g69
(g90
g71
NtRp3912
(dp3913
g74
(dp3914
sg83
g3908
sg76
(lp3915
g69
(g70
g71
NtRp3916
(dp3917
g74
(dp3918
g82
I4
ssg83
g3912
sg76
(lp3919
g69
(g78
g71
NtRp3920
(dp3921
g74
(dp3922
g82
I3
ssg83
Nsg76
(lp3923
g69
(g85
g71
NtRp3924
(dp3925
g74
(dp3926
sg83
g3920
sg76
(lp3927
g69
(g90
g71
NtRp3928
(dp3929
g74
(dp3930
sg83
g3924
sg76
(lp3931
g69
(g70
g71
NtRp3932
(dp3933
g74
(dp3934
g82
I3
ssg83
g3928
sg76
(lp3935
g69
(g3804
g71
NtRp3936
(dp3937
g74
(dp3938
g3793
S'highlighted'
p3939
ssg83
Nsg76
(lp3940
g3767
asbasbasbasbag69
(g85
g71
NtRp3941
(dp3942
g74
(dp3943
sg83
g3920
sg76
(lp3944
g69
(g90
g71
NtRp3945
(dp3946
g74
(dp3947
sg83
g3941
sg76
(lp3948
g69
(g70
g71
NtRp3949
(dp3950
g74
(dp3951
g82
I3
ssg83
g3945
sg76
(lp3952
g112
asbasbasbag69
(g85
g71
NtRp3953
(dp3954
g74
(dp3955
sg83
g3920
sg76
(lp3956
g69
(g90
g71
NtRp3957
(dp3958
g74
(dp3959
sg83
g3953
sg76
(lp3960
g69
(g70
g71
NtRp3961
(dp3962
g74
(dp3963
g82
I3
ssg83
g3957
sg76
(lp3964
S'http://web2py.com'
p3965
asbasbasbag69
(g85
g71
NtRp3966
(dp3967
g74
(dp3968
sg83
g3920
sg76
(lp3969
g69
(g90
g71
NtRp3970
(dp3971
g74
(dp3972
sg83
g3966
sg76
(lp3973
g69
(g70
g71
NtRp3974
(dp3975
g74
(dp3976
g82
I3
ssg83
g3970
sg76
(lp3977
g69
(g78
g71
NtRp3978
(dp3979
g74
(dp3980
g82
I2
ssg83
Nsg76
(lp3981
g69
(g85
g71
NtRp3982
(dp3983
g74
(dp3984
sg83
g3978
sg76
(lp3985
g69
(g90
g71
NtRp3986
(dp3987
g74
(dp3988
sg83
g3982
sg76
(lp3989
g69
(g70
g71
NtRp3990
(dp3991
g74
(dp3992
g82
I2
ssg83
g3986
sg76
(lp3993
g69
(g78
g71
NtRp3994
(dp3995
g74
(dp3996
g82
I1
ssg83
Nsg76
(lp3997
g69
(g85
g71
NtRp3998
(dp3999
g74
(dp4000
sg83
g3994
sg76
(lp4001
g69
(g90
g71
NtRp4002
(dp4003
g74
(dp4004
sg83
g3998
sg76
(lp4005
g69
(g70
g71
NtRp4006
(dp4007
g74
(dp4008
g82
I1
ssg83
g4002
sg76
(lp4009
g3865
(S's\x08\x00\x00\x00My Sites'
tRp4010
asbasbasbag69
(g85
g71
NtRp4011
(dp4012
g74
(dp4013
sg83
g3994
sg76
(lp4014
g69
(g90
g71
NtRp4015
(dp4016
g74
(dp4017
sg83
g4011
sg76
(lp4018
g69
(g70
g71
NtRp4019
(dp4020
g74
(dp4021
g82
I1
ssg83
g4015
sg76
(lp4022
I00
asbasbasbag69
(g85
g71
NtRp4023
(dp4024
g74
(dp4025
sg83
g3994
sg76
(lp4026
g69
(g90
g71
NtRp4027
(dp4028
g74
(dp4029
sg83
g4023
sg76
(lp4030
g69
(g70
g71
NtRp4031
(dp4032
g74
(dp4033
g82
I1
ssg83
g4027
sg76
(lp4034
S'/admin/default/site'
p4035
asbasbasbasbasbasbasbag69
(g85
g71
NtRp4036
(dp4037
g74
(dp4038
sg83
g3978
sg76
(lp4039
g69
(g90
g71
NtRp4040
(dp4041
g74
(dp4042
sg83
g4036
sg76
(lp4043
g69
(g70
g71
NtRp4044
(dp4045
g74
(dp4046
g82
I2
ssg83
g4040
sg76
(lp4047
g69
(g78
g71
NtRp4048
(dp4049
g74
(dp4050
g82
I1
ssg83
Nsg76
(lp4051
g69
(g85
g71
NtRp4052
(dp4053
g74
(dp4054
sg83
g4048
sg76
(lp4055
g69
(g90
g71
NtRp4056
(dp4057
g74
(dp4058
sg83
g4052
sg76
(lp4059
g69
(g70
g71
NtRp4060
(dp4061
g74
(dp4062
g82
I1
ssg83
g4056
sg76
(lp4063
g3865
(S's\x08\x00\x00\x00This App'
tRp4064
asbasbasbag69
(g85
g71
NtRp4065
(dp4066
g74
(dp4067
sg83
g4048
sg76
(lp4068
g69
(g90
g71
NtRp4069
(dp4070
g74
(dp4071
sg83
g4065
sg76
(lp4072
g69
(g70
g71
NtRp4073
(dp4074
g74
(dp4075
g82
I1
ssg83
g4069
sg76
(lp4076
I00
asbasbasbag69
(g85
g71
NtRp4077
(dp4078
g74
(dp4079
sg83
g4048
sg76
(lp4080
g69
(g90
g71
NtRp4081
(dp4082
g74
(dp4083
sg83
g4077
sg76
(lp4084
g69
(g70
g71
NtRp4085
(dp4086
g74
(dp4087
g82
I1
ssg83
g4081
sg76
(lp4088
S'/admin/default/design/assignmen3'
p4089
asbasbasbag69
(g85
g71
NtRp4090
(dp4091
g74
(dp4092
sg83
g4048
sg76
(lp4093
g69
(g90
g71
NtRp4094
(dp4095
g74
(dp4096
sg83
g4090
sg76
(lp4097
g69
(g70
g71
NtRp4098
(dp4099
g74
(dp4100
g82
I1
ssg83
g4094
sg76
(lp4101
(lp4102
(g3865
(S's\n\x00\x00\x00Controller'
tRp4103
I00
S'/admin/default/edit/assignmen3/controllers/default.py'
tp4104
a(g3865
(S's\x04\x00\x00\x00View'
tRp4105
I00
S'/admin/default/edit/assignmen3/views/default/edit_news.html'
tp4106
a(g3865
(S's\x06\x00\x00\x00Layout'
tRp4107
I00
S'/admin/default/edit/assignmen3/views/layout.html'
tp4108
a(g3865
(S's\n\x00\x00\x00Stylesheet'
tRp4109
I00
S'/admin/default/edit/assignmen3/static/css/web2py.css'
tp4110
a(g3865
(S's\x08\x00\x00\x00DB Model'
tRp4111
I00
S'/admin/default/edit/assignmen3/models/db.py'
tp4112
a(g3865
(S's\n\x00\x00\x00Menu Model'
tRp4113
I00
S'/admin/default/edit/assignmen3/models/menu.py'
tp4114
a(g3865
(S's\x08\x00\x00\x00Database'
tRp4115
I00
S'/assignmen3/appadmin/index'
tp4116
a(g3865
(S's\x06\x00\x00\x00Errors'
tRp4117
I00
S'/admin/default/errors/assignmen3'
tp4118
a(g3865
(S's\x05\x00\x00\x00About'
tRp4119
I00
S'/admin/default/about/assignmen3'
tp4120
aasbasbasbasbasbasbasbag69
(g85
g71
NtRp4121
(dp4122
g74
(dp4123
sg83
g3978
sg76
(lp4124
g69
(g90
g71
NtRp4125
(dp4126
g74
(dp4127
sg83
g4121
sg76
(lp4128
g69
(g70
g71
NtRp4129
(dp4130
g74
(dp4131
g82
I2
ssg83
g4125
sg76
(lp4132
g69
(g78
g71
NtRp4133
(dp4134
g74
(dp4135
g82
I1
ssg83
Nsg76
(lp4136
g69
(g85
g71
NtRp4137
(dp4138
g74
(dp4139
sg83
g4133
sg76
(lp4140
g69
(g90
g71
NtRp4141
(dp4142
g74
(dp4143
sg83
g4137
sg76
(lp4144
g69
(g70
g71
NtRp4145
(dp4146
g74
(dp4147
g82
I1
ssg83
g4141
sg76
(lp4148
S'web2py.com'
p4149
asbasbasbag69
(g85
g71
NtRp4150
(dp4151
g74
(dp4152
sg83
g4133
sg76
(lp4153
g69
(g90
g71
NtRp4154
(dp4155
g74
(dp4156
sg83
g4150
sg76
(lp4157
g69
(g70
g71
NtRp4158
(dp4159
g74
(dp4160
g82
I1
ssg83
g4154
sg76
(lp4161
I00
asbasbasbag69
(g85
g71
NtRp4162
(dp4163
g74
(dp4164
sg83
g4133
sg76
(lp4165
g69
(g90
g71
NtRp4166
(dp4167
g74
(dp4168
sg83
g4162
sg76
(lp4169
g69
(g70
g71
NtRp4170
(dp4171
g74
(dp4172
g82
I1
ssg83
g4166
sg76
(lp4173
S'http://www.web2py.com'
p4174
asbasbasbag69
(g85
g71
NtRp4175
(dp4176
g74
(dp4177
sg83
g4133
sg76
(lp4178
g69
(g90
g71
NtRp4179
(dp4180
g74
(dp4181
sg83
g4175
sg76
(lp4182
g69
(g70
g71
NtRp4183
(dp4184
g74
(dp4185
g82
I1
ssg83
g4179
sg76
(lp4186
(lp4187
(g3865
(S's\x08\x00\x00\x00Download'
tRp4188
I00
S'http://www.web2py.com/examples/default/download'
p4189
tp4190
a(g3865
(S's\x07\x00\x00\x00Support'
tRp4191
I00
S'http://www.web2py.com/examples/default/support'
p4192
tp4193
a(g3865
(S's\x04\x00\x00\x00Demo'
tRp4194
I00
S'http://web2py.com/demo_admin'
p4195
tp4196
a(g3865
(S's\x0e\x00\x00\x00Quick Examples'
tRp4197
I00
S'http://web2py.com/examples/default/examples'
p4198
tp4199
a(g3865
(S's\x03\x00\x00\x00FAQ'
tRp4200
I00
S'http://web2py.com/AlterEgo'
p4201
tp4202
a(g3865
(S's\x06\x00\x00\x00Videos'
tRp4203
I00
S'http://www.web2py.com/examples/default/videos/'
p4204
tp4205
a(g3865
(S's\x11\x00\x00\x00Free Applications'
tRp4206
I00
S'http://web2py.com/appliances'
p4207
tp4208
a(g3865
(S's\x07\x00\x00\x00Plugins'
tRp4209
I00
S'http://web2py.com/plugins'
p4210
tp4211
a(g3865
(S's\x07\x00\x00\x00Layouts'
tRp4212
I00
S'http://web2py.com/layouts'
p4213
tp4214
a(g3865
(S's\x07\x00\x00\x00Recipes'
tRp4215
I00
S'http://web2pyslices.com/'
p4216
tp4217
a(g3865
(S's\x08\x00\x00\x00Semantic'
tRp4218
I00
S'http://web2py.com/semantic'
p4219
tp4220
aasbasbasbasbasbasbasbag69
(g85
g71
NtRp4221
(dp4222
g74
(dp4223
sg83
g3978
sg76
(lp4224
g69
(g90
g71
NtRp4225
(dp4226
g74
(dp4227
sg83
g4221
sg76
(lp4228
g69
(g70
g71
NtRp4229
(dp4230
g74
(dp4231
g82
I2
ssg83
g4225
sg76
(lp4232
g69
(g78
g71
NtRp4233
(dp4234
g74
(dp4235
g82
I1
ssg83
Nsg76
(lp4236
g69
(g85
g71
NtRp4237
(dp4238
g74
(dp4239
sg83
g4233
sg76
(lp4240
g69
(g90
g71
NtRp4241
(dp4242
g74
(dp4243
sg83
g4237
sg76
(lp4244
g69
(g70
g71
NtRp4245
(dp4246
g74
(dp4247
g82
I1
ssg83
g4241
sg76
(lp4248
g3865
(S's\r\x00\x00\x00Documentation'
tRp4249
asbasbasbag69
(g85
g71
NtRp4250
(dp4251
g74
(dp4252
sg83
g4233
sg76
(lp4253
g69
(g90
g71
NtRp4254
(dp4255
g74
(dp4256
sg83
g4250
sg76
(lp4257
g69
(g70
g71
NtRp4258
(dp4259
g74
(dp4260
g82
I1
ssg83
g4254
sg76
(lp4261
I00
asbasbasbag69
(g85
g71
NtRp4262
(dp4263
g74
(dp4264
sg83
g4233
sg76
(lp4265
g69
(g90
g71
NtRp4266
(dp4267
g74
(dp4268
sg83
g4262
sg76
(lp4269
g69
(g70
g71
NtRp4270
(dp4271
g74
(dp4272
g82
I1
ssg83
g4266
sg76
(lp4273
S'http://www.web2py.com/book'
p4274
asbasbasbag69
(g85
g71
NtRp4275
(dp4276
g74
(dp4277
sg83
g4233
sg76
(lp4278
g69
(g90
g71
NtRp4279
(dp4280
g74
(dp4281
sg83
g4275
sg76
(lp4282
g69
(g70
g71
NtRp4283
(dp4284
g74
(dp4285
g82
I1
ssg83
g4279
sg76
(lp4286
(lp4287
(g3865
(S's\x07\x00\x00\x00Preface'
tRp4288
I00
S'http://www.web2py.com/book/default/chapter/00'
p4289
tp4290
a(g3865
(S's\x0c\x00\x00\x00Introduction'
tRp4291
I00
S'http://www.web2py.com/book/default/chapter/01'
p4292
tp4293
a(g3865
(S's\x06\x00\x00\x00Python'
tRp4294
I00
S'http://www.web2py.com/book/default/chapter/02'
p4295
tp4296
a(g3865
(S's\x08\x00\x00\x00Overview'
tRp4297
I00
S'http://www.web2py.com/book/default/chapter/03'
p4298
tp4299
a(g3865
(S's\x08\x00\x00\x00The Core'
tRp4300
I00
S'http://www.web2py.com/book/default/chapter/04'
p4301
tp4302
a(g3865
(S's\t\x00\x00\x00The Views'
tRp4303
I00
S'http://www.web2py.com/book/default/chapter/05'
p4304
tp4305
a(g3865
(S's\x08\x00\x00\x00Database'
tRp4306
I00
S'http://www.web2py.com/book/default/chapter/06'
p4307
tp4308
a(g3865
(S's\x14\x00\x00\x00Forms and Validators'
tRp4309
I00
S'http://www.web2py.com/book/default/chapter/07'
p4310
tp4311
a(g3865
(S's\r\x00\x00\x00Email and SMS'
tRp4312
I00
S'http://www.web2py.com/book/default/chapter/08'
p4313
tp4314
a(g3865
(S's\x0e\x00\x00\x00Access Control'
tRp4315
I00
S'http://www.web2py.com/book/default/chapter/09'
p4316
tp4317
a(g3865
(S's\x08\x00\x00\x00Services'
tRp4318
I00
S'http://www.web2py.com/book/default/chapter/10'
p4319
tp4320
a(g3865
(S's\x0c\x00\x00\x00Ajax Recipes'
tRp4321
I00
S'http://www.web2py.com/book/default/chapter/11'
p4322
tp4323
a(g3865
(S's\x16\x00\x00\x00Components and Plugins'
tRp4324
I00
S'http://www.web2py.com/book/default/chapter/12'
p4325
tp4326
a(g3865
(S's\x12\x00\x00\x00Deployment Recipes'
tRp4327
I00
S'http://www.web2py.com/book/default/chapter/13'
p4328
tp4329
a(g3865
(S's\r\x00\x00\x00Other Recipes'
tRp4330
I00
S'http://www.web2py.com/book/default/chapter/14'
p4331
tp4332
a(g3865
(S's\r\x00\x00\x00Buy this book'
tRp4333
I00
S'http://stores.lulu.com/web2py'
p4334
tp4335
aasbasbasbasbasbasbasbag69
(g85
g71
NtRp4336
(dp4337
g74
(dp4338
sg83
g3978
sg76
(lp4339
g69
(g90
g71
NtRp4340
(dp4341
g74
(dp4342
sg83
g4336
sg76
(lp4343
g69
(g70
g71
NtRp4344
(dp4345
g74
(dp4346
g82
I2
ssg83
g4340
sg76
(lp4347
g69
(g78
g71
NtRp4348
(dp4349
g74
(dp4350
g82
I1
ssg83
Nsg76
(lp4351
g69
(g85
g71
NtRp4352
(dp4353
g74
(dp4354
sg83
g4348
sg76
(lp4355
g69
(g90
g71
NtRp4356
(dp4357
g74
(dp4358
sg83
g4352
sg76
(lp4359
g69
(g70
g71
NtRp4360
(dp4361
g74
(dp4362
g82
I1
ssg83
g4356
sg76
(lp4363
g3865
(S's\t\x00\x00\x00Community'
tRp4364
asbasbasbag69
(g85
g71
NtRp4365
(dp4366
g74
(dp4367
sg83
g4348
sg76
(lp4368
g69
(g90
g71
NtRp4369
(dp4370
g74
(dp4371
sg83
g4365
sg76
(lp4372
g69
(g70
g71
NtRp4373
(dp4374
g74
(dp4375
g82
I1
ssg83
g4369
sg76
(lp4376
I00
asbasbasbag69
(g85
g71
NtRp4377
(dp4378
g74
(dp4379
sg83
g4348
sg76
(lp4380
g69
(g90
g71
NtRp4381
(dp4382
g74
(dp4383
sg83
g4377
sg76
(lp4384
g69
(g70
g71
NtRp4385
(dp4386
g74
(dp4387
g82
I1
ssg83
g4381
sg76
(lp4388
Nasbasbasbag69
(g85
g71
NtRp4389
(dp4390
g74
(dp4391
sg83
g4348
sg76
(lp4392
g69
(g90
g71
NtRp4393
(dp4394
g74
(dp4395
sg83
g4389
sg76
(lp4396
g69
(g70
g71
NtRp4397
(dp4398
g74
(dp4399
g82
I1
ssg83
g4393
sg76
(lp4400
(lp4401
(g3865
(S's\x06\x00\x00\x00Groups'
tRp4402
I00
S'http://www.web2py.com/examples/default/usergroups'
p4403
tp4404
a(g3865
(S's\x07\x00\x00\x00Twitter'
tRp4405
I00
S'http://twitter.com/web2py'
p4406
tp4407
a(g3865
(S's\t\x00\x00\x00Live Chat'
tRp4408
I00
S'http://webchat.freenode.net/?channels=web2py'
p4409
tp4410
aasbasbasbasbasbasbasbag69
(g85
g71
NtRp4411
(dp4412
g74
(dp4413
sg83
g3978
sg76
(lp4414
g69
(g90
g71
NtRp4415
(dp4416
g74
(dp4417
sg83
g4411
sg76
(lp4418
g69
(g70
g71
NtRp4419
(dp4420
g74
(dp4421
g82
I2
ssg83
g4415
sg76
(lp4422
g69
(g78
g71
NtRp4423
(dp4424
g74
(dp4425
g82
I1
ssg83
Nsg76
(lp4426
g69
(g85
g71
NtRp4427
(dp4428
g74
(dp4429
sg83
g4423
sg76
(lp4430
g69
(g90
g71
NtRp4431
(dp4432
g74
(dp4433
sg83
g4427
sg76
(lp4434
g69
(g70
g71
NtRp4435
(dp4436
g74
(dp4437
g82
I1
ssg83
g4431
sg76
(lp4438
g3865
(S's\x07\x00\x00\x00Plugins'
tRp4439
asbasbasbag69
(g85
g71
NtRp4440
(dp4441
g74
(dp4442
sg83
g4423
sg76
(lp4443
g69
(g90
g71
NtRp4444
(dp4445
g74
(dp4446
sg83
g4440
sg76
(lp4447
g69
(g70
g71
NtRp4448
(dp4449
g74
(dp4450
g82
I1
ssg83
g4444
sg76
(lp4451
I00
asbasbasbag69
(g85
g71
NtRp4452
(dp4453
g74
(dp4454
sg83
g4423
sg76
(lp4455
g69
(g90
g71
NtRp4456
(dp4457
g74
(dp4458
sg83
g4452
sg76
(lp4459
g69
(g70
g71
NtRp4460
(dp4461
g74
(dp4462
g82
I1
ssg83
g4456
sg76
(lp4463
Nasbasbasbag69
(g85
g71
NtRp4464
(dp4465
g74
(dp4466
sg83
g4423
sg76
(lp4467
g69
(g90
g71
NtRp4468
(dp4469
g74
(dp4470
sg83
g4464
sg76
(lp4471
g69
(g70
g71
NtRp4472
(dp4473
g74
(dp4474
g82
I1
ssg83
g4468
sg76
(lp4475
(lp4476
(S'plugin_wiki'
p4477
I00
S'http://web2py.com/examples/default/download'
p4478
tp4479
a(g3865
(S's\r\x00\x00\x00Other Plugins'
tRp4480
I00
g4210
tp4481
a(g3865
(S's\x0e\x00\x00\x00Layout Plugins'
tRp4482
I00
g4213
tp4483
aasbasbasbasbasbasbasbasbasbasbasbasbasbasbasbasbasbasbasbag69
(g85
g71
NtRp4484
(dp4485
g74
(dp4486
sg83
g3331
sg76
(lp4487
g69
(g90
g71
NtRp4488
(dp4489
g74
(dp4490
g94
g95
ssg83
g4484
sg76
(lp4491
S'meta'
p4492
asbag69
(g90
g71
NtRp4493
(dp4494
g74
(dp4495
g101
g102
ssg83
g4484
sg76
(lp4496
S':'
asbag69
(g90
g71
NtRp4497
(dp4498
g74
(dp4499
sg83
g4484
sg76
(lp4500
g69
(g70
g71
NtRp4501
(dp4502
g74
(dp4503
g82
I5
ssg83
g4497
sg76
(lp4504
g69
(g78
g71
NtRp4505
(dp4506
g74
(dp4507
g82
I4
ssg83
Nsg76
(lp4508
g69
(g85
g71
NtRp4509
(dp4510
g74
(dp4511
sg83
g4505
sg76
(lp4512
g69
(g90
g71
NtRp4513
(dp4514
g74
(dp4515
g94
g95
ssg83
g4509
sg76
(lp4516
S'author'
p4517
asbag69
(g90
g71
NtRp4518
(dp4519
g74
(dp4520
g101
g102
ssg83
g4509
sg76
(lp4521
S':'
asbag69
(g90
g71
NtRp4522
(dp4523
g74
(dp4524
sg83
g4509
sg76
(lp4525
g69
(g70
g71
NtRp4526
(dp4527
g74
(dp4528
g82
I4
ssg83
g4522
sg76
(lp4529
S'Your Name <you@example.com>'
p4530
asbasbasbag69
(g85
g71
NtRp4531
(dp4532
g74
(dp4533
sg83
g4505
sg76
(lp4534
g69
(g90
g71
NtRp4535
(dp4536
g74
(dp4537
g94
g95
ssg83
g4531
sg76
(lp4538
S'description'
p4539
asbag69
(g90
g71
NtRp4540
(dp4541
g74
(dp4542
g101
g102
ssg83
g4531
sg76
(lp4543
S':'
asbag69
(g90
g71
NtRp4544
(dp4545
g74
(dp4546
sg83
g4531
sg76
(lp4547
g69
(g70
g71
NtRp4548
(dp4549
g74
(dp4550
g82
I4
ssg83
g4544
sg76
(lp4551
S'a cool new app'
p4552
asbasbasbag69
(g85
g71
NtRp4553
(dp4554
g74
(dp4555
sg83
g4505
sg76
(lp4556
g69
(g90
g71
NtRp4557
(dp4558
g74
(dp4559
g94
g95
ssg83
g4553
sg76
(lp4560
S'generator'
p4561
asbag69
(g90
g71
NtRp4562
(dp4563
g74
(dp4564
g101
g102
ssg83
g4553
sg76
(lp4565
S':'
asbag69
(g90
g71
NtRp4566
(dp4567
g74
(dp4568
sg83
g4553
sg76
(lp4569
g69
(g70
g71
NtRp4570
(dp4571
g74
(dp4572
g82
I4
ssg83
g4566
sg76
(lp4573
S'Web2py Web Framework'
p4574
asbasbasbag69
(g85
g71
NtRp4575
(dp4576
g74
(dp4577
sg83
g4505
sg76
(lp4578
g69
(g90
g71
NtRp4579
(dp4580
g74
(dp4581
g94
g95
ssg83
g4575
sg76
(lp4582
S'keywords'
p4583
asbag69
(g90
g71
NtRp4584
(dp4585
g74
(dp4586
g101
g102
ssg83
g4575
sg76
(lp4587
S':'
asbag69
(g90
g71
NtRp4588
(dp4589
g74
(dp4590
sg83
g4575
sg76
(lp4591
g69
(g70
g71
NtRp4592
(dp4593
g74
(dp4594
g82
I4
ssg83
g4588
sg76
(lp4595
S'web2py, python, framework'
p4596
asbasbasbasbasbasbasbag69
(g85
g71
NtRp4597
(dp4598
g74
(dp4599
sg83
g3331
sg76
(lp4600
g69
(g90
g71
NtRp4601
(dp4602
g74
(dp4603
g94
g95
ssg83
g4597
sg76
(lp4604
S'models_to_run'
p4605
asbag69
(g90
g71
NtRp4606
(dp4607
g74
(dp4608
g101
g102
ssg83
g4597
sg76
(lp4609
S':'
asbag69
(g90
g71
NtRp4610
(dp4611
g74
(dp4612
sg83
g4597
sg76
(lp4613
g69
(g70
g71
NtRp4614
(dp4615
g74
(dp4616
g82
I5
ssg83
g4610
sg76
(lp4617
g69
(g78
g71
NtRp4618
(dp4619
g74
(dp4620
g82
I4
ssg83
Nsg76
(lp4621
g69
(g85
g71
NtRp4622
(dp4623
g74
(dp4624
sg83
g4618
sg76
(lp4625
g69
(g90
g71
NtRp4626
(dp4627
g74
(dp4628
sg83
g4622
sg76
(lp4629
g69
(g70
g71
NtRp4630
(dp4631
g74
(dp4632
g82
I4
ssg83
g4626
sg76
(lp4633
S'^\\w+\\.py$'
p4634
asbasbasbag69
(g85
g71
NtRp4635
(dp4636
g74
(dp4637
sg83
g4618
sg76
(lp4638
g69
(g90
g71
NtRp4639
(dp4640
g74
(dp4641
sg83
g4635
sg76
(lp4642
g69
(g70
g71
NtRp4643
(dp4644
g74
(dp4645
g82
I4
ssg83
g4639
sg76
(lp4646
S'^default/\\w+\\.py$'
p4647
asbasbasbag69
(g85
g71
NtRp4648
(dp4649
g74
(dp4650
sg83
g4618
sg76
(lp4651
g69
(g90
g71
NtRp4652
(dp4653
g74
(dp4654
sg83
g4648
sg76
(lp4655
g69
(g70
g71
NtRp4656
(dp4657
g74
(dp4658
g82
I4
ssg83
g4652
sg76
(lp4659
S'^default/edit_news/\\w+\\.py$'
p4660
asbasbasbasbasbasbasbag69
(g85
g71
NtRp4661
(dp4662
g74
(dp4663
sg83
g3331
sg76
(lp4664
g69
(g90
g71
NtRp4665
(dp4666
g74
(dp4667
g94
g95
ssg83
g4661
sg76
(lp4668
S'postprocessing'
p4669
asbag69
(g90
g71
NtRp4670
(dp4671
g74
(dp4672
g101
g102
ssg83
g4661
sg76
(lp4673
S':'
asbag69
(g90
g71
NtRp4674
(dp4675
g74
(dp4676
sg83
g4661
sg76
(lp4677
g69
(g70
g71
NtRp4678
(dp4679
g74
(dp4680
g82
I5
ssg83
g4674
sg76
(lp4681
g69
(g78
g71
NtRp4682
(dp4683
g74
(dp4684
g82
I4
ssg83
Nsg76
(lp4685
sbasbasbasbag69
(g85
g71
NtRp4686
(dp4687
g74
(dp4688
sg83
g3331
sg76
(lp4689
g69
(g90
g71
NtRp4690
(dp4691
g74
(dp4692
g94
g95
ssg83
g4686
sg76
(lp4693
S'session_cookie_expires'
p4694
asbag69
(g90
g71
NtRp4695
(dp4696
g74
(dp4697
g101
g102
ssg83
g4686
sg76
(lp4698
S':'
asbag69
(g90
g71
NtRp4699
(dp4700
g74
(dp4701
sg83
g4686
sg76
(lp4702
g69
(g70
g71
NtRp4703
(dp4704
g74
(dp4705
g82
I5
ssg83
g4699
sg76
(lp4706
S'None'
p4707
asbasbasbag69
(g85
g71
NtRp4708
(dp4709
g74
(dp4710
sg83
g3331
sg76
(lp4711
g69
(g90
g71
NtRp4712
(dp4713
g74
(dp4714
g94
g95
ssg83
g4708
sg76
(lp4715
S'session_data_name'
p4716
asbag69
(g90
g71
NtRp4717
(dp4718
g74
(dp4719
g101
g102
ssg83
g4708
sg76
(lp4720
S':'
asbag69
(g90
g71
NtRp4721
(dp4722
g74
(dp4723
sg83
g4708
sg76
(lp4724
g69
(g70
g71
NtRp4725
(dp4726
g74
(dp4727
g82
I5
ssg83
g4721
sg76
(lp4728
S'session_data_assignmen3'
p4729
asbasbasbag69
(g85
g71
NtRp4730
(dp4731
g74
(dp4732
sg83
g3331
sg76
(lp4733
g69
(g90
g71
NtRp4734
(dp4735
g74
(dp4736
g94
g95
ssg83
g4730
sg76
(lp4737
S'session_file'
p4738
asbag69
(g90
g71
NtRp4739
(dp4740
g74
(dp4741
g101
g102
ssg83
g4730
sg76
(lp4742
S':'
asbag69
(g90
g71
NtRp4743
(dp4744
g74
(dp4745
sg83
g4730
sg76
(lp4746
g69
(g70
g71
NtRp4747
(dp4748
g74
(dp4749
g82
I5
ssg83
g4743
sg76
(lp4750
S"<open file '/home/umang/web2py/applications/assignmen3/sessions/127.0.0.1-f78a0883-b419-4f1b-8802-d13ae89341f4', mode 'rb+' at 0x7f95140f9270>"
p4751
asbasbasbag69
(g85
g71
NtRp4752
(dp4753
g74
(dp4754
sg83
g3331
sg76
(lp4755
g69
(g90
g71
NtRp4756
(dp4757
g74
(dp4758
g94
g95
ssg83
g4752
sg76
(lp4759
S'session_filename'
p4760
asbag69
(g90
g71
NtRp4761
(dp4762
g74
(dp4763
g101
g102
ssg83
g4752
sg76
(lp4764
S':'
asbag69
(g90
g71
NtRp4765
(dp4766
g74
(dp4767
sg83
g4752
sg76
(lp4768
g69
(g70
g71
NtRp4769
(dp4770
g74
(dp4771
g82
I5
ssg83
g4765
sg76
(lp4772
S'/home/umang/web2py/applications/assignmen3/sessions/127.0.0.1-f78a0883-b419-4f1b-8802-d13ae89341f4'
p4773
asbasbasbag69
(g85
g71
NtRp4774
(dp4775
g74
(dp4776
sg83
g3331
sg76
(lp4777
g69
(g90
g71
NtRp4778
(dp4779
g74
(dp4780
g94
g95
ssg83
g4774
sg76
(lp4781
S'session_id'
p4782
asbag69
(g90
g71
NtRp4783
(dp4784
g74
(dp4785
g101
g102
ssg83
g4774
sg76
(lp4786
S':'
asbag69
(g90
g71
NtRp4787
(dp4788
g74
(dp4789
sg83
g4774
sg76
(lp4790
g69
(g70
g71
NtRp4791
(dp4792
g74
(dp4793
g82
I5
ssg83
g4787
sg76
(lp4794
g511
asbasbasbag69
(g85
g71
NtRp4795
(dp4796
g74
(dp4797
sg83
g3331
sg76
(lp4798
g69
(g90
g71
NtRp4799
(dp4800
g74
(dp4801
g94
g95
ssg83
g4795
sg76
(lp4802
S'session_id_name'
p4803
asbag69
(g90
g71
NtRp4804
(dp4805
g74
(dp4806
g101
g102
ssg83
g4795
sg76
(lp4807
S':'
asbag69
(g90
g71
NtRp4808
(dp4809
g74
(dp4810
sg83
g4795
sg76
(lp4811
g69
(g70
g71
NtRp4812
(dp4813
g74
(dp4814
g82
I5
ssg83
g4808
sg76
(lp4815
g3388
asbasbasbag69
(g85
g71
NtRp4816
(dp4817
g74
(dp4818
sg83
g3331
sg76
(lp4819
g69
(g90
g71
NtRp4820
(dp4821
g74
(dp4822
g94
g95
ssg83
g4816
sg76
(lp4823
S'session_locked'
p4824
asbag69
(g90
g71
NtRp4825
(dp4826
g74
(dp4827
g101
g102
ssg83
g4816
sg76
(lp4828
S':'
asbag69
(g90
g71
NtRp4829
(dp4830
g74
(dp4831
sg83
g4816
sg76
(lp4832
g69
(g70
g71
NtRp4833
(dp4834
g74
(dp4835
g82
I5
ssg83
g4829
sg76
(lp4836
g1783
asbasbasbag69
(g85
g71
NtRp4837
(dp4838
g74
(dp4839
sg83
g3331
sg76
(lp4840
g69
(g90
g71
NtRp4841
(dp4842
g74
(dp4843
g94
g95
ssg83
g4837
sg76
(lp4844
S'session_new'
p4845
asbag69
(g90
g71
NtRp4846
(dp4847
g74
(dp4848
g101
g102
ssg83
g4837
sg76
(lp4849
S':'
asbag69
(g90
g71
NtRp4850
(dp4851
g74
(dp4852
sg83
g4837
sg76
(lp4853
g69
(g70
g71
NtRp4854
(dp4855
g74
(dp4856
g82
I5
ssg83
g4850
sg76
(lp4857
g112
asbasbasbag69
(g85
g71
NtRp4858
(dp4859
g74
(dp4860
sg83
g3331
sg76
(lp4861
g69
(g90
g71
NtRp4862
(dp4863
g74
(dp4864
g94
g95
ssg83
g4858
sg76
(lp4865
S'session_storage_type'
p4866
asbag69
(g90
g71
NtRp4867
(dp4868
g74
(dp4869
g101
g102
ssg83
g4858
sg76
(lp4870
S':'
asbag69
(g90
g71
NtRp4871
(dp4872
g74
(dp4873
sg83
g4858
sg76
(lp4874
g69
(g70
g71
NtRp4875
(dp4876
g74
(dp4877
g82
I5
ssg83
g4871
sg76
(lp4878
g3194
asbasbasbag69
(g85
g71
NtRp4879
(dp4880
g74
(dp4881
sg83
g3331
sg76
(lp4882
g69
(g90
g71
NtRp4883
(dp4884
g74
(dp4885
g94
g95
ssg83
g4879
sg76
(lp4886
S'status'
p4887
asbag69
(g90
g71
NtRp4888
(dp4889
g74
(dp4890
g101
g102
ssg83
g4879
sg76
(lp4891
S':'
asbag69
(g90
g71
NtRp4892
(dp4893
g74
(dp4894
sg83
g4879
sg76
(lp4895
g69
(g70
g71
NtRp4896
(dp4897
g74
(dp4898
g82
I5
ssg83
g4892
sg76
(lp4899
S'200'
p4900
asbasbasbag69
(g85
g71
NtRp4901
(dp4902
g74
(dp4903
sg83
g3331
sg76
(lp4904
g69
(g90
g71
NtRp4905
(dp4906
g74
(dp4907
g94
g95
ssg83
g4901
sg76
(lp4908
S'subtitle'
p4909
asbag69
(g90
g71
NtRp4910
(dp4911
g74
(dp4912
g101
g102
ssg83
g4901
sg76
(lp4913
S':'
asbag69
(g90
g71
NtRp4914
(dp4915
g74
(dp4916
sg83
g4901
sg76
(lp4917
g69
(g70
g71
NtRp4918
(dp4919
g74
(dp4920
g82
I5
ssg83
g4914
sg76
(lp4921
g3865
(S's\r\x00\x00\x00customize me!'
tRp4922
asbasbasbag69
(g85
g71
NtRp4923
(dp4924
g74
(dp4925
sg83
g3331
sg76
(lp4926
g69
(g90
g71
NtRp4927
(dp4928
g74
(dp4929
g94
g95
ssg83
g4923
sg76
(lp4930
S'title'
p4931
asbag69
(g90
g71
NtRp4932
(dp4933
g74
(dp4934
g101
g102
ssg83
g4923
sg76
(lp4935
S':'
asbag69
(g90
g71
NtRp4936
(dp4937
g74
(dp4938
sg83
g4923
sg76
(lp4939
g69
(g70
g71
NtRp4940
(dp4941
g74
(dp4942
g82
I5
ssg83
g4936
sg76
(lp4943
S'Assignmen3'
p4944
asbasbasbag69
(g85
g71
NtRp4945
(dp4946
g74
(dp4947
sg83
g3331
sg76
(lp4948
g69
(g90
g71
NtRp4949
(dp4950
g74
(dp4951
g94
g95
ssg83
g4945
sg76
(lp4952
S'view'
p4953
asbag69
(g90
g71
NtRp4954
(dp4955
g74
(dp4956
g101
g102
ssg83
g4945
sg76
(lp4957
S':'
asbag69
(g90
g71
NtRp4958
(dp4959
g74
(dp4960
sg83
g4945
sg76
(lp4961
g69
(g70
g71
NtRp4962
(dp4963
g74
(dp4964
g82
I5
ssg83
g4958
sg76
(lp4965
S'default/edit_news.html'
p4966
asbasbasbasbasbsS'locals'
p4967
(dp4968
g4
S"'/home/umang/web2py/applications/assignmen3/controllers/default.py'"
p4969
sg6
S"'# -*- coding: utf-8 -*-\\n# this file is released ...d())\\n\\nresponse._vars=response._caller(edit_news)\\n'"
p4970
sssS'traceback'
p4971
S'Traceback (most recent call last):\n  File "/home/umang/web2py/gluon/restricted.py", line 211, in restricted\n    ccode = compile2(code, layer)\n  File "/home/umang/web2py/gluon/restricted.py", line 194, in compile2\n    return compile(code.rstrip().replace(\'\\r\\n\', \'\\n\') + \'\\n\', layer, \'exec\')\n  File "/home/umang/web2py/applications/assignmen3/controllers/default.py", line 45\n    disp=db(db.news.category_id==query).select(db.news.heading,db.news.url,db.news.rating,db.news.ntype,db.news.id db.news.pres_time,orderby=db.news.rating)\n                                                                                                                    ^\nSyntaxError: invalid syntax\n'
p4972
s.