(dp1
S'output'
p2
S"<type 'exceptions.SyntaxError'> invalid syntax (default.py, line 36)"
p3
sS'layer'
p4
S'/home/umang/web2py/applications/assignmen3/controllers/default.py'
p5
sS'code'
p6
S'# -*- coding: utf-8 -*-\n# this file is released under public domain and you can use without limitations\n\n#########################################################################\n## This is a samples controller\n## - index is the default action of any application\n## - user is required for authentication and authorization\n## - download is for downloading files uploaded in the db (does streaming)\n## - call exposes all registered services (none by default)\n#########################################################################\n\ndef index():\n    """\n    example action using the internationalization operator T and flash\n    rendered by views/default/index.html or views/generic.html\n\n    if you need a simple wiki simple replace the two lines below with:\n    return auth.wiki()\n    """\n    #redirect(URL(r=request,f=\'first_page?query=new\'))\n    query=db(db.category.name==\'New\').select(db.category.id)\n    redirect(URL(r=request, f=\'first_page\',args=[int(query[0].id)]))\n\n@auth.requires_login()\ndef login_to_account():\n\tar=db((db.auth_membership.user_id==auth.user_id) & (db.auth_group.id==db.auth_membership.group_id)).select(db.auth_group.role)\n\tif(len(ar)==0):\n\t\tredirect(URL(r=request,f=\'user\'))\n\telif(len(ar)==1):\n\t\tx=db(db.auth_group.role==\'normal\').select(db.auth_group.id)\n\t\tdb.auth_membership.insert(user_id=auth.user_id,group_id=x[0][\'id\'])\n\t\tredirect(URL(r=request,f=\'login_normal\'))\n\telif(ar[1][\'role\']==\'normal\'):\n\t\tredirect(URL(r=request,f=\'login_normal\'))\n\telif(ar[1][\'role\']==\'admin\'):\n\t\tredirect(URL(r=request,f=\'login_admin\'))3\n\ndef login_normal():\n\tdisp=db(db.news.user_id==auth.user_id).select(db.news.heading,db.news.url,db.news.category,db.news.ntype)\n\treturn dict(disp=disp)\t\n\ndef first_page():\n\tquery=int(request.args(0))\n\tdisp=db(db.news.category_id==query).select(db.news.heading,db.news.url,db.news.rating,db.news.ntype,db.news.id)\n\tq_comment=db((db.news.category_id==query) & (db.comments.news_id==db.news.id)).select(db.comments.body,db.comments.commentor)\n\tcatg=db(db.category.id>0).select(db.category.name,db.category.id)\n\tpres_catg=db(db.category.id==query).select(db.category.name)\n\n\tform=SQLFORM.factory(\n\t db.Field(\'comm_body\',\'string\',label=""),\n\t formstyle=\'divs\',\n\t buttons=[],)\n   \tform[0].insert(1,DIV(INPUT(_type=\'submit\',_value=\'Post\')))\n   \tif form.accepts(request.vars,session):\n        \t insert_comment(form.vars.comm_body,auth.user_id,query)\n    \telif form.errors:\n        \t response.flash=\'Some Error Occured Please Refresh\'\n    \t\n\treturn dict(query=query,disp=disp,q_comment=q_comment,catg=catg,pres_catg=pres_catg)\n\n@auth.requires_login()\ndef add_news():\n\tcatg=int(request.args(0))\n\tdb.news.category_id.default=catg\n\tdb.news.category.readable=False\n\tdb.news.category.writable=False\n\tdb.news.user_id.default=auth.user_id\n\tdb.news.user_id.writable=False\n\tdb.news.user_id.readable=False\n\tdb.news.rating.default=100\n\tdb.news.rating.writable=False\n\tdb.news.rating.readable=False\n\tform=SQLFORM(db.institution,submit_button="Post",labels={\'ntype\':\'Post Type\'})\n\tif form.process().accepted:\n        \tredirect(URL(r=request, f=\'first_page\',args=[int(catg)]))\n\t\t#redirect(URL(r=request,f=\'first_page?query=%s\' % catg))\n\telif form.errors:\n\t\tresponse.flash="Error posting it"\n\treturn dict(form=form)\n\n@auth.requires_login()\ndef like():\n\tnews_id=int(request.args(0))\n\tcatg=int(request.args(1))\n\tar=db(db.news.id==news_id).select(db.news.rating)\n\tquery=db((db.rating.news_id==news_id) & (db.rating.rater_id==auth.user_id)).select(db.rating.liked)\n\tif(len(query)==0 or query[0].liked==0):\n\t\tdb(db.news.news_id==news_id).update(rating=ar[0].rating+5)\n\t\tif(len(query==0)):\n\t\t\tdb.rating.insert(news_id=news_id,rater_id=auth.user_id,liked=1,disliked=0)\n\t\telse:\n\t\t\tdb((db.rating.news_id==news_id) & (db.rating.rater_id==auth.user_id)).update(liked=1)\n\tredirect(URL(r=request,f=\'first_page?query=%s\' % catg))\n\n@auth.requires_login()\ndef dislike():\n\tnews_id=int(request.args(0))\n\tcatg=int(request.args(1))\n\tar=db(db.news.id==news_id).select(db.news.rating)\n\tquery=db((db.rating.news_id==news_id) & (db.rating.rater_id==auth.user_id)).select(db.rating.disliked)\n\tif(len(query)==0 or query[0].disliked==0):\n\t\tdb(db.news.news_id==news_id).update(rating=ar[0].rating-3)\n\t\tif(len(query==0)):\n\t\t\tdb.rating.insert(news_id=news_id,rater_id=auth.user_id,liked=0,disliked=1)\n\t\telse:\n\t\t\tdb((db.rating.news_id==news_id) & (db.rating.rater_id==auth.user_id)).update(disliked=1)\n\tredirect(URL(r=request,f=\'first_page?query=%s\' % catg))\n\n@auth.requires_login()\ndef insert_comment(c_body,rec,query):\n\tdb.coment.insert(body=c_body,sender_id=auth.user_id,likes=0,receiver=int(rec))\n    #    query=db(db.coment.id>0).select(db.coment.id,db.coment.receiver)\n        redirect(URL(r=request, f=\'first_page\',args=[int(query)]))\n\n\n\ndef user():\n    """\n    exposes:\n    http://..../[app]/default/user/login\n    http://..../[app]/default/user/logout\n    http://..../[app]/default/user/register\n    http://..../[app]/default/user/profile\n    http://..../[app]/default/user/retrieve_password\n    http://..../[app]/default/user/change_password\n    use @auth.requires_login()\n        @auth.requires_membership(\'group name\')\n        @auth.requires_permission(\'read\',\'table name\',record_id)\n    to decorate functions that need access control\n    """\n    return dict(form=auth())\n\n\ndef download():\n    """\n    allows downloading of uploaded files\n    http://..../[app]/default/download/[filename]\n    """\n    return response.download(request, db)\n\n\ndef call():\n    """\n    exposes services. for example:\n    http://..../[app]/default/call/jsonrpc\n    decorate with @services.jsonrpc the functions to expose\n    supports xml, json, xmlrpc, jsonrpc, amfrpc, rss, csv\n    """\n    return service()\n\n\n@auth.requires_signature()\ndef data():\n    """\n    http://..../[app]/default/data/tables\n    http://..../[app]/default/data/create/[table]\n    http://..../[app]/default/data/read/[table]/[id]\n    http://..../[app]/default/data/update/[table]/[id]\n    http://..../[app]/default/data/delete/[table]/[id]\n    http://..../[app]/default/data/select/[table]\n    http://..../[app]/default/data/search/[table]\n    but URLs must be signed, i.e. linked with\n      A(\'table\',_href=URL(\'data/tables\',user_signature=True))\n    or with the signed load operator\n      LOAD(\'default\',\'data.load\',args=\'tables\',ajax=True,user_signature=True)\n    """\n    return dict(form=crud())\n\nresponse._vars=response._caller(first_page)\n'
p7
sS'snapshot'
p8
(dp9
S'exception'
p10
(dp11
S'__getslice__'
p12
S"<method-wrapper '__getslice__' of exceptions.SyntaxError object>"
p13
sS'text'
p14
S'"\\t\\tredirect(URL(r=request,f=\'login_admin\'))3\\n"'
p15
sS'__str__'
p16
S"<method-wrapper '__str__' of exceptions.SyntaxError object>"
p17
sS'__reduce__'
p18
S'<built-in method __reduce__ of exceptions.SyntaxError object>'
p19
sS'__dict__'
p20
S'{}'
p21
sS'__sizeof__'
p22
S'<built-in method __sizeof__ of exceptions.SyntaxError object>'
p23
sS'__init__'
p24
S"<method-wrapper '__init__' of exceptions.SyntaxError object>"
p25
sS'__setattr__'
p26
S"<method-wrapper '__setattr__' of exceptions.SyntaxError object>"
p27
sS'__reduce_ex__'
p28
S'<built-in method __reduce_ex__ of exceptions.SyntaxError object>'
p29
sS'__new__'
p30
S'<built-in method __new__ of type object>'
p31
sS'__format__'
p32
S'<built-in method __format__ of exceptions.SyntaxError object>'
p33
sS'__class__'
p34
S"<type 'exceptions.SyntaxError'>"
p35
sS'filename'
p36
S"'/home/umang/web2py/applications/assignmen3/controllers/default.py'"
p37
sS'lineno'
p38
S'36'
p39
sS'msg'
p40
S"'invalid syntax'"
p41
sS'__doc__'
p42
S"'Invalid syntax.'"
p43
sS'__getitem__'
p44
S"<method-wrapper '__getitem__' of exceptions.SyntaxError object>"
p45
sS'__setstate__'
p46
S'<built-in method __setstate__ of exceptions.SyntaxError object>'
p47
sS'__getattribute__'
p48
S"<method-wrapper '__getattribute__' of exceptions.SyntaxError object>"
p49
sS'print_file_and_line'
p50
S'None'
p51
sS'args'
p52
S'(\'invalid syntax\', (\'/home/umang/web2py/applications/assignmen3/controllers/default.py\', 36, 43, "\\t\\tredirect(URL(r=request,f=\'login_admin\'))3\\n"))'
p53
sS'__subclasshook__'
p54
S'<built-in method __subclasshook__ of type object>'
p55
sS'offset'
p56
S'43'
p57
sS'__unicode__'
p58
S'<built-in method __unicode__ of exceptions.SyntaxError object>'
p59
sS'__delattr__'
p60
S"<method-wrapper '__delattr__' of exceptions.SyntaxError object>"
p61
sS'__repr__'
p62
S"<method-wrapper '__repr__' of exceptions.SyntaxError object>"
p63
sS'__hash__'
p64
S"<method-wrapper '__hash__' of exceptions.SyntaxError object>"
p65
ssS'evalue'
p66
S'invalid syntax (default.py, line 36)'
p67
sS'request'
p68
ccopy_reg
_reconstructor
p69
(cgluon.html
BEAUTIFY
p70
c__builtin__
object
p71
NtRp72
(dp73
S'attributes'
p74
(dp75
sS'components'
p76
(lp77
g69
(cgluon.html
TABLE
p78
g71
NtRp79
(dp80
g74
(dp81
S'level'
p82
I5
ssS'parent'
p83
Nsg76
(lp84
g69
(cgluon.html
TR
p85
g71
NtRp86
(dp87
g74
(dp88
sg83
g79
sg76
(lp89
g69
(cgluon.html
TD
p90
g71
NtRp91
(dp92
g74
(dp93
S'_style'
p94
S'font-weight:bold;vertical-align:top'
p95
ssg83
g86
sg76
(lp96
S'ajax'
p97
asbag69
(g90
g71
NtRp98
(dp99
g74
(dp100
S'_valign'
p101
S'top'
p102
ssg83
g86
sg76
(lp103
S':'
asbag69
(g90
g71
NtRp104
(dp105
g74
(dp106
sg83
g86
sg76
(lp107
g69
(g70
g71
NtRp108
(dp109
g74
(dp110
g82
I5
ssg83
g104
sg76
(lp111
S'False'
p112
asbasbasbag69
(g85
g71
NtRp113
(dp114
g74
(dp115
sg83
g79
sg76
(lp116
g69
(g90
g71
NtRp117
(dp118
g74
(dp119
g94
g95
ssg83
g113
sg76
(lp120
S'application'
p121
asbag69
(g90
g71
NtRp122
(dp123
g74
(dp124
g101
g102
ssg83
g113
sg76
(lp125
S':'
asbag69
(g90
g71
NtRp126
(dp127
g74
(dp128
sg83
g113
sg76
(lp129
g69
(g70
g71
NtRp130
(dp131
g74
(dp132
g82
I5
ssg83
g126
sg76
(lp133
S'assignmen3'
p134
asbasbasbag69
(g85
g71
NtRp135
(dp136
g74
(dp137
sg83
g79
sg76
(lp138
g69
(g90
g71
NtRp139
(dp140
g74
(dp141
g94
g95
ssg83
g135
sg76
(lp142
g52
asbag69
(g90
g71
NtRp143
(dp144
g74
(dp145
g101
g102
ssg83
g135
sg76
(lp146
S':'
asbag69
(g90
g71
NtRp147
(dp148
g74
(dp149
sg83
g135
sg76
(lp150
g69
(g70
g71
NtRp151
(dp152
g74
(dp153
g82
I5
ssg83
g147
sg76
(lp154
g69
(g78
g71
NtRp155
(dp156
g74
(dp157
g82
I4
ssg83
Nsg76
(lp158
g69
(g85
g71
NtRp159
(dp160
g74
(dp161
sg83
g155
sg76
(lp162
g69
(g90
g71
NtRp163
(dp164
g74
(dp165
sg83
g159
sg76
(lp166
g69
(g70
g71
NtRp167
(dp168
g74
(dp169
g82
I4
ssg83
g163
sg76
(lp170
S'2'
asbasbasbasbasbasbasbag69
(g85
g71
NtRp171
(dp172
g74
(dp173
sg83
g79
sg76
(lp174
g69
(g90
g71
NtRp175
(dp176
g74
(dp177
g94
g95
ssg83
g171
sg76
(lp178
S'body'
p179
asbag69
(g90
g71
NtRp180
(dp181
g74
(dp182
g101
g102
ssg83
g171
sg76
(lp183
S':'
asbag69
(g90
g71
NtRp184
(dp185
g74
(dp186
sg83
g171
sg76
(lp187
g69
(g70
g71
NtRp188
(dp189
g74
(dp190
g82
I5
ssg83
g184
sg76
(lp191
S'<cStringIO.StringO object at 0x7fb3944e9b90>'
p192
asbasbasbag69
(g85
g71
NtRp193
(dp194
g74
(dp195
sg83
g79
sg76
(lp196
g69
(g90
g71
NtRp197
(dp198
g74
(dp199
g94
g95
ssg83
g193
sg76
(lp200
S'cid'
p201
asbag69
(g90
g71
NtRp202
(dp203
g74
(dp204
g101
g102
ssg83
g193
sg76
(lp205
S':'
asbag69
(g90
g71
NtRp206
(dp207
g74
(dp208
sg83
g193
sg76
(lp209
g69
(g70
g71
NtRp210
(dp211
g74
(dp212
g82
I5
ssg83
g206
sg76
(lp213
S'None'
p214
asbasbasbag69
(g85
g71
NtRp215
(dp216
g74
(dp217
sg83
g79
sg76
(lp218
g69
(g90
g71
NtRp219
(dp220
g74
(dp221
g94
g95
ssg83
g215
sg76
(lp222
S'client'
p223
asbag69
(g90
g71
NtRp224
(dp225
g74
(dp226
g101
g102
ssg83
g215
sg76
(lp227
S':'
asbag69
(g90
g71
NtRp228
(dp229
g74
(dp230
sg83
g215
sg76
(lp231
g69
(g70
g71
NtRp232
(dp233
g74
(dp234
g82
I5
ssg83
g228
sg76
(lp235
S'127.0.0.1'
p236
asbasbasbag69
(g85
g71
NtRp237
(dp238
g74
(dp239
sg83
g79
sg76
(lp240
g69
(g90
g71
NtRp241
(dp242
g74
(dp243
g94
g95
ssg83
g237
sg76
(lp244
S'controller'
p245
asbag69
(g90
g71
NtRp246
(dp247
g74
(dp248
g101
g102
ssg83
g237
sg76
(lp249
S':'
asbag69
(g90
g71
NtRp250
(dp251
g74
(dp252
sg83
g237
sg76
(lp253
g69
(g70
g71
NtRp254
(dp255
g74
(dp256
g82
I5
ssg83
g250
sg76
(lp257
S'default'
p258
asbasbasbag69
(g85
g71
NtRp259
(dp260
g74
(dp261
sg83
g79
sg76
(lp262
g69
(g90
g71
NtRp263
(dp264
g74
(dp265
g94
g95
ssg83
g259
sg76
(lp266
S'cookies'
p267
asbag69
(g90
g71
NtRp268
(dp269
g74
(dp270
g101
g102
ssg83
g259
sg76
(lp271
S':'
asbag69
(g90
g71
NtRp272
(dp273
g74
(dp274
sg83
g259
sg76
(lp275
g69
(g70
g71
NtRp276
(dp277
g74
(dp278
g82
I5
ssg83
g272
sg76
(lp279
g69
(g78
g71
NtRp280
(dp281
g74
(dp282
g82
I4
ssg83
Nsg76
(lp283
g69
(g85
g71
NtRp284
(dp285
g74
(dp286
sg83
g280
sg76
(lp287
g69
(g90
g71
NtRp288
(dp289
g74
(dp290
g94
g95
ssg83
g284
sg76
(lp291
S'session_id_admin'
p292
asbag69
(g90
g71
NtRp293
(dp294
g74
(dp295
g101
g102
ssg83
g284
sg76
(lp296
S':'
asbag69
(g90
g71
NtRp297
(dp298
g74
(dp299
sg83
g284
sg76
(lp300
g69
(g70
g71
NtRp301
(dp302
g74
(dp303
g82
I4
ssg83
g297
sg76
(lp304
S'127.0.0.1-3084c772-81da-4392-9cca-26b69ed0651f'
p305
ag69
(g78
g71
NtRp306
(dp307
g74
(dp308
g82
I3
ssg83
Nsg76
(lp309
g69
(g85
g71
NtRp310
(dp311
g74
(dp312
sg83
g306
sg76
(lp313
g69
(g90
g71
NtRp314
(dp315
g74
(dp316
g94
g95
ssg83
g310
sg76
(lp317
S'comment'
p318
asbag69
(g90
g71
NtRp319
(dp320
g74
(dp321
g101
g102
ssg83
g310
sg76
(lp322
S':'
asbag69
(g90
g71
NtRp323
(dp324
g74
(dp325
sg83
g310
sg76
(lp326
g69
(g70
g71
NtRp327
(dp328
g74
(dp329
g82
I3
ssg83
g323
sg76
(lp330
S''
asbasbasbag69
(g85
g71
NtRp331
(dp332
g74
(dp333
sg83
g306
sg76
(lp334
g69
(g90
g71
NtRp335
(dp336
g74
(dp337
g94
g95
ssg83
g331
sg76
(lp338
S'domain'
p339
asbag69
(g90
g71
NtRp340
(dp341
g74
(dp342
g101
g102
ssg83
g331
sg76
(lp343
S':'
asbag69
(g90
g71
NtRp344
(dp345
g74
(dp346
sg83
g331
sg76
(lp347
g69
(g70
g71
NtRp348
(dp349
g74
(dp350
g82
I3
ssg83
g344
sg76
(lp351
S''
asbasbasbag69
(g85
g71
NtRp352
(dp353
g74
(dp354
sg83
g306
sg76
(lp355
g69
(g90
g71
NtRp356
(dp357
g74
(dp358
g94
g95
ssg83
g352
sg76
(lp359
S'expires'
p360
asbag69
(g90
g71
NtRp361
(dp362
g74
(dp363
g101
g102
ssg83
g352
sg76
(lp364
S':'
asbag69
(g90
g71
NtRp365
(dp366
g74
(dp367
sg83
g352
sg76
(lp368
g69
(g70
g71
NtRp369
(dp370
g74
(dp371
g82
I3
ssg83
g365
sg76
(lp372
S''
asbasbasbag69
(g85
g71
NtRp373
(dp374
g74
(dp375
sg83
g306
sg76
(lp376
g69
(g90
g71
NtRp377
(dp378
g74
(dp379
g94
g95
ssg83
g373
sg76
(lp380
S'httponly'
p381
asbag69
(g90
g71
NtRp382
(dp383
g74
(dp384
g101
g102
ssg83
g373
sg76
(lp385
S':'
asbag69
(g90
g71
NtRp386
(dp387
g74
(dp388
sg83
g373
sg76
(lp389
g69
(g70
g71
NtRp390
(dp391
g74
(dp392
g82
I3
ssg83
g386
sg76
(lp393
S''
asbasbasbag69
(g85
g71
NtRp394
(dp395
g74
(dp396
sg83
g306
sg76
(lp397
g69
(g90
g71
NtRp398
(dp399
g74
(dp400
g94
g95
ssg83
g394
sg76
(lp401
S'max-age'
p402
asbag69
(g90
g71
NtRp403
(dp404
g74
(dp405
g101
g102
ssg83
g394
sg76
(lp406
S':'
asbag69
(g90
g71
NtRp407
(dp408
g74
(dp409
sg83
g394
sg76
(lp410
g69
(g70
g71
NtRp411
(dp412
g74
(dp413
g82
I3
ssg83
g407
sg76
(lp414
S''
asbasbasbag69
(g85
g71
NtRp415
(dp416
g74
(dp417
sg83
g306
sg76
(lp418
g69
(g90
g71
NtRp419
(dp420
g74
(dp421
g94
g95
ssg83
g415
sg76
(lp422
S'path'
p423
asbag69
(g90
g71
NtRp424
(dp425
g74
(dp426
g101
g102
ssg83
g415
sg76
(lp427
S':'
asbag69
(g90
g71
NtRp428
(dp429
g74
(dp430
sg83
g415
sg76
(lp431
g69
(g70
g71
NtRp432
(dp433
g74
(dp434
g82
I3
ssg83
g428
sg76
(lp435
S''
asbasbasbag69
(g85
g71
NtRp436
(dp437
g74
(dp438
sg83
g306
sg76
(lp439
g69
(g90
g71
NtRp440
(dp441
g74
(dp442
g94
g95
ssg83
g436
sg76
(lp443
S'secure'
p444
asbag69
(g90
g71
NtRp445
(dp446
g74
(dp447
g101
g102
ssg83
g436
sg76
(lp448
S':'
asbag69
(g90
g71
NtRp449
(dp450
g74
(dp451
sg83
g436
sg76
(lp452
g69
(g70
g71
NtRp453
(dp454
g74
(dp455
g82
I3
ssg83
g449
sg76
(lp456
S''
asbasbasbag69
(g85
g71
NtRp457
(dp458
g74
(dp459
sg83
g306
sg76
(lp460
g69
(g90
g71
NtRp461
(dp462
g74
(dp463
g94
g95
ssg83
g457
sg76
(lp464
S'version'
p465
asbag69
(g90
g71
NtRp466
(dp467
g74
(dp468
g101
g102
ssg83
g457
sg76
(lp469
S':'
asbag69
(g90
g71
NtRp470
(dp471
g74
(dp472
sg83
g457
sg76
(lp473
g69
(g70
g71
NtRp474
(dp475
g74
(dp476
g82
I3
ssg83
g470
sg76
(lp477
S''
asbasbasbasbasbasbasbag69
(g85
g71
NtRp478
(dp479
g74
(dp480
sg83
g280
sg76
(lp481
g69
(g90
g71
NtRp482
(dp483
g74
(dp484
g94
g95
ssg83
g478
sg76
(lp485
S'session_id_assignmen3'
p486
asbag69
(g90
g71
NtRp487
(dp488
g74
(dp489
g101
g102
ssg83
g478
sg76
(lp490
S':'
asbag69
(g90
g71
NtRp491
(dp492
g74
(dp493
sg83
g478
sg76
(lp494
g69
(g70
g71
NtRp495
(dp496
g74
(dp497
g82
I4
ssg83
g491
sg76
(lp498
S'127.0.0.1-29d2a057-a0f4-454d-a27a-8e10f33a428a'
p499
ag69
(g78
g71
NtRp500
(dp501
g74
(dp502
g82
I3
ssg83
Nsg76
(lp503
g69
(g85
g71
NtRp504
(dp505
g74
(dp506
sg83
g500
sg76
(lp507
g69
(g90
g71
NtRp508
(dp509
g74
(dp510
g94
g95
ssg83
g504
sg76
(lp511
g318
asbag69
(g90
g71
NtRp512
(dp513
g74
(dp514
g101
g102
ssg83
g504
sg76
(lp515
S':'
asbag69
(g90
g71
NtRp516
(dp517
g74
(dp518
sg83
g504
sg76
(lp519
g69
(g70
g71
NtRp520
(dp521
g74
(dp522
g82
I3
ssg83
g516
sg76
(lp523
S''
asbasbasbag69
(g85
g71
NtRp524
(dp525
g74
(dp526
sg83
g500
sg76
(lp527
g69
(g90
g71
NtRp528
(dp529
g74
(dp530
g94
g95
ssg83
g524
sg76
(lp531
g339
asbag69
(g90
g71
NtRp532
(dp533
g74
(dp534
g101
g102
ssg83
g524
sg76
(lp535
S':'
asbag69
(g90
g71
NtRp536
(dp537
g74
(dp538
sg83
g524
sg76
(lp539
g69
(g70
g71
NtRp540
(dp541
g74
(dp542
g82
I3
ssg83
g536
sg76
(lp543
S''
asbasbasbag69
(g85
g71
NtRp544
(dp545
g74
(dp546
sg83
g500
sg76
(lp547
g69
(g90
g71
NtRp548
(dp549
g74
(dp550
g94
g95
ssg83
g544
sg76
(lp551
g360
asbag69
(g90
g71
NtRp552
(dp553
g74
(dp554
g101
g102
ssg83
g544
sg76
(lp555
S':'
asbag69
(g90
g71
NtRp556
(dp557
g74
(dp558
sg83
g544
sg76
(lp559
g69
(g70
g71
NtRp560
(dp561
g74
(dp562
g82
I3
ssg83
g556
sg76
(lp563
S''
asbasbasbag69
(g85
g71
NtRp564
(dp565
g74
(dp566
sg83
g500
sg76
(lp567
g69
(g90
g71
NtRp568
(dp569
g74
(dp570
g94
g95
ssg83
g564
sg76
(lp571
g381
asbag69
(g90
g71
NtRp572
(dp573
g74
(dp574
g101
g102
ssg83
g564
sg76
(lp575
S':'
asbag69
(g90
g71
NtRp576
(dp577
g74
(dp578
sg83
g564
sg76
(lp579
g69
(g70
g71
NtRp580
(dp581
g74
(dp582
g82
I3
ssg83
g576
sg76
(lp583
S''
asbasbasbag69
(g85
g71
NtRp584
(dp585
g74
(dp586
sg83
g500
sg76
(lp587
g69
(g90
g71
NtRp588
(dp589
g74
(dp590
g94
g95
ssg83
g584
sg76
(lp591
g402
asbag69
(g90
g71
NtRp592
(dp593
g74
(dp594
g101
g102
ssg83
g584
sg76
(lp595
S':'
asbag69
(g90
g71
NtRp596
(dp597
g74
(dp598
sg83
g584
sg76
(lp599
g69
(g70
g71
NtRp600
(dp601
g74
(dp602
g82
I3
ssg83
g596
sg76
(lp603
S''
asbasbasbag69
(g85
g71
NtRp604
(dp605
g74
(dp606
sg83
g500
sg76
(lp607
g69
(g90
g71
NtRp608
(dp609
g74
(dp610
g94
g95
ssg83
g604
sg76
(lp611
g423
asbag69
(g90
g71
NtRp612
(dp613
g74
(dp614
g101
g102
ssg83
g604
sg76
(lp615
S':'
asbag69
(g90
g71
NtRp616
(dp617
g74
(dp618
sg83
g604
sg76
(lp619
g69
(g70
g71
NtRp620
(dp621
g74
(dp622
g82
I3
ssg83
g616
sg76
(lp623
S''
asbasbasbag69
(g85
g71
NtRp624
(dp625
g74
(dp626
sg83
g500
sg76
(lp627
g69
(g90
g71
NtRp628
(dp629
g74
(dp630
g94
g95
ssg83
g624
sg76
(lp631
g444
asbag69
(g90
g71
NtRp632
(dp633
g74
(dp634
g101
g102
ssg83
g624
sg76
(lp635
S':'
asbag69
(g90
g71
NtRp636
(dp637
g74
(dp638
sg83
g624
sg76
(lp639
g69
(g70
g71
NtRp640
(dp641
g74
(dp642
g82
I3
ssg83
g636
sg76
(lp643
S''
asbasbasbag69
(g85
g71
NtRp644
(dp645
g74
(dp646
sg83
g500
sg76
(lp647
g69
(g90
g71
NtRp648
(dp649
g74
(dp650
g94
g95
ssg83
g644
sg76
(lp651
g465
asbag69
(g90
g71
NtRp652
(dp653
g74
(dp654
g101
g102
ssg83
g644
sg76
(lp655
S':'
asbag69
(g90
g71
NtRp656
(dp657
g74
(dp658
sg83
g644
sg76
(lp659
g69
(g70
g71
NtRp660
(dp661
g74
(dp662
g82
I3
ssg83
g656
sg76
(lp663
S''
asbasbasbasbasbasbasbag69
(g85
g71
NtRp664
(dp665
g74
(dp666
sg83
g280
sg76
(lp667
g69
(g90
g71
NtRp668
(dp669
g74
(dp670
g94
g95
ssg83
g664
sg76
(lp671
S'session_id_welcome'
p672
asbag69
(g90
g71
NtRp673
(dp674
g74
(dp675
g101
g102
ssg83
g664
sg76
(lp676
S':'
asbag69
(g90
g71
NtRp677
(dp678
g74
(dp679
sg83
g664
sg76
(lp680
g69
(g70
g71
NtRp681
(dp682
g74
(dp683
g82
I4
ssg83
g677
sg76
(lp684
S'127.0.0.1-8dc4cf7f-f02b-432b-8997-58277fa557ea'
p685
ag69
(g78
g71
NtRp686
(dp687
g74
(dp688
g82
I3
ssg83
Nsg76
(lp689
g69
(g85
g71
NtRp690
(dp691
g74
(dp692
sg83
g686
sg76
(lp693
g69
(g90
g71
NtRp694
(dp695
g74
(dp696
g94
g95
ssg83
g690
sg76
(lp697
g318
asbag69
(g90
g71
NtRp698
(dp699
g74
(dp700
g101
g102
ssg83
g690
sg76
(lp701
S':'
asbag69
(g90
g71
NtRp702
(dp703
g74
(dp704
sg83
g690
sg76
(lp705
g69
(g70
g71
NtRp706
(dp707
g74
(dp708
g82
I3
ssg83
g702
sg76
(lp709
S''
asbasbasbag69
(g85
g71
NtRp710
(dp711
g74
(dp712
sg83
g686
sg76
(lp713
g69
(g90
g71
NtRp714
(dp715
g74
(dp716
g94
g95
ssg83
g710
sg76
(lp717
g339
asbag69
(g90
g71
NtRp718
(dp719
g74
(dp720
g101
g102
ssg83
g710
sg76
(lp721
S':'
asbag69
(g90
g71
NtRp722
(dp723
g74
(dp724
sg83
g710
sg76
(lp725
g69
(g70
g71
NtRp726
(dp727
g74
(dp728
g82
I3
ssg83
g722
sg76
(lp729
S''
asbasbasbag69
(g85
g71
NtRp730
(dp731
g74
(dp732
sg83
g686
sg76
(lp733
g69
(g90
g71
NtRp734
(dp735
g74
(dp736
g94
g95
ssg83
g730
sg76
(lp737
g360
asbag69
(g90
g71
NtRp738
(dp739
g74
(dp740
g101
g102
ssg83
g730
sg76
(lp741
S':'
asbag69
(g90
g71
NtRp742
(dp743
g74
(dp744
sg83
g730
sg76
(lp745
g69
(g70
g71
NtRp746
(dp747
g74
(dp748
g82
I3
ssg83
g742
sg76
(lp749
S''
asbasbasbag69
(g85
g71
NtRp750
(dp751
g74
(dp752
sg83
g686
sg76
(lp753
g69
(g90
g71
NtRp754
(dp755
g74
(dp756
g94
g95
ssg83
g750
sg76
(lp757
g381
asbag69
(g90
g71
NtRp758
(dp759
g74
(dp760
g101
g102
ssg83
g750
sg76
(lp761
S':'
asbag69
(g90
g71
NtRp762
(dp763
g74
(dp764
sg83
g750
sg76
(lp765
g69
(g70
g71
NtRp766
(dp767
g74
(dp768
g82
I3
ssg83
g762
sg76
(lp769
S''
asbasbasbag69
(g85
g71
NtRp770
(dp771
g74
(dp772
sg83
g686
sg76
(lp773
g69
(g90
g71
NtRp774
(dp775
g74
(dp776
g94
g95
ssg83
g770
sg76
(lp777
g402
asbag69
(g90
g71
NtRp778
(dp779
g74
(dp780
g101
g102
ssg83
g770
sg76
(lp781
S':'
asbag69
(g90
g71
NtRp782
(dp783
g74
(dp784
sg83
g770
sg76
(lp785
g69
(g70
g71
NtRp786
(dp787
g74
(dp788
g82
I3
ssg83
g782
sg76
(lp789
S''
asbasbasbag69
(g85
g71
NtRp790
(dp791
g74
(dp792
sg83
g686
sg76
(lp793
g69
(g90
g71
NtRp794
(dp795
g74
(dp796
g94
g95
ssg83
g790
sg76
(lp797
g423
asbag69
(g90
g71
NtRp798
(dp799
g74
(dp800
g101
g102
ssg83
g790
sg76
(lp801
S':'
asbag69
(g90
g71
NtRp802
(dp803
g74
(dp804
sg83
g790
sg76
(lp805
g69
(g70
g71
NtRp806
(dp807
g74
(dp808
g82
I3
ssg83
g802
sg76
(lp809
S''
asbasbasbag69
(g85
g71
NtRp810
(dp811
g74
(dp812
sg83
g686
sg76
(lp813
g69
(g90
g71
NtRp814
(dp815
g74
(dp816
g94
g95
ssg83
g810
sg76
(lp817
g444
asbag69
(g90
g71
NtRp818
(dp819
g74
(dp820
g101
g102
ssg83
g810
sg76
(lp821
S':'
asbag69
(g90
g71
NtRp822
(dp823
g74
(dp824
sg83
g810
sg76
(lp825
g69
(g70
g71
NtRp826
(dp827
g74
(dp828
g82
I3
ssg83
g822
sg76
(lp829
S''
asbasbasbag69
(g85
g71
NtRp830
(dp831
g74
(dp832
sg83
g686
sg76
(lp833
g69
(g90
g71
NtRp834
(dp835
g74
(dp836
g94
g95
ssg83
g830
sg76
(lp837
g465
asbag69
(g90
g71
NtRp838
(dp839
g74
(dp840
g101
g102
ssg83
g830
sg76
(lp841
S':'
asbag69
(g90
g71
NtRp842
(dp843
g74
(dp844
sg83
g830
sg76
(lp845
g69
(g70
g71
NtRp846
(dp847
g74
(dp848
g82
I3
ssg83
g842
sg76
(lp849
S''
asbasbasbasbasbasbasbasbasbasbasbag69
(g85
g71
NtRp850
(dp851
g74
(dp852
sg83
g79
sg76
(lp853
g69
(g90
g71
NtRp854
(dp855
g74
(dp856
g94
g95
ssg83
g850
sg76
(lp857
S'env'
p858
asbag69
(g90
g71
NtRp859
(dp860
g74
(dp861
g101
g102
ssg83
g850
sg76
(lp862
S':'
asbag69
(g90
g71
NtRp863
(dp864
g74
(dp865
sg83
g850
sg76
(lp866
g69
(g70
g71
NtRp867
(dp868
g74
(dp869
g82
I5
ssg83
g863
sg76
(lp870
g69
(g78
g71
NtRp871
(dp872
g74
(dp873
g82
I4
ssg83
Nsg76
(lp874
g69
(g85
g71
NtRp875
(dp876
g74
(dp877
sg83
g871
sg76
(lp878
g69
(g90
g71
NtRp879
(dp880
g74
(dp881
g94
g95
ssg83
g875
sg76
(lp882
S'app_folders'
p883
asbag69
(g90
g71
NtRp884
(dp885
g74
(dp886
g101
g102
ssg83
g875
sg76
(lp887
S':'
asbag69
(g90
g71
NtRp888
(dp889
g74
(dp890
sg83
g875
sg76
(lp891
g69
(g70
g71
NtRp892
(dp893
g74
(dp894
g82
I4
ssg83
g888
sg76
(lp895
S"set(['/home/umang/web2py/applications/admin/', '/home/umang/web2py/applications/assignmen3/', '/home/umang/web2py/applications/welcome/'])"
p896
asbasbasbag69
(g85
g71
NtRp897
(dp898
g74
(dp899
sg83
g871
sg76
(lp900
g69
(g90
g71
NtRp901
(dp902
g74
(dp903
g94
g95
ssg83
g897
sg76
(lp904
S'applications_parent'
p905
asbag69
(g90
g71
NtRp906
(dp907
g74
(dp908
g101
g102
ssg83
g897
sg76
(lp909
S':'
asbag69
(g90
g71
NtRp910
(dp911
g74
(dp912
sg83
g897
sg76
(lp913
g69
(g70
g71
NtRp914
(dp915
g74
(dp916
g82
I4
ssg83
g910
sg76
(lp917
S'/home/umang/web2py'
p918
asbasbasbag69
(g85
g71
NtRp919
(dp920
g74
(dp921
sg83
g871
sg76
(lp922
g69
(g90
g71
NtRp923
(dp924
g74
(dp925
g94
g95
ssg83
g919
sg76
(lp926
S'cmd_args'
p927
asbag69
(g90
g71
NtRp928
(dp929
g74
(dp930
g101
g102
ssg83
g919
sg76
(lp931
S':'
asbag69
(g90
g71
NtRp932
(dp933
g74
(dp934
sg83
g919
sg76
(lp935
g69
(g70
g71
NtRp936
(dp937
g74
(dp938
g82
I4
ssg83
g932
sg76
(lp939
g69
(g78
g71
NtRp940
(dp941
g74
(dp942
g82
I3
ssg83
Nsg76
(lp943
sbasbasbasbag69
(g85
g71
NtRp944
(dp945
g74
(dp946
sg83
g871
sg76
(lp947
g69
(g90
g71
NtRp948
(dp949
g74
(dp950
g94
g95
ssg83
g944
sg76
(lp951
S'cmd_options'
p952
asbag69
(g90
g71
NtRp953
(dp954
g74
(dp955
g101
g102
ssg83
g944
sg76
(lp956
S':'
asbag69
(g90
g71
NtRp957
(dp958
g74
(dp959
sg83
g944
sg76
(lp960
g69
(g70
g71
NtRp961
(dp962
g74
(dp963
g82
I4
ssg83
g957
sg76
(lp964
S"<Values at 0x1e8e200: {'verbose': False, 'ip': '127.0.0.1', 'with_scheduler': False, 'ips': [], 'shutdown_timeout': 5, 'taskbar': False, 'port': 8000, 'maxthreads': None, 'softcron': False, 'server_name': 'umang-HP-Pavilion-g6-Notebook-PC', 'bpython': False, 'nogui': False, 'pid_filename': 'httpserver.pid', 'extcron': False, 'runcron': False, 'run_system_tests': False, 'test': None, 'folder': '/home/umang/web2py', 'config': '', 'minthreads': None, 'winservice': '', 'shell': None, 'run': '', 'log_filename': 'httpserver.log', 'debuglevel': 30, 'args': [''], 'socket_timeout': 5, 'ssl_ca_certificate': None, 'scheduler': None, 'profiler_filename': None, 'ssl_private_key': '', 'scheduler_groups': None, 'password': '<ask>', 'request_queue_size': 5, 'ssl_certificate': '', 'cronjob': False, 'numthreads': None, 'quiet': False, 'interfaces': None, 'import_models': False, 'timeout': 10, 'plain': False, 'nobanner': False}>"
p965
asbasbasbag69
(g85
g71
NtRp966
(dp967
g74
(dp968
sg83
g871
sg76
(lp969
g69
(g90
g71
NtRp970
(dp971
g74
(dp972
g94
g95
ssg83
g966
sg76
(lp973
S'db_sessions'
p974
asbag69
(g90
g71
NtRp975
(dp976
g74
(dp977
g101
g102
ssg83
g966
sg76
(lp978
S':'
asbag69
(g90
g71
NtRp979
(dp980
g74
(dp981
sg83
g966
sg76
(lp982
g69
(g70
g71
NtRp983
(dp984
g74
(dp985
g82
I4
ssg83
g979
sg76
(lp986
S'set([])'
p987
asbasbasbag69
(g85
g71
NtRp988
(dp989
g74
(dp990
sg83
g871
sg76
(lp991
g69
(g90
g71
NtRp992
(dp993
g74
(dp994
g94
g95
ssg83
g988
sg76
(lp995
S'debugging'
p996
asbag69
(g90
g71
NtRp997
(dp998
g74
(dp999
g101
g102
ssg83
g988
sg76
(lp1000
S':'
asbag69
(g90
g71
NtRp1001
(dp1002
g74
(dp1003
sg83
g988
sg76
(lp1004
g69
(g70
g71
NtRp1005
(dp1006
g74
(dp1007
g82
I4
ssg83
g1001
sg76
(lp1008
g112
asbasbasbag69
(g85
g71
NtRp1009
(dp1010
g74
(dp1011
sg83
g871
sg76
(lp1012
g69
(g90
g71
NtRp1013
(dp1014
g74
(dp1015
g94
g95
ssg83
g1009
sg76
(lp1016
S'gluon_parent'
p1017
asbag69
(g90
g71
NtRp1018
(dp1019
g74
(dp1020
g101
g102
ssg83
g1009
sg76
(lp1021
S':'
asbag69
(g90
g71
NtRp1022
(dp1023
g74
(dp1024
sg83
g1009
sg76
(lp1025
g69
(g70
g71
NtRp1026
(dp1027
g74
(dp1028
g82
I4
ssg83
g1022
sg76
(lp1029
S'/home/umang/web2py'
p1030
asbasbasbag69
(g85
g71
NtRp1031
(dp1032
g74
(dp1033
sg83
g871
sg76
(lp1034
g69
(g90
g71
NtRp1035
(dp1036
g74
(dp1037
g94
g95
ssg83
g1031
sg76
(lp1038
S'http_accept'
p1039
asbag69
(g90
g71
NtRp1040
(dp1041
g74
(dp1042
g101
g102
ssg83
g1031
sg76
(lp1043
S':'
asbag69
(g90
g71
NtRp1044
(dp1045
g74
(dp1046
sg83
g1031
sg76
(lp1047
g69
(g70
g71
NtRp1048
(dp1049
g74
(dp1050
g82
I4
ssg83
g1044
sg76
(lp1051
S'text/html,application/xhtml+xml,application/xml;q=0.9,*/*;q=0.8'
p1052
asbasbasbag69
(g85
g71
NtRp1053
(dp1054
g74
(dp1055
sg83
g871
sg76
(lp1056
g69
(g90
g71
NtRp1057
(dp1058
g74
(dp1059
g94
g95
ssg83
g1053
sg76
(lp1060
S'http_accept_encoding'
p1061
asbag69
(g90
g71
NtRp1062
(dp1063
g74
(dp1064
g101
g102
ssg83
g1053
sg76
(lp1065
S':'
asbag69
(g90
g71
NtRp1066
(dp1067
g74
(dp1068
sg83
g1053
sg76
(lp1069
g69
(g70
g71
NtRp1070
(dp1071
g74
(dp1072
g82
I4
ssg83
g1066
sg76
(lp1073
S'gzip, deflate'
p1074
asbasbasbag69
(g85
g71
NtRp1075
(dp1076
g74
(dp1077
sg83
g871
sg76
(lp1078
g69
(g90
g71
NtRp1079
(dp1080
g74
(dp1081
g94
g95
ssg83
g1075
sg76
(lp1082
S'http_accept_language'
p1083
asbag69
(g90
g71
NtRp1084
(dp1085
g74
(dp1086
g101
g102
ssg83
g1075
sg76
(lp1087
S':'
asbag69
(g90
g71
NtRp1088
(dp1089
g74
(dp1090
sg83
g1075
sg76
(lp1091
g69
(g70
g71
NtRp1092
(dp1093
g74
(dp1094
g82
I4
ssg83
g1088
sg76
(lp1095
S'en-us,en;q=0.5'
p1096
asbasbasbag69
(g85
g71
NtRp1097
(dp1098
g74
(dp1099
sg83
g871
sg76
(lp1100
g69
(g90
g71
NtRp1101
(dp1102
g74
(dp1103
g94
g95
ssg83
g1097
sg76
(lp1104
S'http_connection'
p1105
asbag69
(g90
g71
NtRp1106
(dp1107
g74
(dp1108
g101
g102
ssg83
g1097
sg76
(lp1109
S':'
asbag69
(g90
g71
NtRp1110
(dp1111
g74
(dp1112
sg83
g1097
sg76
(lp1113
g69
(g70
g71
NtRp1114
(dp1115
g74
(dp1116
g82
I4
ssg83
g1110
sg76
(lp1117
S'keep-alive'
p1118
asbasbasbag69
(g85
g71
NtRp1119
(dp1120
g74
(dp1121
sg83
g871
sg76
(lp1122
g69
(g90
g71
NtRp1123
(dp1124
g74
(dp1125
g94
g95
ssg83
g1119
sg76
(lp1126
S'http_cookie'
p1127
asbag69
(g90
g71
NtRp1128
(dp1129
g74
(dp1130
g101
g102
ssg83
g1119
sg76
(lp1131
S':'
asbag69
(g90
g71
NtRp1132
(dp1133
g74
(dp1134
sg83
g1119
sg76
(lp1135
g69
(g70
g71
NtRp1136
(dp1137
g74
(dp1138
g82
I4
ssg83
g1132
sg76
(lp1139
S'session_id_welcome=127.0.0.1-8dc4cf7f-f02b-432b-8997-58277fa557ea; session_id_assignmen3=127.0.0.1-29d2a057-a0f4-454d-a27a-8e10f33a428a; session_id_admin=127.0.0.1-3084c772-81da-4392-9cca-26b69ed0651f'
p1140
asbasbasbag69
(g85
g71
NtRp1141
(dp1142
g74
(dp1143
sg83
g871
sg76
(lp1144
g69
(g90
g71
NtRp1145
(dp1146
g74
(dp1147
g94
g95
ssg83
g1141
sg76
(lp1148
S'http_host'
p1149
asbag69
(g90
g71
NtRp1150
(dp1151
g74
(dp1152
g101
g102
ssg83
g1141
sg76
(lp1153
S':'
asbag69
(g90
g71
NtRp1154
(dp1155
g74
(dp1156
sg83
g1141
sg76
(lp1157
g69
(g70
g71
NtRp1158
(dp1159
g74
(dp1160
g82
I4
ssg83
g1154
sg76
(lp1161
S'127.0.0.1:8000'
p1162
asbasbasbag69
(g85
g71
NtRp1163
(dp1164
g74
(dp1165
sg83
g871
sg76
(lp1166
g69
(g90
g71
NtRp1167
(dp1168
g74
(dp1169
g94
g95
ssg83
g1163
sg76
(lp1170
S'http_referer'
p1171
asbag69
(g90
g71
NtRp1172
(dp1173
g74
(dp1174
g101
g102
ssg83
g1163
sg76
(lp1175
S':'
asbag69
(g90
g71
NtRp1176
(dp1177
g74
(dp1178
sg83
g1163
sg76
(lp1179
g69
(g70
g71
NtRp1180
(dp1181
g74
(dp1182
g82
I4
ssg83
g1176
sg76
(lp1183
S'http://127.0.0.1:8000/assignmen3/default/first_page/3'
p1184
asbasbasbag69
(g85
g71
NtRp1185
(dp1186
g74
(dp1187
sg83
g871
sg76
(lp1188
g69
(g90
g71
NtRp1189
(dp1190
g74
(dp1191
g94
g95
ssg83
g1185
sg76
(lp1192
S'http_user_agent'
p1193
asbag69
(g90
g71
NtRp1194
(dp1195
g74
(dp1196
g101
g102
ssg83
g1185
sg76
(lp1197
S':'
asbag69
(g90
g71
NtRp1198
(dp1199
g74
(dp1200
sg83
g1185
sg76
(lp1201
g69
(g70
g71
NtRp1202
(dp1203
g74
(dp1204
g82
I4
ssg83
g1198
sg76
(lp1205
S'Mozilla/5.0 (X11; Ubuntu; Linux x86_64; rv:11.0) Gecko/20100101 Firefox/11.0'
p1206
asbasbasbag69
(g85
g71
NtRp1207
(dp1208
g74
(dp1209
sg83
g871
sg76
(lp1210
g69
(g90
g71
NtRp1211
(dp1212
g74
(dp1213
g94
g95
ssg83
g1207
sg76
(lp1214
S'is_jython'
p1215
asbag69
(g90
g71
NtRp1216
(dp1217
g74
(dp1218
g101
g102
ssg83
g1207
sg76
(lp1219
S':'
asbag69
(g90
g71
NtRp1220
(dp1221
g74
(dp1222
sg83
g1207
sg76
(lp1223
g69
(g70
g71
NtRp1224
(dp1225
g74
(dp1226
g82
I4
ssg83
g1220
sg76
(lp1227
g112
asbasbasbag69
(g85
g71
NtRp1228
(dp1229
g74
(dp1230
sg83
g871
sg76
(lp1231
g69
(g90
g71
NtRp1232
(dp1233
g74
(dp1234
g94
g95
ssg83
g1228
sg76
(lp1235
S'is_pypy'
p1236
asbag69
(g90
g71
NtRp1237
(dp1238
g74
(dp1239
g101
g102
ssg83
g1228
sg76
(lp1240
S':'
asbag69
(g90
g71
NtRp1241
(dp1242
g74
(dp1243
sg83
g1228
sg76
(lp1244
g69
(g70
g71
NtRp1245
(dp1246
g74
(dp1247
g82
I4
ssg83
g1241
sg76
(lp1248
g112
asbasbasbag69
(g85
g71
NtRp1249
(dp1250
g74
(dp1251
sg83
g871
sg76
(lp1252
g69
(g90
g71
NtRp1253
(dp1254
g74
(dp1255
g94
g95
ssg83
g1249
sg76
(lp1256
S'local_hosts'
p1257
asbag69
(g90
g71
NtRp1258
(dp1259
g74
(dp1260
g101
g102
ssg83
g1249
sg76
(lp1261
S':'
asbag69
(g90
g71
NtRp1262
(dp1263
g74
(dp1264
sg83
g1249
sg76
(lp1265
g69
(g70
g71
NtRp1266
(dp1267
g74
(dp1268
g82
I4
ssg83
g1262
sg76
(lp1269
g69
(g78
g71
NtRp1270
(dp1271
g74
(dp1272
g82
I3
ssg83
Nsg76
(lp1273
g69
(g85
g71
NtRp1274
(dp1275
g74
(dp1276
sg83
g1270
sg76
(lp1277
g69
(g90
g71
NtRp1278
(dp1279
g74
(dp1280
sg83
g1274
sg76
(lp1281
g69
(g70
g71
NtRp1282
(dp1283
g74
(dp1284
g82
I3
ssg83
g1278
sg76
(lp1285
S'::1'
p1286
asbasbasbag69
(g85
g71
NtRp1287
(dp1288
g74
(dp1289
sg83
g1270
sg76
(lp1290
g69
(g90
g71
NtRp1291
(dp1292
g74
(dp1293
sg83
g1287
sg76
(lp1294
g69
(g70
g71
NtRp1295
(dp1296
g74
(dp1297
g82
I3
ssg83
g1291
sg76
(lp1298
S'127.0.1.1'
p1299
asbasbasbag69
(g85
g71
NtRp1300
(dp1301
g74
(dp1302
sg83
g1270
sg76
(lp1303
g69
(g90
g71
NtRp1304
(dp1305
g74
(dp1306
sg83
g1300
sg76
(lp1307
g69
(g70
g71
NtRp1308
(dp1309
g74
(dp1310
g82
I3
ssg83
g1304
sg76
(lp1311
S'::ffff:127.0.0.1'
p1312
asbasbasbag69
(g85
g71
NtRp1313
(dp1314
g74
(dp1315
sg83
g1270
sg76
(lp1316
g69
(g90
g71
NtRp1317
(dp1318
g74
(dp1319
sg83
g1313
sg76
(lp1320
g69
(g70
g71
NtRp1321
(dp1322
g74
(dp1323
g82
I3
ssg83
g1317
sg76
(lp1324
S'127.0.0.1'
p1325
asbasbasbag69
(g85
g71
NtRp1326
(dp1327
g74
(dp1328
sg83
g1270
sg76
(lp1329
g69
(g90
g71
NtRp1330
(dp1331
g74
(dp1332
sg83
g1326
sg76
(lp1333
g69
(g70
g71
NtRp1334
(dp1335
g74
(dp1336
g82
I3
ssg83
g1330
sg76
(lp1337
S'umang-HP-Pavilion-g6-Notebook-PC'
p1338
asbasbasbasbasbasbasbag69
(g85
g71
NtRp1339
(dp1340
g74
(dp1341
sg83
g871
sg76
(lp1342
g69
(g90
g71
NtRp1343
(dp1344
g74
(dp1345
g94
g95
ssg83
g1339
sg76
(lp1346
S'path_info'
p1347
asbag69
(g90
g71
NtRp1348
(dp1349
g74
(dp1350
g101
g102
ssg83
g1339
sg76
(lp1351
S':'
asbag69
(g90
g71
NtRp1352
(dp1353
g74
(dp1354
sg83
g1339
sg76
(lp1355
g69
(g70
g71
NtRp1356
(dp1357
g74
(dp1358
g82
I4
ssg83
g1352
sg76
(lp1359
S'/assignmen3/default/first_page/2'
p1360
asbasbasbag69
(g85
g71
NtRp1361
(dp1362
g74
(dp1363
sg83
g871
sg76
(lp1364
g69
(g90
g71
NtRp1365
(dp1366
g74
(dp1367
g94
g95
ssg83
g1361
sg76
(lp1368
S'query_string'
p1369
asbag69
(g90
g71
NtRp1370
(dp1371
g74
(dp1372
g101
g102
ssg83
g1361
sg76
(lp1373
S':'
asbag69
(g90
g71
NtRp1374
(dp1375
g74
(dp1376
sg83
g1361
sg76
(lp1377
g69
(g70
g71
NtRp1378
(dp1379
g74
(dp1380
g82
I4
ssg83
g1374
sg76
(lp1381
S''
asbasbasbag69
(g85
g71
NtRp1382
(dp1383
g74
(dp1384
sg83
g871
sg76
(lp1385
g69
(g90
g71
NtRp1386
(dp1387
g74
(dp1388
g94
g95
ssg83
g1382
sg76
(lp1389
S'remote_addr'
p1390
asbag69
(g90
g71
NtRp1391
(dp1392
g74
(dp1393
g101
g102
ssg83
g1382
sg76
(lp1394
S':'
asbag69
(g90
g71
NtRp1395
(dp1396
g74
(dp1397
sg83
g1382
sg76
(lp1398
g69
(g70
g71
NtRp1399
(dp1400
g74
(dp1401
g82
I4
ssg83
g1395
sg76
(lp1402
g236
asbasbasbag69
(g85
g71
NtRp1403
(dp1404
g74
(dp1405
sg83
g871
sg76
(lp1406
g69
(g90
g71
NtRp1407
(dp1408
g74
(dp1409
g94
g95
ssg83
g1403
sg76
(lp1410
S'remote_port'
p1411
asbag69
(g90
g71
NtRp1412
(dp1413
g74
(dp1414
g101
g102
ssg83
g1403
sg76
(lp1415
S':'
asbag69
(g90
g71
NtRp1416
(dp1417
g74
(dp1418
sg83
g1403
sg76
(lp1419
g69
(g70
g71
NtRp1420
(dp1421
g74
(dp1422
g82
I4
ssg83
g1416
sg76
(lp1423
S'40792'
p1424
asbasbasbag69
(g85
g71
NtRp1425
(dp1426
g74
(dp1427
sg83
g871
sg76
(lp1428
g69
(g90
g71
NtRp1429
(dp1430
g74
(dp1431
g94
g95
ssg83
g1425
sg76
(lp1432
S'request_method'
p1433
asbag69
(g90
g71
NtRp1434
(dp1435
g74
(dp1436
g101
g102
ssg83
g1425
sg76
(lp1437
S':'
asbag69
(g90
g71
NtRp1438
(dp1439
g74
(dp1440
sg83
g1425
sg76
(lp1441
g69
(g70
g71
NtRp1442
(dp1443
g74
(dp1444
g82
I4
ssg83
g1438
sg76
(lp1445
S'GET'
p1446
asbasbasbag69
(g85
g71
NtRp1447
(dp1448
g74
(dp1449
sg83
g871
sg76
(lp1450
g69
(g90
g71
NtRp1451
(dp1452
g74
(dp1453
g94
g95
ssg83
g1447
sg76
(lp1454
S'request_uri'
p1455
asbag69
(g90
g71
NtRp1456
(dp1457
g74
(dp1458
g101
g102
ssg83
g1447
sg76
(lp1459
S':'
asbag69
(g90
g71
NtRp1460
(dp1461
g74
(dp1462
sg83
g1447
sg76
(lp1463
g69
(g70
g71
NtRp1464
(dp1465
g74
(dp1466
g82
I4
ssg83
g1460
sg76
(lp1467
g1360
asbasbasbag69
(g85
g71
NtRp1468
(dp1469
g74
(dp1470
sg83
g871
sg76
(lp1471
g69
(g90
g71
NtRp1472
(dp1473
g74
(dp1474
g94
g95
ssg83
g1468
sg76
(lp1475
S'script_name'
p1476
asbag69
(g90
g71
NtRp1477
(dp1478
g74
(dp1479
g101
g102
ssg83
g1468
sg76
(lp1480
S':'
asbag69
(g90
g71
NtRp1481
(dp1482
g74
(dp1483
sg83
g1468
sg76
(lp1484
g69
(g70
g71
NtRp1485
(dp1486
g74
(dp1487
g82
I4
ssg83
g1481
sg76
(lp1488
S''
asbasbasbag69
(g85
g71
NtRp1489
(dp1490
g74
(dp1491
sg83
g871
sg76
(lp1492
g69
(g90
g71
NtRp1493
(dp1494
g74
(dp1495
g94
g95
ssg83
g1489
sg76
(lp1496
S'server_name'
p1497
asbag69
(g90
g71
NtRp1498
(dp1499
g74
(dp1500
g101
g102
ssg83
g1489
sg76
(lp1501
S':'
asbag69
(g90
g71
NtRp1502
(dp1503
g74
(dp1504
sg83
g1489
sg76
(lp1505
g69
(g70
g71
NtRp1506
(dp1507
g74
(dp1508
g82
I4
ssg83
g1502
sg76
(lp1509
S'umang-HP-Pavilion-g6-Notebook-PC'
p1510
asbasbasbag69
(g85
g71
NtRp1511
(dp1512
g74
(dp1513
sg83
g871
sg76
(lp1514
g69
(g90
g71
NtRp1515
(dp1516
g74
(dp1517
g94
g95
ssg83
g1511
sg76
(lp1518
S'server_port'
p1519
asbag69
(g90
g71
NtRp1520
(dp1521
g74
(dp1522
g101
g102
ssg83
g1511
sg76
(lp1523
S':'
asbag69
(g90
g71
NtRp1524
(dp1525
g74
(dp1526
sg83
g1511
sg76
(lp1527
g69
(g70
g71
NtRp1528
(dp1529
g74
(dp1530
g82
I4
ssg83
g1524
sg76
(lp1531
S'8000'
p1532
asbasbasbag69
(g85
g71
NtRp1533
(dp1534
g74
(dp1535
sg83
g871
sg76
(lp1536
g69
(g90
g71
NtRp1537
(dp1538
g74
(dp1539
g94
g95
ssg83
g1533
sg76
(lp1540
S'server_protocol'
p1541
asbag69
(g90
g71
NtRp1542
(dp1543
g74
(dp1544
g101
g102
ssg83
g1533
sg76
(lp1545
S':'
asbag69
(g90
g71
NtRp1546
(dp1547
g74
(dp1548
sg83
g1533
sg76
(lp1549
g69
(g70
g71
NtRp1550
(dp1551
g74
(dp1552
g82
I4
ssg83
g1546
sg76
(lp1553
S'HTTP/1.1'
p1554
asbasbasbag69
(g85
g71
NtRp1555
(dp1556
g74
(dp1557
sg83
g871
sg76
(lp1558
g69
(g90
g71
NtRp1559
(dp1560
g74
(dp1561
g94
g95
ssg83
g1555
sg76
(lp1562
S'server_software'
p1563
asbag69
(g90
g71
NtRp1564
(dp1565
g74
(dp1566
g101
g102
ssg83
g1555
sg76
(lp1567
S':'
asbag69
(g90
g71
NtRp1568
(dp1569
g74
(dp1570
sg83
g1555
sg76
(lp1571
g69
(g70
g71
NtRp1572
(dp1573
g74
(dp1574
g82
I4
ssg83
g1568
sg76
(lp1575
S'Rocket 1.2.6'
p1576
asbasbasbag69
(g85
g71
NtRp1577
(dp1578
g74
(dp1579
sg83
g871
sg76
(lp1580
g69
(g90
g71
NtRp1581
(dp1582
g74
(dp1583
g94
g95
ssg83
g1577
sg76
(lp1584
S'web2py_path'
p1585
asbag69
(g90
g71
NtRp1586
(dp1587
g74
(dp1588
g101
g102
ssg83
g1577
sg76
(lp1589
S':'
asbag69
(g90
g71
NtRp1590
(dp1591
g74
(dp1592
sg83
g1577
sg76
(lp1593
g69
(g70
g71
NtRp1594
(dp1595
g74
(dp1596
g82
I4
ssg83
g1590
sg76
(lp1597
g918
asbasbasbag69
(g85
g71
NtRp1598
(dp1599
g74
(dp1600
sg83
g871
sg76
(lp1601
g69
(g90
g71
NtRp1602
(dp1603
g74
(dp1604
g94
g95
ssg83
g1598
sg76
(lp1605
S'web2py_version'
p1606
asbag69
(g90
g71
NtRp1607
(dp1608
g74
(dp1609
g101
g102
ssg83
g1598
sg76
(lp1610
S':'
asbag69
(g90
g71
NtRp1611
(dp1612
g74
(dp1613
sg83
g1598
sg76
(lp1614
g69
(g70
g71
NtRp1615
(dp1616
g74
(dp1617
g82
I4
ssg83
g1611
sg76
(lp1618
g69
(g78
g71
NtRp1619
(dp1620
g74
(dp1621
g82
I3
ssg83
Nsg76
(lp1622
g69
(g85
g71
NtRp1623
(dp1624
g74
(dp1625
sg83
g1619
sg76
(lp1626
g69
(g90
g71
NtRp1627
(dp1628
g74
(dp1629
sg83
g1623
sg76
(lp1630
g69
(g70
g71
NtRp1631
(dp1632
g74
(dp1633
g82
I3
ssg83
g1627
sg76
(lp1634
S'2'
asbasbasbag69
(g85
g71
NtRp1635
(dp1636
g74
(dp1637
sg83
g1619
sg76
(lp1638
g69
(g90
g71
NtRp1639
(dp1640
g74
(dp1641
sg83
g1635
sg76
(lp1642
g69
(g70
g71
NtRp1643
(dp1644
g74
(dp1645
g82
I3
ssg83
g1639
sg76
(lp1646
S'3'
asbasbasbag69
(g85
g71
NtRp1647
(dp1648
g74
(dp1649
sg83
g1619
sg76
(lp1650
g69
(g90
g71
NtRp1651
(dp1652
g74
(dp1653
sg83
g1647
sg76
(lp1654
g69
(g70
g71
NtRp1655
(dp1656
g74
(dp1657
g82
I3
ssg83
g1651
sg76
(lp1658
S'2'
asbasbasbag69
(g85
g71
NtRp1659
(dp1660
g74
(dp1661
sg83
g1619
sg76
(lp1662
g69
(g90
g71
NtRp1663
(dp1664
g74
(dp1665
sg83
g1659
sg76
(lp1666
g69
(g70
g71
NtRp1667
(dp1668
g74
(dp1669
g82
I3
ssg83
g1663
sg76
(lp1670
S'datetime.datetime(2012, 12, 17, 15, 3, 30)'
p1671
asbasbasbag69
(g85
g71
NtRp1672
(dp1673
g74
(dp1674
sg83
g1619
sg76
(lp1675
g69
(g90
g71
NtRp1676
(dp1677
g74
(dp1678
sg83
g1672
sg76
(lp1679
g69
(g70
g71
NtRp1680
(dp1681
g74
(dp1682
g82
I3
ssg83
g1676
sg76
(lp1683
S'stable'
p1684
asbasbasbasbasbasbasbag69
(g85
g71
NtRp1685
(dp1686
g74
(dp1687
sg83
g871
sg76
(lp1688
g69
(g90
g71
NtRp1689
(dp1690
g74
(dp1691
g94
g95
ssg83
g1685
sg76
(lp1692
S'wsgi_errors'
p1693
asbag69
(g90
g71
NtRp1694
(dp1695
g74
(dp1696
g101
g102
ssg83
g1685
sg76
(lp1697
S':'
asbag69
(g90
g71
NtRp1698
(dp1699
g74
(dp1700
sg83
g1685
sg76
(lp1701
g69
(g70
g71
NtRp1702
(dp1703
g74
(dp1704
g82
I4
ssg83
g1698
sg76
(lp1705
S"<open file '<stderr>', mode 'w' at 0x7fb3abe8a270>"
p1706
asbasbasbag69
(g85
g71
NtRp1707
(dp1708
g74
(dp1709
sg83
g871
sg76
(lp1710
g69
(g90
g71
NtRp1711
(dp1712
g74
(dp1713
g94
g95
ssg83
g1707
sg76
(lp1714
S'wsgi_file_wrapper'
p1715
asbag69
(g90
g71
NtRp1716
(dp1717
g74
(dp1718
g101
g102
ssg83
g1707
sg76
(lp1719
S':'
asbag69
(g90
g71
NtRp1720
(dp1721
g74
(dp1722
sg83
g1707
sg76
(lp1723
g69
(g70
g71
NtRp1724
(dp1725
g74
(dp1726
g82
I4
ssg83
g1720
sg76
(lp1727
S'<class wsgiref.util.FileWrapper at 0x1df7b48>'
p1728
asbasbasbag69
(g85
g71
NtRp1729
(dp1730
g74
(dp1731
sg83
g871
sg76
(lp1732
g69
(g90
g71
NtRp1733
(dp1734
g74
(dp1735
g94
g95
ssg83
g1729
sg76
(lp1736
S'wsgi_input'
p1737
asbag69
(g90
g71
NtRp1738
(dp1739
g74
(dp1740
g101
g102
ssg83
g1729
sg76
(lp1741
S':'
asbag69
(g90
g71
NtRp1742
(dp1743
g74
(dp1744
sg83
g1729
sg76
(lp1745
g69
(g70
g71
NtRp1746
(dp1747
g74
(dp1748
g82
I4
ssg83
g1742
sg76
(lp1749
S'<socket._fileobject object at 0x7fb3902a0650>'
p1750
asbasbasbag69
(g85
g71
NtRp1751
(dp1752
g74
(dp1753
sg83
g871
sg76
(lp1754
g69
(g90
g71
NtRp1755
(dp1756
g74
(dp1757
g94
g95
ssg83
g1751
sg76
(lp1758
S'wsgi_multiprocess'
p1759
asbag69
(g90
g71
NtRp1760
(dp1761
g74
(dp1762
g101
g102
ssg83
g1751
sg76
(lp1763
S':'
asbag69
(g90
g71
NtRp1764
(dp1765
g74
(dp1766
sg83
g1751
sg76
(lp1767
g69
(g70
g71
NtRp1768
(dp1769
g74
(dp1770
g82
I4
ssg83
g1764
sg76
(lp1771
g112
asbasbasbag69
(g85
g71
NtRp1772
(dp1773
g74
(dp1774
sg83
g871
sg76
(lp1775
g69
(g90
g71
NtRp1776
(dp1777
g74
(dp1778
g94
g95
ssg83
g1772
sg76
(lp1779
S'wsgi_multithread'
p1780
asbag69
(g90
g71
NtRp1781
(dp1782
g74
(dp1783
g101
g102
ssg83
g1772
sg76
(lp1784
S':'
asbag69
(g90
g71
NtRp1785
(dp1786
g74
(dp1787
sg83
g1772
sg76
(lp1788
g69
(g70
g71
NtRp1789
(dp1790
g74
(dp1791
g82
I4
ssg83
g1785
sg76
(lp1792
S'True'
p1793
asbasbasbag69
(g85
g71
NtRp1794
(dp1795
g74
(dp1796
sg83
g871
sg76
(lp1797
g69
(g90
g71
NtRp1798
(dp1799
g74
(dp1800
g94
g95
ssg83
g1794
sg76
(lp1801
S'wsgi_run_once'
p1802
asbag69
(g90
g71
NtRp1803
(dp1804
g74
(dp1805
g101
g102
ssg83
g1794
sg76
(lp1806
S':'
asbag69
(g90
g71
NtRp1807
(dp1808
g74
(dp1809
sg83
g1794
sg76
(lp1810
g69
(g70
g71
NtRp1811
(dp1812
g74
(dp1813
g82
I4
ssg83
g1807
sg76
(lp1814
g112
asbasbasbag69
(g85
g71
NtRp1815
(dp1816
g74
(dp1817
sg83
g871
sg76
(lp1818
g69
(g90
g71
NtRp1819
(dp1820
g74
(dp1821
g94
g95
ssg83
g1815
sg76
(lp1822
S'wsgi_url_scheme'
p1823
asbag69
(g90
g71
NtRp1824
(dp1825
g74
(dp1826
g101
g102
ssg83
g1815
sg76
(lp1827
S':'
asbag69
(g90
g71
NtRp1828
(dp1829
g74
(dp1830
sg83
g1815
sg76
(lp1831
g69
(g70
g71
NtRp1832
(dp1833
g74
(dp1834
g82
I4
ssg83
g1828
sg76
(lp1835
S'http'
p1836
asbasbasbag69
(g85
g71
NtRp1837
(dp1838
g74
(dp1839
sg83
g871
sg76
(lp1840
g69
(g90
g71
NtRp1841
(dp1842
g74
(dp1843
g94
g95
ssg83
g1837
sg76
(lp1844
S'wsgi_version'
p1845
asbag69
(g90
g71
NtRp1846
(dp1847
g74
(dp1848
g101
g102
ssg83
g1837
sg76
(lp1849
S':'
asbag69
(g90
g71
NtRp1850
(dp1851
g74
(dp1852
sg83
g1837
sg76
(lp1853
g69
(g70
g71
NtRp1854
(dp1855
g74
(dp1856
g82
I4
ssg83
g1850
sg76
(lp1857
g69
(g78
g71
NtRp1858
(dp1859
g74
(dp1860
g82
I3
ssg83
Nsg76
(lp1861
g69
(g85
g71
NtRp1862
(dp1863
g74
(dp1864
sg83
g1858
sg76
(lp1865
g69
(g90
g71
NtRp1866
(dp1867
g74
(dp1868
sg83
g1862
sg76
(lp1869
g69
(g70
g71
NtRp1870
(dp1871
g74
(dp1872
g82
I3
ssg83
g1866
sg76
(lp1873
S'1'
asbasbasbag69
(g85
g71
NtRp1874
(dp1875
g74
(dp1876
sg83
g1858
sg76
(lp1877
g69
(g90
g71
NtRp1878
(dp1879
g74
(dp1880
sg83
g1874
sg76
(lp1881
g69
(g70
g71
NtRp1882
(dp1883
g74
(dp1884
g82
I3
ssg83
g1878
sg76
(lp1885
S'0'
asbasbasbasbasbasbasbasbasbasbasbag69
(g85
g71
NtRp1886
(dp1887
g74
(dp1888
sg83
g79
sg76
(lp1889
g69
(g90
g71
NtRp1890
(dp1891
g74
(dp1892
g94
g95
ssg83
g1886
sg76
(lp1893
S'extension'
p1894
asbag69
(g90
g71
NtRp1895
(dp1896
g74
(dp1897
g101
g102
ssg83
g1886
sg76
(lp1898
S':'
asbag69
(g90
g71
NtRp1899
(dp1900
g74
(dp1901
sg83
g1886
sg76
(lp1902
g69
(g70
g71
NtRp1903
(dp1904
g74
(dp1905
g82
I5
ssg83
g1899
sg76
(lp1906
S'html'
p1907
asbasbasbag69
(g85
g71
NtRp1908
(dp1909
g74
(dp1910
sg83
g79
sg76
(lp1911
g69
(g90
g71
NtRp1912
(dp1913
g74
(dp1914
g94
g95
ssg83
g1908
sg76
(lp1915
S'folder'
p1916
asbag69
(g90
g71
NtRp1917
(dp1918
g74
(dp1919
g101
g102
ssg83
g1908
sg76
(lp1920
S':'
asbag69
(g90
g71
NtRp1921
(dp1922
g74
(dp1923
sg83
g1908
sg76
(lp1924
g69
(g70
g71
NtRp1925
(dp1926
g74
(dp1927
g82
I5
ssg83
g1921
sg76
(lp1928
S'/home/umang/web2py/applications/assignmen3/'
p1929
asbasbasbag69
(g85
g71
NtRp1930
(dp1931
g74
(dp1932
sg83
g79
sg76
(lp1933
g69
(g90
g71
NtRp1934
(dp1935
g74
(dp1936
g94
g95
ssg83
g1930
sg76
(lp1937
S'function'
p1938
asbag69
(g90
g71
NtRp1939
(dp1940
g74
(dp1941
g101
g102
ssg83
g1930
sg76
(lp1942
S':'
asbag69
(g90
g71
NtRp1943
(dp1944
g74
(dp1945
sg83
g1930
sg76
(lp1946
g69
(g70
g71
NtRp1947
(dp1948
g74
(dp1949
g82
I5
ssg83
g1943
sg76
(lp1950
S'first_page'
p1951
asbasbasbag69
(g85
g71
NtRp1952
(dp1953
g74
(dp1954
sg83
g79
sg76
(lp1955
g69
(g90
g71
NtRp1956
(dp1957
g74
(dp1958
g94
g95
ssg83
g1952
sg76
(lp1959
S'get_vars'
p1960
asbag69
(g90
g71
NtRp1961
(dp1962
g74
(dp1963
g101
g102
ssg83
g1952
sg76
(lp1964
S':'
asbag69
(g90
g71
NtRp1965
(dp1966
g74
(dp1967
sg83
g1952
sg76
(lp1968
g69
(g70
g71
NtRp1969
(dp1970
g74
(dp1971
g82
I5
ssg83
g1965
sg76
(lp1972
g69
(g78
g71
NtRp1973
(dp1974
g74
(dp1975
g82
I4
ssg83
Nsg76
(lp1976
sbasbasbasbag69
(g85
g71
NtRp1977
(dp1978
g74
(dp1979
sg83
g79
sg76
(lp1980
g69
(g90
g71
NtRp1981
(dp1982
g74
(dp1983
g94
g95
ssg83
g1977
sg76
(lp1984
S'global_settings'
p1985
asbag69
(g90
g71
NtRp1986
(dp1987
g74
(dp1988
g101
g102
ssg83
g1977
sg76
(lp1989
S':'
asbag69
(g90
g71
NtRp1990
(dp1991
g74
(dp1992
sg83
g1977
sg76
(lp1993
g69
(g70
g71
NtRp1994
(dp1995
g74
(dp1996
g82
I5
ssg83
g1990
sg76
(lp1997
g69
(g78
g71
NtRp1998
(dp1999
g74
(dp2000
g82
I4
ssg83
Nsg76
(lp2001
g69
(g85
g71
NtRp2002
(dp2003
g74
(dp2004
sg83
g1998
sg76
(lp2005
g69
(g90
g71
NtRp2006
(dp2007
g74
(dp2008
g94
g95
ssg83
g2002
sg76
(lp2009
g883
asbag69
(g90
g71
NtRp2010
(dp2011
g74
(dp2012
g101
g102
ssg83
g2002
sg76
(lp2013
S':'
asbag69
(g90
g71
NtRp2014
(dp2015
g74
(dp2016
sg83
g2002
sg76
(lp2017
g69
(g70
g71
NtRp2018
(dp2019
g74
(dp2020
g82
I4
ssg83
g2014
sg76
(lp2021
S"set(['/home/umang/web2py/applications/admin/', '/home/umang/web2py/applications/assignmen3/', '/home/umang/web2py/applications/welcome/'])"
p2022
asbasbasbag69
(g85
g71
NtRp2023
(dp2024
g74
(dp2025
sg83
g1998
sg76
(lp2026
g69
(g90
g71
NtRp2027
(dp2028
g74
(dp2029
g94
g95
ssg83
g2023
sg76
(lp2030
g905
asbag69
(g90
g71
NtRp2031
(dp2032
g74
(dp2033
g101
g102
ssg83
g2023
sg76
(lp2034
S':'
asbag69
(g90
g71
NtRp2035
(dp2036
g74
(dp2037
sg83
g2023
sg76
(lp2038
g69
(g70
g71
NtRp2039
(dp2040
g74
(dp2041
g82
I4
ssg83
g2035
sg76
(lp2042
g918
asbasbasbag69
(g85
g71
NtRp2043
(dp2044
g74
(dp2045
sg83
g1998
sg76
(lp2046
g69
(g90
g71
NtRp2047
(dp2048
g74
(dp2049
g94
g95
ssg83
g2043
sg76
(lp2050
g927
asbag69
(g90
g71
NtRp2051
(dp2052
g74
(dp2053
g101
g102
ssg83
g2043
sg76
(lp2054
S':'
asbag69
(g90
g71
NtRp2055
(dp2056
g74
(dp2057
sg83
g2043
sg76
(lp2058
g69
(g70
g71
NtRp2059
(dp2060
g74
(dp2061
g82
I4
ssg83
g2055
sg76
(lp2062
g69
(g78
g71
NtRp2063
(dp2064
g74
(dp2065
g82
I3
ssg83
Nsg76
(lp2066
sbasbasbasbag69
(g85
g71
NtRp2067
(dp2068
g74
(dp2069
sg83
g1998
sg76
(lp2070
g69
(g90
g71
NtRp2071
(dp2072
g74
(dp2073
g94
g95
ssg83
g2067
sg76
(lp2074
g952
asbag69
(g90
g71
NtRp2075
(dp2076
g74
(dp2077
g101
g102
ssg83
g2067
sg76
(lp2078
S':'
asbag69
(g90
g71
NtRp2079
(dp2080
g74
(dp2081
sg83
g2067
sg76
(lp2082
g69
(g70
g71
NtRp2083
(dp2084
g74
(dp2085
g82
I4
ssg83
g2079
sg76
(lp2086
S"<Values at 0x1e8e200: {'verbose': False, 'ip': '127.0.0.1', 'with_scheduler': False, 'ips': [], 'shutdown_timeout': 5, 'taskbar': False, 'port': 8000, 'maxthreads': None, 'softcron': False, 'server_name': 'umang-HP-Pavilion-g6-Notebook-PC', 'bpython': False, 'nogui': False, 'pid_filename': 'httpserver.pid', 'extcron': False, 'runcron': False, 'run_system_tests': False, 'test': None, 'folder': '/home/umang/web2py', 'config': '', 'minthreads': None, 'winservice': '', 'shell': None, 'run': '', 'log_filename': 'httpserver.log', 'debuglevel': 30, 'args': [''], 'socket_timeout': 5, 'ssl_ca_certificate': None, 'scheduler': None, 'profiler_filename': None, 'ssl_private_key': '', 'scheduler_groups': None, 'password': '<ask>', 'request_queue_size': 5, 'ssl_certificate': '', 'cronjob': False, 'numthreads': None, 'quiet': False, 'interfaces': None, 'import_models': False, 'timeout': 10, 'plain': False, 'nobanner': False}>"
p2087
asbasbasbag69
(g85
g71
NtRp2088
(dp2089
g74
(dp2090
sg83
g1998
sg76
(lp2091
g69
(g90
g71
NtRp2092
(dp2093
g74
(dp2094
g94
g95
ssg83
g2088
sg76
(lp2095
g974
asbag69
(g90
g71
NtRp2096
(dp2097
g74
(dp2098
g101
g102
ssg83
g2088
sg76
(lp2099
S':'
asbag69
(g90
g71
NtRp2100
(dp2101
g74
(dp2102
sg83
g2088
sg76
(lp2103
g69
(g70
g71
NtRp2104
(dp2105
g74
(dp2106
g82
I4
ssg83
g2100
sg76
(lp2107
S'set([])'
p2108
asbasbasbag69
(g85
g71
NtRp2109
(dp2110
g74
(dp2111
sg83
g1998
sg76
(lp2112
g69
(g90
g71
NtRp2113
(dp2114
g74
(dp2115
g94
g95
ssg83
g2109
sg76
(lp2116
g996
asbag69
(g90
g71
NtRp2117
(dp2118
g74
(dp2119
g101
g102
ssg83
g2109
sg76
(lp2120
S':'
asbag69
(g90
g71
NtRp2121
(dp2122
g74
(dp2123
sg83
g2109
sg76
(lp2124
g69
(g70
g71
NtRp2125
(dp2126
g74
(dp2127
g82
I4
ssg83
g2121
sg76
(lp2128
g112
asbasbasbag69
(g85
g71
NtRp2129
(dp2130
g74
(dp2131
sg83
g1998
sg76
(lp2132
g69
(g90
g71
NtRp2133
(dp2134
g74
(dp2135
g94
g95
ssg83
g2129
sg76
(lp2136
g1017
asbag69
(g90
g71
NtRp2137
(dp2138
g74
(dp2139
g101
g102
ssg83
g2129
sg76
(lp2140
S':'
asbag69
(g90
g71
NtRp2141
(dp2142
g74
(dp2143
sg83
g2129
sg76
(lp2144
g69
(g70
g71
NtRp2145
(dp2146
g74
(dp2147
g82
I4
ssg83
g2141
sg76
(lp2148
g1030
asbasbasbag69
(g85
g71
NtRp2149
(dp2150
g74
(dp2151
sg83
g1998
sg76
(lp2152
g69
(g90
g71
NtRp2153
(dp2154
g74
(dp2155
g94
g95
ssg83
g2149
sg76
(lp2156
g1215
asbag69
(g90
g71
NtRp2157
(dp2158
g74
(dp2159
g101
g102
ssg83
g2149
sg76
(lp2160
S':'
asbag69
(g90
g71
NtRp2161
(dp2162
g74
(dp2163
sg83
g2149
sg76
(lp2164
g69
(g70
g71
NtRp2165
(dp2166
g74
(dp2167
g82
I4
ssg83
g2161
sg76
(lp2168
g112
asbasbasbag69
(g85
g71
NtRp2169
(dp2170
g74
(dp2171
sg83
g1998
sg76
(lp2172
g69
(g90
g71
NtRp2173
(dp2174
g74
(dp2175
g94
g95
ssg83
g2169
sg76
(lp2176
g1236
asbag69
(g90
g71
NtRp2177
(dp2178
g74
(dp2179
g101
g102
ssg83
g2169
sg76
(lp2180
S':'
asbag69
(g90
g71
NtRp2181
(dp2182
g74
(dp2183
sg83
g2169
sg76
(lp2184
g69
(g70
g71
NtRp2185
(dp2186
g74
(dp2187
g82
I4
ssg83
g2181
sg76
(lp2188
g112
asbasbasbag69
(g85
g71
NtRp2189
(dp2190
g74
(dp2191
sg83
g1998
sg76
(lp2192
g69
(g90
g71
NtRp2193
(dp2194
g74
(dp2195
g94
g95
ssg83
g2189
sg76
(lp2196
g1257
asbag69
(g90
g71
NtRp2197
(dp2198
g74
(dp2199
g101
g102
ssg83
g2189
sg76
(lp2200
S':'
asbag69
(g90
g71
NtRp2201
(dp2202
g74
(dp2203
sg83
g2189
sg76
(lp2204
g69
(g70
g71
NtRp2205
(dp2206
g74
(dp2207
g82
I4
ssg83
g2201
sg76
(lp2208
g69
(g78
g71
NtRp2209
(dp2210
g74
(dp2211
g82
I3
ssg83
Nsg76
(lp2212
g69
(g85
g71
NtRp2213
(dp2214
g74
(dp2215
sg83
g2209
sg76
(lp2216
g69
(g90
g71
NtRp2217
(dp2218
g74
(dp2219
sg83
g2213
sg76
(lp2220
g69
(g70
g71
NtRp2221
(dp2222
g74
(dp2223
g82
I3
ssg83
g2217
sg76
(lp2224
g1286
asbasbasbag69
(g85
g71
NtRp2225
(dp2226
g74
(dp2227
sg83
g2209
sg76
(lp2228
g69
(g90
g71
NtRp2229
(dp2230
g74
(dp2231
sg83
g2225
sg76
(lp2232
g69
(g70
g71
NtRp2233
(dp2234
g74
(dp2235
g82
I3
ssg83
g2229
sg76
(lp2236
g1299
asbasbasbag69
(g85
g71
NtRp2237
(dp2238
g74
(dp2239
sg83
g2209
sg76
(lp2240
g69
(g90
g71
NtRp2241
(dp2242
g74
(dp2243
sg83
g2237
sg76
(lp2244
g69
(g70
g71
NtRp2245
(dp2246
g74
(dp2247
g82
I3
ssg83
g2241
sg76
(lp2248
g1312
asbasbasbag69
(g85
g71
NtRp2249
(dp2250
g74
(dp2251
sg83
g2209
sg76
(lp2252
g69
(g90
g71
NtRp2253
(dp2254
g74
(dp2255
sg83
g2249
sg76
(lp2256
g69
(g70
g71
NtRp2257
(dp2258
g74
(dp2259
g82
I3
ssg83
g2253
sg76
(lp2260
g1325
asbasbasbag69
(g85
g71
NtRp2261
(dp2262
g74
(dp2263
sg83
g2209
sg76
(lp2264
g69
(g90
g71
NtRp2265
(dp2266
g74
(dp2267
sg83
g2261
sg76
(lp2268
g69
(g70
g71
NtRp2269
(dp2270
g74
(dp2271
g82
I3
ssg83
g2265
sg76
(lp2272
g1338
asbasbasbasbasbasbasbag69
(g85
g71
NtRp2273
(dp2274
g74
(dp2275
sg83
g1998
sg76
(lp2276
g69
(g90
g71
NtRp2277
(dp2278
g74
(dp2279
g94
g95
ssg83
g2273
sg76
(lp2280
g1606
asbag69
(g90
g71
NtRp2281
(dp2282
g74
(dp2283
g101
g102
ssg83
g2273
sg76
(lp2284
S':'
asbag69
(g90
g71
NtRp2285
(dp2286
g74
(dp2287
sg83
g2273
sg76
(lp2288
g69
(g70
g71
NtRp2289
(dp2290
g74
(dp2291
g82
I4
ssg83
g2285
sg76
(lp2292
g69
(g78
g71
NtRp2293
(dp2294
g74
(dp2295
g82
I3
ssg83
Nsg76
(lp2296
g69
(g85
g71
NtRp2297
(dp2298
g74
(dp2299
sg83
g2293
sg76
(lp2300
g69
(g90
g71
NtRp2301
(dp2302
g74
(dp2303
sg83
g2297
sg76
(lp2304
g69
(g70
g71
NtRp2305
(dp2306
g74
(dp2307
g82
I3
ssg83
g2301
sg76
(lp2308
S'2'
asbasbasbag69
(g85
g71
NtRp2309
(dp2310
g74
(dp2311
sg83
g2293
sg76
(lp2312
g69
(g90
g71
NtRp2313
(dp2314
g74
(dp2315
sg83
g2309
sg76
(lp2316
g69
(g70
g71
NtRp2317
(dp2318
g74
(dp2319
g82
I3
ssg83
g2313
sg76
(lp2320
S'3'
asbasbasbag69
(g85
g71
NtRp2321
(dp2322
g74
(dp2323
sg83
g2293
sg76
(lp2324
g69
(g90
g71
NtRp2325
(dp2326
g74
(dp2327
sg83
g2321
sg76
(lp2328
g69
(g70
g71
NtRp2329
(dp2330
g74
(dp2331
g82
I3
ssg83
g2325
sg76
(lp2332
S'2'
asbasbasbag69
(g85
g71
NtRp2333
(dp2334
g74
(dp2335
sg83
g2293
sg76
(lp2336
g69
(g90
g71
NtRp2337
(dp2338
g74
(dp2339
sg83
g2333
sg76
(lp2340
g69
(g70
g71
NtRp2341
(dp2342
g74
(dp2343
g82
I3
ssg83
g2337
sg76
(lp2344
S'datetime.datetime(2012, 12, 17, 15, 3, 30)'
p2345
asbasbasbag69
(g85
g71
NtRp2346
(dp2347
g74
(dp2348
sg83
g2293
sg76
(lp2349
g69
(g90
g71
NtRp2350
(dp2351
g74
(dp2352
sg83
g2346
sg76
(lp2353
g69
(g70
g71
NtRp2354
(dp2355
g74
(dp2356
g82
I3
ssg83
g2350
sg76
(lp2357
g1684
asbasbasbasbasbasbasbasbasbasbasbag69
(g85
g71
NtRp2358
(dp2359
g74
(dp2360
sg83
g79
sg76
(lp2361
g69
(g90
g71
NtRp2362
(dp2363
g74
(dp2364
g94
g95
ssg83
g2358
sg76
(lp2365
S'is_https'
p2366
asbag69
(g90
g71
NtRp2367
(dp2368
g74
(dp2369
g101
g102
ssg83
g2358
sg76
(lp2370
S':'
asbag69
(g90
g71
NtRp2371
(dp2372
g74
(dp2373
sg83
g2358
sg76
(lp2374
g69
(g70
g71
NtRp2375
(dp2376
g74
(dp2377
g82
I5
ssg83
g2371
sg76
(lp2378
g112
asbasbasbag69
(g85
g71
NtRp2379
(dp2380
g74
(dp2381
sg83
g79
sg76
(lp2382
g69
(g90
g71
NtRp2383
(dp2384
g74
(dp2385
g94
g95
ssg83
g2379
sg76
(lp2386
S'is_local'
p2387
asbag69
(g90
g71
NtRp2388
(dp2389
g74
(dp2390
g101
g102
ssg83
g2379
sg76
(lp2391
S':'
asbag69
(g90
g71
NtRp2392
(dp2393
g74
(dp2394
sg83
g2379
sg76
(lp2395
g69
(g70
g71
NtRp2396
(dp2397
g74
(dp2398
g82
I5
ssg83
g2392
sg76
(lp2399
g1793
asbasbasbag69
(g85
g71
NtRp2400
(dp2401
g74
(dp2402
sg83
g79
sg76
(lp2403
g69
(g90
g71
NtRp2404
(dp2405
g74
(dp2406
g94
g95
ssg83
g2400
sg76
(lp2407
S'is_restful'
p2408
asbag69
(g90
g71
NtRp2409
(dp2410
g74
(dp2411
g101
g102
ssg83
g2400
sg76
(lp2412
S':'
asbag69
(g90
g71
NtRp2413
(dp2414
g74
(dp2415
sg83
g2400
sg76
(lp2416
g69
(g70
g71
NtRp2417
(dp2418
g74
(dp2419
g82
I5
ssg83
g2413
sg76
(lp2420
g112
asbasbasbag69
(g85
g71
NtRp2421
(dp2422
g74
(dp2423
sg83
g79
sg76
(lp2424
g69
(g90
g71
NtRp2425
(dp2426
g74
(dp2427
g94
g95
ssg83
g2421
sg76
(lp2428
S'now'
p2429
asbag69
(g90
g71
NtRp2430
(dp2431
g74
(dp2432
g101
g102
ssg83
g2421
sg76
(lp2433
S':'
asbag69
(g90
g71
NtRp2434
(dp2435
g74
(dp2436
sg83
g2421
sg76
(lp2437
g69
(g70
g71
NtRp2438
(dp2439
g74
(dp2440
g82
I5
ssg83
g2434
sg76
(lp2441
S'datetime.datetime(2013, 8, 27, 0, 36, 41, 222096)'
p2442
asbasbasbag69
(g85
g71
NtRp2443
(dp2444
g74
(dp2445
sg83
g79
sg76
(lp2446
g69
(g90
g71
NtRp2447
(dp2448
g74
(dp2449
g94
g95
ssg83
g2443
sg76
(lp2450
S'post_vars'
p2451
asbag69
(g90
g71
NtRp2452
(dp2453
g74
(dp2454
g101
g102
ssg83
g2443
sg76
(lp2455
S':'
asbag69
(g90
g71
NtRp2456
(dp2457
g74
(dp2458
sg83
g2443
sg76
(lp2459
g69
(g70
g71
NtRp2460
(dp2461
g74
(dp2462
g82
I5
ssg83
g2456
sg76
(lp2463
g69
(g78
g71
NtRp2464
(dp2465
g74
(dp2466
g82
I4
ssg83
Nsg76
(lp2467
sbasbasbasbag69
(g85
g71
NtRp2468
(dp2469
g74
(dp2470
sg83
g79
sg76
(lp2471
g69
(g90
g71
NtRp2472
(dp2473
g74
(dp2474
g94
g95
ssg83
g2468
sg76
(lp2475
S'raw_args'
p2476
asbag69
(g90
g71
NtRp2477
(dp2478
g74
(dp2479
g101
g102
ssg83
g2468
sg76
(lp2480
S':'
asbag69
(g90
g71
NtRp2481
(dp2482
g74
(dp2483
sg83
g2468
sg76
(lp2484
g69
(g70
g71
NtRp2485
(dp2486
g74
(dp2487
g82
I5
ssg83
g2481
sg76
(lp2488
S'2'
asbasbasbag69
(g85
g71
NtRp2489
(dp2490
g74
(dp2491
sg83
g79
sg76
(lp2492
g69
(g90
g71
NtRp2493
(dp2494
g74
(dp2495
g94
g95
ssg83
g2489
sg76
(lp2496
S'raw_extension'
p2497
asbag69
(g90
g71
NtRp2498
(dp2499
g74
(dp2500
g101
g102
ssg83
g2489
sg76
(lp2501
S':'
asbag69
(g90
g71
NtRp2502
(dp2503
g74
(dp2504
sg83
g2489
sg76
(lp2505
g69
(g70
g71
NtRp2506
(dp2507
g74
(dp2508
g82
I5
ssg83
g2502
sg76
(lp2509
S'None'
p2510
asbasbasbag69
(g85
g71
NtRp2511
(dp2512
g74
(dp2513
sg83
g79
sg76
(lp2514
g69
(g90
g71
NtRp2515
(dp2516
g74
(dp2517
g94
g95
ssg83
g2511
sg76
(lp2518
S'url'
p2519
asbag69
(g90
g71
NtRp2520
(dp2521
g74
(dp2522
g101
g102
ssg83
g2511
sg76
(lp2523
S':'
asbag69
(g90
g71
NtRp2524
(dp2525
g74
(dp2526
sg83
g2511
sg76
(lp2527
g69
(g70
g71
NtRp2528
(dp2529
g74
(dp2530
g82
I5
ssg83
g2524
sg76
(lp2531
g1360
asbasbasbag69
(g85
g71
NtRp2532
(dp2533
g74
(dp2534
sg83
g79
sg76
(lp2535
g69
(g90
g71
NtRp2536
(dp2537
g74
(dp2538
g94
g95
ssg83
g2532
sg76
(lp2539
S'utcnow'
p2540
asbag69
(g90
g71
NtRp2541
(dp2542
g74
(dp2543
g101
g102
ssg83
g2532
sg76
(lp2544
S':'
asbag69
(g90
g71
NtRp2545
(dp2546
g74
(dp2547
sg83
g2532
sg76
(lp2548
g69
(g70
g71
NtRp2549
(dp2550
g74
(dp2551
g82
I5
ssg83
g2545
sg76
(lp2552
S'datetime.datetime(2013, 8, 26, 19, 6, 41, 222164)'
p2553
asbasbasbag69
(g85
g71
NtRp2554
(dp2555
g74
(dp2556
sg83
g79
sg76
(lp2557
g69
(g90
g71
NtRp2558
(dp2559
g74
(dp2560
g94
g95
ssg83
g2554
sg76
(lp2561
S'uuid'
p2562
asbag69
(g90
g71
NtRp2563
(dp2564
g74
(dp2565
g101
g102
ssg83
g2554
sg76
(lp2566
S':'
asbag69
(g90
g71
NtRp2567
(dp2568
g74
(dp2569
sg83
g2554
sg76
(lp2570
g69
(g70
g71
NtRp2571
(dp2572
g74
(dp2573
g82
I5
ssg83
g2567
sg76
(lp2574
S'assignmen3/127.0.0.1.2013-08-27.00-36-41.33bade7a-ebcc-45a2-8e9d-bdf9ae924bf4'
p2575
asbasbasbag69
(g85
g71
NtRp2576
(dp2577
g74
(dp2578
sg83
g79
sg76
(lp2579
g69
(g90
g71
NtRp2580
(dp2581
g74
(dp2582
g94
g95
ssg83
g2576
sg76
(lp2583
S'vars'
p2584
asbag69
(g90
g71
NtRp2585
(dp2586
g74
(dp2587
g101
g102
ssg83
g2576
sg76
(lp2588
S':'
asbag69
(g90
g71
NtRp2589
(dp2590
g74
(dp2591
sg83
g2576
sg76
(lp2592
g69
(g70
g71
NtRp2593
(dp2594
g74
(dp2595
g82
I5
ssg83
g2589
sg76
(lp2596
g69
(g78
g71
NtRp2597
(dp2598
g74
(dp2599
g82
I4
ssg83
Nsg76
(lp2600
sbasbasbasbag69
(g85
g71
NtRp2601
(dp2602
g74
(dp2603
sg83
g79
sg76
(lp2604
g69
(g90
g71
NtRp2605
(dp2606
g74
(dp2607
g94
g95
ssg83
g2601
sg76
(lp2608
S'wsgi'
p2609
asbag69
(g90
g71
NtRp2610
(dp2611
g74
(dp2612
g101
g102
ssg83
g2601
sg76
(lp2613
S':'
asbag69
(g90
g71
NtRp2614
(dp2615
g74
(dp2616
sg83
g2601
sg76
(lp2617
g69
(g70
g71
NtRp2618
(dp2619
g74
(dp2620
g82
I5
ssg83
g2614
sg76
(lp2621
g69
(g78
g71
NtRp2622
(dp2623
g74
(dp2624
g82
I4
ssg83
Nsg76
(lp2625
g69
(g85
g71
NtRp2626
(dp2627
g74
(dp2628
sg83
g2622
sg76
(lp2629
g69
(g90
g71
NtRp2630
(dp2631
g74
(dp2632
g94
g95
ssg83
g2626
sg76
(lp2633
S'environ'
p2634
asbag69
(g90
g71
NtRp2635
(dp2636
g74
(dp2637
g101
g102
ssg83
g2626
sg76
(lp2638
S':'
asbag69
(g90
g71
NtRp2639
(dp2640
g74
(dp2641
sg83
g2626
sg76
(lp2642
g69
(g70
g71
NtRp2643
(dp2644
g74
(dp2645
g82
I4
ssg83
g2639
sg76
(lp2646
g69
(g78
g71
NtRp2647
(dp2648
g74
(dp2649
g82
I3
ssg83
Nsg76
(lp2650
g69
(g85
g71
NtRp2651
(dp2652
g74
(dp2653
sg83
g2647
sg76
(lp2654
g69
(g90
g71
NtRp2655
(dp2656
g74
(dp2657
g94
g95
ssg83
g2651
sg76
(lp2658
S'HTTP_ACCEPT'
p2659
asbag69
(g90
g71
NtRp2660
(dp2661
g74
(dp2662
g101
g102
ssg83
g2651
sg76
(lp2663
S':'
asbag69
(g90
g71
NtRp2664
(dp2665
g74
(dp2666
sg83
g2651
sg76
(lp2667
g69
(g70
g71
NtRp2668
(dp2669
g74
(dp2670
g82
I3
ssg83
g2664
sg76
(lp2671
g1052
asbasbasbag69
(g85
g71
NtRp2672
(dp2673
g74
(dp2674
sg83
g2647
sg76
(lp2675
g69
(g90
g71
NtRp2676
(dp2677
g74
(dp2678
g94
g95
ssg83
g2672
sg76
(lp2679
S'HTTP_ACCEPT_ENCODING'
p2680
asbag69
(g90
g71
NtRp2681
(dp2682
g74
(dp2683
g101
g102
ssg83
g2672
sg76
(lp2684
S':'
asbag69
(g90
g71
NtRp2685
(dp2686
g74
(dp2687
sg83
g2672
sg76
(lp2688
g69
(g70
g71
NtRp2689
(dp2690
g74
(dp2691
g82
I3
ssg83
g2685
sg76
(lp2692
g1074
asbasbasbag69
(g85
g71
NtRp2693
(dp2694
g74
(dp2695
sg83
g2647
sg76
(lp2696
g69
(g90
g71
NtRp2697
(dp2698
g74
(dp2699
g94
g95
ssg83
g2693
sg76
(lp2700
S'HTTP_ACCEPT_LANGUAGE'
p2701
asbag69
(g90
g71
NtRp2702
(dp2703
g74
(dp2704
g101
g102
ssg83
g2693
sg76
(lp2705
S':'
asbag69
(g90
g71
NtRp2706
(dp2707
g74
(dp2708
sg83
g2693
sg76
(lp2709
g69
(g70
g71
NtRp2710
(dp2711
g74
(dp2712
g82
I3
ssg83
g2706
sg76
(lp2713
g1096
asbasbasbag69
(g85
g71
NtRp2714
(dp2715
g74
(dp2716
sg83
g2647
sg76
(lp2717
g69
(g90
g71
NtRp2718
(dp2719
g74
(dp2720
g94
g95
ssg83
g2714
sg76
(lp2721
S'HTTP_CONNECTION'
p2722
asbag69
(g90
g71
NtRp2723
(dp2724
g74
(dp2725
g101
g102
ssg83
g2714
sg76
(lp2726
S':'
asbag69
(g90
g71
NtRp2727
(dp2728
g74
(dp2729
sg83
g2714
sg76
(lp2730
g69
(g70
g71
NtRp2731
(dp2732
g74
(dp2733
g82
I3
ssg83
g2727
sg76
(lp2734
g1118
asbasbasbag69
(g85
g71
NtRp2735
(dp2736
g74
(dp2737
sg83
g2647
sg76
(lp2738
g69
(g90
g71
NtRp2739
(dp2740
g74
(dp2741
g94
g95
ssg83
g2735
sg76
(lp2742
S'HTTP_COOKIE'
p2743
asbag69
(g90
g71
NtRp2744
(dp2745
g74
(dp2746
g101
g102
ssg83
g2735
sg76
(lp2747
S':'
asbag69
(g90
g71
NtRp2748
(dp2749
g74
(dp2750
sg83
g2735
sg76
(lp2751
g69
(g70
g71
NtRp2752
(dp2753
g74
(dp2754
g82
I3
ssg83
g2748
sg76
(lp2755
g1140
asbasbasbag69
(g85
g71
NtRp2756
(dp2757
g74
(dp2758
sg83
g2647
sg76
(lp2759
g69
(g90
g71
NtRp2760
(dp2761
g74
(dp2762
g94
g95
ssg83
g2756
sg76
(lp2763
S'HTTP_HOST'
p2764
asbag69
(g90
g71
NtRp2765
(dp2766
g74
(dp2767
g101
g102
ssg83
g2756
sg76
(lp2768
S':'
asbag69
(g90
g71
NtRp2769
(dp2770
g74
(dp2771
sg83
g2756
sg76
(lp2772
g69
(g70
g71
NtRp2773
(dp2774
g74
(dp2775
g82
I3
ssg83
g2769
sg76
(lp2776
g1162
asbasbasbag69
(g85
g71
NtRp2777
(dp2778
g74
(dp2779
sg83
g2647
sg76
(lp2780
g69
(g90
g71
NtRp2781
(dp2782
g74
(dp2783
g94
g95
ssg83
g2777
sg76
(lp2784
S'HTTP_REFERER'
p2785
asbag69
(g90
g71
NtRp2786
(dp2787
g74
(dp2788
g101
g102
ssg83
g2777
sg76
(lp2789
S':'
asbag69
(g90
g71
NtRp2790
(dp2791
g74
(dp2792
sg83
g2777
sg76
(lp2793
g69
(g70
g71
NtRp2794
(dp2795
g74
(dp2796
g82
I3
ssg83
g2790
sg76
(lp2797
g1184
asbasbasbag69
(g85
g71
NtRp2798
(dp2799
g74
(dp2800
sg83
g2647
sg76
(lp2801
g69
(g90
g71
NtRp2802
(dp2803
g74
(dp2804
g94
g95
ssg83
g2798
sg76
(lp2805
S'HTTP_USER_AGENT'
p2806
asbag69
(g90
g71
NtRp2807
(dp2808
g74
(dp2809
g101
g102
ssg83
g2798
sg76
(lp2810
S':'
asbag69
(g90
g71
NtRp2811
(dp2812
g74
(dp2813
sg83
g2798
sg76
(lp2814
g69
(g70
g71
NtRp2815
(dp2816
g74
(dp2817
g82
I3
ssg83
g2811
sg76
(lp2818
g1206
asbasbasbag69
(g85
g71
NtRp2819
(dp2820
g74
(dp2821
sg83
g2647
sg76
(lp2822
g69
(g90
g71
NtRp2823
(dp2824
g74
(dp2825
g94
g95
ssg83
g2819
sg76
(lp2826
S'PATH_INFO'
p2827
asbag69
(g90
g71
NtRp2828
(dp2829
g74
(dp2830
g101
g102
ssg83
g2819
sg76
(lp2831
S':'
asbag69
(g90
g71
NtRp2832
(dp2833
g74
(dp2834
sg83
g2819
sg76
(lp2835
g69
(g70
g71
NtRp2836
(dp2837
g74
(dp2838
g82
I3
ssg83
g2832
sg76
(lp2839
g1360
asbasbasbag69
(g85
g71
NtRp2840
(dp2841
g74
(dp2842
sg83
g2647
sg76
(lp2843
g69
(g90
g71
NtRp2844
(dp2845
g74
(dp2846
g94
g95
ssg83
g2840
sg76
(lp2847
S'QUERY_STRING'
p2848
asbag69
(g90
g71
NtRp2849
(dp2850
g74
(dp2851
g101
g102
ssg83
g2840
sg76
(lp2852
S':'
asbag69
(g90
g71
NtRp2853
(dp2854
g74
(dp2855
sg83
g2840
sg76
(lp2856
g69
(g70
g71
NtRp2857
(dp2858
g74
(dp2859
g82
I3
ssg83
g2853
sg76
(lp2860
S''
asbasbasbag69
(g85
g71
NtRp2861
(dp2862
g74
(dp2863
sg83
g2647
sg76
(lp2864
g69
(g90
g71
NtRp2865
(dp2866
g74
(dp2867
g94
g95
ssg83
g2861
sg76
(lp2868
S'REMOTE_ADDR'
p2869
asbag69
(g90
g71
NtRp2870
(dp2871
g74
(dp2872
g101
g102
ssg83
g2861
sg76
(lp2873
S':'
asbag69
(g90
g71
NtRp2874
(dp2875
g74
(dp2876
sg83
g2861
sg76
(lp2877
g69
(g70
g71
NtRp2878
(dp2879
g74
(dp2880
g82
I3
ssg83
g2874
sg76
(lp2881
g236
asbasbasbag69
(g85
g71
NtRp2882
(dp2883
g74
(dp2884
sg83
g2647
sg76
(lp2885
g69
(g90
g71
NtRp2886
(dp2887
g74
(dp2888
g94
g95
ssg83
g2882
sg76
(lp2889
S'REMOTE_PORT'
p2890
asbag69
(g90
g71
NtRp2891
(dp2892
g74
(dp2893
g101
g102
ssg83
g2882
sg76
(lp2894
S':'
asbag69
(g90
g71
NtRp2895
(dp2896
g74
(dp2897
sg83
g2882
sg76
(lp2898
g69
(g70
g71
NtRp2899
(dp2900
g74
(dp2901
g82
I3
ssg83
g2895
sg76
(lp2902
g1424
asbasbasbag69
(g85
g71
NtRp2903
(dp2904
g74
(dp2905
sg83
g2647
sg76
(lp2906
g69
(g90
g71
NtRp2907
(dp2908
g74
(dp2909
g94
g95
ssg83
g2903
sg76
(lp2910
S'REQUEST_METHOD'
p2911
asbag69
(g90
g71
NtRp2912
(dp2913
g74
(dp2914
g101
g102
ssg83
g2903
sg76
(lp2915
S':'
asbag69
(g90
g71
NtRp2916
(dp2917
g74
(dp2918
sg83
g2903
sg76
(lp2919
g69
(g70
g71
NtRp2920
(dp2921
g74
(dp2922
g82
I3
ssg83
g2916
sg76
(lp2923
g1446
asbasbasbag69
(g85
g71
NtRp2924
(dp2925
g74
(dp2926
sg83
g2647
sg76
(lp2927
g69
(g90
g71
NtRp2928
(dp2929
g74
(dp2930
g94
g95
ssg83
g2924
sg76
(lp2931
S'REQUEST_URI'
p2932
asbag69
(g90
g71
NtRp2933
(dp2934
g74
(dp2935
g101
g102
ssg83
g2924
sg76
(lp2936
S':'
asbag69
(g90
g71
NtRp2937
(dp2938
g74
(dp2939
sg83
g2924
sg76
(lp2940
g69
(g70
g71
NtRp2941
(dp2942
g74
(dp2943
g82
I3
ssg83
g2937
sg76
(lp2944
g1360
asbasbasbag69
(g85
g71
NtRp2945
(dp2946
g74
(dp2947
sg83
g2647
sg76
(lp2948
g69
(g90
g71
NtRp2949
(dp2950
g74
(dp2951
g94
g95
ssg83
g2945
sg76
(lp2952
S'SCRIPT_NAME'
p2953
asbag69
(g90
g71
NtRp2954
(dp2955
g74
(dp2956
g101
g102
ssg83
g2945
sg76
(lp2957
S':'
asbag69
(g90
g71
NtRp2958
(dp2959
g74
(dp2960
sg83
g2945
sg76
(lp2961
g69
(g70
g71
NtRp2962
(dp2963
g74
(dp2964
g82
I3
ssg83
g2958
sg76
(lp2965
S''
asbasbasbag69
(g85
g71
NtRp2966
(dp2967
g74
(dp2968
sg83
g2647
sg76
(lp2969
g69
(g90
g71
NtRp2970
(dp2971
g74
(dp2972
g94
g95
ssg83
g2966
sg76
(lp2973
S'SERVER_NAME'
p2974
asbag69
(g90
g71
NtRp2975
(dp2976
g74
(dp2977
g101
g102
ssg83
g2966
sg76
(lp2978
S':'
asbag69
(g90
g71
NtRp2979
(dp2980
g74
(dp2981
sg83
g2966
sg76
(lp2982
g69
(g70
g71
NtRp2983
(dp2984
g74
(dp2985
g82
I3
ssg83
g2979
sg76
(lp2986
g1510
asbasbasbag69
(g85
g71
NtRp2987
(dp2988
g74
(dp2989
sg83
g2647
sg76
(lp2990
g69
(g90
g71
NtRp2991
(dp2992
g74
(dp2993
g94
g95
ssg83
g2987
sg76
(lp2994
S'SERVER_PORT'
p2995
asbag69
(g90
g71
NtRp2996
(dp2997
g74
(dp2998
g101
g102
ssg83
g2987
sg76
(lp2999
S':'
asbag69
(g90
g71
NtRp3000
(dp3001
g74
(dp3002
sg83
g2987
sg76
(lp3003
g69
(g70
g71
NtRp3004
(dp3005
g74
(dp3006
g82
I3
ssg83
g3000
sg76
(lp3007
g1532
asbasbasbag69
(g85
g71
NtRp3008
(dp3009
g74
(dp3010
sg83
g2647
sg76
(lp3011
g69
(g90
g71
NtRp3012
(dp3013
g74
(dp3014
g94
g95
ssg83
g3008
sg76
(lp3015
S'SERVER_PROTOCOL'
p3016
asbag69
(g90
g71
NtRp3017
(dp3018
g74
(dp3019
g101
g102
ssg83
g3008
sg76
(lp3020
S':'
asbag69
(g90
g71
NtRp3021
(dp3022
g74
(dp3023
sg83
g3008
sg76
(lp3024
g69
(g70
g71
NtRp3025
(dp3026
g74
(dp3027
g82
I3
ssg83
g3021
sg76
(lp3028
g1554
asbasbasbag69
(g85
g71
NtRp3029
(dp3030
g74
(dp3031
sg83
g2647
sg76
(lp3032
g69
(g90
g71
NtRp3033
(dp3034
g74
(dp3035
g94
g95
ssg83
g3029
sg76
(lp3036
S'SERVER_SOFTWARE'
p3037
asbag69
(g90
g71
NtRp3038
(dp3039
g74
(dp3040
g101
g102
ssg83
g3029
sg76
(lp3041
S':'
asbag69
(g90
g71
NtRp3042
(dp3043
g74
(dp3044
sg83
g3029
sg76
(lp3045
g69
(g70
g71
NtRp3046
(dp3047
g74
(dp3048
g82
I3
ssg83
g3042
sg76
(lp3049
g1576
asbasbasbag69
(g85
g71
NtRp3050
(dp3051
g74
(dp3052
sg83
g2647
sg76
(lp3053
g69
(g90
g71
NtRp3054
(dp3055
g74
(dp3056
g94
g95
ssg83
g3050
sg76
(lp3057
S'wsgi.errors'
p3058
asbag69
(g90
g71
NtRp3059
(dp3060
g74
(dp3061
g101
g102
ssg83
g3050
sg76
(lp3062
S':'
asbag69
(g90
g71
NtRp3063
(dp3064
g74
(dp3065
sg83
g3050
sg76
(lp3066
g69
(g70
g71
NtRp3067
(dp3068
g74
(dp3069
g82
I3
ssg83
g3063
sg76
(lp3070
S"<open file '<stderr>', mode 'w' at 0x7fb3abe8a270>"
p3071
asbasbasbag69
(g85
g71
NtRp3072
(dp3073
g74
(dp3074
sg83
g2647
sg76
(lp3075
g69
(g90
g71
NtRp3076
(dp3077
g74
(dp3078
g94
g95
ssg83
g3072
sg76
(lp3079
S'wsgi.file_wrapper'
p3080
asbag69
(g90
g71
NtRp3081
(dp3082
g74
(dp3083
g101
g102
ssg83
g3072
sg76
(lp3084
S':'
asbag69
(g90
g71
NtRp3085
(dp3086
g74
(dp3087
sg83
g3072
sg76
(lp3088
g69
(g70
g71
NtRp3089
(dp3090
g74
(dp3091
g82
I3
ssg83
g3085
sg76
(lp3092
S'<class wsgiref.util.FileWrapper at 0x1df7b48>'
p3093
asbasbasbag69
(g85
g71
NtRp3094
(dp3095
g74
(dp3096
sg83
g2647
sg76
(lp3097
g69
(g90
g71
NtRp3098
(dp3099
g74
(dp3100
g94
g95
ssg83
g3094
sg76
(lp3101
S'wsgi.input'
p3102
asbag69
(g90
g71
NtRp3103
(dp3104
g74
(dp3105
g101
g102
ssg83
g3094
sg76
(lp3106
S':'
asbag69
(g90
g71
NtRp3107
(dp3108
g74
(dp3109
sg83
g3094
sg76
(lp3110
g69
(g70
g71
NtRp3111
(dp3112
g74
(dp3113
g82
I3
ssg83
g3107
sg76
(lp3114
S'<cStringIO.StringO object at 0x7fb3944e9b90>'
p3115
asbasbasbag69
(g85
g71
NtRp3116
(dp3117
g74
(dp3118
sg83
g2647
sg76
(lp3119
g69
(g90
g71
NtRp3120
(dp3121
g74
(dp3122
g94
g95
ssg83
g3116
sg76
(lp3123
S'wsgi.multiprocess'
p3124
asbag69
(g90
g71
NtRp3125
(dp3126
g74
(dp3127
g101
g102
ssg83
g3116
sg76
(lp3128
S':'
asbag69
(g90
g71
NtRp3129
(dp3130
g74
(dp3131
sg83
g3116
sg76
(lp3132
g69
(g70
g71
NtRp3133
(dp3134
g74
(dp3135
g82
I3
ssg83
g3129
sg76
(lp3136
g112
asbasbasbag69
(g85
g71
NtRp3137
(dp3138
g74
(dp3139
sg83
g2647
sg76
(lp3140
g69
(g90
g71
NtRp3141
(dp3142
g74
(dp3143
g94
g95
ssg83
g3137
sg76
(lp3144
S'wsgi.multithread'
p3145
asbag69
(g90
g71
NtRp3146
(dp3147
g74
(dp3148
g101
g102
ssg83
g3137
sg76
(lp3149
S':'
asbag69
(g90
g71
NtRp3150
(dp3151
g74
(dp3152
sg83
g3137
sg76
(lp3153
g69
(g70
g71
NtRp3154
(dp3155
g74
(dp3156
g82
I3
ssg83
g3150
sg76
(lp3157
g1793
asbasbasbag69
(g85
g71
NtRp3158
(dp3159
g74
(dp3160
sg83
g2647
sg76
(lp3161
g69
(g90
g71
NtRp3162
(dp3163
g74
(dp3164
g94
g95
ssg83
g3158
sg76
(lp3165
S'wsgi.run_once'
p3166
asbag69
(g90
g71
NtRp3167
(dp3168
g74
(dp3169
g101
g102
ssg83
g3158
sg76
(lp3170
S':'
asbag69
(g90
g71
NtRp3171
(dp3172
g74
(dp3173
sg83
g3158
sg76
(lp3174
g69
(g70
g71
NtRp3175
(dp3176
g74
(dp3177
g82
I3
ssg83
g3171
sg76
(lp3178
g112
asbasbasbag69
(g85
g71
NtRp3179
(dp3180
g74
(dp3181
sg83
g2647
sg76
(lp3182
g69
(g90
g71
NtRp3183
(dp3184
g74
(dp3185
g94
g95
ssg83
g3179
sg76
(lp3186
S'wsgi.url_scheme'
p3187
asbag69
(g90
g71
NtRp3188
(dp3189
g74
(dp3190
g101
g102
ssg83
g3179
sg76
(lp3191
S':'
asbag69
(g90
g71
NtRp3192
(dp3193
g74
(dp3194
sg83
g3179
sg76
(lp3195
g69
(g70
g71
NtRp3196
(dp3197
g74
(dp3198
g82
I3
ssg83
g3192
sg76
(lp3199
g1836
asbasbasbag69
(g85
g71
NtRp3200
(dp3201
g74
(dp3202
sg83
g2647
sg76
(lp3203
g69
(g90
g71
NtRp3204
(dp3205
g74
(dp3206
g94
g95
ssg83
g3200
sg76
(lp3207
S'wsgi.version'
p3208
asbag69
(g90
g71
NtRp3209
(dp3210
g74
(dp3211
g101
g102
ssg83
g3200
sg76
(lp3212
S':'
asbag69
(g90
g71
NtRp3213
(dp3214
g74
(dp3215
sg83
g3200
sg76
(lp3216
g69
(g70
g71
NtRp3217
(dp3218
g74
(dp3219
g82
I3
ssg83
g3213
sg76
(lp3220
S'1'
asbasbasbasbasbasbasbasbasbasbasbasbasbsS'frames'
p3221
(lp3222
(dp3223
S'file'
p3224
S'/home/umang/web2py/gluon/restricted.py'
p3225
sS'dump'
p3226
(dp3227
S'code'
p3228
S"'# -*- coding: utf-8 -*-\\n# this file is released ...())\\n\\nresponse._vars=response._caller(first_page)\\n'"
p3229
sS'layer'
p3230
S"'/home/umang/web2py/applications/assignmen3/controllers/default.py'"
p3231
sS'global compile2'
p3232
S'<function compile2>'
p3233
sS'ccode'
p3234
S'undefined'
p3235
ssS'lnum'
p3236
I211
sS'lines'
p3237
(dp3238
I206
S"    environment['__name__'] = '__restricted__'"
p3239
sI207
S'    try:'
p3240
sI208
S'        if isinstance(code, types.CodeType):'
p3241
sI209
S'            ccode = code'
p3242
sI210
S'        else:'
p3243
sI211
S'            ccode = compile2(code, layer)'
p3244
sI212
S'        exec ccode in environment'
p3245
sI213
S'    except HTTP:'
p3246
sI214
S'        raise'
p3247
sI215
S'    except RestrictedError:'
p3248
ssS'call'
p3249
S"(code='# -*- coding: utf-8 -*-\\n# this file is released ...())\\n\\nresponse._vars=response._caller(first_page)\\n', environment={'A': <class 'gluon.html.A'>, 'Auth': <class 'gluon.tools.Auth'>, 'B': <class 'gluon.html.B'>, 'BEAUTIFY': <class 'gluon.html.BEAUTIFY'>, 'BODY': <class 'gluon.html.BODY'>, 'BR': <class 'gluon.html.BR'>, 'BUTTON': <class 'gluon.html.BUTTON'>, 'CAT': <class 'gluon.html.CAT'>, 'CENTER': <class 'gluon.html.CENTER'>, 'CLEANUP': <class 'gluon.validators.CLEANUP'>, ...}, layer='/home/umang/web2py/applications/assignmen3/controllers/default.py')"
p3250
sS'func'
p3251
S'restricted'
p3252
sa(dp3253
g3224
S'/home/umang/web2py/gluon/restricted.py'
p3254
sg3226
(dp3255
S'builtincompile'
p3256
S'<built-in function compile>'
p3257
sS'code'
p3258
S"'# -*- coding: utf-8 -*-\\n# this file is released ...())\\n\\nresponse._vars=response._caller(first_page)\\n'"
p3259
sS'code.rstrip'
p3260
S'<built-in method rstrip of str object>'
p3261
sS').replace'
p3262
g3235
sS'layer'
p3263
S"'/home/umang/web2py/applications/assignmen3/controllers/default.py'"
p3264
ssg3236
I194
sg3237
(dp3265
I192
S"    The +'\\n' is necessary else compile fails when code ends in a comment."
p3266
sI193
S'    """'
p3267
sI194
S"    return compile(code.rstrip().replace('\\r\\n', '\\n') + '\\n', layer, 'exec')"
p3268
sI195
S''
sI196
S''
sI197
S"def restricted(code, environment=None, layer='Unknown'):"
p3269
sI198
S'    """'
p3270
sI189
S''
sI190
S'def compile2(code, layer):'
p3271
sI191
S'    """'
p3272
ssg3249
S"(code='# -*- coding: utf-8 -*-\\n# this file is released ...())\\n\\nresponse._vars=response._caller(first_page)\\n', layer='/home/umang/web2py/applications/assignmen3/controllers/default.py')"
p3273
sg3251
S'compile2'
p3274
sasS'pyver'
p3275
S'Python 2.7.3: /usr/bin/python'
p3276
sS'session'
p3277
g69
(g70
g71
NtRp3278
(dp3279
g74
(dp3280
sg76
(lp3281
g69
(g78
g71
NtRp3282
(dp3283
g74
(dp3284
g82
I5
ssg83
Nsg76
(lp3285
g69
(g85
g71
NtRp3286
(dp3287
g74
(dp3288
sg83
g3282
sg76
(lp3289
g69
(g90
g71
NtRp3290
(dp3291
g74
(dp3292
g94
g95
ssg83
g3286
sg76
(lp3293
S'last_orderby'
p3294
asbag69
(g90
g71
NtRp3295
(dp3296
g74
(dp3297
g101
g102
ssg83
g3286
sg76
(lp3298
S':'
asbag69
(g90
g71
NtRp3299
(dp3300
g74
(dp3301
sg83
g3286
sg76
(lp3302
g69
(g70
g71
NtRp3303
(dp3304
g74
(dp3305
g82
I5
ssg83
g3299
sg76
(lp3306
S'None'
p3307
asbasbasbag69
(g85
g71
NtRp3308
(dp3309
g74
(dp3310
sg83
g3282
sg76
(lp3311
g69
(g90
g71
NtRp3312
(dp3313
g74
(dp3314
g94
g95
ssg83
g3308
sg76
(lp3315
S'last_query'
p3316
asbag69
(g90
g71
NtRp3317
(dp3318
g74
(dp3319
g101
g102
ssg83
g3308
sg76
(lp3320
S':'
asbag69
(g90
g71
NtRp3321
(dp3322
g74
(dp3323
sg83
g3308
sg76
(lp3324
g69
(g70
g71
NtRp3325
(dp3326
g74
(dp3327
g82
I5
ssg83
g3321
sg76
(lp3328
S'db.news.id>0'
p3329
asbasbasbasbasbsS'etype'
p3330
S"<type 'exceptions.SyntaxError'>"
p3331
sS'date'
p3332
S'Tue Aug 27 00:36:41 2013'
p3333
sS'response'
p3334
g69
(g70
g71
NtRp3335
(dp3336
g74
(dp3337
sg76
(lp3338
g69
(g78
g71
NtRp3339
(dp3340
g74
(dp3341
g82
I5
ssg83
Nsg76
(lp3342
g69
(g85
g71
NtRp3343
(dp3344
g74
(dp3345
sg83
g3339
sg76
(lp3346
g69
(g90
g71
NtRp3347
(dp3348
g74
(dp3349
g94
g95
ssg83
g3343
sg76
(lp3350
g179
asbag69
(g90
g71
NtRp3351
(dp3352
g74
(dp3353
g101
g102
ssg83
g3343
sg76
(lp3354
S':'
asbag69
(g90
g71
NtRp3355
(dp3356
g74
(dp3357
sg83
g3343
sg76
(lp3358
g69
(g70
g71
NtRp3359
(dp3360
g74
(dp3361
g82
I5
ssg83
g3355
sg76
(lp3362
S'<cStringIO.StringO object at 0x7fb3944e9ca8>'
p3363
asbasbasbag69
(g85
g71
NtRp3364
(dp3365
g74
(dp3366
sg83
g3339
sg76
(lp3367
g69
(g90
g71
NtRp3368
(dp3369
g74
(dp3370
g94
g95
ssg83
g3364
sg76
(lp3371
g267
asbag69
(g90
g71
NtRp3372
(dp3373
g74
(dp3374
g101
g102
ssg83
g3364
sg76
(lp3375
S':'
asbag69
(g90
g71
NtRp3376
(dp3377
g74
(dp3378
sg83
g3364
sg76
(lp3379
g69
(g70
g71
NtRp3380
(dp3381
g74
(dp3382
g82
I5
ssg83
g3376
sg76
(lp3383
g69
(g78
g71
NtRp3384
(dp3385
g74
(dp3386
g82
I4
ssg83
Nsg76
(lp3387
g69
(g85
g71
NtRp3388
(dp3389
g74
(dp3390
sg83
g3384
sg76
(lp3391
g69
(g90
g71
NtRp3392
(dp3393
g74
(dp3394
g94
g95
ssg83
g3388
sg76
(lp3395
S'session_id_assignmen3'
p3396
asbag69
(g90
g71
NtRp3397
(dp3398
g74
(dp3399
g101
g102
ssg83
g3388
sg76
(lp3400
S':'
asbag69
(g90
g71
NtRp3401
(dp3402
g74
(dp3403
sg83
g3388
sg76
(lp3404
g69
(g70
g71
NtRp3405
(dp3406
g74
(dp3407
g82
I4
ssg83
g3401
sg76
(lp3408
g499
ag69
(g78
g71
NtRp3409
(dp3410
g74
(dp3411
g82
I3
ssg83
Nsg76
(lp3412
g69
(g85
g71
NtRp3413
(dp3414
g74
(dp3415
sg83
g3409
sg76
(lp3416
g69
(g90
g71
NtRp3417
(dp3418
g74
(dp3419
g94
g95
ssg83
g3413
sg76
(lp3420
g318
asbag69
(g90
g71
NtRp3421
(dp3422
g74
(dp3423
g101
g102
ssg83
g3413
sg76
(lp3424
S':'
asbag69
(g90
g71
NtRp3425
(dp3426
g74
(dp3427
sg83
g3413
sg76
(lp3428
g69
(g70
g71
NtRp3429
(dp3430
g74
(dp3431
g82
I3
ssg83
g3425
sg76
(lp3432
S''
asbasbasbag69
(g85
g71
NtRp3433
(dp3434
g74
(dp3435
sg83
g3409
sg76
(lp3436
g69
(g90
g71
NtRp3437
(dp3438
g74
(dp3439
g94
g95
ssg83
g3433
sg76
(lp3440
g339
asbag69
(g90
g71
NtRp3441
(dp3442
g74
(dp3443
g101
g102
ssg83
g3433
sg76
(lp3444
S':'
asbag69
(g90
g71
NtRp3445
(dp3446
g74
(dp3447
sg83
g3433
sg76
(lp3448
g69
(g70
g71
NtRp3449
(dp3450
g74
(dp3451
g82
I3
ssg83
g3445
sg76
(lp3452
S''
asbasbasbag69
(g85
g71
NtRp3453
(dp3454
g74
(dp3455
sg83
g3409
sg76
(lp3456
g69
(g90
g71
NtRp3457
(dp3458
g74
(dp3459
g94
g95
ssg83
g3453
sg76
(lp3460
g360
asbag69
(g90
g71
NtRp3461
(dp3462
g74
(dp3463
g101
g102
ssg83
g3453
sg76
(lp3464
S':'
asbag69
(g90
g71
NtRp3465
(dp3466
g74
(dp3467
sg83
g3453
sg76
(lp3468
g69
(g70
g71
NtRp3469
(dp3470
g74
(dp3471
g82
I3
ssg83
g3465
sg76
(lp3472
S''
asbasbasbag69
(g85
g71
NtRp3473
(dp3474
g74
(dp3475
sg83
g3409
sg76
(lp3476
g69
(g90
g71
NtRp3477
(dp3478
g74
(dp3479
g94
g95
ssg83
g3473
sg76
(lp3480
g381
asbag69
(g90
g71
NtRp3481
(dp3482
g74
(dp3483
g101
g102
ssg83
g3473
sg76
(lp3484
S':'
asbag69
(g90
g71
NtRp3485
(dp3486
g74
(dp3487
sg83
g3473
sg76
(lp3488
g69
(g70
g71
NtRp3489
(dp3490
g74
(dp3491
g82
I3
ssg83
g3485
sg76
(lp3492
S''
asbasbasbag69
(g85
g71
NtRp3493
(dp3494
g74
(dp3495
sg83
g3409
sg76
(lp3496
g69
(g90
g71
NtRp3497
(dp3498
g74
(dp3499
g94
g95
ssg83
g3493
sg76
(lp3500
g402
asbag69
(g90
g71
NtRp3501
(dp3502
g74
(dp3503
g101
g102
ssg83
g3493
sg76
(lp3504
S':'
asbag69
(g90
g71
NtRp3505
(dp3506
g74
(dp3507
sg83
g3493
sg76
(lp3508
g69
(g70
g71
NtRp3509
(dp3510
g74
(dp3511
g82
I3
ssg83
g3505
sg76
(lp3512
S''
asbasbasbag69
(g85
g71
NtRp3513
(dp3514
g74
(dp3515
sg83
g3409
sg76
(lp3516
g69
(g90
g71
NtRp3517
(dp3518
g74
(dp3519
g94
g95
ssg83
g3513
sg76
(lp3520
g423
asbag69
(g90
g71
NtRp3521
(dp3522
g74
(dp3523
g101
g102
ssg83
g3513
sg76
(lp3524
S':'
asbag69
(g90
g71
NtRp3525
(dp3526
g74
(dp3527
sg83
g3513
sg76
(lp3528
g69
(g70
g71
NtRp3529
(dp3530
g74
(dp3531
g82
I3
ssg83
g3525
sg76
(lp3532
S'/'
asbasbasbag69
(g85
g71
NtRp3533
(dp3534
g74
(dp3535
sg83
g3409
sg76
(lp3536
g69
(g90
g71
NtRp3537
(dp3538
g74
(dp3539
g94
g95
ssg83
g3533
sg76
(lp3540
g444
asbag69
(g90
g71
NtRp3541
(dp3542
g74
(dp3543
g101
g102
ssg83
g3533
sg76
(lp3544
S':'
asbag69
(g90
g71
NtRp3545
(dp3546
g74
(dp3547
sg83
g3533
sg76
(lp3548
g69
(g70
g71
NtRp3549
(dp3550
g74
(dp3551
g82
I3
ssg83
g3545
sg76
(lp3552
S''
asbasbasbag69
(g85
g71
NtRp3553
(dp3554
g74
(dp3555
sg83
g3409
sg76
(lp3556
g69
(g90
g71
NtRp3557
(dp3558
g74
(dp3559
g94
g95
ssg83
g3553
sg76
(lp3560
g465
asbag69
(g90
g71
NtRp3561
(dp3562
g74
(dp3563
g101
g102
ssg83
g3553
sg76
(lp3564
S':'
asbag69
(g90
g71
NtRp3565
(dp3566
g74
(dp3567
sg83
g3553
sg76
(lp3568
g69
(g70
g71
NtRp3569
(dp3570
g74
(dp3571
g82
I3
ssg83
g3565
sg76
(lp3572
S''
asbasbasbasbasbasbasbasbasbasbasbag69
(g85
g71
NtRp3573
(dp3574
g74
(dp3575
sg83
g3339
sg76
(lp3576
g69
(g90
g71
NtRp3577
(dp3578
g74
(dp3579
g94
g95
ssg83
g3573
sg76
(lp3580
S'delimiters'
p3581
asbag69
(g90
g71
NtRp3582
(dp3583
g74
(dp3584
g101
g102
ssg83
g3573
sg76
(lp3585
S':'
asbag69
(g90
g71
NtRp3586
(dp3587
g74
(dp3588
sg83
g3573
sg76
(lp3589
g69
(g70
g71
NtRp3590
(dp3591
g74
(dp3592
g82
I5
ssg83
g3586
sg76
(lp3593
g69
(g78
g71
NtRp3594
(dp3595
g74
(dp3596
g82
I4
ssg83
Nsg76
(lp3597
g69
(g85
g71
NtRp3598
(dp3599
g74
(dp3600
sg83
g3594
sg76
(lp3601
g69
(g90
g71
NtRp3602
(dp3603
g74
(dp3604
sg83
g3598
sg76
(lp3605
g69
(g70
g71
NtRp3606
(dp3607
g74
(dp3608
g82
I4
ssg83
g3602
sg76
(lp3609
S'{{'
p3610
asbasbasbag69
(g85
g71
NtRp3611
(dp3612
g74
(dp3613
sg83
g3594
sg76
(lp3614
g69
(g90
g71
NtRp3615
(dp3616
g74
(dp3617
sg83
g3611
sg76
(lp3618
g69
(g70
g71
NtRp3619
(dp3620
g74
(dp3621
g82
I4
ssg83
g3615
sg76
(lp3622
S'}}'
p3623
asbasbasbasbasbasbasbag69
(g85
g71
NtRp3624
(dp3625
g74
(dp3626
sg83
g3339
sg76
(lp3627
g69
(g90
g71
NtRp3628
(dp3629
g74
(dp3630
g94
g95
ssg83
g3624
sg76
(lp3631
S'files'
p3632
asbag69
(g90
g71
NtRp3633
(dp3634
g74
(dp3635
g101
g102
ssg83
g3624
sg76
(lp3636
S':'
asbag69
(g90
g71
NtRp3637
(dp3638
g74
(dp3639
sg83
g3624
sg76
(lp3640
g69
(g70
g71
NtRp3641
(dp3642
g74
(dp3643
g82
I5
ssg83
g3637
sg76
(lp3644
g69
(g78
g71
NtRp3645
(dp3646
g74
(dp3647
g82
I4
ssg83
Nsg76
(lp3648
sbasbasbasbag69
(g85
g71
NtRp3649
(dp3650
g74
(dp3651
sg83
g3339
sg76
(lp3652
g69
(g90
g71
NtRp3653
(dp3654
g74
(dp3655
g94
g95
ssg83
g3649
sg76
(lp3656
S'flash'
p3657
asbag69
(g90
g71
NtRp3658
(dp3659
g74
(dp3660
g101
g102
ssg83
g3649
sg76
(lp3661
S':'
asbag69
(g90
g71
NtRp3662
(dp3663
g74
(dp3664
sg83
g3649
sg76
(lp3665
g69
(g70
g71
NtRp3666
(dp3667
g74
(dp3668
g82
I5
ssg83
g3662
sg76
(lp3669
S''
asbasbasbag69
(g85
g71
NtRp3670
(dp3671
g74
(dp3672
sg83
g3339
sg76
(lp3673
g69
(g90
g71
NtRp3674
(dp3675
g74
(dp3676
g94
g95
ssg83
g3670
sg76
(lp3677
S'generic_patterns'
p3678
asbag69
(g90
g71
NtRp3679
(dp3680
g74
(dp3681
g101
g102
ssg83
g3670
sg76
(lp3682
S':'
asbag69
(g90
g71
NtRp3683
(dp3684
g74
(dp3685
sg83
g3670
sg76
(lp3686
g69
(g70
g71
NtRp3687
(dp3688
g74
(dp3689
g82
I5
ssg83
g3683
sg76
(lp3690
g69
(g78
g71
NtRp3691
(dp3692
g74
(dp3693
g82
I4
ssg83
Nsg76
(lp3694
g69
(g85
g71
NtRp3695
(dp3696
g74
(dp3697
sg83
g3691
sg76
(lp3698
g69
(g90
g71
NtRp3699
(dp3700
g74
(dp3701
sg83
g3695
sg76
(lp3702
g69
(g70
g71
NtRp3703
(dp3704
g74
(dp3705
g82
I4
ssg83
g3699
sg76
(lp3706
S'*'
asbasbasbasbasbasbasbag69
(g85
g71
NtRp3707
(dp3708
g74
(dp3709
sg83
g3339
sg76
(lp3710
g69
(g90
g71
NtRp3711
(dp3712
g74
(dp3713
g94
g95
ssg83
g3707
sg76
(lp3714
S'google_analytics_id'
p3715
asbag69
(g90
g71
NtRp3716
(dp3717
g74
(dp3718
g101
g102
ssg83
g3707
sg76
(lp3719
S':'
asbag69
(g90
g71
NtRp3720
(dp3721
g74
(dp3722
sg83
g3707
sg76
(lp3723
g69
(g70
g71
NtRp3724
(dp3725
g74
(dp3726
g82
I5
ssg83
g3720
sg76
(lp3727
S'None'
p3728
asbasbasbag69
(g85
g71
NtRp3729
(dp3730
g74
(dp3731
sg83
g3339
sg76
(lp3732
g69
(g90
g71
NtRp3733
(dp3734
g74
(dp3735
g94
g95
ssg83
g3729
sg76
(lp3736
S'headers'
p3737
asbag69
(g90
g71
NtRp3738
(dp3739
g74
(dp3740
g101
g102
ssg83
g3729
sg76
(lp3741
S':'
asbag69
(g90
g71
NtRp3742
(dp3743
g74
(dp3744
sg83
g3729
sg76
(lp3745
g69
(g70
g71
NtRp3746
(dp3747
g74
(dp3748
g82
I5
ssg83
g3742
sg76
(lp3749
g69
(g78
g71
NtRp3750
(dp3751
g74
(dp3752
g82
I4
ssg83
Nsg76
(lp3753
g69
(g85
g71
NtRp3754
(dp3755
g74
(dp3756
sg83
g3750
sg76
(lp3757
g69
(g90
g71
NtRp3758
(dp3759
g74
(dp3760
g94
g95
ssg83
g3754
sg76
(lp3761
S'X-Powered-By'
p3762
asbag69
(g90
g71
NtRp3763
(dp3764
g74
(dp3765
g101
g102
ssg83
g3754
sg76
(lp3766
S':'
asbag69
(g90
g71
NtRp3767
(dp3768
g74
(dp3769
sg83
g3754
sg76
(lp3770
g69
(g70
g71
NtRp3771
(dp3772
g74
(dp3773
g82
I4
ssg83
g3767
sg76
(lp3774
S'web2py'
p3775
asbasbasbasbasbasbasbag69
(g85
g71
NtRp3776
(dp3777
g74
(dp3778
sg83
g3339
sg76
(lp3779
g69
(g90
g71
NtRp3780
(dp3781
g74
(dp3782
g94
g95
ssg83
g3776
sg76
(lp3783
S'logo'
p3784
asbag69
(g90
g71
NtRp3785
(dp3786
g74
(dp3787
g101
g102
ssg83
g3776
sg76
(lp3788
S':'
asbag69
(g90
g71
NtRp3789
(dp3790
g74
(dp3791
sg83
g3776
sg76
(lp3792
g69
(g70
g71
NtRp3793
(dp3794
g74
(dp3795
g82
I5
ssg83
g3789
sg76
(lp3796
g69
(cgluon.html
A
p3797
g71
NtRp3798
(dp3799
g74
(dp3800
S'_class'
p3801
S'brand'
p3802
sS'_href'
p3803
S'http://www.web2py.com/'
p3804
ssg83
Nsg76
(lp3805
g69
(cgluon.html
B
p3806
g71
NtRp3807
(dp3808
g74
(dp3809
sg83
g3798
sg76
(lp3810
S'web'
p3811
ag69
(cgluon.html
SPAN
p3812
g71
NtRp3813
(dp3814
g74
(dp3815
sg83
g3807
sg76
(lp3816
I2
asbaS'py'
p3817
asbacgluon.html
XML_unpickle
p3818
(S's\r\x00\x00\x00&trade;&nbsp;'
tRp3819
asbasbasbasbag69
(g85
g71
NtRp3820
(dp3821
g74
(dp3822
sg83
g3339
sg76
(lp3823
g69
(g90
g71
NtRp3824
(dp3825
g74
(dp3826
g94
g95
ssg83
g3820
sg76
(lp3827
S'menu'
p3828
asbag69
(g90
g71
NtRp3829
(dp3830
g74
(dp3831
g101
g102
ssg83
g3820
sg76
(lp3832
S':'
asbag69
(g90
g71
NtRp3833
(dp3834
g74
(dp3835
sg83
g3820
sg76
(lp3836
g69
(g70
g71
NtRp3837
(dp3838
g74
(dp3839
g82
I5
ssg83
g3833
sg76
(lp3840
g69
(g78
g71
NtRp3841
(dp3842
g74
(dp3843
g82
I4
ssg83
Nsg76
(lp3844
g69
(g85
g71
NtRp3845
(dp3846
g74
(dp3847
sg83
g3841
sg76
(lp3848
g69
(g90
g71
NtRp3849
(dp3850
g74
(dp3851
sg83
g3845
sg76
(lp3852
g69
(g70
g71
NtRp3853
(dp3854
g74
(dp3855
g82
I4
ssg83
g3849
sg76
(lp3856
g69
(g78
g71
NtRp3857
(dp3858
g74
(dp3859
g82
I3
ssg83
Nsg76
(lp3860
g69
(g85
g71
NtRp3861
(dp3862
g74
(dp3863
sg83
g3857
sg76
(lp3864
g69
(g90
g71
NtRp3865
(dp3866
g74
(dp3867
sg83
g3861
sg76
(lp3868
g69
(g70
g71
NtRp3869
(dp3870
g74
(dp3871
g82
I3
ssg83
g3865
sg76
(lp3872
cgluon.languages
lazyT_unpickle
p3873
(S's\x04\x00\x00\x00Home'
tRp3874
asbasbasbag69
(g85
g71
NtRp3875
(dp3876
g74
(dp3877
sg83
g3857
sg76
(lp3878
g69
(g90
g71
NtRp3879
(dp3880
g74
(dp3881
sg83
g3875
sg76
(lp3882
g69
(g70
g71
NtRp3883
(dp3884
g74
(dp3885
g82
I3
ssg83
g3879
sg76
(lp3886
g112
asbasbasbag69
(g85
g71
NtRp3887
(dp3888
g74
(dp3889
sg83
g3857
sg76
(lp3890
g69
(g90
g71
NtRp3891
(dp3892
g74
(dp3893
sg83
g3887
sg76
(lp3894
g69
(g70
g71
NtRp3895
(dp3896
g74
(dp3897
g82
I3
ssg83
g3891
sg76
(lp3898
S'/assignmen3/default/index'
p3899
asbasbasbag69
(g85
g71
NtRp3900
(dp3901
g74
(dp3902
sg83
g3857
sg76
(lp3903
g69
(g90
g71
NtRp3904
(dp3905
g74
(dp3906
sg83
g3900
sg76
(lp3907
g69
(g70
g71
NtRp3908
(dp3909
g74
(dp3910
g82
I3
ssg83
g3904
sg76
(lp3911
g69
(g78
g71
NtRp3912
(dp3913
g74
(dp3914
g82
I2
ssg83
Nsg76
(lp3915
sbasbasbasbasbasbasbasbag69
(g85
g71
NtRp3916
(dp3917
g74
(dp3918
sg83
g3841
sg76
(lp3919
g69
(g90
g71
NtRp3920
(dp3921
g74
(dp3922
sg83
g3916
sg76
(lp3923
g69
(g70
g71
NtRp3924
(dp3925
g74
(dp3926
g82
I4
ssg83
g3920
sg76
(lp3927
g69
(g78
g71
NtRp3928
(dp3929
g74
(dp3930
g82
I3
ssg83
Nsg76
(lp3931
g69
(g85
g71
NtRp3932
(dp3933
g74
(dp3934
sg83
g3928
sg76
(lp3935
g69
(g90
g71
NtRp3936
(dp3937
g74
(dp3938
sg83
g3932
sg76
(lp3939
g69
(g70
g71
NtRp3940
(dp3941
g74
(dp3942
g82
I3
ssg83
g3936
sg76
(lp3943
g69
(g3812
g71
NtRp3944
(dp3945
g74
(dp3946
g3801
S'highlighted'
p3947
ssg83
Nsg76
(lp3948
g3775
asbasbasbasbag69
(g85
g71
NtRp3949
(dp3950
g74
(dp3951
sg83
g3928
sg76
(lp3952
g69
(g90
g71
NtRp3953
(dp3954
g74
(dp3955
sg83
g3949
sg76
(lp3956
g69
(g70
g71
NtRp3957
(dp3958
g74
(dp3959
g82
I3
ssg83
g3953
sg76
(lp3960
g112
asbasbasbag69
(g85
g71
NtRp3961
(dp3962
g74
(dp3963
sg83
g3928
sg76
(lp3964
g69
(g90
g71
NtRp3965
(dp3966
g74
(dp3967
sg83
g3961
sg76
(lp3968
g69
(g70
g71
NtRp3969
(dp3970
g74
(dp3971
g82
I3
ssg83
g3965
sg76
(lp3972
S'http://web2py.com'
p3973
asbasbasbag69
(g85
g71
NtRp3974
(dp3975
g74
(dp3976
sg83
g3928
sg76
(lp3977
g69
(g90
g71
NtRp3978
(dp3979
g74
(dp3980
sg83
g3974
sg76
(lp3981
g69
(g70
g71
NtRp3982
(dp3983
g74
(dp3984
g82
I3
ssg83
g3978
sg76
(lp3985
g69
(g78
g71
NtRp3986
(dp3987
g74
(dp3988
g82
I2
ssg83
Nsg76
(lp3989
g69
(g85
g71
NtRp3990
(dp3991
g74
(dp3992
sg83
g3986
sg76
(lp3993
g69
(g90
g71
NtRp3994
(dp3995
g74
(dp3996
sg83
g3990
sg76
(lp3997
g69
(g70
g71
NtRp3998
(dp3999
g74
(dp4000
g82
I2
ssg83
g3994
sg76
(lp4001
g69
(g78
g71
NtRp4002
(dp4003
g74
(dp4004
g82
I1
ssg83
Nsg76
(lp4005
g69
(g85
g71
NtRp4006
(dp4007
g74
(dp4008
sg83
g4002
sg76
(lp4009
g69
(g90
g71
NtRp4010
(dp4011
g74
(dp4012
sg83
g4006
sg76
(lp4013
g69
(g70
g71
NtRp4014
(dp4015
g74
(dp4016
g82
I1
ssg83
g4010
sg76
(lp4017
g3873
(S's\x08\x00\x00\x00My Sites'
tRp4018
asbasbasbag69
(g85
g71
NtRp4019
(dp4020
g74
(dp4021
sg83
g4002
sg76
(lp4022
g69
(g90
g71
NtRp4023
(dp4024
g74
(dp4025
sg83
g4019
sg76
(lp4026
g69
(g70
g71
NtRp4027
(dp4028
g74
(dp4029
g82
I1
ssg83
g4023
sg76
(lp4030
I00
asbasbasbag69
(g85
g71
NtRp4031
(dp4032
g74
(dp4033
sg83
g4002
sg76
(lp4034
g69
(g90
g71
NtRp4035
(dp4036
g74
(dp4037
sg83
g4031
sg76
(lp4038
g69
(g70
g71
NtRp4039
(dp4040
g74
(dp4041
g82
I1
ssg83
g4035
sg76
(lp4042
S'/admin/default/site'
p4043
asbasbasbasbasbasbasbag69
(g85
g71
NtRp4044
(dp4045
g74
(dp4046
sg83
g3986
sg76
(lp4047
g69
(g90
g71
NtRp4048
(dp4049
g74
(dp4050
sg83
g4044
sg76
(lp4051
g69
(g70
g71
NtRp4052
(dp4053
g74
(dp4054
g82
I2
ssg83
g4048
sg76
(lp4055
g69
(g78
g71
NtRp4056
(dp4057
g74
(dp4058
g82
I1
ssg83
Nsg76
(lp4059
g69
(g85
g71
NtRp4060
(dp4061
g74
(dp4062
sg83
g4056
sg76
(lp4063
g69
(g90
g71
NtRp4064
(dp4065
g74
(dp4066
sg83
g4060
sg76
(lp4067
g69
(g70
g71
NtRp4068
(dp4069
g74
(dp4070
g82
I1
ssg83
g4064
sg76
(lp4071
g3873
(S's\x08\x00\x00\x00This App'
tRp4072
asbasbasbag69
(g85
g71
NtRp4073
(dp4074
g74
(dp4075
sg83
g4056
sg76
(lp4076
g69
(g90
g71
NtRp4077
(dp4078
g74
(dp4079
sg83
g4073
sg76
(lp4080
g69
(g70
g71
NtRp4081
(dp4082
g74
(dp4083
g82
I1
ssg83
g4077
sg76
(lp4084
I00
asbasbasbag69
(g85
g71
NtRp4085
(dp4086
g74
(dp4087
sg83
g4056
sg76
(lp4088
g69
(g90
g71
NtRp4089
(dp4090
g74
(dp4091
sg83
g4085
sg76
(lp4092
g69
(g70
g71
NtRp4093
(dp4094
g74
(dp4095
g82
I1
ssg83
g4089
sg76
(lp4096
S'/admin/default/design/assignmen3'
p4097
asbasbasbag69
(g85
g71
NtRp4098
(dp4099
g74
(dp4100
sg83
g4056
sg76
(lp4101
g69
(g90
g71
NtRp4102
(dp4103
g74
(dp4104
sg83
g4098
sg76
(lp4105
g69
(g70
g71
NtRp4106
(dp4107
g74
(dp4108
g82
I1
ssg83
g4102
sg76
(lp4109
(lp4110
(g3873
(S's\n\x00\x00\x00Controller'
tRp4111
I00
S'/admin/default/edit/assignmen3/controllers/default.py'
tp4112
a(g3873
(S's\x04\x00\x00\x00View'
tRp4113
I00
S'/admin/default/edit/assignmen3/views/default/first_page.html'
tp4114
a(g3873
(S's\x06\x00\x00\x00Layout'
tRp4115
I00
S'/admin/default/edit/assignmen3/views/layout.html'
tp4116
a(g3873
(S's\n\x00\x00\x00Stylesheet'
tRp4117
I00
S'/admin/default/edit/assignmen3/static/css/web2py.css'
tp4118
a(g3873
(S's\x08\x00\x00\x00DB Model'
tRp4119
I00
S'/admin/default/edit/assignmen3/models/db.py'
tp4120
a(g3873
(S's\n\x00\x00\x00Menu Model'
tRp4121
I00
S'/admin/default/edit/assignmen3/models/menu.py'
tp4122
a(g3873
(S's\x08\x00\x00\x00Database'
tRp4123
I00
S'/assignmen3/appadmin/index'
tp4124
a(g3873
(S's\x06\x00\x00\x00Errors'
tRp4125
I00
S'/admin/default/errors/assignmen3'
tp4126
a(g3873
(S's\x05\x00\x00\x00About'
tRp4127
I00
S'/admin/default/about/assignmen3'
tp4128
aasbasbasbasbasbasbasbag69
(g85
g71
NtRp4129
(dp4130
g74
(dp4131
sg83
g3986
sg76
(lp4132
g69
(g90
g71
NtRp4133
(dp4134
g74
(dp4135
sg83
g4129
sg76
(lp4136
g69
(g70
g71
NtRp4137
(dp4138
g74
(dp4139
g82
I2
ssg83
g4133
sg76
(lp4140
g69
(g78
g71
NtRp4141
(dp4142
g74
(dp4143
g82
I1
ssg83
Nsg76
(lp4144
g69
(g85
g71
NtRp4145
(dp4146
g74
(dp4147
sg83
g4141
sg76
(lp4148
g69
(g90
g71
NtRp4149
(dp4150
g74
(dp4151
sg83
g4145
sg76
(lp4152
g69
(g70
g71
NtRp4153
(dp4154
g74
(dp4155
g82
I1
ssg83
g4149
sg76
(lp4156
S'web2py.com'
p4157
asbasbasbag69
(g85
g71
NtRp4158
(dp4159
g74
(dp4160
sg83
g4141
sg76
(lp4161
g69
(g90
g71
NtRp4162
(dp4163
g74
(dp4164
sg83
g4158
sg76
(lp4165
g69
(g70
g71
NtRp4166
(dp4167
g74
(dp4168
g82
I1
ssg83
g4162
sg76
(lp4169
I00
asbasbasbag69
(g85
g71
NtRp4170
(dp4171
g74
(dp4172
sg83
g4141
sg76
(lp4173
g69
(g90
g71
NtRp4174
(dp4175
g74
(dp4176
sg83
g4170
sg76
(lp4177
g69
(g70
g71
NtRp4178
(dp4179
g74
(dp4180
g82
I1
ssg83
g4174
sg76
(lp4181
S'http://www.web2py.com'
p4182
asbasbasbag69
(g85
g71
NtRp4183
(dp4184
g74
(dp4185
sg83
g4141
sg76
(lp4186
g69
(g90
g71
NtRp4187
(dp4188
g74
(dp4189
sg83
g4183
sg76
(lp4190
g69
(g70
g71
NtRp4191
(dp4192
g74
(dp4193
g82
I1
ssg83
g4187
sg76
(lp4194
(lp4195
(g3873
(S's\x08\x00\x00\x00Download'
tRp4196
I00
S'http://www.web2py.com/examples/default/download'
p4197
tp4198
a(g3873
(S's\x07\x00\x00\x00Support'
tRp4199
I00
S'http://www.web2py.com/examples/default/support'
p4200
tp4201
a(g3873
(S's\x04\x00\x00\x00Demo'
tRp4202
I00
S'http://web2py.com/demo_admin'
p4203
tp4204
a(g3873
(S's\x0e\x00\x00\x00Quick Examples'
tRp4205
I00
S'http://web2py.com/examples/default/examples'
p4206
tp4207
a(g3873
(S's\x03\x00\x00\x00FAQ'
tRp4208
I00
S'http://web2py.com/AlterEgo'
p4209
tp4210
a(g3873
(S's\x06\x00\x00\x00Videos'
tRp4211
I00
S'http://www.web2py.com/examples/default/videos/'
p4212
tp4213
a(g3873
(S's\x11\x00\x00\x00Free Applications'
tRp4214
I00
S'http://web2py.com/appliances'
p4215
tp4216
a(g3873
(S's\x07\x00\x00\x00Plugins'
tRp4217
I00
S'http://web2py.com/plugins'
p4218
tp4219
a(g3873
(S's\x07\x00\x00\x00Layouts'
tRp4220
I00
S'http://web2py.com/layouts'
p4221
tp4222
a(g3873
(S's\x07\x00\x00\x00Recipes'
tRp4223
I00
S'http://web2pyslices.com/'
p4224
tp4225
a(g3873
(S's\x08\x00\x00\x00Semantic'
tRp4226
I00
S'http://web2py.com/semantic'
p4227
tp4228
aasbasbasbasbasbasbasbag69
(g85
g71
NtRp4229
(dp4230
g74
(dp4231
sg83
g3986
sg76
(lp4232
g69
(g90
g71
NtRp4233
(dp4234
g74
(dp4235
sg83
g4229
sg76
(lp4236
g69
(g70
g71
NtRp4237
(dp4238
g74
(dp4239
g82
I2
ssg83
g4233
sg76
(lp4240
g69
(g78
g71
NtRp4241
(dp4242
g74
(dp4243
g82
I1
ssg83
Nsg76
(lp4244
g69
(g85
g71
NtRp4245
(dp4246
g74
(dp4247
sg83
g4241
sg76
(lp4248
g69
(g90
g71
NtRp4249
(dp4250
g74
(dp4251
sg83
g4245
sg76
(lp4252
g69
(g70
g71
NtRp4253
(dp4254
g74
(dp4255
g82
I1
ssg83
g4249
sg76
(lp4256
g3873
(S's\r\x00\x00\x00Documentation'
tRp4257
asbasbasbag69
(g85
g71
NtRp4258
(dp4259
g74
(dp4260
sg83
g4241
sg76
(lp4261
g69
(g90
g71
NtRp4262
(dp4263
g74
(dp4264
sg83
g4258
sg76
(lp4265
g69
(g70
g71
NtRp4266
(dp4267
g74
(dp4268
g82
I1
ssg83
g4262
sg76
(lp4269
I00
asbasbasbag69
(g85
g71
NtRp4270
(dp4271
g74
(dp4272
sg83
g4241
sg76
(lp4273
g69
(g90
g71
NtRp4274
(dp4275
g74
(dp4276
sg83
g4270
sg76
(lp4277
g69
(g70
g71
NtRp4278
(dp4279
g74
(dp4280
g82
I1
ssg83
g4274
sg76
(lp4281
S'http://www.web2py.com/book'
p4282
asbasbasbag69
(g85
g71
NtRp4283
(dp4284
g74
(dp4285
sg83
g4241
sg76
(lp4286
g69
(g90
g71
NtRp4287
(dp4288
g74
(dp4289
sg83
g4283
sg76
(lp4290
g69
(g70
g71
NtRp4291
(dp4292
g74
(dp4293
g82
I1
ssg83
g4287
sg76
(lp4294
(lp4295
(g3873
(S's\x07\x00\x00\x00Preface'
tRp4296
I00
S'http://www.web2py.com/book/default/chapter/00'
p4297
tp4298
a(g3873
(S's\x0c\x00\x00\x00Introduction'
tRp4299
I00
S'http://www.web2py.com/book/default/chapter/01'
p4300
tp4301
a(g3873
(S's\x06\x00\x00\x00Python'
tRp4302
I00
S'http://www.web2py.com/book/default/chapter/02'
p4303
tp4304
a(g3873
(S's\x08\x00\x00\x00Overview'
tRp4305
I00
S'http://www.web2py.com/book/default/chapter/03'
p4306
tp4307
a(g3873
(S's\x08\x00\x00\x00The Core'
tRp4308
I00
S'http://www.web2py.com/book/default/chapter/04'
p4309
tp4310
a(g3873
(S's\t\x00\x00\x00The Views'
tRp4311
I00
S'http://www.web2py.com/book/default/chapter/05'
p4312
tp4313
a(g3873
(S's\x08\x00\x00\x00Database'
tRp4314
I00
S'http://www.web2py.com/book/default/chapter/06'
p4315
tp4316
a(g3873
(S's\x14\x00\x00\x00Forms and Validators'
tRp4317
I00
S'http://www.web2py.com/book/default/chapter/07'
p4318
tp4319
a(g3873
(S's\r\x00\x00\x00Email and SMS'
tRp4320
I00
S'http://www.web2py.com/book/default/chapter/08'
p4321
tp4322
a(g3873
(S's\x0e\x00\x00\x00Access Control'
tRp4323
I00
S'http://www.web2py.com/book/default/chapter/09'
p4324
tp4325
a(g3873
(S's\x08\x00\x00\x00Services'
tRp4326
I00
S'http://www.web2py.com/book/default/chapter/10'
p4327
tp4328
a(g3873
(S's\x0c\x00\x00\x00Ajax Recipes'
tRp4329
I00
S'http://www.web2py.com/book/default/chapter/11'
p4330
tp4331
a(g3873
(S's\x16\x00\x00\x00Components and Plugins'
tRp4332
I00
S'http://www.web2py.com/book/default/chapter/12'
p4333
tp4334
a(g3873
(S's\x12\x00\x00\x00Deployment Recipes'
tRp4335
I00
S'http://www.web2py.com/book/default/chapter/13'
p4336
tp4337
a(g3873
(S's\r\x00\x00\x00Other Recipes'
tRp4338
I00
S'http://www.web2py.com/book/default/chapter/14'
p4339
tp4340
a(g3873
(S's\r\x00\x00\x00Buy this book'
tRp4341
I00
S'http://stores.lulu.com/web2py'
p4342
tp4343
aasbasbasbasbasbasbasbag69
(g85
g71
NtRp4344
(dp4345
g74
(dp4346
sg83
g3986
sg76
(lp4347
g69
(g90
g71
NtRp4348
(dp4349
g74
(dp4350
sg83
g4344
sg76
(lp4351
g69
(g70
g71
NtRp4352
(dp4353
g74
(dp4354
g82
I2
ssg83
g4348
sg76
(lp4355
g69
(g78
g71
NtRp4356
(dp4357
g74
(dp4358
g82
I1
ssg83
Nsg76
(lp4359
g69
(g85
g71
NtRp4360
(dp4361
g74
(dp4362
sg83
g4356
sg76
(lp4363
g69
(g90
g71
NtRp4364
(dp4365
g74
(dp4366
sg83
g4360
sg76
(lp4367
g69
(g70
g71
NtRp4368
(dp4369
g74
(dp4370
g82
I1
ssg83
g4364
sg76
(lp4371
g3873
(S's\t\x00\x00\x00Community'
tRp4372
asbasbasbag69
(g85
g71
NtRp4373
(dp4374
g74
(dp4375
sg83
g4356
sg76
(lp4376
g69
(g90
g71
NtRp4377
(dp4378
g74
(dp4379
sg83
g4373
sg76
(lp4380
g69
(g70
g71
NtRp4381
(dp4382
g74
(dp4383
g82
I1
ssg83
g4377
sg76
(lp4384
I00
asbasbasbag69
(g85
g71
NtRp4385
(dp4386
g74
(dp4387
sg83
g4356
sg76
(lp4388
g69
(g90
g71
NtRp4389
(dp4390
g74
(dp4391
sg83
g4385
sg76
(lp4392
g69
(g70
g71
NtRp4393
(dp4394
g74
(dp4395
g82
I1
ssg83
g4389
sg76
(lp4396
Nasbasbasbag69
(g85
g71
NtRp4397
(dp4398
g74
(dp4399
sg83
g4356
sg76
(lp4400
g69
(g90
g71
NtRp4401
(dp4402
g74
(dp4403
sg83
g4397
sg76
(lp4404
g69
(g70
g71
NtRp4405
(dp4406
g74
(dp4407
g82
I1
ssg83
g4401
sg76
(lp4408
(lp4409
(g3873
(S's\x06\x00\x00\x00Groups'
tRp4410
I00
S'http://www.web2py.com/examples/default/usergroups'
p4411
tp4412
a(g3873
(S's\x07\x00\x00\x00Twitter'
tRp4413
I00
S'http://twitter.com/web2py'
p4414
tp4415
a(g3873
(S's\t\x00\x00\x00Live Chat'
tRp4416
I00
S'http://webchat.freenode.net/?channels=web2py'
p4417
tp4418
aasbasbasbasbasbasbasbag69
(g85
g71
NtRp4419
(dp4420
g74
(dp4421
sg83
g3986
sg76
(lp4422
g69
(g90
g71
NtRp4423
(dp4424
g74
(dp4425
sg83
g4419
sg76
(lp4426
g69
(g70
g71
NtRp4427
(dp4428
g74
(dp4429
g82
I2
ssg83
g4423
sg76
(lp4430
g69
(g78
g71
NtRp4431
(dp4432
g74
(dp4433
g82
I1
ssg83
Nsg76
(lp4434
g69
(g85
g71
NtRp4435
(dp4436
g74
(dp4437
sg83
g4431
sg76
(lp4438
g69
(g90
g71
NtRp4439
(dp4440
g74
(dp4441
sg83
g4435
sg76
(lp4442
g69
(g70
g71
NtRp4443
(dp4444
g74
(dp4445
g82
I1
ssg83
g4439
sg76
(lp4446
g3873
(S's\x07\x00\x00\x00Plugins'
tRp4447
asbasbasbag69
(g85
g71
NtRp4448
(dp4449
g74
(dp4450
sg83
g4431
sg76
(lp4451
g69
(g90
g71
NtRp4452
(dp4453
g74
(dp4454
sg83
g4448
sg76
(lp4455
g69
(g70
g71
NtRp4456
(dp4457
g74
(dp4458
g82
I1
ssg83
g4452
sg76
(lp4459
I00
asbasbasbag69
(g85
g71
NtRp4460
(dp4461
g74
(dp4462
sg83
g4431
sg76
(lp4463
g69
(g90
g71
NtRp4464
(dp4465
g74
(dp4466
sg83
g4460
sg76
(lp4467
g69
(g70
g71
NtRp4468
(dp4469
g74
(dp4470
g82
I1
ssg83
g4464
sg76
(lp4471
Nasbasbasbag69
(g85
g71
NtRp4472
(dp4473
g74
(dp4474
sg83
g4431
sg76
(lp4475
g69
(g90
g71
NtRp4476
(dp4477
g74
(dp4478
sg83
g4472
sg76
(lp4479
g69
(g70
g71
NtRp4480
(dp4481
g74
(dp4482
g82
I1
ssg83
g4476
sg76
(lp4483
(lp4484
(S'plugin_wiki'
p4485
I00
S'http://web2py.com/examples/default/download'
p4486
tp4487
a(g3873
(S's\r\x00\x00\x00Other Plugins'
tRp4488
I00
g4218
tp4489
a(g3873
(S's\x0e\x00\x00\x00Layout Plugins'
tRp4490
I00
g4221
tp4491
aasbasbasbasbasbasbasbasbasbasbasbasbasbasbasbasbasbasbasbag69
(g85
g71
NtRp4492
(dp4493
g74
(dp4494
sg83
g3339
sg76
(lp4495
g69
(g90
g71
NtRp4496
(dp4497
g74
(dp4498
g94
g95
ssg83
g4492
sg76
(lp4499
S'meta'
p4500
asbag69
(g90
g71
NtRp4501
(dp4502
g74
(dp4503
g101
g102
ssg83
g4492
sg76
(lp4504
S':'
asbag69
(g90
g71
NtRp4505
(dp4506
g74
(dp4507
sg83
g4492
sg76
(lp4508
g69
(g70
g71
NtRp4509
(dp4510
g74
(dp4511
g82
I5
ssg83
g4505
sg76
(lp4512
g69
(g78
g71
NtRp4513
(dp4514
g74
(dp4515
g82
I4
ssg83
Nsg76
(lp4516
g69
(g85
g71
NtRp4517
(dp4518
g74
(dp4519
sg83
g4513
sg76
(lp4520
g69
(g90
g71
NtRp4521
(dp4522
g74
(dp4523
g94
g95
ssg83
g4517
sg76
(lp4524
S'author'
p4525
asbag69
(g90
g71
NtRp4526
(dp4527
g74
(dp4528
g101
g102
ssg83
g4517
sg76
(lp4529
S':'
asbag69
(g90
g71
NtRp4530
(dp4531
g74
(dp4532
sg83
g4517
sg76
(lp4533
g69
(g70
g71
NtRp4534
(dp4535
g74
(dp4536
g82
I4
ssg83
g4530
sg76
(lp4537
S'Your Name <you@example.com>'
p4538
asbasbasbag69
(g85
g71
NtRp4539
(dp4540
g74
(dp4541
sg83
g4513
sg76
(lp4542
g69
(g90
g71
NtRp4543
(dp4544
g74
(dp4545
g94
g95
ssg83
g4539
sg76
(lp4546
S'description'
p4547
asbag69
(g90
g71
NtRp4548
(dp4549
g74
(dp4550
g101
g102
ssg83
g4539
sg76
(lp4551
S':'
asbag69
(g90
g71
NtRp4552
(dp4553
g74
(dp4554
sg83
g4539
sg76
(lp4555
g69
(g70
g71
NtRp4556
(dp4557
g74
(dp4558
g82
I4
ssg83
g4552
sg76
(lp4559
S'a cool new app'
p4560
asbasbasbag69
(g85
g71
NtRp4561
(dp4562
g74
(dp4563
sg83
g4513
sg76
(lp4564
g69
(g90
g71
NtRp4565
(dp4566
g74
(dp4567
g94
g95
ssg83
g4561
sg76
(lp4568
S'generator'
p4569
asbag69
(g90
g71
NtRp4570
(dp4571
g74
(dp4572
g101
g102
ssg83
g4561
sg76
(lp4573
S':'
asbag69
(g90
g71
NtRp4574
(dp4575
g74
(dp4576
sg83
g4561
sg76
(lp4577
g69
(g70
g71
NtRp4578
(dp4579
g74
(dp4580
g82
I4
ssg83
g4574
sg76
(lp4581
S'Web2py Web Framework'
p4582
asbasbasbag69
(g85
g71
NtRp4583
(dp4584
g74
(dp4585
sg83
g4513
sg76
(lp4586
g69
(g90
g71
NtRp4587
(dp4588
g74
(dp4589
g94
g95
ssg83
g4583
sg76
(lp4590
S'keywords'
p4591
asbag69
(g90
g71
NtRp4592
(dp4593
g74
(dp4594
g101
g102
ssg83
g4583
sg76
(lp4595
S':'
asbag69
(g90
g71
NtRp4596
(dp4597
g74
(dp4598
sg83
g4583
sg76
(lp4599
g69
(g70
g71
NtRp4600
(dp4601
g74
(dp4602
g82
I4
ssg83
g4596
sg76
(lp4603
S'web2py, python, framework'
p4604
asbasbasbasbasbasbasbag69
(g85
g71
NtRp4605
(dp4606
g74
(dp4607
sg83
g3339
sg76
(lp4608
g69
(g90
g71
NtRp4609
(dp4610
g74
(dp4611
g94
g95
ssg83
g4605
sg76
(lp4612
S'models_to_run'
p4613
asbag69
(g90
g71
NtRp4614
(dp4615
g74
(dp4616
g101
g102
ssg83
g4605
sg76
(lp4617
S':'
asbag69
(g90
g71
NtRp4618
(dp4619
g74
(dp4620
sg83
g4605
sg76
(lp4621
g69
(g70
g71
NtRp4622
(dp4623
g74
(dp4624
g82
I5
ssg83
g4618
sg76
(lp4625
g69
(g78
g71
NtRp4626
(dp4627
g74
(dp4628
g82
I4
ssg83
Nsg76
(lp4629
g69
(g85
g71
NtRp4630
(dp4631
g74
(dp4632
sg83
g4626
sg76
(lp4633
g69
(g90
g71
NtRp4634
(dp4635
g74
(dp4636
sg83
g4630
sg76
(lp4637
g69
(g70
g71
NtRp4638
(dp4639
g74
(dp4640
g82
I4
ssg83
g4634
sg76
(lp4641
S'^\\w+\\.py$'
p4642
asbasbasbag69
(g85
g71
NtRp4643
(dp4644
g74
(dp4645
sg83
g4626
sg76
(lp4646
g69
(g90
g71
NtRp4647
(dp4648
g74
(dp4649
sg83
g4643
sg76
(lp4650
g69
(g70
g71
NtRp4651
(dp4652
g74
(dp4653
g82
I4
ssg83
g4647
sg76
(lp4654
S'^default/\\w+\\.py$'
p4655
asbasbasbag69
(g85
g71
NtRp4656
(dp4657
g74
(dp4658
sg83
g4626
sg76
(lp4659
g69
(g90
g71
NtRp4660
(dp4661
g74
(dp4662
sg83
g4656
sg76
(lp4663
g69
(g70
g71
NtRp4664
(dp4665
g74
(dp4666
g82
I4
ssg83
g4660
sg76
(lp4667
S'^default/first_page/\\w+\\.py$'
p4668
asbasbasbasbasbasbasbag69
(g85
g71
NtRp4669
(dp4670
g74
(dp4671
sg83
g3339
sg76
(lp4672
g69
(g90
g71
NtRp4673
(dp4674
g74
(dp4675
g94
g95
ssg83
g4669
sg76
(lp4676
S'postprocessing'
p4677
asbag69
(g90
g71
NtRp4678
(dp4679
g74
(dp4680
g101
g102
ssg83
g4669
sg76
(lp4681
S':'
asbag69
(g90
g71
NtRp4682
(dp4683
g74
(dp4684
sg83
g4669
sg76
(lp4685
g69
(g70
g71
NtRp4686
(dp4687
g74
(dp4688
g82
I5
ssg83
g4682
sg76
(lp4689
g69
(g78
g71
NtRp4690
(dp4691
g74
(dp4692
g82
I4
ssg83
Nsg76
(lp4693
sbasbasbasbag69
(g85
g71
NtRp4694
(dp4695
g74
(dp4696
sg83
g3339
sg76
(lp4697
g69
(g90
g71
NtRp4698
(dp4699
g74
(dp4700
g94
g95
ssg83
g4694
sg76
(lp4701
S'session_cookie_expires'
p4702
asbag69
(g90
g71
NtRp4703
(dp4704
g74
(dp4705
g101
g102
ssg83
g4694
sg76
(lp4706
S':'
asbag69
(g90
g71
NtRp4707
(dp4708
g74
(dp4709
sg83
g4694
sg76
(lp4710
g69
(g70
g71
NtRp4711
(dp4712
g74
(dp4713
g82
I5
ssg83
g4707
sg76
(lp4714
S'None'
p4715
asbasbasbag69
(g85
g71
NtRp4716
(dp4717
g74
(dp4718
sg83
g3339
sg76
(lp4719
g69
(g90
g71
NtRp4720
(dp4721
g74
(dp4722
g94
g95
ssg83
g4716
sg76
(lp4723
S'session_data_name'
p4724
asbag69
(g90
g71
NtRp4725
(dp4726
g74
(dp4727
g101
g102
ssg83
g4716
sg76
(lp4728
S':'
asbag69
(g90
g71
NtRp4729
(dp4730
g74
(dp4731
sg83
g4716
sg76
(lp4732
g69
(g70
g71
NtRp4733
(dp4734
g74
(dp4735
g82
I5
ssg83
g4729
sg76
(lp4736
S'session_data_assignmen3'
p4737
asbasbasbag69
(g85
g71
NtRp4738
(dp4739
g74
(dp4740
sg83
g3339
sg76
(lp4741
g69
(g90
g71
NtRp4742
(dp4743
g74
(dp4744
g94
g95
ssg83
g4738
sg76
(lp4745
S'session_file'
p4746
asbag69
(g90
g71
NtRp4747
(dp4748
g74
(dp4749
g101
g102
ssg83
g4738
sg76
(lp4750
S':'
asbag69
(g90
g71
NtRp4751
(dp4752
g74
(dp4753
sg83
g4738
sg76
(lp4754
g69
(g70
g71
NtRp4755
(dp4756
g74
(dp4757
g82
I5
ssg83
g4751
sg76
(lp4758
S"<open file '/home/umang/web2py/applications/assignmen3/sessions/127.0.0.1-29d2a057-a0f4-454d-a27a-8e10f33a428a', mode 'rb+' at 0x7fb3901f7390>"
p4759
asbasbasbag69
(g85
g71
NtRp4760
(dp4761
g74
(dp4762
sg83
g3339
sg76
(lp4763
g69
(g90
g71
NtRp4764
(dp4765
g74
(dp4766
g94
g95
ssg83
g4760
sg76
(lp4767
S'session_filename'
p4768
asbag69
(g90
g71
NtRp4769
(dp4770
g74
(dp4771
g101
g102
ssg83
g4760
sg76
(lp4772
S':'
asbag69
(g90
g71
NtRp4773
(dp4774
g74
(dp4775
sg83
g4760
sg76
(lp4776
g69
(g70
g71
NtRp4777
(dp4778
g74
(dp4779
g82
I5
ssg83
g4773
sg76
(lp4780
S'/home/umang/web2py/applications/assignmen3/sessions/127.0.0.1-29d2a057-a0f4-454d-a27a-8e10f33a428a'
p4781
asbasbasbag69
(g85
g71
NtRp4782
(dp4783
g74
(dp4784
sg83
g3339
sg76
(lp4785
g69
(g90
g71
NtRp4786
(dp4787
g74
(dp4788
g94
g95
ssg83
g4782
sg76
(lp4789
S'session_id'
p4790
asbag69
(g90
g71
NtRp4791
(dp4792
g74
(dp4793
g101
g102
ssg83
g4782
sg76
(lp4794
S':'
asbag69
(g90
g71
NtRp4795
(dp4796
g74
(dp4797
sg83
g4782
sg76
(lp4798
g69
(g70
g71
NtRp4799
(dp4800
g74
(dp4801
g82
I5
ssg83
g4795
sg76
(lp4802
g499
asbasbasbag69
(g85
g71
NtRp4803
(dp4804
g74
(dp4805
sg83
g3339
sg76
(lp4806
g69
(g90
g71
NtRp4807
(dp4808
g74
(dp4809
g94
g95
ssg83
g4803
sg76
(lp4810
S'session_id_name'
p4811
asbag69
(g90
g71
NtRp4812
(dp4813
g74
(dp4814
g101
g102
ssg83
g4803
sg76
(lp4815
S':'
asbag69
(g90
g71
NtRp4816
(dp4817
g74
(dp4818
sg83
g4803
sg76
(lp4819
g69
(g70
g71
NtRp4820
(dp4821
g74
(dp4822
g82
I5
ssg83
g4816
sg76
(lp4823
g3396
asbasbasbag69
(g85
g71
NtRp4824
(dp4825
g74
(dp4826
sg83
g3339
sg76
(lp4827
g69
(g90
g71
NtRp4828
(dp4829
g74
(dp4830
g94
g95
ssg83
g4824
sg76
(lp4831
S'session_locked'
p4832
asbag69
(g90
g71
NtRp4833
(dp4834
g74
(dp4835
g101
g102
ssg83
g4824
sg76
(lp4836
S':'
asbag69
(g90
g71
NtRp4837
(dp4838
g74
(dp4839
sg83
g4824
sg76
(lp4840
g69
(g70
g71
NtRp4841
(dp4842
g74
(dp4843
g82
I5
ssg83
g4837
sg76
(lp4844
g1793
asbasbasbag69
(g85
g71
NtRp4845
(dp4846
g74
(dp4847
sg83
g3339
sg76
(lp4848
g69
(g90
g71
NtRp4849
(dp4850
g74
(dp4851
g94
g95
ssg83
g4845
sg76
(lp4852
S'session_new'
p4853
asbag69
(g90
g71
NtRp4854
(dp4855
g74
(dp4856
g101
g102
ssg83
g4845
sg76
(lp4857
S':'
asbag69
(g90
g71
NtRp4858
(dp4859
g74
(dp4860
sg83
g4845
sg76
(lp4861
g69
(g70
g71
NtRp4862
(dp4863
g74
(dp4864
g82
I5
ssg83
g4858
sg76
(lp4865
g112
asbasbasbag69
(g85
g71
NtRp4866
(dp4867
g74
(dp4868
sg83
g3339
sg76
(lp4869
g69
(g90
g71
NtRp4870
(dp4871
g74
(dp4872
g94
g95
ssg83
g4866
sg76
(lp4873
S'session_storage_type'
p4874
asbag69
(g90
g71
NtRp4875
(dp4876
g74
(dp4877
g101
g102
ssg83
g4866
sg76
(lp4878
S':'
asbag69
(g90
g71
NtRp4879
(dp4880
g74
(dp4881
sg83
g4866
sg76
(lp4882
g69
(g70
g71
NtRp4883
(dp4884
g74
(dp4885
g82
I5
ssg83
g4879
sg76
(lp4886
g3224
asbasbasbag69
(g85
g71
NtRp4887
(dp4888
g74
(dp4889
sg83
g3339
sg76
(lp4890
g69
(g90
g71
NtRp4891
(dp4892
g74
(dp4893
g94
g95
ssg83
g4887
sg76
(lp4894
S'status'
p4895
asbag69
(g90
g71
NtRp4896
(dp4897
g74
(dp4898
g101
g102
ssg83
g4887
sg76
(lp4899
S':'
asbag69
(g90
g71
NtRp4900
(dp4901
g74
(dp4902
sg83
g4887
sg76
(lp4903
g69
(g70
g71
NtRp4904
(dp4905
g74
(dp4906
g82
I5
ssg83
g4900
sg76
(lp4907
S'200'
p4908
asbasbasbag69
(g85
g71
NtRp4909
(dp4910
g74
(dp4911
sg83
g3339
sg76
(lp4912
g69
(g90
g71
NtRp4913
(dp4914
g74
(dp4915
g94
g95
ssg83
g4909
sg76
(lp4916
S'subtitle'
p4917
asbag69
(g90
g71
NtRp4918
(dp4919
g74
(dp4920
g101
g102
ssg83
g4909
sg76
(lp4921
S':'
asbag69
(g90
g71
NtRp4922
(dp4923
g74
(dp4924
sg83
g4909
sg76
(lp4925
g69
(g70
g71
NtRp4926
(dp4927
g74
(dp4928
g82
I5
ssg83
g4922
sg76
(lp4929
g3873
(S's\r\x00\x00\x00customize me!'
tRp4930
asbasbasbag69
(g85
g71
NtRp4931
(dp4932
g74
(dp4933
sg83
g3339
sg76
(lp4934
g69
(g90
g71
NtRp4935
(dp4936
g74
(dp4937
g94
g95
ssg83
g4931
sg76
(lp4938
S'title'
p4939
asbag69
(g90
g71
NtRp4940
(dp4941
g74
(dp4942
g101
g102
ssg83
g4931
sg76
(lp4943
S':'
asbag69
(g90
g71
NtRp4944
(dp4945
g74
(dp4946
sg83
g4931
sg76
(lp4947
g69
(g70
g71
NtRp4948
(dp4949
g74
(dp4950
g82
I5
ssg83
g4944
sg76
(lp4951
S'Assignmen3'
p4952
asbasbasbag69
(g85
g71
NtRp4953
(dp4954
g74
(dp4955
sg83
g3339
sg76
(lp4956
g69
(g90
g71
NtRp4957
(dp4958
g74
(dp4959
g94
g95
ssg83
g4953
sg76
(lp4960
S'view'
p4961
asbag69
(g90
g71
NtRp4962
(dp4963
g74
(dp4964
g101
g102
ssg83
g4953
sg76
(lp4965
S':'
asbag69
(g90
g71
NtRp4966
(dp4967
g74
(dp4968
sg83
g4953
sg76
(lp4969
g69
(g70
g71
NtRp4970
(dp4971
g74
(dp4972
g82
I5
ssg83
g4966
sg76
(lp4973
S'default/first_page.html'
p4974
asbasbasbasbasbsS'locals'
p4975
(dp4976
g4
S"'/home/umang/web2py/applications/assignmen3/controllers/default.py'"
p4977
sg6
S"'# -*- coding: utf-8 -*-\\n# this file is released ...())\\n\\nresponse._vars=response._caller(first_page)\\n'"
p4978
sssS'traceback'
p4979
S'Traceback (most recent call last):\n  File "/home/umang/web2py/gluon/restricted.py", line 211, in restricted\n    ccode = compile2(code, layer)\n  File "/home/umang/web2py/gluon/restricted.py", line 194, in compile2\n    return compile(code.rstrip().replace(\'\\r\\n\', \'\\n\') + \'\\n\', layer, \'exec\')\n  File "/home/umang/web2py/applications/assignmen3/controllers/default.py", line 36\n    redirect(URL(r=request,f=\'login_admin\'))3\n                                            ^\nSyntaxError: invalid syntax\n'
p4980
s.